ARM GAS  /tmp/cczXzW7i.s 			page 1


   1              		.cpu cortex-m4
   2              		.eabi_attribute 27, 1
   3              		.eabi_attribute 28, 1
   4              		.eabi_attribute 20, 1
   5              		.eabi_attribute 21, 1
   6              		.eabi_attribute 23, 3
   7              		.eabi_attribute 24, 1
   8              		.eabi_attribute 25, 1
   9              		.eabi_attribute 26, 1
  10              		.eabi_attribute 30, 2
  11              		.eabi_attribute 34, 1
  12              		.eabi_attribute 18, 4
  13              		.file	"bldc_interface.c"
  14              		.text
  15              	.Ltext0:
  16              		.cfi_sections	.debug_frame
  17              		.section	.text.send_packet_no_fwd.part.0,"ax",%progbits
  18              		.align	1
  19              		.p2align 4,,15
  20              		.syntax unified
  21              		.thumb
  22              		.thumb_func
  23              		.fpu fpv4-sp-d16
  24              		.type	send_packet_no_fwd.part.0, %function
  25              	send_packet_no_fwd.part.0:
  26              	.LFB270:
  27              		.file 1 "bldc_interface.c"
  28              		.loc 1 907 0
  29              		.cfi_startproc
  30              		@ args = 0, pretend = 0, frame = 0
  31              		@ frame_needed = 0, uses_anonymous_args = 0
  32              		@ link register save eliminated.
  33              	.LVL0:
  34              	.LBB46:
  35              	.LBB47:
  36              		.loc 1 93 0
  37 0000 024B     		ldr	r3, .L4
  38 0002 1B68     		ldr	r3, [r3]
  39 0004 03B1     		cbz	r3, .L1
  40              		.loc 1 94 0
  41 0006 1847     		bx	r3	@ indirect register sibling call
  42              	.LVL1:
  43              	.L1:
  44              	.LBE47:
  45              	.LBE46:
  46              		.loc 1 911 0
  47 0008 7047     		bx	lr
  48              	.L5:
  49 000a 00BF     		.align	2
  50              	.L4:
  51 000c 00000000 		.word	.LANCHOR0
  52              		.cfi_endproc
  53              	.LFE270:
  54              		.size	send_packet_no_fwd.part.0, .-send_packet_no_fwd.part.0
  55              		.section	.text.bldc_interface_init,"ax",%progbits
  56              		.align	1
  57              		.p2align 4,,15
ARM GAS  /tmp/cczXzW7i.s 			page 2


  58              		.global	bldc_interface_init
  59              		.syntax unified
  60              		.thumb
  61              		.thumb_func
  62              		.fpu fpv4-sp-d16
  63              		.type	bldc_interface_init, %function
  64              	bldc_interface_init:
  65              	.LFB229:
  66              		.loc 1 75 0
  67              		.cfi_startproc
  68              		@ args = 0, pretend = 0, frame = 0
  69              		@ frame_needed = 0, uses_anonymous_args = 0
  70              		@ link register save eliminated.
  71              	.LVL2:
  72              		.loc 1 76 0
  73 0000 014B     		ldr	r3, .L7
  74 0002 1860     		str	r0, [r3]
  75              		.loc 1 77 0
  76 0004 7047     		bx	lr
  77              	.L8:
  78 0006 00BF     		.align	2
  79              	.L7:
  80 0008 00000000 		.word	.LANCHOR0
  81              		.cfi_endproc
  82              	.LFE229:
  83              		.size	bldc_interface_init, .-bldc_interface_init
  84              		.section	.text.bldc_interface_set_forward_func,"ax",%progbits
  85              		.align	1
  86              		.p2align 4,,15
  87              		.global	bldc_interface_set_forward_func
  88              		.syntax unified
  89              		.thumb
  90              		.thumb_func
  91              		.fpu fpv4-sp-d16
  92              		.type	bldc_interface_set_forward_func, %function
  93              	bldc_interface_set_forward_func:
  94              	.LFB230:
  95              		.loc 1 79 0
  96              		.cfi_startproc
  97              		@ args = 0, pretend = 0, frame = 0
  98              		@ frame_needed = 0, uses_anonymous_args = 0
  99              		@ link register save eliminated.
 100              	.LVL3:
 101              		.loc 1 80 0
 102 0000 014B     		ldr	r3, .L10
 103 0002 1860     		str	r0, [r3]
 104              		.loc 1 81 0
 105 0004 7047     		bx	lr
 106              	.L11:
 107 0006 00BF     		.align	2
 108              	.L10:
 109 0008 00000000 		.word	.LANCHOR1
 110              		.cfi_endproc
 111              	.LFE230:
 112              		.size	bldc_interface_set_forward_func, .-bldc_interface_set_forward_func
 113              		.section	.text.bldc_interface_send_packet,"ax",%progbits
 114              		.align	1
ARM GAS  /tmp/cczXzW7i.s 			page 3


 115              		.p2align 4,,15
 116              		.global	bldc_interface_send_packet
 117              		.syntax unified
 118              		.thumb
 119              		.thumb_func
 120              		.fpu fpv4-sp-d16
 121              		.type	bldc_interface_send_packet, %function
 122              	bldc_interface_send_packet:
 123              	.LFB231:
 124              		.loc 1 92 0
 125              		.cfi_startproc
 126              		@ args = 0, pretend = 0, frame = 0
 127              		@ frame_needed = 0, uses_anonymous_args = 0
 128              		@ link register save eliminated.
 129              	.LVL4:
 130              		.loc 1 93 0
 131 0000 024B     		ldr	r3, .L14
 132 0002 1B68     		ldr	r3, [r3]
 133 0004 03B1     		cbz	r3, .L12
 134              		.loc 1 94 0
 135 0006 1847     		bx	r3	@ indirect register sibling call
 136              	.LVL5:
 137              	.L12:
 138              		.loc 1 96 0
 139 0008 7047     		bx	lr
 140              	.L15:
 141 000a 00BF     		.align	2
 142              	.L14:
 143 000c 00000000 		.word	.LANCHOR0
 144              		.cfi_endproc
 145              	.LFE231:
 146              		.size	bldc_interface_send_packet, .-bldc_interface_send_packet
 147              		.section	.text.bldc_interface_process_packet,"ax",%progbits
 148              		.align	1
 149              		.p2align 4,,15
 150              		.global	bldc_interface_process_packet
 151              		.syntax unified
 152              		.thumb
 153              		.thumb_func
 154              		.fpu fpv4-sp-d16
 155              		.type	bldc_interface_process_packet, %function
 156              	bldc_interface_process_packet:
 157              	.LFB232:
 158              		.loc 1 107 0
 159              		.cfi_startproc
 160              		@ args = 0, pretend = 0, frame = 16
 161              		@ frame_needed = 0, uses_anonymous_args = 0
 162              	.LVL6:
 163              		.loc 1 108 0
 164 0000 39B1     		cbz	r1, .L75
 165              		.loc 1 107 0
 166 0002 F0B5     		push	{r4, r5, r6, r7, lr}
 167              		.cfi_def_cfa_offset 20
 168              		.cfi_offset 4, -20
 169              		.cfi_offset 5, -16
 170              		.cfi_offset 6, -12
 171              		.cfi_offset 7, -8
ARM GAS  /tmp/cczXzW7i.s 			page 4


 172              		.cfi_offset 14, -4
 173              		.loc 1 112 0
 174 0004 444C     		ldr	r4, .L82
 175 0006 2468     		ldr	r4, [r4]
 176              		.loc 1 107 0
 177 0008 85B0     		sub	sp, sp, #20
 178              		.cfi_def_cfa_offset 40
 179              		.loc 1 112 0
 180 000a 1CB1     		cbz	r4, .L18
 181              		.loc 1 113 0
 182 000c A047     		blx	r4
 183              	.LVL7:
 184              	.L16:
 185              		.loc 1 480 0
 186 000e 05B0     		add	sp, sp, #20
 187              		.cfi_def_cfa_offset 20
 188              		@ sp needed
 189 0010 F0BD     		pop	{r4, r5, r6, r7, pc}
 190              	.LVL8:
 191              	.L75:
 192              		.cfi_def_cfa_offset 0
 193              		.cfi_restore 4
 194              		.cfi_restore 5
 195              		.cfi_restore 6
 196              		.cfi_restore 7
 197              		.cfi_restore 14
 198 0012 7047     		bx	lr
 199              	.L18:
 200              		.cfi_def_cfa_offset 40
 201              		.cfi_offset 4, -20
 202              		.cfi_offset 5, -16
 203              		.cfi_offset 6, -12
 204              		.cfi_offset 7, -8
 205              		.cfi_offset 14, -4
 206 0014 0A46     		mov	r2, r1
 207              		.loc 1 123 0
 208 0016 0178     		ldrb	r1, [r0]	@ zero_extendqisi2
 209              	.LVL9:
 210              		.loc 1 117 0
 211 0018 0394     		str	r4, [sp, #12]
 212              	.LVL10:
 213              		.loc 1 123 0
 214 001a 0439     		subs	r1, r1, #4
 215 001c 0346     		mov	r3, r0
 216              		.loc 1 120 0
 217 001e 441C     		adds	r4, r0, #1
 218              	.LVL11:
 219              		.loc 1 123 0
 220 0020 1D29     		cmp	r1, #29
 221 0022 F4D8     		bhi	.L16
 222 0024 01A0     		adr	r0, .L21
 223 0026 50F821F0 		ldr	pc, [r0, r1, lsl #2]
 224              	.LVL12:
 225 002a 00BF     		.p2align 2
 226              	.L21:
 227 002c 35090000 		.word	.L20+1
 228 0030 0F000000 		.word	.L16+1
ARM GAS  /tmp/cczXzW7i.s 			page 5


 229 0034 0F000000 		.word	.L16+1
 230 0038 0F000000 		.word	.L16+1
 231 003c 0F000000 		.word	.L16+1
 232 0040 0F000000 		.word	.L16+1
 233 0044 0F000000 		.word	.L16+1
 234 0048 0F000000 		.word	.L16+1
 235 004c 0F000000 		.word	.L16+1
 236 0050 27090000 		.word	.L22+1
 237 0054 75040000 		.word	.L23+1
 238 0058 75040000 		.word	.L23+1
 239 005c 5B040000 		.word	.L24+1
 240 0060 39010000 		.word	.L25+1
 241 0064 39010000 		.word	.L25+1
 242 0068 0F000000 		.word	.L16+1
 243 006c 0F000000 		.word	.L16+1
 244 0070 EF000000 		.word	.L26+1
 245 0074 D7000000 		.word	.L27+1
 246 0078 0F000000 		.word	.L16+1
 247 007c 4D0A0000 		.word	.L28+1
 248 0080 0F000000 		.word	.L16+1
 249 0084 0F000000 		.word	.L16+1
 250 0088 0F000000 		.word	.L16+1
 251 008c 0F000000 		.word	.L16+1
 252 0090 0F000000 		.word	.L16+1
 253 0094 0F000000 		.word	.L16+1
 254 0098 A90A0000 		.word	.L29+1
 255 009c A5000000 		.word	.L30+1
 256 00a0 01010000 		.word	.L31+1
 257              		.p2align 1
 258              	.L30:
 259              		.loc 1 445 0
 260 00a4 03A9     		add	r1, sp, #12
 261 00a6 2046     		mov	r0, r4
 262 00a8 9FED1C0A 		vldr.32	s0, .L82+4
 263 00ac 1C4D     		ldr	r5, .L82+8
 264 00ae FFF7FEFF 		bl	buffer_get_float32
 265              	.LVL13:
 266              		.loc 1 446 0
 267 00b2 03A9     		add	r1, sp, #12
 268              		.loc 1 445 0
 269 00b4 85ED000A 		vstr.32	s0, [r5]
 270              		.loc 1 446 0
 271 00b8 2046     		mov	r0, r4
 272 00ba 9FED180A 		vldr.32	s0, .L82+4
 273 00be FFF7FEFF 		bl	buffer_get_float32
 274              	.LVL14:
 275              		.loc 1 449 0
 276 00c2 184B     		ldr	r3, .L82+12
 277 00c4 1B68     		ldr	r3, [r3]
 278              		.loc 1 446 0
 279 00c6 F0EE400A 		vmov.f32	s1, s0
 280              		.loc 1 449 0
 281 00ca 002B     		cmp	r3, #0
 282 00cc 9FD0     		beq	.L16
 283              	.L80:
 284              		.loc 1 450 0
 285 00ce 95ED000A 		vldr.32	s0, [r5]
ARM GAS  /tmp/cczXzW7i.s 			page 6


 286 00d2 9847     		blx	r3
 287              	.LVL15:
 288 00d4 9BE7     		b	.L16
 289              	.LVL16:
 290              	.L27:
 291              		.loc 1 189 0
 292 00d6 2046     		mov	r0, r4
 293 00d8 03A9     		add	r1, sp, #12
 294 00da 9FED130A 		vldr.32	s0, .L82+16
 295 00de FFF7FEFF 		bl	buffer_get_float32
 296              	.LVL17:
 297              		.loc 1 191 0
 298 00e2 124B     		ldr	r3, .L82+20
 299 00e4 1B68     		ldr	r3, [r3]
 300 00e6 002B     		cmp	r3, #0
 301 00e8 91D0     		beq	.L16
 302              	.L79:
 303              		.loc 1 459 0
 304 00ea 9847     		blx	r3
 305              	.LVL18:
 306 00ec 8FE7     		b	.L16
 307              	.LVL19:
 308              	.L26:
 309              		.loc 1 177 0
 310 00ee 1049     		ldr	r1, .L82+24
 311 00f0 0968     		ldr	r1, [r1]
 312 00f2 0029     		cmp	r1, #0
 313 00f4 8BD0     		beq	.L16
 314              		.loc 1 178 0
 315 00f6 0025     		movs	r5, #0
 316              		.loc 1 179 0
 317 00f8 2046     		mov	r0, r4
 318              		.loc 1 178 0
 319 00fa 9D54     		strb	r5, [r3, r2]
 320              	.LVL20:
 321              		.loc 1 179 0
 322 00fc 8847     		blx	r1
 323              	.LVL21:
 324 00fe 86E7     		b	.L16
 325              	.LVL22:
 326              	.L31:
 327              		.loc 1 456 0
 328 0100 2046     		mov	r0, r4
 329 0102 03A9     		add	r1, sp, #12
 330 0104 9FED050A 		vldr.32	s0, .L82+4
 331 0108 FFF7FEFF 		bl	buffer_get_float32
 332              	.LVL23:
 333              		.loc 1 458 0
 334 010c 094B     		ldr	r3, .L82+28
 335 010e 1B68     		ldr	r3, [r3]
 336 0110 002B     		cmp	r3, #0
 337 0112 EAD1     		bne	.L79
 338 0114 7BE7     		b	.L16
 339              	.L83:
 340 0116 00BF     		.align	2
 341              	.L82:
 342 0118 00000000 		.word	.LANCHOR1
ARM GAS  /tmp/cczXzW7i.s 			page 7


 343 011c 00247449 		.word	1232348160
 344 0120 00000000 		.word	.LANCHOR15
 345 0124 00000000 		.word	.LANCHOR16
 346 0128 0050C347 		.word	1203982336
 347 012c 00000000 		.word	.LANCHOR5
 348 0130 00000000 		.word	.LANCHOR4
 349 0134 00000000 		.word	.LANCHOR17
 350              	.LVL24:
 351              	.L25:
 352              		.loc 1 324 0
 353 0138 04AE     		add	r6, sp, #16
 354 013a 0122     		movs	r2, #1
 355              	.LVL25:
 356 013c 46F8042D 		str	r2, [r6, #-4]!
 357 0140 C94D     		ldr	r5, .L84
 358 0142 5B78     		ldrb	r3, [r3, #1]	@ zero_extendqisi2
 359              	.LVL26:
 360 0144 2B70     		strb	r3, [r5]
 361              	.LVL27:
 362              		.loc 1 325 0
 363 0146 3146     		mov	r1, r6
 364 0148 2046     		mov	r0, r4
 365 014a FFF7FEFF 		bl	buffer_get_uint32
 366              	.LVL28:
 367              		.loc 1 326 0
 368 014e 3146     		mov	r1, r6
 369              		.loc 1 325 0
 370 0150 6860     		str	r0, [r5, #4]
 371              		.loc 1 326 0
 372 0152 2046     		mov	r0, r4
 373 0154 FFF7FEFF 		bl	buffer_get_float32_auto
 374              	.LVL29:
 375              		.loc 1 327 0
 376 0158 039B     		ldr	r3, [sp, #12]
 377              		.loc 1 326 0
 378 015a 85ED020A 		vstr.32	s0, [r5, #8]
 379              		.loc 1 327 0
 380 015e E25C     		ldrb	r2, [r4, r3]	@ zero_extendqisi2
 381 0160 0032     		adds	r2, r2, #0
 382 0162 18BF     		it	ne
 383 0164 0122     		movne	r2, #1
 384 0166 0133     		adds	r3, r3, #1
 385              		.loc 1 328 0
 386 0168 3146     		mov	r1, r6
 387 016a 2046     		mov	r0, r4
 388              		.loc 1 327 0
 389 016c 2A73     		strb	r2, [r5, #12]
 390 016e 0393     		str	r3, [sp, #12]
 391              		.loc 1 328 0
 392 0170 FFF7FEFF 		bl	buffer_get_uint16
 393              	.LVL30:
 394              		.loc 1 329 0
 395 0174 039B     		ldr	r3, [sp, #12]
 396              		.loc 1 328 0
 397 0176 2861     		str	r0, [r5, #16]
 398              		.loc 1 329 0
 399 0178 E25C     		ldrb	r2, [r4, r3]	@ zero_extendqisi2
ARM GAS  /tmp/cczXzW7i.s 			page 8


 400 017a 2A75     		strb	r2, [r5, #20]
 401              		.loc 1 331 0
 402 017c E218     		adds	r2, r4, r3
 403              		.loc 1 334 0
 404 017e 2046     		mov	r0, r4
 405              		.loc 1 331 0
 406 0180 5178     		ldrb	r1, [r2, #1]	@ zero_extendqisi2
 407 0182 6975     		strb	r1, [r5, #21]
 408              		.loc 1 333 0
 409 0184 0333     		adds	r3, r3, #3
 410 0186 9278     		ldrb	r2, [r2, #2]	@ zero_extendqisi2
 411 0188 0393     		str	r3, [sp, #12]
 412              		.loc 1 334 0
 413 018a 3146     		mov	r1, r6
 414              		.loc 1 333 0
 415 018c 2A76     		strb	r2, [r5, #24]
 416              		.loc 1 334 0
 417 018e FFF7FEFF 		bl	buffer_get_float32_auto
 418              	.LVL31:
 419              		.loc 1 335 0
 420 0192 2046     		mov	r0, r4
 421 0194 3146     		mov	r1, r6
 422              		.loc 1 334 0
 423 0196 85ED070A 		vstr.32	s0, [r5, #28]
 424              		.loc 1 335 0
 425 019a FFF7FEFF 		bl	buffer_get_float32_auto
 426              	.LVL32:
 427              		.loc 1 336 0
 428 019e 2046     		mov	r0, r4
 429 01a0 3146     		mov	r1, r6
 430              		.loc 1 335 0
 431 01a2 85ED080A 		vstr.32	s0, [r5, #32]
 432              		.loc 1 336 0
 433 01a6 FFF7FEFF 		bl	buffer_get_float32_auto
 434              	.LVL33:
 435              		.loc 1 337 0
 436 01aa 2046     		mov	r0, r4
 437 01ac 3146     		mov	r1, r6
 438              		.loc 1 336 0
 439 01ae 85ED090A 		vstr.32	s0, [r5, #36]
 440              		.loc 1 337 0
 441 01b2 FFF7FEFF 		bl	buffer_get_float32_auto
 442              	.LVL34:
 443              		.loc 1 338 0
 444 01b6 2046     		mov	r0, r4
 445 01b8 3146     		mov	r1, r6
 446              		.loc 1 337 0
 447 01ba 85ED0A0A 		vstr.32	s0, [r5, #40]
 448              		.loc 1 338 0
 449 01be FFF7FEFF 		bl	buffer_get_float32_auto
 450              	.LVL35:
 451              		.loc 1 339 0
 452 01c2 039B     		ldr	r3, [sp, #12]
 453              		.loc 1 338 0
 454 01c4 85ED0B0A 		vstr.32	s0, [r5, #44]
 455              		.loc 1 339 0
 456 01c8 E25C     		ldrb	r2, [r4, r3]	@ zero_extendqisi2
ARM GAS  /tmp/cczXzW7i.s 			page 9


 457 01ca 0032     		adds	r2, r2, #0
 458              		.loc 1 340 0
 459 01cc 04EB0301 		add	r1, r4, r3
 460              		.loc 1 339 0
 461 01d0 18BF     		it	ne
 462 01d2 0122     		movne	r2, #1
 463 01d4 85F83020 		strb	r2, [r5, #48]
 464              		.loc 1 340 0
 465 01d8 4A78     		ldrb	r2, [r1, #1]	@ zero_extendqisi2
 466 01da 0032     		adds	r2, r2, #0
 467 01dc 18BF     		it	ne
 468 01de 0122     		movne	r2, #1
 469 01e0 0233     		adds	r3, r3, #2
 470              		.loc 1 341 0
 471 01e2 2046     		mov	r0, r4
 472 01e4 3146     		mov	r1, r6
 473              		.loc 1 340 0
 474 01e6 85F83120 		strb	r2, [r5, #49]
 475 01ea 0393     		str	r3, [sp, #12]
 476              		.loc 1 341 0
 477 01ec FFF7FEFF 		bl	buffer_get_float32_auto
 478              	.LVL36:
 479              		.loc 1 342 0
 480 01f0 2046     		mov	r0, r4
 481 01f2 3146     		mov	r1, r6
 482              		.loc 1 341 0
 483 01f4 85ED0D0A 		vstr.32	s0, [r5, #52]
 484              		.loc 1 342 0
 485 01f8 FFF7FEFF 		bl	buffer_get_float32_auto
 486              	.LVL37:
 487              		.loc 1 343 0
 488 01fc 039B     		ldr	r3, [sp, #12]
 489              		.loc 1 342 0
 490 01fe 85ED0E0A 		vstr.32	s0, [r5, #56]
 491              		.loc 1 343 0
 492 0202 E25C     		ldrb	r2, [r4, r3]	@ zero_extendqisi2
 493 0204 85F83C20 		strb	r2, [r5, #60]
 494 0208 0133     		adds	r3, r3, #1
 495              		.loc 1 344 0
 496 020a 2046     		mov	r0, r4
 497 020c 3146     		mov	r1, r6
 498              		.loc 1 343 0
 499 020e 0393     		str	r3, [sp, #12]
 500              		.loc 1 344 0
 501 0210 FFF7FEFF 		bl	buffer_get_float32_auto
 502              	.LVL38:
 503              		.loc 1 345 0
 504 0214 2046     		mov	r0, r4
 505 0216 3146     		mov	r1, r6
 506              		.loc 1 344 0
 507 0218 85ED100A 		vstr.32	s0, [r5, #64]
 508              		.loc 1 345 0
 509 021c FFF7FEFF 		bl	buffer_get_float32_auto
 510              	.LVL39:
 511              		.loc 1 346 0
 512 0220 039B     		ldr	r3, [sp, #12]
 513              		.loc 1 345 0
ARM GAS  /tmp/cczXzW7i.s 			page 10


 514 0222 85ED110A 		vstr.32	s0, [r5, #68]
 515              		.loc 1 346 0
 516 0226 E25C     		ldrb	r2, [r4, r3]	@ zero_extendqisi2
 517 0228 0032     		adds	r2, r2, #0
 518              		.loc 1 347 0
 519 022a 04EB0301 		add	r1, r4, r3
 520              		.loc 1 346 0
 521 022e 18BF     		it	ne
 522 0230 0122     		movne	r2, #1
 523 0232 85F84820 		strb	r2, [r5, #72]
 524              		.loc 1 347 0
 525 0236 4A78     		ldrb	r2, [r1, #1]	@ zero_extendqisi2
 526 0238 0032     		adds	r2, r2, #0
 527 023a 18BF     		it	ne
 528 023c 0122     		movne	r2, #1
 529 023e 0233     		adds	r3, r3, #2
 530              		.loc 1 348 0
 531 0240 2046     		mov	r0, r4
 532 0242 3146     		mov	r1, r6
 533              		.loc 1 347 0
 534 0244 85F84920 		strb	r2, [r5, #73]
 535 0248 0393     		str	r3, [sp, #12]
 536              		.loc 1 348 0
 537 024a FFF7FEFF 		bl	buffer_get_float32_auto
 538              	.LVL40:
 539              		.loc 1 350 0
 540 024e 039B     		ldr	r3, [sp, #12]
 541              		.loc 1 348 0
 542 0250 85ED130A 		vstr.32	s0, [r5, #76]
 543              		.loc 1 350 0
 544 0254 E25C     		ldrb	r2, [r4, r3]	@ zero_extendqisi2
 545 0256 85F85020 		strb	r2, [r5, #80]
 546 025a 0133     		adds	r3, r3, #1
 547              		.loc 1 351 0
 548 025c 2046     		mov	r0, r4
 549 025e 3146     		mov	r1, r6
 550              		.loc 1 350 0
 551 0260 0393     		str	r3, [sp, #12]
 552              		.loc 1 351 0
 553 0262 FFF7FEFF 		bl	buffer_get_float32_auto
 554              	.LVL41:
 555              		.loc 1 352 0
 556 0266 2046     		mov	r0, r4
 557 0268 3146     		mov	r1, r6
 558              		.loc 1 351 0
 559 026a 85ED150A 		vstr.32	s0, [r5, #84]
 560              		.loc 1 352 0
 561 026e FFF7FEFF 		bl	buffer_get_float32_auto
 562              	.LVL42:
 563              		.loc 1 353 0
 564 0272 2046     		mov	r0, r4
 565 0274 3146     		mov	r1, r6
 566              		.loc 1 352 0
 567 0276 85ED160A 		vstr.32	s0, [r5, #88]
 568              		.loc 1 353 0
 569 027a FFF7FEFF 		bl	buffer_get_float32_auto
 570              	.LVL43:
ARM GAS  /tmp/cczXzW7i.s 			page 11


 571              		.loc 1 354 0
 572 027e 2046     		mov	r0, r4
 573 0280 3146     		mov	r1, r6
 574              		.loc 1 353 0
 575 0282 85ED170A 		vstr.32	s0, [r5, #92]
 576              		.loc 1 354 0
 577 0286 FFF7FEFF 		bl	buffer_get_float32_auto
 578              	.LVL44:
 579              		.loc 1 355 0
 580 028a 2046     		mov	r0, r4
 581 028c 3146     		mov	r1, r6
 582              		.loc 1 354 0
 583 028e 85ED180A 		vstr.32	s0, [r5, #96]
 584              		.loc 1 355 0
 585 0292 FFF7FEFF 		bl	buffer_get_float32_auto
 586              	.LVL45:
 587              		.loc 1 356 0
 588 0296 2046     		mov	r0, r4
 589 0298 3146     		mov	r1, r6
 590              		.loc 1 355 0
 591 029a 85ED190A 		vstr.32	s0, [r5, #100]
 592              		.loc 1 356 0
 593 029e FFF7FEFF 		bl	buffer_get_float32_auto
 594              	.LVL46:
 595              		.loc 1 357 0
 596 02a2 039B     		ldr	r3, [sp, #12]
 597              		.loc 1 356 0
 598 02a4 85ED1A0A 		vstr.32	s0, [r5, #104]
 599              		.loc 1 357 0
 600 02a8 E15C     		ldrb	r1, [r4, r3]	@ zero_extendqisi2
 601 02aa 0031     		adds	r1, r1, #0
 602              		.loc 1 358 0
 603 02ac 04EB0302 		add	r2, r4, r3
 604              		.loc 1 357 0
 605 02b0 18BF     		it	ne
 606 02b2 0121     		movne	r1, #1
 607 02b4 85F86C10 		strb	r1, [r5, #108]
 608              		.loc 1 358 0
 609 02b8 5178     		ldrb	r1, [r2, #1]	@ zero_extendqisi2
 610 02ba 0031     		adds	r1, r1, #0
 611 02bc 18BF     		it	ne
 612 02be 0121     		movne	r1, #1
 613 02c0 85F86D10 		strb	r1, [r5, #109]
 614              		.loc 1 359 0
 615 02c4 9178     		ldrb	r1, [r2, #2]	@ zero_extendqisi2
 616 02c6 0031     		adds	r1, r1, #0
 617 02c8 18BF     		it	ne
 618 02ca 0121     		movne	r1, #1
 619 02cc 85F86E10 		strb	r1, [r5, #110]
 620              		.loc 1 360 0
 621 02d0 D178     		ldrb	r1, [r2, #3]	@ zero_extendqisi2
 622 02d2 0031     		adds	r1, r1, #0
 623 02d4 18BF     		it	ne
 624 02d6 0121     		movne	r1, #1
 625 02d8 85F86F10 		strb	r1, [r5, #111]
 626              		.loc 1 361 0
 627 02dc 1179     		ldrb	r1, [r2, #4]	@ zero_extendqisi2
ARM GAS  /tmp/cczXzW7i.s 			page 12


 628 02de 0031     		adds	r1, r1, #0
 629 02e0 18BF     		it	ne
 630 02e2 0121     		movne	r1, #1
 631 02e4 85F87010 		strb	r1, [r5, #112]
 632              		.loc 1 362 0
 633 02e8 5279     		ldrb	r2, [r2, #5]	@ zero_extendqisi2
 634 02ea 0032     		adds	r2, r2, #0
 635 02ec 18BF     		it	ne
 636 02ee 0122     		movne	r2, #1
 637 02f0 0633     		adds	r3, r3, #6
 638              		.loc 1 363 0
 639 02f2 2046     		mov	r0, r4
 640 02f4 3146     		mov	r1, r6
 641              		.loc 1 362 0
 642 02f6 0393     		str	r3, [sp, #12]
 643 02f8 85F87120 		strb	r2, [r5, #113]
 644              		.loc 1 363 0
 645 02fc FFF7FEFF 		bl	buffer_get_float32_auto
 646              	.LVL47:
 647              		.loc 1 364 0
 648 0300 2046     		mov	r0, r4
 649 0302 3146     		mov	r1, r6
 650              		.loc 1 363 0
 651 0304 85ED1D0A 		vstr.32	s0, [r5, #116]
 652              		.loc 1 364 0
 653 0308 FFF7FEFF 		bl	buffer_get_float32_auto
 654              	.LVL48:
 655              		.loc 1 365 0
 656 030c 039B     		ldr	r3, [sp, #12]
 657              		.loc 1 364 0
 658 030e 85ED1E0A 		vstr.32	s0, [r5, #120]
 659              		.loc 1 365 0
 660 0312 E25C     		ldrb	r2, [r4, r3]	@ zero_extendqisi2
 661 0314 85F87C20 		strb	r2, [r5, #124]
 662 0318 0133     		adds	r3, r3, #1
 663              		.loc 1 366 0
 664 031a 2046     		mov	r0, r4
 665 031c 3146     		mov	r1, r6
 666              		.loc 1 365 0
 667 031e 0393     		str	r3, [sp, #12]
 668              		.loc 1 366 0
 669 0320 FFF7FEFF 		bl	buffer_get_float32_auto
 670              	.LVL49:
 671              		.loc 1 367 0
 672 0324 2046     		mov	r0, r4
 673 0326 3146     		mov	r1, r6
 674              		.loc 1 366 0
 675 0328 85ED200A 		vstr.32	s0, [r5, #128]
 676              		.loc 1 367 0
 677 032c FFF7FEFF 		bl	buffer_get_float32_auto
 678              	.LVL50:
 679              		.loc 1 368 0
 680 0330 039B     		ldr	r3, [sp, #12]
 681              		.loc 1 367 0
 682 0332 85ED210A 		vstr.32	s0, [r5, #132]
 683              		.loc 1 368 0
 684 0336 E25C     		ldrb	r2, [r4, r3]	@ zero_extendqisi2
ARM GAS  /tmp/cczXzW7i.s 			page 13


 685 0338 0032     		adds	r2, r2, #0
 686              		.loc 1 369 0
 687 033a 04EB0301 		add	r1, r4, r3
 688              		.loc 1 368 0
 689 033e 18BF     		it	ne
 690 0340 0122     		movne	r2, #1
 691 0342 85F88820 		strb	r2, [r5, #136]
 692              		.loc 1 369 0
 693 0346 4A78     		ldrb	r2, [r1, #1]	@ zero_extendqisi2
 694 0348 0032     		adds	r2, r2, #0
 695 034a 18BF     		it	ne
 696 034c 0122     		movne	r2, #1
 697 034e 0233     		adds	r3, r3, #2
 698              		.loc 1 370 0
 699 0350 2046     		mov	r0, r4
 700 0352 3146     		mov	r1, r6
 701              		.loc 1 369 0
 702 0354 85F88920 		strb	r2, [r5, #137]
 703 0358 0393     		str	r3, [sp, #12]
 704              		.loc 1 370 0
 705 035a FFF7FEFF 		bl	buffer_get_float32_auto
 706              	.LVL51:
 707              		.loc 1 371 0
 708 035e 3146     		mov	r1, r6
 709 0360 2046     		mov	r0, r4
 710              		.loc 1 370 0
 711 0362 85ED230A 		vstr.32	s0, [r5, #140]
 712              		.loc 1 371 0
 713 0366 FFF7FEFF 		bl	buffer_get_uint16
 714              	.LVL52:
 715              		.loc 1 373 0
 716 036a 3146     		mov	r1, r6
 717              		.loc 1 371 0
 718 036c C5F89000 		str	r0, [r5, #144]
 719              		.loc 1 373 0
 720 0370 2046     		mov	r0, r4
 721 0372 FFF7FEFF 		bl	buffer_get_uint32
 722              	.LVL53:
 723              		.loc 1 375 0
 724 0376 039B     		ldr	r3, [sp, #12]
 725              		.loc 1 373 0
 726 0378 C5F89400 		str	r0, [r5, #148]
 727              		.loc 1 375 0
 728 037c E25C     		ldrb	r2, [r4, r3]	@ zero_extendqisi2
 729 037e 85F89820 		strb	r2, [r5, #152]
 730 0382 0133     		adds	r3, r3, #1
 731              		.loc 1 376 0
 732 0384 2046     		mov	r0, r4
 733 0386 3146     		mov	r1, r6
 734              		.loc 1 375 0
 735 0388 0393     		str	r3, [sp, #12]
 736              		.loc 1 376 0
 737 038a FFF7FEFF 		bl	buffer_get_float32_auto
 738              	.LVL54:
 739              		.loc 1 377 0
 740 038e 2046     		mov	r0, r4
 741 0390 3146     		mov	r1, r6
ARM GAS  /tmp/cczXzW7i.s 			page 14


 742              		.loc 1 376 0
 743 0392 85ED270A 		vstr.32	s0, [r5, #156]
 744              		.loc 1 377 0
 745 0396 FFF7FEFF 		bl	buffer_get_float32_auto
 746              	.LVL55:
 747              		.loc 1 378 0
 748 039a 2046     		mov	r0, r4
 749 039c 3146     		mov	r1, r6
 750              		.loc 1 377 0
 751 039e 85ED280A 		vstr.32	s0, [r5, #160]
 752              		.loc 1 378 0
 753 03a2 FFF7FEFF 		bl	buffer_get_float32_auto
 754              	.LVL56:
 755              		.loc 1 379 0
 756 03a6 2046     		mov	r0, r4
 757 03a8 3146     		mov	r1, r6
 758              		.loc 1 378 0
 759 03aa 85ED290A 		vstr.32	s0, [r5, #164]
 760              		.loc 1 379 0
 761 03ae FFF7FEFF 		bl	buffer_get_float32_auto
 762              	.LVL57:
 763              		.loc 1 380 0
 764 03b2 2046     		mov	r0, r4
 765 03b4 3146     		mov	r1, r6
 766              		.loc 1 379 0
 767 03b6 85ED2A0A 		vstr.32	s0, [r5, #168]
 768              		.loc 1 380 0
 769 03ba FFF7FEFF 		bl	buffer_get_float32_auto
 770              	.LVL58:
 771              		.loc 1 381 0
 772 03be 2046     		mov	r0, r4
 773 03c0 3146     		mov	r1, r6
 774              		.loc 1 380 0
 775 03c2 85ED2B0A 		vstr.32	s0, [r5, #172]
 776              		.loc 1 381 0
 777 03c6 FFF7FEFF 		bl	buffer_get_float32_auto
 778              	.LVL59:
 779              		.loc 1 382 0
 780 03ca 039B     		ldr	r3, [sp, #12]
 781              		.loc 1 381 0
 782 03cc 85ED2C0A 		vstr.32	s0, [r5, #176]
 783              		.loc 1 382 0
 784 03d0 E25C     		ldrb	r2, [r4, r3]	@ zero_extendqisi2
 785 03d2 85F8B420 		strb	r2, [r5, #180]
 786              		.loc 1 383 0
 787 03d6 E018     		adds	r0, r4, r3
 788              		.loc 1 385 0
 789 03d8 3146     		mov	r1, r6
 790              		.loc 1 383 0
 791 03da 4278     		ldrb	r2, [r0, #1]	@ zero_extendqisi2
 792 03dc 0032     		adds	r2, r2, #0
 793 03de 18BF     		it	ne
 794 03e0 0122     		movne	r2, #1
 795 03e2 85F8B520 		strb	r2, [r5, #181]
 796              		.loc 1 384 0
 797 03e6 8278     		ldrb	r2, [r0, #2]	@ zero_extendqisi2
 798 03e8 0032     		adds	r2, r2, #0
ARM GAS  /tmp/cczXzW7i.s 			page 15


 799 03ea 18BF     		it	ne
 800 03ec 0122     		movne	r2, #1
 801 03ee 0333     		adds	r3, r3, #3
 802              		.loc 1 385 0
 803 03f0 2046     		mov	r0, r4
 804              		.loc 1 384 0
 805 03f2 0393     		str	r3, [sp, #12]
 806 03f4 85F8B620 		strb	r2, [r5, #182]
 807              		.loc 1 385 0
 808 03f8 FFF7FEFF 		bl	buffer_get_float32_auto
 809              	.LVL60:
 810              		.loc 1 387 0
 811 03fc 039B     		ldr	r3, [sp, #12]
 812              		.loc 1 385 0
 813 03fe 85ED2E0A 		vstr.32	s0, [r5, #184]
 814              		.loc 1 387 0
 815 0402 E25C     		ldrb	r2, [r4, r3]	@ zero_extendqisi2
 816 0404 85F8BC20 		strb	r2, [r5, #188]
 817              		.loc 1 388 0
 818 0408 1C44     		add	r4, r4, r3
 819              	.LVL61:
 820              		.loc 1 393 0
 821 040a 2246     		mov	r2, r4
 822              		.loc 1 388 0
 823 040c 6178     		ldrb	r1, [r4, #1]	@ zero_extendqisi2
 824 040e 85F8BD10 		strb	r1, [r5, #189]
 825              		.loc 1 389 0
 826 0412 A178     		ldrb	r1, [r4, #2]	@ zero_extendqisi2
 827 0414 85F8BE10 		strb	r1, [r5, #190]
 828              		.loc 1 390 0
 829 0418 E178     		ldrb	r1, [r4, #3]	@ zero_extendqisi2
 830 041a 85F8BF10 		strb	r1, [r5, #191]
 831              		.loc 1 391 0
 832 041e 2179     		ldrb	r1, [r4, #4]	@ zero_extendqisi2
 833 0420 85F8C010 		strb	r1, [r5, #192]
 834              		.loc 1 392 0
 835 0424 6179     		ldrb	r1, [r4, #5]	@ zero_extendqisi2
 836 0426 85F8C110 		strb	r1, [r5, #193]
 837              		.loc 1 393 0
 838 042a 32F8060F 		ldrh	r0, [r2, #6]!	@ unaligned
 839              		.loc 1 397 0
 840 042e 0F49     		ldr	r1, .L84+4
 841              		.loc 1 393 0
 842 0430 9278     		ldrb	r2, [r2, #2]	@ zero_extendqisi2
 843 0432 85F8C420 		strb	r2, [r5, #196]
 844 0436 A5F8C200 		strh	r0, [r5, #194]	@ unaligned
 845              		.loc 1 395 0
 846 043a 627A     		ldrb	r2, [r4, #9]	@ zero_extendqisi2
 847              		.loc 1 397 0
 848 043c 0968     		ldr	r1, [r1]
 849              		.loc 1 395 0
 850 043e 0032     		adds	r2, r2, #0
 851 0440 03F10A03 		add	r3, r3, #10
 852 0444 18BF     		it	ne
 853 0446 0122     		movne	r2, #1
 854 0448 0393     		str	r3, [sp, #12]
 855 044a 85F8C520 		strb	r2, [r5, #197]
ARM GAS  /tmp/cczXzW7i.s 			page 16


 856              		.loc 1 397 0
 857 044e 0029     		cmp	r1, #0
 858 0450 3FF4DDAD 		beq	.L16
 859              		.loc 1 398 0
 860 0454 2846     		mov	r0, r5
 861 0456 8847     		blx	r1
 862              	.LVL62:
 863 0458 D9E5     		b	.L16
 864              	.LVL63:
 865              	.L24:
 866              		.loc 1 472 0
 867 045a 054B     		ldr	r3, .L84+8
 868              	.LVL64:
 869 045c 1B68     		ldr	r3, [r3]
 870 045e 002B     		cmp	r3, #0
 871 0460 3FF4D5AD 		beq	.L16
 872              	.L78:
 873              		.loc 1 473 0
 874 0464 9847     		blx	r3
 875              	.LVL65:
 876 0466 D2E5     		b	.L16
 877              	.L85:
 878              		.align	2
 879              	.L84:
 880 0468 00000000 		.word	.LANCHOR8
 881 046c 00000000 		.word	.LANCHOR9
 882 0470 00000000 		.word	.LANCHOR19
 883              	.LVL66:
 884              	.L23:
 885              		.loc 1 206 0
 886 0474 04AE     		add	r6, sp, #16
 887 0476 0422     		movs	r2, #4
 888              	.LVL67:
 889              		.loc 1 203 0
 890 0478 E54D     		ldr	r5, .L86
 891              		.loc 1 206 0
 892 047a 46F8042D 		str	r2, [r6, #-4]!
 893              		.loc 1 204 0
 894 047e 9878     		ldrb	r0, [r3, #2]	@ zero_extendqisi2
 895              		.loc 1 203 0
 896 0480 5A78     		ldrb	r2, [r3, #1]	@ zero_extendqisi2
 897 0482 2A70     		strb	r2, [r5]
 898              	.LVL68:
 899              		.loc 1 208 0
 900 0484 3146     		mov	r1, r6
 901              		.loc 1 205 0
 902 0486 DA78     		ldrb	r2, [r3, #3]	@ zero_extendqisi2
 903              		.loc 1 204 0
 904 0488 6870     		strb	r0, [r5, #1]
 905              		.loc 1 206 0
 906 048a 1B79     		ldrb	r3, [r3, #4]	@ zero_extendqisi2
 907              		.loc 1 205 0
 908 048c AA70     		strb	r2, [r5, #2]
 909              		.loc 1 208 0
 910 048e 2046     		mov	r0, r4
 911              		.loc 1 206 0
 912 0490 EB70     		strb	r3, [r5, #3]
ARM GAS  /tmp/cczXzW7i.s 			page 17


 913              		.loc 1 208 0
 914 0492 FFF7FEFF 		bl	buffer_get_float32_auto
 915              	.LVL69:
 916              		.loc 1 209 0
 917 0496 3146     		mov	r1, r6
 918 0498 2046     		mov	r0, r4
 919              		.loc 1 208 0
 920 049a 85ED010A 		vstr.32	s0, [r5, #4]
 921              		.loc 1 209 0
 922 049e FFF7FEFF 		bl	buffer_get_float32_auto
 923              	.LVL70:
 924              		.loc 1 210 0
 925 04a2 3146     		mov	r1, r6
 926 04a4 2046     		mov	r0, r4
 927              		.loc 1 209 0
 928 04a6 85ED020A 		vstr.32	s0, [r5, #8]
 929              		.loc 1 210 0
 930 04aa FFF7FEFF 		bl	buffer_get_float32_auto
 931              	.LVL71:
 932              		.loc 1 211 0
 933 04ae 3146     		mov	r1, r6
 934 04b0 2046     		mov	r0, r4
 935              		.loc 1 210 0
 936 04b2 85ED030A 		vstr.32	s0, [r5, #12]
 937              		.loc 1 211 0
 938 04b6 FFF7FEFF 		bl	buffer_get_float32_auto
 939              	.LVL72:
 940              		.loc 1 212 0
 941 04ba 3146     		mov	r1, r6
 942 04bc 2046     		mov	r0, r4
 943              		.loc 1 211 0
 944 04be 85ED040A 		vstr.32	s0, [r5, #16]
 945              		.loc 1 212 0
 946 04c2 FFF7FEFF 		bl	buffer_get_float32_auto
 947              	.LVL73:
 948              		.loc 1 213 0
 949 04c6 3146     		mov	r1, r6
 950 04c8 2046     		mov	r0, r4
 951              		.loc 1 212 0
 952 04ca 85ED050A 		vstr.32	s0, [r5, #20]
 953              		.loc 1 213 0
 954 04ce FFF7FEFF 		bl	buffer_get_float32_auto
 955              	.LVL74:
 956              		.loc 1 214 0
 957 04d2 3146     		mov	r1, r6
 958 04d4 2046     		mov	r0, r4
 959              		.loc 1 213 0
 960 04d6 85ED060A 		vstr.32	s0, [r5, #24]
 961              		.loc 1 214 0
 962 04da FFF7FEFF 		bl	buffer_get_float32_auto
 963              	.LVL75:
 964              		.loc 1 215 0
 965 04de 3146     		mov	r1, r6
 966 04e0 2046     		mov	r0, r4
 967              		.loc 1 214 0
 968 04e2 85ED070A 		vstr.32	s0, [r5, #28]
 969              		.loc 1 215 0
ARM GAS  /tmp/cczXzW7i.s 			page 18


 970 04e6 FFF7FEFF 		bl	buffer_get_float32_auto
 971              	.LVL76:
 972              		.loc 1 216 0
 973 04ea 3146     		mov	r1, r6
 974 04ec 2046     		mov	r0, r4
 975              		.loc 1 215 0
 976 04ee 85ED080A 		vstr.32	s0, [r5, #32]
 977              		.loc 1 216 0
 978 04f2 FFF7FEFF 		bl	buffer_get_float32_auto
 979              	.LVL77:
 980              		.loc 1 217 0
 981 04f6 3146     		mov	r1, r6
 982 04f8 2046     		mov	r0, r4
 983              		.loc 1 216 0
 984 04fa 85ED090A 		vstr.32	s0, [r5, #36]
 985              		.loc 1 217 0
 986 04fe FFF7FEFF 		bl	buffer_get_float32_auto
 987              	.LVL78:
 988              		.loc 1 218 0
 989 0502 3146     		mov	r1, r6
 990 0504 2046     		mov	r0, r4
 991              		.loc 1 217 0
 992 0506 85ED0A0A 		vstr.32	s0, [r5, #40]
 993              		.loc 1 218 0
 994 050a FFF7FEFF 		bl	buffer_get_float32_auto
 995              	.LVL79:
 996              		.loc 1 219 0
 997 050e 3146     		mov	r1, r6
 998 0510 2046     		mov	r0, r4
 999              		.loc 1 218 0
 1000 0512 85ED0B0A 		vstr.32	s0, [r5, #44]
 1001              		.loc 1 219 0
 1002 0516 FFF7FEFF 		bl	buffer_get_float32_auto
 1003              	.LVL80:
 1004              		.loc 1 220 0
 1005 051a 3146     		mov	r1, r6
 1006 051c 2046     		mov	r0, r4
 1007              		.loc 1 219 0
 1008 051e 85ED0C0A 		vstr.32	s0, [r5, #48]
 1009              		.loc 1 220 0
 1010 0522 FFF7FEFF 		bl	buffer_get_float32_auto
 1011              	.LVL81:
 1012              		.loc 1 221 0
 1013 0526 3146     		mov	r1, r6
 1014 0528 2046     		mov	r0, r4
 1015              		.loc 1 220 0
 1016 052a 85ED0D0A 		vstr.32	s0, [r5, #52]
 1017              		.loc 1 221 0
 1018 052e FFF7FEFF 		bl	buffer_get_float32_auto
 1019              	.LVL82:
 1020              		.loc 1 222 0
 1021 0532 039B     		ldr	r3, [sp, #12]
 1022              		.loc 1 221 0
 1023 0534 85ED0E0A 		vstr.32	s0, [r5, #56]
 1024              		.loc 1 222 0
 1025 0538 E25C     		ldrb	r2, [r4, r3]	@ zero_extendqisi2
 1026 053a 0032     		adds	r2, r2, #0
ARM GAS  /tmp/cczXzW7i.s 			page 19


 1027 053c 18BF     		it	ne
 1028 053e 0122     		movne	r2, #1
 1029 0540 0133     		adds	r3, r3, #1
 1030              		.loc 1 223 0
 1031 0542 3146     		mov	r1, r6
 1032 0544 2046     		mov	r0, r4
 1033              		.loc 1 222 0
 1034 0546 85F83C20 		strb	r2, [r5, #60]
 1035 054a 0393     		str	r3, [sp, #12]
 1036              		.loc 1 223 0
 1037 054c FFF7FEFF 		bl	buffer_get_float32_auto
 1038              	.LVL83:
 1039              		.loc 1 224 0
 1040 0550 3146     		mov	r1, r6
 1041 0552 2046     		mov	r0, r4
 1042              		.loc 1 223 0
 1043 0554 85ED100A 		vstr.32	s0, [r5, #64]
 1044              		.loc 1 224 0
 1045 0558 FFF7FEFF 		bl	buffer_get_float32_auto
 1046              	.LVL84:
 1047              		.loc 1 225 0
 1048 055c 3146     		mov	r1, r6
 1049 055e 2046     		mov	r0, r4
 1050              		.loc 1 224 0
 1051 0560 85ED110A 		vstr.32	s0, [r5, #68]
 1052              		.loc 1 225 0
 1053 0564 FFF7FEFF 		bl	buffer_get_float32_auto
 1054              	.LVL85:
 1055              		.loc 1 226 0
 1056 0568 3146     		mov	r1, r6
 1057 056a 2046     		mov	r0, r4
 1058              		.loc 1 225 0
 1059 056c 85ED120A 		vstr.32	s0, [r5, #72]
 1060              		.loc 1 226 0
 1061 0570 FFF7FEFF 		bl	buffer_get_float32_auto
 1062              	.LVL86:
 1063              		.loc 1 227 0
 1064 0574 3146     		mov	r1, r6
 1065 0576 2046     		mov	r0, r4
 1066              		.loc 1 226 0
 1067 0578 85ED130A 		vstr.32	s0, [r5, #76]
 1068              		.loc 1 227 0
 1069 057c FFF7FEFF 		bl	buffer_get_float32_auto
 1070              	.LVL87:
 1071              		.loc 1 228 0
 1072 0580 3146     		mov	r1, r6
 1073 0582 2046     		mov	r0, r4
 1074              		.loc 1 227 0
 1075 0584 85ED140A 		vstr.32	s0, [r5, #80]
 1076              		.loc 1 228 0
 1077 0588 FFF7FEFF 		bl	buffer_get_float32_auto
 1078              	.LVL88:
 1079              		.loc 1 229 0
 1080 058c 3146     		mov	r1, r6
 1081 058e 2046     		mov	r0, r4
 1082              		.loc 1 228 0
 1083 0590 85ED150A 		vstr.32	s0, [r5, #84]
ARM GAS  /tmp/cczXzW7i.s 			page 20


 1084              		.loc 1 229 0
 1085 0594 FFF7FEFF 		bl	buffer_get_float32_auto
 1086              	.LVL89:
 1087              		.loc 1 230 0
 1088 0598 3146     		mov	r1, r6
 1089 059a 2046     		mov	r0, r4
 1090              		.loc 1 229 0
 1091 059c 85ED160A 		vstr.32	s0, [r5, #88]
 1092              		.loc 1 230 0
 1093 05a0 FFF7FEFF 		bl	buffer_get_float32_auto
 1094              	.LVL90:
 1095              		.loc 1 231 0
 1096 05a4 3146     		mov	r1, r6
 1097 05a6 2046     		mov	r0, r4
 1098              		.loc 1 230 0
 1099 05a8 85ED170A 		vstr.32	s0, [r5, #92]
 1100              		.loc 1 231 0
 1101 05ac FFF7FEFF 		bl	buffer_get_float32_auto
 1102              	.LVL91:
 1103              		.loc 1 235 0
 1104 05b0 E968     		ldr	r1, [r5, #12]	@ float
 1105              		.loc 1 236 0
 1106 05b2 2869     		ldr	r0, [r5, #16]	@ float
 1107              		.loc 1 233 0
 1108 05b4 6A68     		ldr	r2, [r5, #4]	@ float
 1109              		.loc 1 234 0
 1110 05b6 AB68     		ldr	r3, [r5, #8]	@ float
 1111              		.loc 1 235 0
 1112 05b8 E966     		str	r1, [r5, #108]	@ float
 1113              		.loc 1 236 0
 1114 05ba 2867     		str	r0, [r5, #112]	@ float
 1115              		.loc 1 240 0
 1116 05bc 3146     		mov	r1, r6
 1117 05be 2046     		mov	r0, r4
 1118              		.loc 1 233 0
 1119 05c0 6A66     		str	r2, [r5, #100]	@ float
 1120              		.loc 1 237 0
 1121 05c2 6A67     		str	r2, [r5, #116]	@ float
 1122              		.loc 1 234 0
 1123 05c4 AB66     		str	r3, [r5, #104]	@ float
 1124              		.loc 1 238 0
 1125 05c6 AB67     		str	r3, [r5, #120]	@ float
 1126              		.loc 1 231 0
 1127 05c8 85ED180A 		vstr.32	s0, [r5, #96]
 1128              		.loc 1 240 0
 1129 05cc FFF7FEFF 		bl	buffer_get_float32_auto
 1130              	.LVL92:
 1131              		.loc 1 241 0
 1132 05d0 3146     		mov	r1, r6
 1133 05d2 2046     		mov	r0, r4
 1134              		.loc 1 240 0
 1135 05d4 85ED1F0A 		vstr.32	s0, [r5, #124]
 1136              		.loc 1 241 0
 1137 05d8 FFF7FEFF 		bl	buffer_get_float32_auto
 1138              	.LVL93:
 1139              		.loc 1 242 0
 1140 05dc 3146     		mov	r1, r6
ARM GAS  /tmp/cczXzW7i.s 			page 21


 1141 05de 2046     		mov	r0, r4
 1142              		.loc 1 241 0
 1143 05e0 85ED200A 		vstr.32	s0, [r5, #128]
 1144              		.loc 1 242 0
 1145 05e4 FFF7FEFF 		bl	buffer_get_float32_auto
 1146              	.LVL94:
 1147              		.loc 1 243 0
 1148 05e8 3146     		mov	r1, r6
 1149 05ea 2046     		mov	r0, r4
 1150              		.loc 1 242 0
 1151 05ec 85ED210A 		vstr.32	s0, [r5, #132]
 1152              		.loc 1 243 0
 1153 05f0 FFF7FEFF 		bl	buffer_get_float32_auto
 1154              	.LVL95:
 1155              		.loc 1 244 0
 1156 05f4 3146     		mov	r1, r6
 1157 05f6 2046     		mov	r0, r4
 1158              		.loc 1 243 0
 1159 05f8 85ED220A 		vstr.32	s0, [r5, #136]
 1160              		.loc 1 244 0
 1161 05fc FFF7FEFF 		bl	buffer_get_float32_auto
 1162              	.LVL96:
 1163              		.loc 1 245 0
 1164 0600 3146     		mov	r1, r6
 1165 0602 2046     		mov	r0, r4
 1166              		.loc 1 244 0
 1167 0604 85ED230A 		vstr.32	s0, [r5, #140]
 1168              		.loc 1 245 0
 1169 0608 FFF7FEFF 		bl	buffer_get_float32_auto
 1170              	.LVL97:
 1171              		.loc 1 246 0
 1172 060c 3146     		mov	r1, r6
 1173 060e 2046     		mov	r0, r4
 1174              		.loc 1 245 0
 1175 0610 85ED240A 		vstr.32	s0, [r5, #144]
 1176              		.loc 1 246 0
 1177 0614 FFF7FEFF 		bl	buffer_get_float32_auto
 1178              	.LVL98:
 1179              		.loc 1 248 0
 1180 0618 039B     		ldr	r3, [sp, #12]
 1181              		.loc 1 246 0
 1182 061a 85ED250A 		vstr.32	s0, [r5, #148]
 1183              		.loc 1 248 0
 1184 061e E118     		adds	r1, r4, r3
 1185 0620 05F19802 		add	r2, r5, #152
 1186 0624 0868     		ldr	r0, [r1]	@ unaligned
 1187 0626 4968     		ldr	r1, [r1, #4]	@ unaligned
 1188              		.loc 1 249 0
 1189 0628 0833     		adds	r3, r3, #8
 1190              		.loc 1 248 0
 1191 062a 03C2     		stmia	r2!, {r0, r1}
 1192              		.loc 1 250 0
 1193 062c 3146     		mov	r1, r6
 1194 062e 2046     		mov	r0, r4
 1195              		.loc 1 249 0
 1196 0630 0393     		str	r3, [sp, #12]
 1197              		.loc 1 250 0
ARM GAS  /tmp/cczXzW7i.s 			page 22


 1198 0632 FFF7FEFF 		bl	buffer_get_float32_auto
 1199              	.LVL99:
 1200              		.loc 1 252 0
 1201 0636 3146     		mov	r1, r6
 1202 0638 2046     		mov	r0, r4
 1203              		.loc 1 250 0
 1204 063a 85ED280A 		vstr.32	s0, [r5, #160]
 1205              		.loc 1 252 0
 1206 063e FFF7FEFF 		bl	buffer_get_float32_auto
 1207              	.LVL100:
 1208              		.loc 1 253 0
 1209 0642 3146     		mov	r1, r6
 1210 0644 2046     		mov	r0, r4
 1211              		.loc 1 252 0
 1212 0646 85ED290A 		vstr.32	s0, [r5, #164]
 1213              		.loc 1 253 0
 1214 064a FFF7FEFF 		bl	buffer_get_float32_auto
 1215              	.LVL101:
 1216              		.loc 1 254 0
 1217 064e 3146     		mov	r1, r6
 1218 0650 2046     		mov	r0, r4
 1219              		.loc 1 253 0
 1220 0652 85ED2A0A 		vstr.32	s0, [r5, #168]
 1221              		.loc 1 254 0
 1222 0656 FFF7FEFF 		bl	buffer_get_float32_auto
 1223              	.LVL102:
 1224              		.loc 1 255 0
 1225 065a 3146     		mov	r1, r6
 1226 065c 2046     		mov	r0, r4
 1227              		.loc 1 254 0
 1228 065e 85ED2B0A 		vstr.32	s0, [r5, #172]
 1229              		.loc 1 255 0
 1230 0662 FFF7FEFF 		bl	buffer_get_float32_auto
 1231              	.LVL103:
 1232              		.loc 1 256 0
 1233 0666 039B     		ldr	r3, [sp, #12]
 1234              		.loc 1 255 0
 1235 0668 85ED2C0A 		vstr.32	s0, [r5, #176]
 1236              		.loc 1 256 0
 1237 066c E25C     		ldrb	r2, [r4, r3]	@ zero_extendqisi2
 1238 066e 0032     		adds	r2, r2, #0
 1239 0670 18BF     		it	ne
 1240 0672 0122     		movne	r2, #1
 1241 0674 0133     		adds	r3, r3, #1
 1242              		.loc 1 257 0
 1243 0676 3146     		mov	r1, r6
 1244 0678 2046     		mov	r0, r4
 1245              		.loc 1 256 0
 1246 067a 85F8B820 		strb	r2, [r5, #184]
 1247 067e 0393     		str	r3, [sp, #12]
 1248              		.loc 1 257 0
 1249 0680 FFF7FEFF 		bl	buffer_get_float32_auto
 1250              	.LVL104:
 1251              		.loc 1 258 0
 1252 0684 3146     		mov	r1, r6
 1253 0686 2046     		mov	r0, r4
 1254              		.loc 1 257 0
ARM GAS  /tmp/cczXzW7i.s 			page 23


 1255 0688 85ED2D0A 		vstr.32	s0, [r5, #180]
 1256              		.loc 1 258 0
 1257 068c FFF7FEFF 		bl	buffer_get_float32_auto
 1258              	.LVL105:
 1259              		.loc 1 259 0
 1260 0690 039B     		ldr	r3, [sp, #12]
 1261              		.loc 1 258 0
 1262 0692 85ED2F0A 		vstr.32	s0, [r5, #188]
 1263              		.loc 1 259 0
 1264 0696 E25C     		ldrb	r2, [r4, r3]	@ zero_extendqisi2
 1265 0698 85F8F820 		strb	r2, [r5, #248]
 1266 069c 0133     		adds	r3, r3, #1
 1267              		.loc 1 260 0
 1268 069e 3146     		mov	r1, r6
 1269 06a0 2046     		mov	r0, r4
 1270              		.loc 1 259 0
 1271 06a2 0393     		str	r3, [sp, #12]
 1272              		.loc 1 260 0
 1273 06a4 FFF7FEFF 		bl	buffer_get_float32_auto
 1274              	.LVL106:
 1275              		.loc 1 261 0
 1276 06a8 3146     		mov	r1, r6
 1277 06aa 2046     		mov	r0, r4
 1278              		.loc 1 260 0
 1279 06ac 85ED350A 		vstr.32	s0, [r5, #212]
 1280              		.loc 1 261 0
 1281 06b0 FFF7FEFF 		bl	buffer_get_float32_auto
 1282              	.LVL107:
 1283              		.loc 1 262 0
 1284 06b4 3146     		mov	r1, r6
 1285 06b6 2046     		mov	r0, r4
 1286              		.loc 1 261 0
 1287 06b8 85ED360A 		vstr.32	s0, [r5, #216]
 1288              		.loc 1 262 0
 1289 06bc FFF7FEFF 		bl	buffer_get_float32_auto
 1290              	.LVL108:
 1291              		.loc 1 263 0
 1292 06c0 3146     		mov	r1, r6
 1293 06c2 2046     		mov	r0, r4
 1294              		.loc 1 262 0
 1295 06c4 85ED300A 		vstr.32	s0, [r5, #192]
 1296              		.loc 1 263 0
 1297 06c8 FFF7FEFF 		bl	buffer_get_float32_auto
 1298              	.LVL109:
 1299              		.loc 1 264 0
 1300 06cc 3146     		mov	r1, r6
 1301 06ce 2046     		mov	r0, r4
 1302              		.loc 1 263 0
 1303 06d0 85ED310A 		vstr.32	s0, [r5, #196]
 1304              		.loc 1 264 0
 1305 06d4 FFF7FEFF 		bl	buffer_get_float32_auto
 1306              	.LVL110:
 1307              		.loc 1 265 0
 1308 06d8 3146     		mov	r1, r6
 1309 06da 2046     		mov	r0, r4
 1310              		.loc 1 264 0
 1311 06dc 85ED320A 		vstr.32	s0, [r5, #200]
ARM GAS  /tmp/cczXzW7i.s 			page 24


 1312              		.loc 1 265 0
 1313 06e0 FFF7FEFF 		bl	buffer_get_float32_auto
 1314              	.LVL111:
 1315              		.loc 1 266 0
 1316 06e4 3146     		mov	r1, r6
 1317 06e6 2046     		mov	r0, r4
 1318              		.loc 1 265 0
 1319 06e8 85ED330A 		vstr.32	s0, [r5, #204]
 1320              		.loc 1 266 0
 1321 06ec FFF7FEFF 		bl	buffer_get_float32_auto
 1322              	.LVL112:
 1323              		.loc 1 267 0
 1324 06f0 3146     		mov	r1, r6
 1325 06f2 2046     		mov	r0, r4
 1326              		.loc 1 266 0
 1327 06f4 85ED340A 		vstr.32	s0, [r5, #208]
 1328              		.loc 1 267 0
 1329 06f8 FFF7FEFF 		bl	buffer_get_float32_auto
 1330              	.LVL113:
 1331              		.loc 1 268 0
 1332 06fc 3146     		mov	r1, r6
 1333 06fe 2046     		mov	r0, r4
 1334              		.loc 1 267 0
 1335 0700 85ED370A 		vstr.32	s0, [r5, #220]
 1336              		.loc 1 268 0
 1337 0704 FFF7FEFF 		bl	buffer_get_float32_auto
 1338              	.LVL114:
 1339              		.loc 1 269 0
 1340 0708 3146     		mov	r1, r6
 1341 070a 2046     		mov	r0, r4
 1342              		.loc 1 268 0
 1343 070c 85ED380A 		vstr.32	s0, [r5, #224]
 1344              		.loc 1 269 0
 1345 0710 FFF7FEFF 		bl	buffer_get_float32_auto
 1346              	.LVL115:
 1347              		.loc 1 270 0
 1348 0714 3146     		mov	r1, r6
 1349 0716 2046     		mov	r0, r4
 1350              		.loc 1 269 0
 1351 0718 85ED390A 		vstr.32	s0, [r5, #228]
 1352              		.loc 1 270 0
 1353 071c FFF7FEFF 		bl	buffer_get_float32_auto
 1354              	.LVL116:
 1355              		.loc 1 271 0
 1356 0720 3146     		mov	r1, r6
 1357 0722 2046     		mov	r0, r4
 1358              		.loc 1 270 0
 1359 0724 85ED3A0A 		vstr.32	s0, [r5, #232]
 1360              		.loc 1 271 0
 1361 0728 FFF7FEFF 		bl	buffer_get_float32_auto
 1362              	.LVL117:
 1363              		.loc 1 272 0
 1364 072c 3146     		mov	r1, r6
 1365 072e 2046     		mov	r0, r4
 1366              		.loc 1 271 0
 1367 0730 85ED3B0A 		vstr.32	s0, [r5, #236]
 1368              		.loc 1 272 0
ARM GAS  /tmp/cczXzW7i.s 			page 25


 1369 0734 FFF7FEFF 		bl	buffer_get_float32_auto
 1370              	.LVL118:
 1371              		.loc 1 273 0
 1372 0738 3146     		mov	r1, r6
 1373 073a 2046     		mov	r0, r4
 1374              		.loc 1 272 0
 1375 073c 85ED3C0A 		vstr.32	s0, [r5, #240]
 1376              		.loc 1 273 0
 1377 0740 FFF7FEFF 		bl	buffer_get_float32_auto
 1378              	.LVL119:
 1379              		.loc 1 274 0
 1380 0744 039B     		ldr	r3, [sp, #12]
 1381              		.loc 1 273 0
 1382 0746 85ED3D0A 		vstr.32	s0, [r5, #244]
 1383              		.loc 1 274 0
 1384 074a E218     		adds	r2, r4, r3
 1385              		.loc 1 276 0
 1386 074c 3146     		mov	r1, r6
 1387              		.loc 1 274 0
 1388 074e 1768     		ldr	r7, [r2]	@ unaligned
 1389 0750 5268     		ldr	r2, [r2, #4]	@ unaligned
 1390 0752 C5F8FD20 		str	r2, [r5, #253]	@ unaligned
 1391              		.loc 1 275 0
 1392 0756 0833     		adds	r3, r3, #8
 1393              		.loc 1 276 0
 1394 0758 2046     		mov	r0, r4
 1395              		.loc 1 274 0
 1396 075a C5F8F970 		str	r7, [r5, #249]	@ unaligned
 1397              		.loc 1 275 0
 1398 075e 0393     		str	r3, [sp, #12]
 1399              		.loc 1 276 0
 1400 0760 FFF7FEFF 		bl	buffer_get_float32_auto
 1401              	.LVL120:
 1402              		.loc 1 277 0
 1403 0764 039B     		ldr	r3, [sp, #12]
 1404              		.loc 1 276 0
 1405 0766 85ED410A 		vstr.32	s0, [r5, #260]
 1406              		.loc 1 277 0
 1407 076a E25C     		ldrb	r2, [r4, r3]	@ zero_extendqisi2
 1408 076c 0032     		adds	r2, r2, #0
 1409              		.loc 1 278 0
 1410 076e 04EB0301 		add	r1, r4, r3
 1411              		.loc 1 277 0
 1412 0772 18BF     		it	ne
 1413 0774 0122     		movne	r2, #1
 1414 0776 85F80821 		strb	r2, [r5, #264]
 1415              		.loc 1 278 0
 1416 077a 4A78     		ldrb	r2, [r1, #1]	@ zero_extendqisi2
 1417 077c 0032     		adds	r2, r2, #0
 1418 077e 18BF     		it	ne
 1419 0780 0122     		movne	r2, #1
 1420 0782 0233     		adds	r3, r3, #2
 1421              		.loc 1 279 0
 1422 0784 3146     		mov	r1, r6
 1423 0786 2046     		mov	r0, r4
 1424              		.loc 1 278 0
 1425 0788 85F80921 		strb	r2, [r5, #265]
ARM GAS  /tmp/cczXzW7i.s 			page 26


 1426 078c 0393     		str	r3, [sp, #12]
 1427              		.loc 1 279 0
 1428 078e FFF7FEFF 		bl	buffer_get_float32_auto
 1429              	.LVL121:
 1430              		.loc 1 280 0
 1431 0792 039B     		ldr	r3, [sp, #12]
 1432              		.loc 1 279 0
 1433 0794 85ED430A 		vstr.32	s0, [r5, #268]
 1434              		.loc 1 280 0
 1435 0798 E25C     		ldrb	r2, [r4, r3]	@ zero_extendqisi2
 1436 079a 0032     		adds	r2, r2, #0
 1437 079c 18BF     		it	ne
 1438 079e 0122     		movne	r2, #1
 1439 07a0 0133     		adds	r3, r3, #1
 1440              		.loc 1 281 0
 1441 07a2 3146     		mov	r1, r6
 1442 07a4 2046     		mov	r0, r4
 1443              		.loc 1 280 0
 1444 07a6 85F81021 		strb	r2, [r5, #272]
 1445 07aa 0393     		str	r3, [sp, #12]
 1446              		.loc 1 281 0
 1447 07ac FFF7FEFF 		bl	buffer_get_float32_auto
 1448              	.LVL122:
 1449              		.loc 1 282 0
 1450 07b0 3146     		mov	r1, r6
 1451 07b2 2046     		mov	r0, r4
 1452              		.loc 1 281 0
 1453 07b4 85ED450A 		vstr.32	s0, [r5, #276]
 1454              		.loc 1 282 0
 1455 07b8 FFF7FEFF 		bl	buffer_get_float32_auto
 1456              	.LVL123:
 1457              		.loc 1 284 0
 1458 07bc 3146     		mov	r1, r6
 1459 07be 2046     		mov	r0, r4
 1460              		.loc 1 282 0
 1461 07c0 85ED460A 		vstr.32	s0, [r5, #280]
 1462              		.loc 1 284 0
 1463 07c4 FFF7FEFF 		bl	buffer_get_float32_auto
 1464              	.LVL124:
 1465              		.loc 1 285 0
 1466 07c8 3146     		mov	r1, r6
 1467 07ca 2046     		mov	r0, r4
 1468              		.loc 1 284 0
 1469 07cc 85ED470A 		vstr.32	s0, [r5, #284]
 1470              		.loc 1 285 0
 1471 07d0 FFF7FEFF 		bl	buffer_get_float32_auto
 1472              	.LVL125:
 1473              		.loc 1 286 0
 1474 07d4 3146     		mov	r1, r6
 1475 07d6 2046     		mov	r0, r4
 1476              		.loc 1 285 0
 1477 07d8 85ED480A 		vstr.32	s0, [r5, #288]
 1478              		.loc 1 286 0
 1479 07dc FFF7FEFF 		bl	buffer_get_float32_auto
 1480              	.LVL126:
 1481              		.loc 1 287 0
 1482 07e0 3146     		mov	r1, r6
ARM GAS  /tmp/cczXzW7i.s 			page 27


 1483 07e2 2046     		mov	r0, r4
 1484              		.loc 1 286 0
 1485 07e4 85ED490A 		vstr.32	s0, [r5, #292]
 1486              		.loc 1 287 0
 1487 07e8 FFF7FEFF 		bl	buffer_get_float32_auto
 1488              	.LVL127:
 1489              		.loc 1 288 0
 1490 07ec 3146     		mov	r1, r6
 1491 07ee 2046     		mov	r0, r4
 1492              		.loc 1 287 0
 1493 07f0 85ED4A0A 		vstr.32	s0, [r5, #296]
 1494              		.loc 1 288 0
 1495 07f4 FFF7FEFF 		bl	buffer_get_float32_auto
 1496              	.LVL128:
 1497              		.loc 1 289 0
 1498 07f8 039B     		ldr	r3, [sp, #12]
 1499              		.loc 1 288 0
 1500 07fa 85ED4B0A 		vstr.32	s0, [r5, #300]
 1501              		.loc 1 289 0
 1502 07fe E25C     		ldrb	r2, [r4, r3]	@ zero_extendqisi2
 1503 0800 0032     		adds	r2, r2, #0
 1504 0802 18BF     		it	ne
 1505 0804 0122     		movne	r2, #1
 1506 0806 0133     		adds	r3, r3, #1
 1507              		.loc 1 291 0
 1508 0808 3146     		mov	r1, r6
 1509 080a 2046     		mov	r0, r4
 1510 080c 02E0     		b	.L87
 1511              	.L88:
 1512 080e 00BF     		.align	2
 1513              	.L86:
 1514 0810 00000000 		.word	.LANCHOR6
 1515              	.L87:
 1516              		.loc 1 289 0
 1517 0814 85F83021 		strb	r2, [r5, #304]
 1518 0818 0393     		str	r3, [sp, #12]
 1519              		.loc 1 291 0
 1520 081a FFF7FEFF 		bl	buffer_get_float32_auto
 1521              	.LVL129:
 1522              		.loc 1 292 0
 1523 081e 3146     		mov	r1, r6
 1524 0820 2046     		mov	r0, r4
 1525              		.loc 1 291 0
 1526 0822 85ED4D0A 		vstr.32	s0, [r5, #308]
 1527              		.loc 1 292 0
 1528 0826 FFF7FEFF 		bl	buffer_get_float32_auto
 1529              	.LVL130:
 1530              		.loc 1 293 0
 1531 082a 3146     		mov	r1, r6
 1532 082c 2046     		mov	r0, r4
 1533              		.loc 1 292 0
 1534 082e 85ED4E0A 		vstr.32	s0, [r5, #312]
 1535              		.loc 1 293 0
 1536 0832 FFF7FEFF 		bl	buffer_get_float32_auto
 1537              	.LVL131:
 1538              		.loc 1 294 0
 1539 0836 3146     		mov	r1, r6
ARM GAS  /tmp/cczXzW7i.s 			page 28


 1540 0838 2046     		mov	r0, r4
 1541              		.loc 1 293 0
 1542 083a 85ED4F0A 		vstr.32	s0, [r5, #316]
 1543              		.loc 1 294 0
 1544 083e FFF7FEFF 		bl	buffer_get_float32_auto
 1545              	.LVL132:
 1546              		.loc 1 295 0
 1547 0842 3146     		mov	r1, r6
 1548 0844 2046     		mov	r0, r4
 1549              		.loc 1 294 0
 1550 0846 85ED500A 		vstr.32	s0, [r5, #320]
 1551              		.loc 1 295 0
 1552 084a FFF7FEFF 		bl	buffer_get_float32_auto
 1553              	.LVL133:
 1554              		.loc 1 297 0
 1555 084e 3146     		mov	r1, r6
 1556 0850 2046     		mov	r0, r4
 1557              		.loc 1 295 0
 1558 0852 85ED510A 		vstr.32	s0, [r5, #324]
 1559              		.loc 1 297 0
 1560 0856 FFF7FEFF 		bl	buffer_get_float32_auto
 1561              	.LVL134:
 1562              		.loc 1 298 0
 1563 085a 3146     		mov	r1, r6
 1564 085c 2046     		mov	r0, r4
 1565              		.loc 1 297 0
 1566 085e 85ED520A 		vstr.32	s0, [r5, #328]
 1567              		.loc 1 298 0
 1568 0862 FFF7FEFF 		bl	buffer_get_float32_auto
 1569              	.LVL135:
 1570              		.loc 1 299 0
 1571 0866 3146     		mov	r1, r6
 1572 0868 2046     		mov	r0, r4
 1573              		.loc 1 298 0
 1574 086a 85ED530A 		vstr.32	s0, [r5, #332]
 1575              		.loc 1 299 0
 1576 086e FFF7FEFF 		bl	buffer_get_float32_auto
 1577              	.LVL136:
 1578              		.loc 1 300 0
 1579 0872 3146     		mov	r1, r6
 1580 0874 2046     		mov	r0, r4
 1581              		.loc 1 299 0
 1582 0876 85ED540A 		vstr.32	s0, [r5, #336]
 1583              		.loc 1 300 0
 1584 087a FFF7FEFF 		bl	buffer_get_float32_auto
 1585              	.LVL137:
 1586              		.loc 1 302 0
 1587 087e 3146     		mov	r1, r6
 1588 0880 2046     		mov	r0, r4
 1589              		.loc 1 300 0
 1590 0882 85ED550A 		vstr.32	s0, [r5, #340]
 1591              		.loc 1 302 0
 1592 0886 FFF7FEFF 		bl	buffer_get_int32
 1593              	.LVL138:
 1594              		.loc 1 303 0
 1595 088a 3146     		mov	r1, r6
 1596              		.loc 1 302 0
ARM GAS  /tmp/cczXzW7i.s 			page 29


 1597 088c C5F85801 		str	r0, [r5, #344]
 1598              		.loc 1 303 0
 1599 0890 2046     		mov	r0, r4
 1600 0892 FFF7FEFF 		bl	buffer_get_float32_auto
 1601              	.LVL139:
 1602              		.loc 1 304 0
 1603 0896 3146     		mov	r1, r6
 1604 0898 2046     		mov	r0, r4
 1605              		.loc 1 303 0
 1606 089a 85ED570A 		vstr.32	s0, [r5, #348]
 1607              		.loc 1 304 0
 1608 089e FFF7FEFF 		bl	buffer_get_float32_auto
 1609              	.LVL140:
 1610              		.loc 1 305 0
 1611 08a2 3146     		mov	r1, r6
 1612 08a4 2046     		mov	r0, r4
 1613              		.loc 1 304 0
 1614 08a6 85ED580A 		vstr.32	s0, [r5, #352]
 1615              		.loc 1 305 0
 1616 08aa FFF7FEFF 		bl	buffer_get_uint32
 1617              	.LVL141:
 1618              		.loc 1 306 0
 1619 08ae 039B     		ldr	r3, [sp, #12]
 1620              		.loc 1 305 0
 1621 08b0 C5F86401 		str	r0, [r5, #356]
 1622              		.loc 1 306 0
 1623 08b4 E25C     		ldrb	r2, [r4, r3]	@ zero_extendqisi2
 1624 08b6 85F86821 		strb	r2, [r5, #360]
 1625              		.loc 1 307 0
 1626 08ba E218     		adds	r2, r4, r3
 1627              		.loc 1 309 0
 1628 08bc 0433     		adds	r3, r3, #4
 1629              		.loc 1 307 0
 1630 08be 5178     		ldrb	r1, [r2, #1]	@ zero_extendqisi2
 1631              		.loc 1 309 0
 1632 08c0 0393     		str	r3, [sp, #12]
 1633              		.loc 1 307 0
 1634 08c2 0B1C     		adds	r3, r1, #0
 1635 08c4 18BF     		it	ne
 1636 08c6 0123     		movne	r3, #1
 1637 08c8 85F86931 		strb	r3, [r5, #361]
 1638              		.loc 1 308 0
 1639 08cc 9378     		ldrb	r3, [r2, #2]	@ zero_extendqisi2
 1640 08ce 85F86A31 		strb	r3, [r5, #362]
 1641              		.loc 1 309 0
 1642 08d2 D378     		ldrb	r3, [r2, #3]	@ zero_extendqisi2
 1643 08d4 C5F86C31 		str	r3, [r5, #364]
 1644              		.loc 1 310 0
 1645 08d8 3146     		mov	r1, r6
 1646 08da 2046     		mov	r0, r4
 1647 08dc FFF7FEFF 		bl	buffer_get_float32_auto
 1648              	.LVL142:
 1649              		.loc 1 311 0
 1650 08e0 3146     		mov	r1, r6
 1651 08e2 2046     		mov	r0, r4
 1652              		.loc 1 310 0
 1653 08e4 85ED5C0A 		vstr.32	s0, [r5, #368]
ARM GAS  /tmp/cczXzW7i.s 			page 30


 1654              		.loc 1 311 0
 1655 08e8 FFF7FEFF 		bl	buffer_get_float32_auto
 1656              	.LVL143:
 1657              		.loc 1 312 0
 1658 08ec 3146     		mov	r1, r6
 1659 08ee 2046     		mov	r0, r4
 1660              		.loc 1 311 0
 1661 08f0 85ED5D0A 		vstr.32	s0, [r5, #372]
 1662              		.loc 1 312 0
 1663 08f4 FFF7FEFF 		bl	buffer_get_float32_auto
 1664              	.LVL144:
 1665              		.loc 1 313 0
 1666 08f8 3146     		mov	r1, r6
 1667 08fa 2046     		mov	r0, r4
 1668              		.loc 1 312 0
 1669 08fc 85ED5E0A 		vstr.32	s0, [r5, #376]
 1670              		.loc 1 313 0
 1671 0900 FFF7FEFF 		bl	buffer_get_float32_auto
 1672              	.LVL145:
 1673              		.loc 1 316 0
 1674 0904 7D4A     		ldr	r2, .L89
 1675              		.loc 1 314 0
 1676 0906 039B     		ldr	r3, [sp, #12]
 1677              		.loc 1 313 0
 1678 0908 85ED5F0A 		vstr.32	s0, [r5, #380]
 1679              		.loc 1 316 0
 1680 090c 1268     		ldr	r2, [r2]
 1681              		.loc 1 314 0
 1682 090e E15C     		ldrb	r1, [r4, r3]	@ zero_extendqisi2
 1683 0910 85F88011 		strb	r1, [r5, #384]
 1684 0914 0133     		adds	r3, r3, #1
 1685 0916 0393     		str	r3, [sp, #12]
 1686              		.loc 1 316 0
 1687 0918 002A     		cmp	r2, #0
 1688 091a 3FF478AB 		beq	.L16
 1689              		.loc 1 317 0
 1690 091e 2846     		mov	r0, r5
 1691 0920 9047     		blx	r2
 1692              	.LVL146:
 1693 0922 FFF774BB 		b	.L16
 1694              	.LVL147:
 1695              	.L22:
 1696              		.loc 1 465 0
 1697 0926 764B     		ldr	r3, .L89+4
 1698              	.LVL148:
 1699 0928 1B68     		ldr	r3, [r3]
 1700 092a 002B     		cmp	r3, #0
 1701 092c 7FF49AAD 		bne	.L78
 1702 0930 FFF76DBB 		b	.L16
 1703              	.LVL149:
 1704              	.L20:
 1705              		.loc 1 142 0
 1706 0934 03A9     		add	r1, sp, #12
 1707 0936 2046     		mov	r0, r4
 1708 0938 B2EE040A 		vmov.f32	s0, #1.0e+1
 1709 093c 0192     		str	r2, [sp, #4]
 1710 093e FFF7FEFF 		bl	buffer_get_float16
ARM GAS  /tmp/cczXzW7i.s 			page 31


 1711              	.LVL150:
 1712 0942 704D     		ldr	r5, .L89+8
 1713              		.loc 1 143 0
 1714 0944 03A9     		add	r1, sp, #12
 1715              		.loc 1 142 0
 1716 0946 85ED010A 		vstr.32	s0, [r5, #4]
 1717              		.loc 1 143 0
 1718 094a 2046     		mov	r0, r4
 1719 094c B2EE040A 		vmov.f32	s0, #1.0e+1
 1720 0950 FFF7FEFF 		bl	buffer_get_float16
 1721              	.LVL151:
 1722              		.loc 1 144 0
 1723 0954 03A9     		add	r1, sp, #12
 1724              		.loc 1 143 0
 1725 0956 85ED020A 		vstr.32	s0, [r5, #8]
 1726              		.loc 1 144 0
 1727 095a 2046     		mov	r0, r4
 1728 095c 9FED6A0A 		vldr.32	s0, .L89+12
 1729 0960 FFF7FEFF 		bl	buffer_get_float32
 1730              	.LVL152:
 1731              		.loc 1 145 0
 1732 0964 03A9     		add	r1, sp, #12
 1733              		.loc 1 144 0
 1734 0966 85ED030A 		vstr.32	s0, [r5, #12]
 1735              		.loc 1 145 0
 1736 096a 2046     		mov	r0, r4
 1737 096c 9FED660A 		vldr.32	s0, .L89+12
 1738 0970 FFF7FEFF 		bl	buffer_get_float32
 1739              	.LVL153:
 1740              		.loc 1 146 0
 1741 0974 03A9     		add	r1, sp, #12
 1742              		.loc 1 145 0
 1743 0976 85ED040A 		vstr.32	s0, [r5, #16]
 1744              		.loc 1 146 0
 1745 097a 2046     		mov	r0, r4
 1746 097c 9FED620A 		vldr.32	s0, .L89+12
 1747 0980 FFF7FEFF 		bl	buffer_get_float32
 1748              	.LVL154:
 1749              		.loc 1 147 0
 1750 0984 03A9     		add	r1, sp, #12
 1751              		.loc 1 146 0
 1752 0986 85ED050A 		vstr.32	s0, [r5, #20]
 1753              		.loc 1 147 0
 1754 098a 2046     		mov	r0, r4
 1755 098c 9FED5E0A 		vldr.32	s0, .L89+12
 1756 0990 FFF7FEFF 		bl	buffer_get_float32
 1757              	.LVL155:
 1758              		.loc 1 148 0
 1759 0994 03A9     		add	r1, sp, #12
 1760              		.loc 1 147 0
 1761 0996 85ED060A 		vstr.32	s0, [r5, #24]
 1762              		.loc 1 148 0
 1763 099a 2046     		mov	r0, r4
 1764 099c 9FED5B0A 		vldr.32	s0, .L89+16
 1765 09a0 FFF7FEFF 		bl	buffer_get_float16
 1766              	.LVL156:
 1767              		.loc 1 149 0
ARM GAS  /tmp/cczXzW7i.s 			page 32


 1768 09a4 03A9     		add	r1, sp, #12
 1769              		.loc 1 148 0
 1770 09a6 85ED080A 		vstr.32	s0, [r5, #32]
 1771              		.loc 1 149 0
 1772 09aa 2046     		mov	r0, r4
 1773 09ac B7EE000A 		vmov.f32	s0, #1.0e+0
 1774 09b0 FFF7FEFF 		bl	buffer_get_float32
 1775              	.LVL157:
 1776              		.loc 1 150 0
 1777 09b4 03A9     		add	r1, sp, #12
 1778              		.loc 1 149 0
 1779 09b6 85ED070A 		vstr.32	s0, [r5, #28]
 1780              		.loc 1 150 0
 1781 09ba 2046     		mov	r0, r4
 1782 09bc B2EE040A 		vmov.f32	s0, #1.0e+1
 1783 09c0 FFF7FEFF 		bl	buffer_get_float16
 1784              	.LVL158:
 1785              		.loc 1 151 0
 1786 09c4 03A9     		add	r1, sp, #12
 1787              		.loc 1 150 0
 1788 09c6 85ED000A 		vstr.32	s0, [r5]
 1789              		.loc 1 151 0
 1790 09ca 2046     		mov	r0, r4
 1791 09cc 9FED500A 		vldr.32	s0, .L89+20
 1792 09d0 FFF7FEFF 		bl	buffer_get_float32
 1793              	.LVL159:
 1794              		.loc 1 152 0
 1795 09d4 03A9     		add	r1, sp, #12
 1796              		.loc 1 151 0
 1797 09d6 85ED090A 		vstr.32	s0, [r5, #36]
 1798              		.loc 1 152 0
 1799 09da 2046     		mov	r0, r4
 1800 09dc 9FED4C0A 		vldr.32	s0, .L89+20
 1801 09e0 FFF7FEFF 		bl	buffer_get_float32
 1802              	.LVL160:
 1803              		.loc 1 153 0
 1804 09e4 03A9     		add	r1, sp, #12
 1805              		.loc 1 152 0
 1806 09e6 85ED0A0A 		vstr.32	s0, [r5, #40]
 1807              		.loc 1 153 0
 1808 09ea 2046     		mov	r0, r4
 1809 09ec 9FED480A 		vldr.32	s0, .L89+20
 1810 09f0 FFF7FEFF 		bl	buffer_get_float32
 1811              	.LVL161:
 1812              		.loc 1 154 0
 1813 09f4 03A9     		add	r1, sp, #12
 1814              		.loc 1 153 0
 1815 09f6 85ED0B0A 		vstr.32	s0, [r5, #44]
 1816              		.loc 1 154 0
 1817 09fa 2046     		mov	r0, r4
 1818 09fc 9FED440A 		vldr.32	s0, .L89+20
 1819 0a00 FFF7FEFF 		bl	buffer_get_float32
 1820              	.LVL162:
 1821              		.loc 1 155 0
 1822 0a04 03A9     		add	r1, sp, #12
 1823 0a06 2046     		mov	r0, r4
 1824              		.loc 1 154 0
ARM GAS  /tmp/cczXzW7i.s 			page 33


 1825 0a08 85ED0C0A 		vstr.32	s0, [r5, #48]
 1826              		.loc 1 155 0
 1827 0a0c FFF7FEFF 		bl	buffer_get_int32
 1828              	.LVL163:
 1829              		.loc 1 156 0
 1830 0a10 03A9     		add	r1, sp, #12
 1831              		.loc 1 155 0
 1832 0a12 6863     		str	r0, [r5, #52]
 1833              		.loc 1 156 0
 1834 0a14 2046     		mov	r0, r4
 1835 0a16 FFF7FEFF 		bl	buffer_get_int32
 1836              	.LVL164:
 1837              		.loc 1 157 0
 1838 0a1a 039B     		ldr	r3, [sp, #12]
 1839              		.loc 1 121 0
 1840 0a1c 019A     		ldr	r2, [sp, #4]
 1841              		.loc 1 156 0
 1842 0a1e A863     		str	r0, [r5, #56]
 1843              		.loc 1 121 0
 1844 0a20 561E     		subs	r6, r2, #1
 1845              		.loc 1 157 0
 1846 0a22 E25C     		ldrb	r2, [r4, r3]	@ zero_extendqisi2
 1847 0a24 85F83C20 		strb	r2, [r5, #60]
 1848 0a28 0133     		adds	r3, r3, #1
 1849              		.loc 1 159 0
 1850 0a2a B342     		cmp	r3, r6
 1851              		.loc 1 157 0
 1852 0a2c 0393     		str	r3, [sp, #12]
 1853              		.loc 1 159 0
 1854 0a2e 53DB     		blt	.L81
 1855              		.loc 1 162 0
 1856 0a30 0023     		movs	r3, #0
 1857 0a32 2B64     		str	r3, [r5, #64]	@ float
 1858              	.L34:
 1859              		.loc 1 168 0
 1860 0a34 FF23     		movs	r3, #255
 1861 0a36 85F84430 		strb	r3, [r5, #68]
 1862              	.L35:
 1863              		.loc 1 171 0
 1864 0a3a 364B     		ldr	r3, .L89+24
 1865 0a3c 1B68     		ldr	r3, [r3]
 1866 0a3e 002B     		cmp	r3, #0
 1867 0a40 3FF4E5AA 		beq	.L16
 1868              		.loc 1 172 0
 1869 0a44 2F48     		ldr	r0, .L89+8
 1870 0a46 9847     		blx	r3
 1871              	.LVL165:
 1872 0a48 FFF7E1BA 		b	.L16
 1873              	.LVL166:
 1874              	.L28:
 1875              		.loc 1 404 0
 1876 0a4c 03A9     		add	r1, sp, #12
 1877 0a4e 2046     		mov	r0, r4
 1878 0a50 9FED2E0A 		vldr.32	s0, .L89+16
 1879 0a54 0193     		str	r3, [sp, #4]
 1880 0a56 FFF7FEFF 		bl	buffer_get_float32
 1881              	.LVL167:
ARM GAS  /tmp/cczXzW7i.s 			page 34


 1882 0a5a 2F4E     		ldr	r6, .L89+28
 1883              		.loc 1 405 0
 1884 0a5c 2046     		mov	r0, r4
 1885              		.loc 1 404 0
 1886 0a5e 86ED000A 		vstr.32	s0, [r6]
 1887              		.loc 1 405 0
 1888 0a62 03A9     		add	r1, sp, #12
 1889 0a64 9FED290A 		vldr.32	s0, .L89+16
 1890 0a68 FFF7FEFF 		bl	buffer_get_float32
 1891              	.LVL168:
 1892 0a6c 039D     		ldr	r5, [sp, #12]
 1893 0a6e 2B4A     		ldr	r2, .L89+32
 1894 0a70 019B     		ldr	r3, [sp, #4]
 1895 0a72 F0EE400A 		vmov.f32	s1, s0
 1896 0a76 2B44     		add	r3, r3, r5
 1897 0a78 02F10800 		add	r0, r2, #8
 1898              	.LVL169:
 1899              	.L38:
 1900              		.loc 1 407 0 discriminator 3
 1901 0a7c 13F8011F 		ldrb	r1, [r3, #1]!	@ zero_extendqisi2
 1902 0a80 02F8011F 		strb	r1, [r2, #1]!
 1903              		.loc 1 406 0 discriminator 3
 1904 0a84 8242     		cmp	r2, r0
 1905 0a86 F9D1     		bne	.L38
 1906              		.loc 1 411 0
 1907 0a88 254B     		ldr	r3, .L89+36
 1908              		.loc 1 409 0
 1909 0a8a 2C44     		add	r4, r4, r5
 1910              	.LVL170:
 1911              		.loc 1 411 0
 1912 0a8c 1B68     		ldr	r3, [r3]
 1913              		.loc 1 409 0
 1914 0a8e 94F90810 		ldrsb	r1, [r4, #8]
 1915 0a92 0935     		adds	r5, r5, #9
 1916 0a94 0395     		str	r5, [sp, #12]
 1917              		.loc 1 411 0
 1918 0a96 002B     		cmp	r3, #0
 1919 0a98 3FF4B9AA 		beq	.L16
 1920              		.loc 1 412 0
 1921 0a9c 2148     		ldr	r0, .L89+40
 1922 0a9e 96ED000A 		vldr.32	s0, [r6]
 1923 0aa2 9847     		blx	r3
 1924              	.LVL171:
 1925 0aa4 FFF7B3BA 		b	.L16
 1926              	.LVL172:
 1927              	.L29:
 1928              		.loc 1 435 0
 1929 0aa8 03A9     		add	r1, sp, #12
 1930 0aaa 2046     		mov	r0, r4
 1931 0aac 9FED1E0A 		vldr.32	s0, .L89+44
 1932 0ab0 1E4D     		ldr	r5, .L89+48
 1933 0ab2 FFF7FEFF 		bl	buffer_get_float32
 1934              	.LVL173:
 1935              		.loc 1 436 0
 1936 0ab6 03A9     		add	r1, sp, #12
 1937              		.loc 1 435 0
 1938 0ab8 85ED000A 		vstr.32	s0, [r5]
ARM GAS  /tmp/cczXzW7i.s 			page 35


 1939              		.loc 1 436 0
 1940 0abc 2046     		mov	r0, r4
 1941 0abe 9FED1A0A 		vldr.32	s0, .L89+44
 1942 0ac2 FFF7FEFF 		bl	buffer_get_float32
 1943              	.LVL174:
 1944              		.loc 1 438 0
 1945 0ac6 1A4B     		ldr	r3, .L89+52
 1946 0ac8 1B68     		ldr	r3, [r3]
 1947              		.loc 1 436 0
 1948 0aca F0EE400A 		vmov.f32	s1, s0
 1949              		.loc 1 438 0
 1950 0ace 002B     		cmp	r3, #0
 1951 0ad0 7FF4FDAA 		bne	.L80
 1952 0ad4 FFF79BBA 		b	.L16
 1953              	.LVL175:
 1954              	.L81:
 1955              		.loc 1 160 0
 1956 0ad8 03A9     		add	r1, sp, #12
 1957 0ada 9FED130A 		vldr.32	s0, .L89+44
 1958 0ade 2046     		mov	r0, r4
 1959 0ae0 FFF7FEFF 		bl	buffer_get_float32
 1960              	.LVL176:
 1961              		.loc 1 165 0
 1962 0ae4 039B     		ldr	r3, [sp, #12]
 1963              		.loc 1 160 0
 1964 0ae6 85ED100A 		vstr.32	s0, [r5, #64]
 1965              		.loc 1 165 0
 1966 0aea 9E42     		cmp	r6, r3
 1967 0aec A2DD     		ble	.L34
 1968              		.loc 1 166 0
 1969 0aee E25C     		ldrb	r2, [r4, r3]	@ zero_extendqisi2
 1970 0af0 85F84420 		strb	r2, [r5, #68]
 1971 0af4 0133     		adds	r3, r3, #1
 1972 0af6 0393     		str	r3, [sp, #12]
 1973 0af8 9FE7     		b	.L35
 1974              	.L90:
 1975 0afa 00BF     		.align	2
 1976              	.L89:
 1977 0afc 00000000 		.word	.LANCHOR7
 1978 0b00 00000000 		.word	.LANCHOR18
 1979 0b04 00000000 		.word	.LANCHOR2
 1980 0b08 0000C842 		.word	1120403456
 1981 0b0c 00007A44 		.word	1148846080
 1982 0b10 00401C46 		.word	1176256512
 1983 0b14 00000000 		.word	.LANCHOR3
 1984 0b18 00000000 		.word	.LANCHOR10
 1985 0b1c FFFFFFFF 		.word	.LANCHOR11-1
 1986 0b20 00000000 		.word	.LANCHOR12
 1987 0b24 00000000 		.word	.LANCHOR11
 1988 0b28 00247449 		.word	1232348160
 1989 0b2c 00000000 		.word	.LANCHOR13
 1990 0b30 00000000 		.word	.LANCHOR14
 1991              		.cfi_endproc
 1992              	.LFE232:
 1993              		.size	bldc_interface_process_packet, .-bldc_interface_process_packet
 1994              		.section	.text.bldc_interface_set_rx_value_func,"ax",%progbits
 1995              		.align	1
ARM GAS  /tmp/cczXzW7i.s 			page 36


 1996              		.p2align 4,,15
 1997              		.global	bldc_interface_set_rx_value_func
 1998              		.syntax unified
 1999              		.thumb
 2000              		.thumb_func
 2001              		.fpu fpv4-sp-d16
 2002              		.type	bldc_interface_set_rx_value_func, %function
 2003              	bldc_interface_set_rx_value_func:
 2004              	.LFB233:
 2005              		.loc 1 491 0
 2006              		.cfi_startproc
 2007              		@ args = 0, pretend = 0, frame = 0
 2008              		@ frame_needed = 0, uses_anonymous_args = 0
 2009              		@ link register save eliminated.
 2010              	.LVL177:
 2011              		.loc 1 492 0
 2012 0000 014B     		ldr	r3, .L92
 2013 0002 1860     		str	r0, [r3]
 2014              		.loc 1 493 0
 2015 0004 7047     		bx	lr
 2016              	.L93:
 2017 0006 00BF     		.align	2
 2018              	.L92:
 2019 0008 00000000 		.word	.LANCHOR3
 2020              		.cfi_endproc
 2021              	.LFE233:
 2022              		.size	bldc_interface_set_rx_value_func, .-bldc_interface_set_rx_value_func
 2023              		.section	.text.bldc_interface_set_rx_printf_func,"ax",%progbits
 2024              		.align	1
 2025              		.p2align 4,,15
 2026              		.global	bldc_interface_set_rx_printf_func
 2027              		.syntax unified
 2028              		.thumb
 2029              		.thumb_func
 2030              		.fpu fpv4-sp-d16
 2031              		.type	bldc_interface_set_rx_printf_func, %function
 2032              	bldc_interface_set_rx_printf_func:
 2033              	.LFB234:
 2034              		.loc 1 495 0
 2035              		.cfi_startproc
 2036              		@ args = 0, pretend = 0, frame = 0
 2037              		@ frame_needed = 0, uses_anonymous_args = 0
 2038              		@ link register save eliminated.
 2039              	.LVL178:
 2040              		.loc 1 496 0
 2041 0000 014B     		ldr	r3, .L95
 2042 0002 1860     		str	r0, [r3]
 2043              		.loc 1 497 0
 2044 0004 7047     		bx	lr
 2045              	.L96:
 2046 0006 00BF     		.align	2
 2047              	.L95:
 2048 0008 00000000 		.word	.LANCHOR4
 2049              		.cfi_endproc
 2050              	.LFE234:
 2051              		.size	bldc_interface_set_rx_printf_func, .-bldc_interface_set_rx_printf_func
 2052              		.section	.text.bldc_interface_set_rx_fw_func,"ax",%progbits
ARM GAS  /tmp/cczXzW7i.s 			page 37


 2053              		.align	1
 2054              		.p2align 4,,15
 2055              		.global	bldc_interface_set_rx_fw_func
 2056              		.syntax unified
 2057              		.thumb
 2058              		.thumb_func
 2059              		.fpu fpv4-sp-d16
 2060              		.type	bldc_interface_set_rx_fw_func, %function
 2061              	bldc_interface_set_rx_fw_func:
 2062              	.LFB235:
 2063              		.loc 1 499 0
 2064              		.cfi_startproc
 2065              		@ args = 0, pretend = 0, frame = 0
 2066              		@ frame_needed = 0, uses_anonymous_args = 0
 2067              		@ link register save eliminated.
 2068              	.LVL179:
 2069              		.loc 1 501 0
 2070 0000 7047     		bx	lr
 2071              		.cfi_endproc
 2072              	.LFE235:
 2073              		.size	bldc_interface_set_rx_fw_func, .-bldc_interface_set_rx_fw_func
 2074 0002 00BF     		.section	.text.bldc_interface_set_rx_rotor_pos_func,"ax",%progbits
 2075              		.align	1
 2076              		.p2align 4,,15
 2077              		.global	bldc_interface_set_rx_rotor_pos_func
 2078              		.syntax unified
 2079              		.thumb
 2080              		.thumb_func
 2081              		.fpu fpv4-sp-d16
 2082              		.type	bldc_interface_set_rx_rotor_pos_func, %function
 2083              	bldc_interface_set_rx_rotor_pos_func:
 2084              	.LFB236:
 2085              		.loc 1 503 0
 2086              		.cfi_startproc
 2087              		@ args = 0, pretend = 0, frame = 0
 2088              		@ frame_needed = 0, uses_anonymous_args = 0
 2089              		@ link register save eliminated.
 2090              	.LVL180:
 2091              		.loc 1 504 0
 2092 0000 014B     		ldr	r3, .L99
 2093 0002 1860     		str	r0, [r3]
 2094              		.loc 1 505 0
 2095 0004 7047     		bx	lr
 2096              	.L100:
 2097 0006 00BF     		.align	2
 2098              	.L99:
 2099 0008 00000000 		.word	.LANCHOR5
 2100              		.cfi_endproc
 2101              	.LFE236:
 2102              		.size	bldc_interface_set_rx_rotor_pos_func, .-bldc_interface_set_rx_rotor_pos_func
 2103              		.section	.text.bldc_interface_set_rx_mcconf_func,"ax",%progbits
 2104              		.align	1
 2105              		.p2align 4,,15
 2106              		.global	bldc_interface_set_rx_mcconf_func
 2107              		.syntax unified
 2108              		.thumb
 2109              		.thumb_func
ARM GAS  /tmp/cczXzW7i.s 			page 38


 2110              		.fpu fpv4-sp-d16
 2111              		.type	bldc_interface_set_rx_mcconf_func, %function
 2112              	bldc_interface_set_rx_mcconf_func:
 2113              	.LFB237:
 2114              		.loc 1 507 0
 2115              		.cfi_startproc
 2116              		@ args = 0, pretend = 0, frame = 0
 2117              		@ frame_needed = 0, uses_anonymous_args = 0
 2118              		@ link register save eliminated.
 2119              	.LVL181:
 2120              		.loc 1 508 0
 2121 0000 014B     		ldr	r3, .L102
 2122 0002 1860     		str	r0, [r3]
 2123              		.loc 1 509 0
 2124 0004 7047     		bx	lr
 2125              	.L103:
 2126 0006 00BF     		.align	2
 2127              	.L102:
 2128 0008 00000000 		.word	.LANCHOR7
 2129              		.cfi_endproc
 2130              	.LFE237:
 2131              		.size	bldc_interface_set_rx_mcconf_func, .-bldc_interface_set_rx_mcconf_func
 2132              		.section	.text.bldc_interface_set_rx_appconf_func,"ax",%progbits
 2133              		.align	1
 2134              		.p2align 4,,15
 2135              		.global	bldc_interface_set_rx_appconf_func
 2136              		.syntax unified
 2137              		.thumb
 2138              		.thumb_func
 2139              		.fpu fpv4-sp-d16
 2140              		.type	bldc_interface_set_rx_appconf_func, %function
 2141              	bldc_interface_set_rx_appconf_func:
 2142              	.LFB238:
 2143              		.loc 1 511 0
 2144              		.cfi_startproc
 2145              		@ args = 0, pretend = 0, frame = 0
 2146              		@ frame_needed = 0, uses_anonymous_args = 0
 2147              		@ link register save eliminated.
 2148              	.LVL182:
 2149              		.loc 1 512 0
 2150 0000 014B     		ldr	r3, .L105
 2151 0002 1860     		str	r0, [r3]
 2152              		.loc 1 513 0
 2153 0004 7047     		bx	lr
 2154              	.L106:
 2155 0006 00BF     		.align	2
 2156              	.L105:
 2157 0008 00000000 		.word	.LANCHOR9
 2158              		.cfi_endproc
 2159              	.LFE238:
 2160              		.size	bldc_interface_set_rx_appconf_func, .-bldc_interface_set_rx_appconf_func
 2161              		.section	.text.bldc_interface_set_rx_detect_func,"ax",%progbits
 2162              		.align	1
 2163              		.p2align 4,,15
 2164              		.global	bldc_interface_set_rx_detect_func
 2165              		.syntax unified
 2166              		.thumb
ARM GAS  /tmp/cczXzW7i.s 			page 39


 2167              		.thumb_func
 2168              		.fpu fpv4-sp-d16
 2169              		.type	bldc_interface_set_rx_detect_func, %function
 2170              	bldc_interface_set_rx_detect_func:
 2171              	.LFB239:
 2172              		.loc 1 516 0
 2173              		.cfi_startproc
 2174              		@ args = 0, pretend = 0, frame = 0
 2175              		@ frame_needed = 0, uses_anonymous_args = 0
 2176              		@ link register save eliminated.
 2177              	.LVL183:
 2178              		.loc 1 517 0
 2179 0000 014B     		ldr	r3, .L108
 2180 0002 1860     		str	r0, [r3]
 2181              		.loc 1 518 0
 2182 0004 7047     		bx	lr
 2183              	.L109:
 2184 0006 00BF     		.align	2
 2185              	.L108:
 2186 0008 00000000 		.word	.LANCHOR12
 2187              		.cfi_endproc
 2188              	.LFE239:
 2189              		.size	bldc_interface_set_rx_detect_func, .-bldc_interface_set_rx_detect_func
 2190              		.section	.text.bldc_interface_set_rx_dec_ppm_func,"ax",%progbits
 2191              		.align	1
 2192              		.p2align 4,,15
 2193              		.global	bldc_interface_set_rx_dec_ppm_func
 2194              		.syntax unified
 2195              		.thumb
 2196              		.thumb_func
 2197              		.fpu fpv4-sp-d16
 2198              		.type	bldc_interface_set_rx_dec_ppm_func, %function
 2199              	bldc_interface_set_rx_dec_ppm_func:
 2200              	.LFB240:
 2201              		.loc 1 520 0
 2202              		.cfi_startproc
 2203              		@ args = 0, pretend = 0, frame = 0
 2204              		@ frame_needed = 0, uses_anonymous_args = 0
 2205              		@ link register save eliminated.
 2206              	.LVL184:
 2207              		.loc 1 521 0
 2208 0000 014B     		ldr	r3, .L111
 2209 0002 1860     		str	r0, [r3]
 2210              		.loc 1 522 0
 2211 0004 7047     		bx	lr
 2212              	.L112:
 2213 0006 00BF     		.align	2
 2214              	.L111:
 2215 0008 00000000 		.word	.LANCHOR14
 2216              		.cfi_endproc
 2217              	.LFE240:
 2218              		.size	bldc_interface_set_rx_dec_ppm_func, .-bldc_interface_set_rx_dec_ppm_func
 2219              		.section	.text.bldc_interface_set_rx_dec_adc_func,"ax",%progbits
 2220              		.align	1
 2221              		.p2align 4,,15
 2222              		.global	bldc_interface_set_rx_dec_adc_func
 2223              		.syntax unified
ARM GAS  /tmp/cczXzW7i.s 			page 40


 2224              		.thumb
 2225              		.thumb_func
 2226              		.fpu fpv4-sp-d16
 2227              		.type	bldc_interface_set_rx_dec_adc_func, %function
 2228              	bldc_interface_set_rx_dec_adc_func:
 2229              	.LFB241:
 2230              		.loc 1 524 0
 2231              		.cfi_startproc
 2232              		@ args = 0, pretend = 0, frame = 0
 2233              		@ frame_needed = 0, uses_anonymous_args = 0
 2234              		@ link register save eliminated.
 2235              	.LVL185:
 2236              		.loc 1 525 0
 2237 0000 014B     		ldr	r3, .L114
 2238 0002 1860     		str	r0, [r3]
 2239              		.loc 1 526 0
 2240 0004 7047     		bx	lr
 2241              	.L115:
 2242 0006 00BF     		.align	2
 2243              	.L114:
 2244 0008 00000000 		.word	.LANCHOR16
 2245              		.cfi_endproc
 2246              	.LFE241:
 2247              		.size	bldc_interface_set_rx_dec_adc_func, .-bldc_interface_set_rx_dec_adc_func
 2248              		.section	.text.bldc_interface_set_rx_dec_chuk_func,"ax",%progbits
 2249              		.align	1
 2250              		.p2align 4,,15
 2251              		.global	bldc_interface_set_rx_dec_chuk_func
 2252              		.syntax unified
 2253              		.thumb
 2254              		.thumb_func
 2255              		.fpu fpv4-sp-d16
 2256              		.type	bldc_interface_set_rx_dec_chuk_func, %function
 2257              	bldc_interface_set_rx_dec_chuk_func:
 2258              	.LFB242:
 2259              		.loc 1 528 0
 2260              		.cfi_startproc
 2261              		@ args = 0, pretend = 0, frame = 0
 2262              		@ frame_needed = 0, uses_anonymous_args = 0
 2263              		@ link register save eliminated.
 2264              	.LVL186:
 2265              		.loc 1 529 0
 2266 0000 014B     		ldr	r3, .L117
 2267 0002 1860     		str	r0, [r3]
 2268              		.loc 1 530 0
 2269 0004 7047     		bx	lr
 2270              	.L118:
 2271 0006 00BF     		.align	2
 2272              	.L117:
 2273 0008 00000000 		.word	.LANCHOR17
 2274              		.cfi_endproc
 2275              	.LFE242:
 2276              		.size	bldc_interface_set_rx_dec_chuk_func, .-bldc_interface_set_rx_dec_chuk_func
 2277              		.section	.text.bldc_interface_set_rx_mcconf_received_func,"ax",%progbits
 2278              		.align	1
 2279              		.p2align 4,,15
 2280              		.global	bldc_interface_set_rx_mcconf_received_func
ARM GAS  /tmp/cczXzW7i.s 			page 41


 2281              		.syntax unified
 2282              		.thumb
 2283              		.thumb_func
 2284              		.fpu fpv4-sp-d16
 2285              		.type	bldc_interface_set_rx_mcconf_received_func, %function
 2286              	bldc_interface_set_rx_mcconf_received_func:
 2287              	.LFB243:
 2288              		.loc 1 532 0
 2289              		.cfi_startproc
 2290              		@ args = 0, pretend = 0, frame = 0
 2291              		@ frame_needed = 0, uses_anonymous_args = 0
 2292              		@ link register save eliminated.
 2293              	.LVL187:
 2294              		.loc 1 533 0
 2295 0000 014B     		ldr	r3, .L120
 2296 0002 1860     		str	r0, [r3]
 2297              		.loc 1 534 0
 2298 0004 7047     		bx	lr
 2299              	.L121:
 2300 0006 00BF     		.align	2
 2301              	.L120:
 2302 0008 00000000 		.word	.LANCHOR18
 2303              		.cfi_endproc
 2304              	.LFE243:
 2305              		.size	bldc_interface_set_rx_mcconf_received_func, .-bldc_interface_set_rx_mcconf_received_func
 2306              		.section	.text.bldc_interface_set_rx_appconf_received_func,"ax",%progbits
 2307              		.align	1
 2308              		.p2align 4,,15
 2309              		.global	bldc_interface_set_rx_appconf_received_func
 2310              		.syntax unified
 2311              		.thumb
 2312              		.thumb_func
 2313              		.fpu fpv4-sp-d16
 2314              		.type	bldc_interface_set_rx_appconf_received_func, %function
 2315              	bldc_interface_set_rx_appconf_received_func:
 2316              	.LFB244:
 2317              		.loc 1 536 0
 2318              		.cfi_startproc
 2319              		@ args = 0, pretend = 0, frame = 0
 2320              		@ frame_needed = 0, uses_anonymous_args = 0
 2321              		@ link register save eliminated.
 2322              	.LVL188:
 2323              		.loc 1 537 0
 2324 0000 014B     		ldr	r3, .L123
 2325 0002 1860     		str	r0, [r3]
 2326              		.loc 1 538 0
 2327 0004 7047     		bx	lr
 2328              	.L124:
 2329 0006 00BF     		.align	2
 2330              	.L123:
 2331 0008 00000000 		.word	.LANCHOR19
 2332              		.cfi_endproc
 2333              	.LFE244:
 2334              		.size	bldc_interface_set_rx_appconf_received_func, .-bldc_interface_set_rx_appconf_received_func
 2335              		.section	.text.bldc_interface_set_sim_control_function,"ax",%progbits
 2336              		.align	1
 2337              		.p2align 4,,15
ARM GAS  /tmp/cczXzW7i.s 			page 42


 2338              		.global	bldc_interface_set_sim_control_function
 2339              		.syntax unified
 2340              		.thumb
 2341              		.thumb_func
 2342              		.fpu fpv4-sp-d16
 2343              		.type	bldc_interface_set_sim_control_function, %function
 2344              	bldc_interface_set_sim_control_function:
 2345              	.LFB245:
 2346              		.loc 1 540 0
 2347              		.cfi_startproc
 2348              		@ args = 0, pretend = 0, frame = 0
 2349              		@ frame_needed = 0, uses_anonymous_args = 0
 2350              		@ link register save eliminated.
 2351              	.LVL189:
 2352              		.loc 1 541 0
 2353 0000 014B     		ldr	r3, .L126
 2354 0002 1860     		str	r0, [r3]
 2355              		.loc 1 542 0
 2356 0004 7047     		bx	lr
 2357              	.L127:
 2358 0006 00BF     		.align	2
 2359              	.L126:
 2360 0008 00000000 		.word	.LANCHOR20
 2361              		.cfi_endproc
 2362              	.LFE245:
 2363              		.size	bldc_interface_set_sim_control_function, .-bldc_interface_set_sim_control_function
 2364              		.section	.text.bldc_interface_set_sim_values_func,"ax",%progbits
 2365              		.align	1
 2366              		.p2align 4,,15
 2367              		.global	bldc_interface_set_sim_values_func
 2368              		.syntax unified
 2369              		.thumb
 2370              		.thumb_func
 2371              		.fpu fpv4-sp-d16
 2372              		.type	bldc_interface_set_sim_values_func, %function
 2373              	bldc_interface_set_sim_values_func:
 2374              	.LFB246:
 2375              		.loc 1 544 0
 2376              		.cfi_startproc
 2377              		@ args = 0, pretend = 0, frame = 0
 2378              		@ frame_needed = 0, uses_anonymous_args = 0
 2379              		@ link register save eliminated.
 2380              	.LVL190:
 2381              		.loc 1 545 0
 2382 0000 014B     		ldr	r3, .L129
 2383 0002 1860     		str	r0, [r3]
 2384              		.loc 1 546 0
 2385 0004 7047     		bx	lr
 2386              	.L130:
 2387 0006 00BF     		.align	2
 2388              	.L129:
 2389 0008 00000000 		.word	.LANCHOR21
 2390              		.cfi_endproc
 2391              	.LFE246:
 2392              		.size	bldc_interface_set_sim_values_func, .-bldc_interface_set_sim_values_func
 2393              		.section	.text.bldc_interface_terminal_cmd,"ax",%progbits
 2394              		.align	1
ARM GAS  /tmp/cczXzW7i.s 			page 43


 2395              		.p2align 4,,15
 2396              		.global	bldc_interface_terminal_cmd
 2397              		.syntax unified
 2398              		.thumb
 2399              		.thumb_func
 2400              		.fpu fpv4-sp-d16
 2401              		.type	bldc_interface_terminal_cmd, %function
 2402              	bldc_interface_terminal_cmd:
 2403              	.LFB247:
 2404              		.loc 1 549 0
 2405              		.cfi_startproc
 2406              		@ args = 0, pretend = 0, frame = 0
 2407              		@ frame_needed = 0, uses_anonymous_args = 0
 2408              	.LVL191:
 2409 0000 70B5     		push	{r4, r5, r6, lr}
 2410              		.cfi_def_cfa_offset 16
 2411              		.cfi_offset 4, -16
 2412              		.cfi_offset 5, -12
 2413              		.cfi_offset 6, -8
 2414              		.cfi_offset 14, -4
 2415              		.loc 1 549 0
 2416 0002 0646     		mov	r6, r0
 2417              		.loc 1 550 0
 2418 0004 FFF7FEFF 		bl	strlen
 2419              	.LVL192:
 2420              		.loc 1 551 0
 2421 0008 094C     		ldr	r4, .L135
 2422              		.loc 1 550 0
 2423 000a 0546     		mov	r5, r0
 2424              	.LVL193:
 2425              		.loc 1 551 0
 2426 000c 2046     		mov	r0, r4
 2427              	.LVL194:
 2428 000e 1423     		movs	r3, #20
 2429 0010 00F8013B 		strb	r3, [r0], #1
 2430              		.loc 1 552 0
 2431 0014 3146     		mov	r1, r6
 2432 0016 2A46     		mov	r2, r5
 2433 0018 FFF7FEFF 		bl	memcpy
 2434              	.LVL195:
 2435              	.LBB48:
 2436              	.LBB49:
 2437              		.loc 1 908 0
 2438 001c 054B     		ldr	r3, .L135+4
 2439 001e 1B68     		ldr	r3, [r3]
 2440 0020 03B1     		cbz	r3, .L134
 2441              	.LBE49:
 2442              	.LBE48:
 2443              		.loc 1 554 0
 2444 0022 70BD     		pop	{r4, r5, r6, pc}
 2445              	.LVL196:
 2446              	.L134:
 2447              	.LBB52:
 2448              	.LBB50:
 2449 0024 691C     		adds	r1, r5, #1
 2450 0026 2046     		mov	r0, r4
 2451              	.LBE50:
ARM GAS  /tmp/cczXzW7i.s 			page 44


 2452              	.LBE52:
 2453 0028 BDE87040 		pop	{r4, r5, r6, lr}
 2454              		.cfi_restore 14
 2455              		.cfi_restore 6
 2456              		.cfi_restore 5
 2457              		.cfi_restore 4
 2458              		.cfi_def_cfa_offset 0
 2459              	.LVL197:
 2460              	.LBB53:
 2461              	.LBB51:
 2462 002c FFF7FEBF 		b	send_packet_no_fwd.part.0
 2463              	.LVL198:
 2464              	.L136:
 2465              		.align	2
 2466              	.L135:
 2467 0030 00000000 		.word	.LANCHOR22
 2468 0034 00000000 		.word	.LANCHOR1
 2469              	.LBE51:
 2470              	.LBE53:
 2471              		.cfi_endproc
 2472              	.LFE247:
 2473              		.size	bldc_interface_terminal_cmd, .-bldc_interface_terminal_cmd
 2474              		.section	.text.bldc_interface_set_duty_cycle,"ax",%progbits
 2475              		.align	1
 2476              		.p2align 4,,15
 2477              		.global	bldc_interface_set_duty_cycle
 2478              		.syntax unified
 2479              		.thumb
 2480              		.thumb_func
 2481              		.fpu fpv4-sp-d16
 2482              		.type	bldc_interface_set_duty_cycle, %function
 2483              	bldc_interface_set_duty_cycle:
 2484              	.LFB248:
 2485              		.loc 1 556 0
 2486              		.cfi_startproc
 2487              		@ args = 0, pretend = 0, frame = 8
 2488              		@ frame_needed = 0, uses_anonymous_args = 0
 2489              	.LVL199:
 2490 0000 10B5     		push	{r4, lr}
 2491              		.cfi_def_cfa_offset 8
 2492              		.cfi_offset 4, -8
 2493              		.cfi_offset 14, -4
 2494              		.loc 1 557 0
 2495 0002 0E4B     		ldr	r3, .L142
 2496 0004 1B68     		ldr	r3, [r3]
 2497              		.loc 1 556 0
 2498 0006 82B0     		sub	sp, sp, #8
 2499              		.cfi_def_cfa_offset 16
 2500              		.loc 1 557 0
 2501 0008 1BB1     		cbz	r3, .L138
 2502              		.loc 1 558 0
 2503 000a 0020     		movs	r0, #0
 2504 000c 9847     		blx	r3
 2505              	.LVL200:
 2506              	.L137:
 2507              		.loc 1 565 0
 2508 000e 02B0     		add	sp, sp, #8
ARM GAS  /tmp/cczXzW7i.s 			page 45


 2509              		.cfi_remember_state
 2510              		.cfi_def_cfa_offset 8
 2511              		@ sp needed
 2512 0010 10BD     		pop	{r4, pc}
 2513              	.LVL201:
 2514              	.L138:
 2515              		.cfi_restore_state
 2516              		.loc 1 562 0
 2517 0012 02A9     		add	r1, sp, #8
 2518 0014 0A4C     		ldr	r4, .L142+4
 2519              		.loc 1 563 0
 2520 0016 DFED0B0A 		vldr.32	s1, .L142+8
 2521              		.loc 1 562 0
 2522 001a 0123     		movs	r3, #1
 2523 001c 41F8043D 		str	r3, [r1, #-4]!
 2524              		.loc 1 563 0
 2525 0020 2046     		mov	r0, r4
 2526              		.loc 1 562 0
 2527 0022 0523     		movs	r3, #5
 2528 0024 2370     		strb	r3, [r4]
 2529              		.loc 1 563 0
 2530 0026 FFF7FEFF 		bl	buffer_append_float32
 2531              	.LVL202:
 2532              	.LBB54:
 2533              	.LBB55:
 2534              		.loc 1 908 0
 2535 002a 074B     		ldr	r3, .L142+12
 2536 002c 1B68     		ldr	r3, [r3]
 2537 002e 002B     		cmp	r3, #0
 2538 0030 EDD1     		bne	.L137
 2539 0032 2046     		mov	r0, r4
 2540 0034 0199     		ldr	r1, [sp, #4]
 2541 0036 FFF7FEFF 		bl	send_packet_no_fwd.part.0
 2542              	.LVL203:
 2543 003a E8E7     		b	.L137
 2544              	.L143:
 2545              		.align	2
 2546              	.L142:
 2547 003c 00000000 		.word	.LANCHOR20
 2548 0040 00000000 		.word	.LANCHOR22
 2549 0044 0050C347 		.word	1203982336
 2550 0048 00000000 		.word	.LANCHOR1
 2551              	.LBE55:
 2552              	.LBE54:
 2553              		.cfi_endproc
 2554              	.LFE248:
 2555              		.size	bldc_interface_set_duty_cycle, .-bldc_interface_set_duty_cycle
 2556              		.section	.text.bldc_interface_set_current,"ax",%progbits
 2557              		.align	1
 2558              		.p2align 4,,15
 2559              		.global	bldc_interface_set_current
 2560              		.syntax unified
 2561              		.thumb
 2562              		.thumb_func
 2563              		.fpu fpv4-sp-d16
 2564              		.type	bldc_interface_set_current, %function
 2565              	bldc_interface_set_current:
ARM GAS  /tmp/cczXzW7i.s 			page 46


 2566              	.LFB249:
 2567              		.loc 1 567 0
 2568              		.cfi_startproc
 2569              		@ args = 0, pretend = 0, frame = 8
 2570              		@ frame_needed = 0, uses_anonymous_args = 0
 2571              	.LVL204:
 2572 0000 10B5     		push	{r4, lr}
 2573              		.cfi_def_cfa_offset 8
 2574              		.cfi_offset 4, -8
 2575              		.cfi_offset 14, -4
 2576              		.loc 1 568 0
 2577 0002 0E4B     		ldr	r3, .L149
 2578 0004 1B68     		ldr	r3, [r3]
 2579              		.loc 1 567 0
 2580 0006 82B0     		sub	sp, sp, #8
 2581              		.cfi_def_cfa_offset 16
 2582              		.loc 1 568 0
 2583 0008 1BB1     		cbz	r3, .L145
 2584              		.loc 1 569 0
 2585 000a 0120     		movs	r0, #1
 2586 000c 9847     		blx	r3
 2587              	.LVL205:
 2588              	.L144:
 2589              		.loc 1 576 0
 2590 000e 02B0     		add	sp, sp, #8
 2591              		.cfi_remember_state
 2592              		.cfi_def_cfa_offset 8
 2593              		@ sp needed
 2594 0010 10BD     		pop	{r4, pc}
 2595              	.LVL206:
 2596              	.L145:
 2597              		.cfi_restore_state
 2598              		.loc 1 573 0
 2599 0012 02A9     		add	r1, sp, #8
 2600 0014 0A4C     		ldr	r4, .L149+4
 2601              		.loc 1 574 0
 2602 0016 DFED0B0A 		vldr.32	s1, .L149+8
 2603              		.loc 1 573 0
 2604 001a 0123     		movs	r3, #1
 2605 001c 41F8043D 		str	r3, [r1, #-4]!
 2606              		.loc 1 574 0
 2607 0020 2046     		mov	r0, r4
 2608              		.loc 1 573 0
 2609 0022 0623     		movs	r3, #6
 2610 0024 2370     		strb	r3, [r4]
 2611              		.loc 1 574 0
 2612 0026 FFF7FEFF 		bl	buffer_append_float32
 2613              	.LVL207:
 2614              	.LBB56:
 2615              	.LBB57:
 2616              		.loc 1 908 0
 2617 002a 074B     		ldr	r3, .L149+12
 2618 002c 1B68     		ldr	r3, [r3]
 2619 002e 002B     		cmp	r3, #0
 2620 0030 EDD1     		bne	.L144
 2621 0032 2046     		mov	r0, r4
 2622 0034 0199     		ldr	r1, [sp, #4]
ARM GAS  /tmp/cczXzW7i.s 			page 47


 2623 0036 FFF7FEFF 		bl	send_packet_no_fwd.part.0
 2624              	.LVL208:
 2625 003a E8E7     		b	.L144
 2626              	.L150:
 2627              		.align	2
 2628              	.L149:
 2629 003c 00000000 		.word	.LANCHOR20
 2630 0040 00000000 		.word	.LANCHOR22
 2631 0044 00007A44 		.word	1148846080
 2632 0048 00000000 		.word	.LANCHOR1
 2633              	.LBE57:
 2634              	.LBE56:
 2635              		.cfi_endproc
 2636              	.LFE249:
 2637              		.size	bldc_interface_set_current, .-bldc_interface_set_current
 2638              		.section	.text.bldc_interface_set_current_brake,"ax",%progbits
 2639              		.align	1
 2640              		.p2align 4,,15
 2641              		.global	bldc_interface_set_current_brake
 2642              		.syntax unified
 2643              		.thumb
 2644              		.thumb_func
 2645              		.fpu fpv4-sp-d16
 2646              		.type	bldc_interface_set_current_brake, %function
 2647              	bldc_interface_set_current_brake:
 2648              	.LFB250:
 2649              		.loc 1 578 0
 2650              		.cfi_startproc
 2651              		@ args = 0, pretend = 0, frame = 8
 2652              		@ frame_needed = 0, uses_anonymous_args = 0
 2653              	.LVL209:
 2654 0000 10B5     		push	{r4, lr}
 2655              		.cfi_def_cfa_offset 8
 2656              		.cfi_offset 4, -8
 2657              		.cfi_offset 14, -4
 2658              		.loc 1 579 0
 2659 0002 0E4B     		ldr	r3, .L156
 2660 0004 1B68     		ldr	r3, [r3]
 2661              		.loc 1 578 0
 2662 0006 82B0     		sub	sp, sp, #8
 2663              		.cfi_def_cfa_offset 16
 2664              		.loc 1 579 0
 2665 0008 1BB1     		cbz	r3, .L152
 2666              		.loc 1 580 0
 2667 000a 0220     		movs	r0, #2
 2668 000c 9847     		blx	r3
 2669              	.LVL210:
 2670              	.L151:
 2671              		.loc 1 587 0
 2672 000e 02B0     		add	sp, sp, #8
 2673              		.cfi_remember_state
 2674              		.cfi_def_cfa_offset 8
 2675              		@ sp needed
 2676 0010 10BD     		pop	{r4, pc}
 2677              	.LVL211:
 2678              	.L152:
 2679              		.cfi_restore_state
ARM GAS  /tmp/cczXzW7i.s 			page 48


 2680              		.loc 1 584 0
 2681 0012 02A9     		add	r1, sp, #8
 2682 0014 0A4C     		ldr	r4, .L156+4
 2683              		.loc 1 585 0
 2684 0016 DFED0B0A 		vldr.32	s1, .L156+8
 2685              		.loc 1 584 0
 2686 001a 0123     		movs	r3, #1
 2687 001c 41F8043D 		str	r3, [r1, #-4]!
 2688              		.loc 1 585 0
 2689 0020 2046     		mov	r0, r4
 2690              		.loc 1 584 0
 2691 0022 0723     		movs	r3, #7
 2692 0024 2370     		strb	r3, [r4]
 2693              		.loc 1 585 0
 2694 0026 FFF7FEFF 		bl	buffer_append_float32
 2695              	.LVL212:
 2696              	.LBB58:
 2697              	.LBB59:
 2698              		.loc 1 908 0
 2699 002a 074B     		ldr	r3, .L156+12
 2700 002c 1B68     		ldr	r3, [r3]
 2701 002e 002B     		cmp	r3, #0
 2702 0030 EDD1     		bne	.L151
 2703 0032 2046     		mov	r0, r4
 2704 0034 0199     		ldr	r1, [sp, #4]
 2705 0036 FFF7FEFF 		bl	send_packet_no_fwd.part.0
 2706              	.LVL213:
 2707 003a E8E7     		b	.L151
 2708              	.L157:
 2709              		.align	2
 2710              	.L156:
 2711 003c 00000000 		.word	.LANCHOR20
 2712 0040 00000000 		.word	.LANCHOR22
 2713 0044 00007A44 		.word	1148846080
 2714 0048 00000000 		.word	.LANCHOR1
 2715              	.LBE59:
 2716              	.LBE58:
 2717              		.cfi_endproc
 2718              	.LFE250:
 2719              		.size	bldc_interface_set_current_brake, .-bldc_interface_set_current_brake
 2720              		.section	.text.bldc_interface_set_rpm,"ax",%progbits
 2721              		.align	1
 2722              		.p2align 4,,15
 2723              		.global	bldc_interface_set_rpm
 2724              		.syntax unified
 2725              		.thumb
 2726              		.thumb_func
 2727              		.fpu fpv4-sp-d16
 2728              		.type	bldc_interface_set_rpm, %function
 2729              	bldc_interface_set_rpm:
 2730              	.LFB251:
 2731              		.loc 1 589 0
 2732              		.cfi_startproc
 2733              		@ args = 0, pretend = 0, frame = 8
 2734              		@ frame_needed = 0, uses_anonymous_args = 0
 2735              	.LVL214:
 2736 0000 10B5     		push	{r4, lr}
ARM GAS  /tmp/cczXzW7i.s 			page 49


 2737              		.cfi_def_cfa_offset 8
 2738              		.cfi_offset 4, -8
 2739              		.cfi_offset 14, -4
 2740              		.loc 1 590 0
 2741 0002 104B     		ldr	r3, .L163
 2742 0004 1B68     		ldr	r3, [r3]
 2743              		.loc 1 589 0
 2744 0006 82B0     		sub	sp, sp, #8
 2745              		.cfi_def_cfa_offset 16
 2746              		.loc 1 589 0
 2747 0008 00EE100A 		vmov	s0, r0	@ int
 2748              		.loc 1 590 0
 2749 000c 2BB1     		cbz	r3, .L159
 2750              		.loc 1 591 0
 2751 000e B8EEC00A 		vcvt.f32.s32	s0, s0
 2752 0012 0320     		movs	r0, #3
 2753              	.LVL215:
 2754 0014 9847     		blx	r3
 2755              	.LVL216:
 2756              	.L158:
 2757              		.loc 1 598 0
 2758 0016 02B0     		add	sp, sp, #8
 2759              		.cfi_remember_state
 2760              		.cfi_def_cfa_offset 8
 2761              		@ sp needed
 2762 0018 10BD     		pop	{r4, pc}
 2763              	.LVL217:
 2764              	.L159:
 2765              		.cfi_restore_state
 2766              		.loc 1 595 0
 2767 001a 02AA     		add	r2, sp, #8
 2768 001c 0A4C     		ldr	r4, .L163+4
 2769 001e 0123     		movs	r3, #1
 2770 0020 42F8043D 		str	r3, [r2, #-4]!
 2771              		.loc 1 596 0
 2772 0024 2046     		mov	r0, r4
 2773              	.LVL218:
 2774              		.loc 1 595 0
 2775 0026 0823     		movs	r3, #8
 2776              		.loc 1 596 0
 2777 0028 10EE101A 		vmov	r1, s0	@ int
 2778              		.loc 1 595 0
 2779 002c 2370     		strb	r3, [r4]
 2780              		.loc 1 596 0
 2781 002e FFF7FEFF 		bl	buffer_append_int32
 2782              	.LVL219:
 2783              	.LBB60:
 2784              	.LBB61:
 2785              		.loc 1 908 0
 2786 0032 064B     		ldr	r3, .L163+8
 2787 0034 1B68     		ldr	r3, [r3]
 2788 0036 002B     		cmp	r3, #0
 2789 0038 EDD1     		bne	.L158
 2790 003a 2046     		mov	r0, r4
 2791 003c 0199     		ldr	r1, [sp, #4]
 2792 003e FFF7FEFF 		bl	send_packet_no_fwd.part.0
 2793              	.LVL220:
ARM GAS  /tmp/cczXzW7i.s 			page 50


 2794 0042 E8E7     		b	.L158
 2795              	.L164:
 2796              		.align	2
 2797              	.L163:
 2798 0044 00000000 		.word	.LANCHOR20
 2799 0048 00000000 		.word	.LANCHOR22
 2800 004c 00000000 		.word	.LANCHOR1
 2801              	.LBE61:
 2802              	.LBE60:
 2803              		.cfi_endproc
 2804              	.LFE251:
 2805              		.size	bldc_interface_set_rpm, .-bldc_interface_set_rpm
 2806              		.section	.text.bldc_interface_set_pos,"ax",%progbits
 2807              		.align	1
 2808              		.p2align 4,,15
 2809              		.global	bldc_interface_set_pos
 2810              		.syntax unified
 2811              		.thumb
 2812              		.thumb_func
 2813              		.fpu fpv4-sp-d16
 2814              		.type	bldc_interface_set_pos, %function
 2815              	bldc_interface_set_pos:
 2816              	.LFB252:
 2817              		.loc 1 600 0
 2818              		.cfi_startproc
 2819              		@ args = 0, pretend = 0, frame = 8
 2820              		@ frame_needed = 0, uses_anonymous_args = 0
 2821              	.LVL221:
 2822 0000 10B5     		push	{r4, lr}
 2823              		.cfi_def_cfa_offset 8
 2824              		.cfi_offset 4, -8
 2825              		.cfi_offset 14, -4
 2826              		.loc 1 601 0
 2827 0002 0E4B     		ldr	r3, .L170
 2828 0004 1B68     		ldr	r3, [r3]
 2829              		.loc 1 600 0
 2830 0006 82B0     		sub	sp, sp, #8
 2831              		.cfi_def_cfa_offset 16
 2832              		.loc 1 601 0
 2833 0008 1BB1     		cbz	r3, .L166
 2834              		.loc 1 602 0
 2835 000a 0420     		movs	r0, #4
 2836 000c 9847     		blx	r3
 2837              	.LVL222:
 2838              	.L165:
 2839              		.loc 1 609 0
 2840 000e 02B0     		add	sp, sp, #8
 2841              		.cfi_remember_state
 2842              		.cfi_def_cfa_offset 8
 2843              		@ sp needed
 2844 0010 10BD     		pop	{r4, pc}
 2845              	.LVL223:
 2846              	.L166:
 2847              		.cfi_restore_state
 2848              		.loc 1 606 0
 2849 0012 02A9     		add	r1, sp, #8
 2850 0014 0A4C     		ldr	r4, .L170+4
ARM GAS  /tmp/cczXzW7i.s 			page 51


 2851              		.loc 1 607 0
 2852 0016 DFED0B0A 		vldr.32	s1, .L170+8
 2853              		.loc 1 606 0
 2854 001a 0123     		movs	r3, #1
 2855 001c 41F8043D 		str	r3, [r1, #-4]!
 2856              		.loc 1 607 0
 2857 0020 2046     		mov	r0, r4
 2858              		.loc 1 606 0
 2859 0022 0923     		movs	r3, #9
 2860 0024 2370     		strb	r3, [r4]
 2861              		.loc 1 607 0
 2862 0026 FFF7FEFF 		bl	buffer_append_float32
 2863              	.LVL224:
 2864              	.LBB62:
 2865              	.LBB63:
 2866              		.loc 1 908 0
 2867 002a 074B     		ldr	r3, .L170+12
 2868 002c 1B68     		ldr	r3, [r3]
 2869 002e 002B     		cmp	r3, #0
 2870 0030 EDD1     		bne	.L165
 2871 0032 2046     		mov	r0, r4
 2872 0034 0199     		ldr	r1, [sp, #4]
 2873 0036 FFF7FEFF 		bl	send_packet_no_fwd.part.0
 2874              	.LVL225:
 2875 003a E8E7     		b	.L165
 2876              	.L171:
 2877              		.align	2
 2878              	.L170:
 2879 003c 00000000 		.word	.LANCHOR20
 2880 0040 00000000 		.word	.LANCHOR22
 2881 0044 00247449 		.word	1232348160
 2882 0048 00000000 		.word	.LANCHOR1
 2883              	.LBE63:
 2884              	.LBE62:
 2885              		.cfi_endproc
 2886              	.LFE252:
 2887              		.size	bldc_interface_set_pos, .-bldc_interface_set_pos
 2888              		.section	.text.bldc_interface_set_handbrake,"ax",%progbits
 2889              		.align	1
 2890              		.p2align 4,,15
 2891              		.global	bldc_interface_set_handbrake
 2892              		.syntax unified
 2893              		.thumb
 2894              		.thumb_func
 2895              		.fpu fpv4-sp-d16
 2896              		.type	bldc_interface_set_handbrake, %function
 2897              	bldc_interface_set_handbrake:
 2898              	.LFB253:
 2899              		.loc 1 611 0
 2900              		.cfi_startproc
 2901              		@ args = 0, pretend = 0, frame = 8
 2902              		@ frame_needed = 0, uses_anonymous_args = 0
 2903              	.LVL226:
 2904 0000 10B5     		push	{r4, lr}
 2905              		.cfi_def_cfa_offset 8
 2906              		.cfi_offset 4, -8
 2907              		.cfi_offset 14, -4
ARM GAS  /tmp/cczXzW7i.s 			page 52


 2908 0002 82B0     		sub	sp, sp, #8
 2909              		.cfi_def_cfa_offset 16
 2910              		.loc 1 613 0
 2911 0004 02A9     		add	r1, sp, #8
 2912 0006 0B4C     		ldr	r4, .L176
 2913              		.loc 1 614 0
 2914 0008 DFED0B0A 		vldr.32	s1, .L176+4
 2915              		.loc 1 613 0
 2916 000c 0123     		movs	r3, #1
 2917 000e 41F8043D 		str	r3, [r1, #-4]!
 2918              		.loc 1 614 0
 2919 0012 2046     		mov	r0, r4
 2920              		.loc 1 613 0
 2921 0014 0A23     		movs	r3, #10
 2922 0016 2370     		strb	r3, [r4]
 2923              		.loc 1 614 0
 2924 0018 FFF7FEFF 		bl	buffer_append_float32
 2925              	.LVL227:
 2926              	.LBB64:
 2927              	.LBB65:
 2928              		.loc 1 908 0
 2929 001c 074B     		ldr	r3, .L176+8
 2930 001e 1B68     		ldr	r3, [r3]
 2931 0020 0BB1     		cbz	r3, .L175
 2932              	.LBE65:
 2933              	.LBE64:
 2934              		.loc 1 616 0
 2935 0022 02B0     		add	sp, sp, #8
 2936              		.cfi_remember_state
 2937              		.cfi_def_cfa_offset 8
 2938              		@ sp needed
 2939 0024 10BD     		pop	{r4, pc}
 2940              	.LVL228:
 2941              	.L175:
 2942              		.cfi_restore_state
 2943              	.LBB67:
 2944              	.LBB66:
 2945 0026 2046     		mov	r0, r4
 2946 0028 0199     		ldr	r1, [sp, #4]
 2947 002a FFF7FEFF 		bl	send_packet_no_fwd.part.0
 2948              	.LVL229:
 2949              	.LBE66:
 2950              	.LBE67:
 2951 002e 02B0     		add	sp, sp, #8
 2952              		.cfi_def_cfa_offset 8
 2953              		@ sp needed
 2954 0030 10BD     		pop	{r4, pc}
 2955              	.L177:
 2956 0032 00BF     		.align	2
 2957              	.L176:
 2958 0034 00000000 		.word	.LANCHOR22
 2959 0038 00007A44 		.word	1148846080
 2960 003c 00000000 		.word	.LANCHOR1
 2961              		.cfi_endproc
 2962              	.LFE253:
 2963              		.size	bldc_interface_set_handbrake, .-bldc_interface_set_handbrake
 2964              		.section	.text.bldc_interface_set_servo_pos,"ax",%progbits
ARM GAS  /tmp/cczXzW7i.s 			page 53


 2965              		.align	1
 2966              		.p2align 4,,15
 2967              		.global	bldc_interface_set_servo_pos
 2968              		.syntax unified
 2969              		.thumb
 2970              		.thumb_func
 2971              		.fpu fpv4-sp-d16
 2972              		.type	bldc_interface_set_servo_pos, %function
 2973              	bldc_interface_set_servo_pos:
 2974              	.LFB254:
 2975              		.loc 1 618 0
 2976              		.cfi_startproc
 2977              		@ args = 0, pretend = 0, frame = 8
 2978              		@ frame_needed = 0, uses_anonymous_args = 0
 2979              	.LVL230:
 2980 0000 10B5     		push	{r4, lr}
 2981              		.cfi_def_cfa_offset 8
 2982              		.cfi_offset 4, -8
 2983              		.cfi_offset 14, -4
 2984 0002 82B0     		sub	sp, sp, #8
 2985              		.cfi_def_cfa_offset 16
 2986              		.loc 1 620 0
 2987 0004 02A9     		add	r1, sp, #8
 2988 0006 0B4C     		ldr	r4, .L182
 2989              		.loc 1 621 0
 2990 0008 DFED0B0A 		vldr.32	s1, .L182+4
 2991              		.loc 1 620 0
 2992 000c 0123     		movs	r3, #1
 2993 000e 41F8043D 		str	r3, [r1, #-4]!
 2994              		.loc 1 621 0
 2995 0012 2046     		mov	r0, r4
 2996              		.loc 1 620 0
 2997 0014 0C23     		movs	r3, #12
 2998 0016 2370     		strb	r3, [r4]
 2999              		.loc 1 621 0
 3000 0018 FFF7FEFF 		bl	buffer_append_float16
 3001              	.LVL231:
 3002              	.LBB68:
 3003              	.LBB69:
 3004              		.loc 1 908 0
 3005 001c 074B     		ldr	r3, .L182+8
 3006 001e 1B68     		ldr	r3, [r3]
 3007 0020 0BB1     		cbz	r3, .L181
 3008              	.LBE69:
 3009              	.LBE68:
 3010              		.loc 1 623 0
 3011 0022 02B0     		add	sp, sp, #8
 3012              		.cfi_remember_state
 3013              		.cfi_def_cfa_offset 8
 3014              		@ sp needed
 3015 0024 10BD     		pop	{r4, pc}
 3016              	.LVL232:
 3017              	.L181:
 3018              		.cfi_restore_state
 3019              	.LBB71:
 3020              	.LBB70:
 3021 0026 2046     		mov	r0, r4
ARM GAS  /tmp/cczXzW7i.s 			page 54


 3022 0028 0199     		ldr	r1, [sp, #4]
 3023 002a FFF7FEFF 		bl	send_packet_no_fwd.part.0
 3024              	.LVL233:
 3025              	.LBE70:
 3026              	.LBE71:
 3027 002e 02B0     		add	sp, sp, #8
 3028              		.cfi_def_cfa_offset 8
 3029              		@ sp needed
 3030 0030 10BD     		pop	{r4, pc}
 3031              	.L183:
 3032 0032 00BF     		.align	2
 3033              	.L182:
 3034 0034 00000000 		.word	.LANCHOR22
 3035 0038 00007A44 		.word	1148846080
 3036 003c 00000000 		.word	.LANCHOR1
 3037              		.cfi_endproc
 3038              	.LFE254:
 3039              		.size	bldc_interface_set_servo_pos, .-bldc_interface_set_servo_pos
 3040              		.section	.text.bldc_interface_set_mcconf,"ax",%progbits
 3041              		.align	1
 3042              		.p2align 4,,15
 3043              		.global	bldc_interface_set_mcconf
 3044              		.syntax unified
 3045              		.thumb
 3046              		.thumb_func
 3047              		.fpu fpv4-sp-d16
 3048              		.type	bldc_interface_set_mcconf, %function
 3049              	bldc_interface_set_mcconf:
 3050              	.LFB255:
 3051              		.loc 1 625 0
 3052              		.cfi_startproc
 3053              		@ args = 0, pretend = 0, frame = 8
 3054              		@ frame_needed = 0, uses_anonymous_args = 0
 3055              	.LVL234:
 3056 0000 70B5     		push	{r4, r5, r6, lr}
 3057              		.cfi_def_cfa_offset 16
 3058              		.cfi_offset 4, -16
 3059              		.cfi_offset 5, -12
 3060              		.cfi_offset 6, -8
 3061              		.cfi_offset 14, -4
 3062              		.loc 1 627 0
 3063 0002 F34C     		ldr	r4, .L188
 3064 0004 0D23     		movs	r3, #13
 3065 0006 2370     		strb	r3, [r4]
 3066              		.loc 1 629 0
 3067 0008 0378     		ldrb	r3, [r0]	@ zero_extendqisi2
 3068 000a 6370     		strb	r3, [r4, #1]
 3069              		.loc 1 630 0
 3070 000c 4378     		ldrb	r3, [r0, #1]	@ zero_extendqisi2
 3071 000e A370     		strb	r3, [r4, #2]
 3072              		.loc 1 625 0
 3073 0010 82B0     		sub	sp, sp, #8
 3074              		.cfi_def_cfa_offset 24
 3075              		.loc 1 632 0
 3076 0012 02AE     		add	r6, sp, #8
 3077              		.loc 1 631 0
 3078 0014 8378     		ldrb	r3, [r0, #2]	@ zero_extendqisi2
ARM GAS  /tmp/cczXzW7i.s 			page 55


 3079 0016 E370     		strb	r3, [r4, #3]
 3080              		.loc 1 632 0
 3081 0018 0522     		movs	r2, #5
 3082 001a 46F8042D 		str	r2, [r6, #-4]!
 3083 001e C378     		ldrb	r3, [r0, #3]	@ zero_extendqisi2
 3084 0020 2371     		strb	r3, [r4, #4]
 3085              		.loc 1 625 0
 3086 0022 0546     		mov	r5, r0
 3087              		.loc 1 634 0
 3088 0024 90ED010A 		vldr.32	s0, [r0, #4]
 3089 0028 3146     		mov	r1, r6
 3090 002a 2046     		mov	r0, r4
 3091              	.LVL235:
 3092 002c FFF7FEFF 		bl	buffer_append_float32_auto
 3093              	.LVL236:
 3094              		.loc 1 635 0
 3095 0030 3146     		mov	r1, r6
 3096 0032 95ED020A 		vldr.32	s0, [r5, #8]
 3097 0036 2046     		mov	r0, r4
 3098 0038 FFF7FEFF 		bl	buffer_append_float32_auto
 3099              	.LVL237:
 3100              		.loc 1 636 0
 3101 003c 3146     		mov	r1, r6
 3102 003e 95ED030A 		vldr.32	s0, [r5, #12]
 3103 0042 2046     		mov	r0, r4
 3104 0044 FFF7FEFF 		bl	buffer_append_float32_auto
 3105              	.LVL238:
 3106              		.loc 1 637 0
 3107 0048 3146     		mov	r1, r6
 3108 004a 95ED040A 		vldr.32	s0, [r5, #16]
 3109 004e 2046     		mov	r0, r4
 3110 0050 FFF7FEFF 		bl	buffer_append_float32_auto
 3111              	.LVL239:
 3112              		.loc 1 638 0
 3113 0054 3146     		mov	r1, r6
 3114 0056 95ED050A 		vldr.32	s0, [r5, #20]
 3115 005a 2046     		mov	r0, r4
 3116 005c FFF7FEFF 		bl	buffer_append_float32_auto
 3117              	.LVL240:
 3118              		.loc 1 639 0
 3119 0060 3146     		mov	r1, r6
 3120 0062 95ED060A 		vldr.32	s0, [r5, #24]
 3121 0066 2046     		mov	r0, r4
 3122 0068 FFF7FEFF 		bl	buffer_append_float32_auto
 3123              	.LVL241:
 3124              		.loc 1 640 0
 3125 006c 3146     		mov	r1, r6
 3126 006e 95ED070A 		vldr.32	s0, [r5, #28]
 3127 0072 2046     		mov	r0, r4
 3128 0074 FFF7FEFF 		bl	buffer_append_float32_auto
 3129              	.LVL242:
 3130              		.loc 1 641 0
 3131 0078 3146     		mov	r1, r6
 3132 007a 95ED080A 		vldr.32	s0, [r5, #32]
 3133 007e 2046     		mov	r0, r4
 3134 0080 FFF7FEFF 		bl	buffer_append_float32_auto
 3135              	.LVL243:
ARM GAS  /tmp/cczXzW7i.s 			page 56


 3136              		.loc 1 642 0
 3137 0084 3146     		mov	r1, r6
 3138 0086 95ED090A 		vldr.32	s0, [r5, #36]
 3139 008a 2046     		mov	r0, r4
 3140 008c FFF7FEFF 		bl	buffer_append_float32_auto
 3141              	.LVL244:
 3142              		.loc 1 643 0
 3143 0090 3146     		mov	r1, r6
 3144 0092 95ED0A0A 		vldr.32	s0, [r5, #40]
 3145 0096 2046     		mov	r0, r4
 3146 0098 FFF7FEFF 		bl	buffer_append_float32_auto
 3147              	.LVL245:
 3148              		.loc 1 644 0
 3149 009c 3146     		mov	r1, r6
 3150 009e 95ED0B0A 		vldr.32	s0, [r5, #44]
 3151 00a2 2046     		mov	r0, r4
 3152 00a4 FFF7FEFF 		bl	buffer_append_float32_auto
 3153              	.LVL246:
 3154              		.loc 1 645 0
 3155 00a8 3146     		mov	r1, r6
 3156 00aa 95ED0C0A 		vldr.32	s0, [r5, #48]
 3157 00ae 2046     		mov	r0, r4
 3158 00b0 FFF7FEFF 		bl	buffer_append_float32_auto
 3159              	.LVL247:
 3160              		.loc 1 646 0
 3161 00b4 3146     		mov	r1, r6
 3162 00b6 95ED0D0A 		vldr.32	s0, [r5, #52]
 3163 00ba 2046     		mov	r0, r4
 3164 00bc FFF7FEFF 		bl	buffer_append_float32_auto
 3165              	.LVL248:
 3166              		.loc 1 647 0
 3167 00c0 3146     		mov	r1, r6
 3168 00c2 95ED0E0A 		vldr.32	s0, [r5, #56]
 3169 00c6 2046     		mov	r0, r4
 3170 00c8 FFF7FEFF 		bl	buffer_append_float32_auto
 3171              	.LVL249:
 3172              		.loc 1 648 0
 3173 00cc 019B     		ldr	r3, [sp, #4]
 3174 00ce 95F83C20 		ldrb	r2, [r5, #60]	@ zero_extendqisi2
 3175 00d2 E254     		strb	r2, [r4, r3]
 3176              		.loc 1 649 0
 3177 00d4 3146     		mov	r1, r6
 3178              		.loc 1 648 0
 3179 00d6 0133     		adds	r3, r3, #1
 3180              		.loc 1 649 0
 3181 00d8 95ED100A 		vldr.32	s0, [r5, #64]
 3182              		.loc 1 648 0
 3183 00dc 0193     		str	r3, [sp, #4]
 3184              		.loc 1 649 0
 3185 00de 2046     		mov	r0, r4
 3186 00e0 FFF7FEFF 		bl	buffer_append_float32_auto
 3187              	.LVL250:
 3188              		.loc 1 650 0
 3189 00e4 3146     		mov	r1, r6
 3190 00e6 95ED110A 		vldr.32	s0, [r5, #68]
 3191 00ea 2046     		mov	r0, r4
 3192 00ec FFF7FEFF 		bl	buffer_append_float32_auto
ARM GAS  /tmp/cczXzW7i.s 			page 57


 3193              	.LVL251:
 3194              		.loc 1 651 0
 3195 00f0 3146     		mov	r1, r6
 3196 00f2 95ED120A 		vldr.32	s0, [r5, #72]
 3197 00f6 2046     		mov	r0, r4
 3198 00f8 FFF7FEFF 		bl	buffer_append_float32_auto
 3199              	.LVL252:
 3200              		.loc 1 652 0
 3201 00fc 3146     		mov	r1, r6
 3202 00fe 95ED130A 		vldr.32	s0, [r5, #76]
 3203 0102 2046     		mov	r0, r4
 3204 0104 FFF7FEFF 		bl	buffer_append_float32_auto
 3205              	.LVL253:
 3206              		.loc 1 653 0
 3207 0108 3146     		mov	r1, r6
 3208 010a 95ED140A 		vldr.32	s0, [r5, #80]
 3209 010e 2046     		mov	r0, r4
 3210 0110 FFF7FEFF 		bl	buffer_append_float32_auto
 3211              	.LVL254:
 3212              		.loc 1 654 0
 3213 0114 3146     		mov	r1, r6
 3214 0116 95ED150A 		vldr.32	s0, [r5, #84]
 3215 011a 2046     		mov	r0, r4
 3216 011c FFF7FEFF 		bl	buffer_append_float32_auto
 3217              	.LVL255:
 3218              		.loc 1 655 0
 3219 0120 3146     		mov	r1, r6
 3220 0122 95ED160A 		vldr.32	s0, [r5, #88]
 3221 0126 2046     		mov	r0, r4
 3222 0128 FFF7FEFF 		bl	buffer_append_float32_auto
 3223              	.LVL256:
 3224              		.loc 1 656 0
 3225 012c 3146     		mov	r1, r6
 3226 012e 95ED170A 		vldr.32	s0, [r5, #92]
 3227 0132 2046     		mov	r0, r4
 3228 0134 FFF7FEFF 		bl	buffer_append_float32_auto
 3229              	.LVL257:
 3230              		.loc 1 657 0
 3231 0138 3146     		mov	r1, r6
 3232 013a 95ED180A 		vldr.32	s0, [r5, #96]
 3233 013e 2046     		mov	r0, r4
 3234 0140 FFF7FEFF 		bl	buffer_append_float32_auto
 3235              	.LVL258:
 3236              		.loc 1 659 0
 3237 0144 3146     		mov	r1, r6
 3238 0146 95ED1F0A 		vldr.32	s0, [r5, #124]
 3239 014a 2046     		mov	r0, r4
 3240 014c FFF7FEFF 		bl	buffer_append_float32_auto
 3241              	.LVL259:
 3242              		.loc 1 660 0
 3243 0150 3146     		mov	r1, r6
 3244 0152 95ED200A 		vldr.32	s0, [r5, #128]
 3245 0156 2046     		mov	r0, r4
 3246 0158 FFF7FEFF 		bl	buffer_append_float32_auto
 3247              	.LVL260:
 3248              		.loc 1 661 0
 3249 015c 3146     		mov	r1, r6
ARM GAS  /tmp/cczXzW7i.s 			page 58


 3250 015e 95ED210A 		vldr.32	s0, [r5, #132]
 3251 0162 2046     		mov	r0, r4
 3252 0164 FFF7FEFF 		bl	buffer_append_float32_auto
 3253              	.LVL261:
 3254              		.loc 1 662 0
 3255 0168 3146     		mov	r1, r6
 3256 016a 95ED220A 		vldr.32	s0, [r5, #136]
 3257 016e 2046     		mov	r0, r4
 3258 0170 FFF7FEFF 		bl	buffer_append_float32_auto
 3259              	.LVL262:
 3260              		.loc 1 663 0
 3261 0174 3146     		mov	r1, r6
 3262 0176 95ED230A 		vldr.32	s0, [r5, #140]
 3263 017a 2046     		mov	r0, r4
 3264 017c FFF7FEFF 		bl	buffer_append_float32_auto
 3265              	.LVL263:
 3266              		.loc 1 664 0
 3267 0180 3146     		mov	r1, r6
 3268 0182 95ED240A 		vldr.32	s0, [r5, #144]
 3269 0186 2046     		mov	r0, r4
 3270 0188 FFF7FEFF 		bl	buffer_append_float32_auto
 3271              	.LVL264:
 3272              		.loc 1 665 0
 3273 018c 3146     		mov	r1, r6
 3274 018e 95ED250A 		vldr.32	s0, [r5, #148]
 3275 0192 2046     		mov	r0, r4
 3276 0194 FFF7FEFF 		bl	buffer_append_float32_auto
 3277              	.LVL265:
 3278              		.loc 1 667 0
 3279 0198 2A46     		mov	r2, r5
 3280 019a 019B     		ldr	r3, [sp, #4]
 3281 019c 52F8980F 		ldr	r0, [r2, #152]!	@ unaligned
 3282 01a0 E118     		adds	r1, r4, r3
 3283 01a2 5268     		ldr	r2, [r2, #4]	@ unaligned
 3284 01a4 E050     		str	r0, [r4, r3]	@ unaligned
 3285 01a6 4A60     		str	r2, [r1, #4]	@ unaligned
 3286              		.loc 1 668 0
 3287 01a8 0833     		adds	r3, r3, #8
 3288              		.loc 1 669 0
 3289 01aa 95ED280A 		vldr.32	s0, [r5, #160]
 3290              		.loc 1 668 0
 3291 01ae 0193     		str	r3, [sp, #4]
 3292              		.loc 1 669 0
 3293 01b0 3146     		mov	r1, r6
 3294 01b2 2046     		mov	r0, r4
 3295 01b4 FFF7FEFF 		bl	buffer_append_float32_auto
 3296              	.LVL266:
 3297              		.loc 1 671 0
 3298 01b8 3146     		mov	r1, r6
 3299 01ba 95ED290A 		vldr.32	s0, [r5, #164]
 3300 01be 2046     		mov	r0, r4
 3301 01c0 FFF7FEFF 		bl	buffer_append_float32_auto
 3302              	.LVL267:
 3303              		.loc 1 672 0
 3304 01c4 3146     		mov	r1, r6
 3305 01c6 95ED2A0A 		vldr.32	s0, [r5, #168]
 3306 01ca 2046     		mov	r0, r4
ARM GAS  /tmp/cczXzW7i.s 			page 59


 3307 01cc FFF7FEFF 		bl	buffer_append_float32_auto
 3308              	.LVL268:
 3309              		.loc 1 673 0
 3310 01d0 3146     		mov	r1, r6
 3311 01d2 95ED2B0A 		vldr.32	s0, [r5, #172]
 3312 01d6 2046     		mov	r0, r4
 3313 01d8 FFF7FEFF 		bl	buffer_append_float32_auto
 3314              	.LVL269:
 3315              		.loc 1 674 0
 3316 01dc 3146     		mov	r1, r6
 3317 01de 95ED2C0A 		vldr.32	s0, [r5, #176]
 3318 01e2 2046     		mov	r0, r4
 3319 01e4 FFF7FEFF 		bl	buffer_append_float32_auto
 3320              	.LVL270:
 3321              		.loc 1 675 0
 3322 01e8 019B     		ldr	r3, [sp, #4]
 3323 01ea 95F8B820 		ldrb	r2, [r5, #184]	@ zero_extendqisi2
 3324 01ee E254     		strb	r2, [r4, r3]
 3325              		.loc 1 676 0
 3326 01f0 3146     		mov	r1, r6
 3327              		.loc 1 675 0
 3328 01f2 0133     		adds	r3, r3, #1
 3329              		.loc 1 676 0
 3330 01f4 95ED2D0A 		vldr.32	s0, [r5, #180]
 3331              		.loc 1 675 0
 3332 01f8 0193     		str	r3, [sp, #4]
 3333              		.loc 1 676 0
 3334 01fa 2046     		mov	r0, r4
 3335 01fc FFF7FEFF 		bl	buffer_append_float32_auto
 3336              	.LVL271:
 3337              		.loc 1 677 0
 3338 0200 3146     		mov	r1, r6
 3339 0202 95ED2F0A 		vldr.32	s0, [r5, #188]
 3340 0206 2046     		mov	r0, r4
 3341 0208 FFF7FEFF 		bl	buffer_append_float32_auto
 3342              	.LVL272:
 3343              		.loc 1 678 0
 3344 020c 019B     		ldr	r3, [sp, #4]
 3345 020e 95F8F820 		ldrb	r2, [r5, #248]	@ zero_extendqisi2
 3346 0212 E254     		strb	r2, [r4, r3]
 3347              		.loc 1 679 0
 3348 0214 3146     		mov	r1, r6
 3349              		.loc 1 678 0
 3350 0216 0133     		adds	r3, r3, #1
 3351              		.loc 1 679 0
 3352 0218 95ED350A 		vldr.32	s0, [r5, #212]
 3353              		.loc 1 678 0
 3354 021c 0193     		str	r3, [sp, #4]
 3355              		.loc 1 679 0
 3356 021e 2046     		mov	r0, r4
 3357 0220 FFF7FEFF 		bl	buffer_append_float32_auto
 3358              	.LVL273:
 3359              		.loc 1 680 0
 3360 0224 3146     		mov	r1, r6
 3361 0226 95ED360A 		vldr.32	s0, [r5, #216]
 3362 022a 2046     		mov	r0, r4
 3363 022c FFF7FEFF 		bl	buffer_append_float32_auto
ARM GAS  /tmp/cczXzW7i.s 			page 60


 3364              	.LVL274:
 3365              		.loc 1 681 0
 3366 0230 3146     		mov	r1, r6
 3367 0232 95ED300A 		vldr.32	s0, [r5, #192]
 3368 0236 2046     		mov	r0, r4
 3369 0238 FFF7FEFF 		bl	buffer_append_float32_auto
 3370              	.LVL275:
 3371              		.loc 1 682 0
 3372 023c 3146     		mov	r1, r6
 3373 023e 95ED310A 		vldr.32	s0, [r5, #196]
 3374 0242 2046     		mov	r0, r4
 3375 0244 FFF7FEFF 		bl	buffer_append_float32_auto
 3376              	.LVL276:
 3377              		.loc 1 683 0
 3378 0248 3146     		mov	r1, r6
 3379 024a 95ED320A 		vldr.32	s0, [r5, #200]
 3380 024e 2046     		mov	r0, r4
 3381 0250 FFF7FEFF 		bl	buffer_append_float32_auto
 3382              	.LVL277:
 3383              		.loc 1 684 0
 3384 0254 3146     		mov	r1, r6
 3385 0256 95ED330A 		vldr.32	s0, [r5, #204]
 3386 025a 2046     		mov	r0, r4
 3387 025c FFF7FEFF 		bl	buffer_append_float32_auto
 3388              	.LVL278:
 3389              		.loc 1 685 0
 3390 0260 3146     		mov	r1, r6
 3391 0262 95ED340A 		vldr.32	s0, [r5, #208]
 3392 0266 2046     		mov	r0, r4
 3393 0268 FFF7FEFF 		bl	buffer_append_float32_auto
 3394              	.LVL279:
 3395              		.loc 1 686 0
 3396 026c 3146     		mov	r1, r6
 3397 026e 95ED370A 		vldr.32	s0, [r5, #220]
 3398 0272 2046     		mov	r0, r4
 3399 0274 FFF7FEFF 		bl	buffer_append_float32_auto
 3400              	.LVL280:
 3401              		.loc 1 687 0
 3402 0278 3146     		mov	r1, r6
 3403 027a 95ED380A 		vldr.32	s0, [r5, #224]
 3404 027e 2046     		mov	r0, r4
 3405 0280 FFF7FEFF 		bl	buffer_append_float32_auto
 3406              	.LVL281:
 3407              		.loc 1 688 0
 3408 0284 3146     		mov	r1, r6
 3409 0286 95ED390A 		vldr.32	s0, [r5, #228]
 3410 028a 2046     		mov	r0, r4
 3411 028c FFF7FEFF 		bl	buffer_append_float32_auto
 3412              	.LVL282:
 3413              		.loc 1 689 0
 3414 0290 3146     		mov	r1, r6
 3415 0292 95ED3A0A 		vldr.32	s0, [r5, #232]
 3416 0296 2046     		mov	r0, r4
 3417 0298 FFF7FEFF 		bl	buffer_append_float32_auto
 3418              	.LVL283:
 3419              		.loc 1 690 0
 3420 029c 3146     		mov	r1, r6
ARM GAS  /tmp/cczXzW7i.s 			page 61


 3421 029e 95ED3B0A 		vldr.32	s0, [r5, #236]
 3422 02a2 2046     		mov	r0, r4
 3423 02a4 FFF7FEFF 		bl	buffer_append_float32_auto
 3424              	.LVL284:
 3425              		.loc 1 691 0
 3426 02a8 3146     		mov	r1, r6
 3427 02aa 95ED3C0A 		vldr.32	s0, [r5, #240]
 3428 02ae 2046     		mov	r0, r4
 3429 02b0 FFF7FEFF 		bl	buffer_append_float32_auto
 3430              	.LVL285:
 3431              		.loc 1 692 0
 3432 02b4 3146     		mov	r1, r6
 3433 02b6 95ED3D0A 		vldr.32	s0, [r5, #244]
 3434 02ba 2046     		mov	r0, r4
 3435 02bc FFF7FEFF 		bl	buffer_append_float32_auto
 3436              	.LVL286:
 3437              		.loc 1 693 0
 3438 02c0 2A46     		mov	r2, r5
 3439 02c2 019B     		ldr	r3, [sp, #4]
 3440 02c4 52F8F90F 		ldr	r0, [r2, #249]!	@ unaligned
 3441 02c8 E118     		adds	r1, r4, r3
 3442 02ca 5268     		ldr	r2, [r2, #4]	@ unaligned
 3443 02cc E050     		str	r0, [r4, r3]	@ unaligned
 3444 02ce 4A60     		str	r2, [r1, #4]	@ unaligned
 3445              		.loc 1 694 0
 3446 02d0 0833     		adds	r3, r3, #8
 3447              		.loc 1 695 0
 3448 02d2 95ED410A 		vldr.32	s0, [r5, #260]
 3449              		.loc 1 694 0
 3450 02d6 0193     		str	r3, [sp, #4]
 3451              		.loc 1 695 0
 3452 02d8 3146     		mov	r1, r6
 3453 02da 2046     		mov	r0, r4
 3454 02dc FFF7FEFF 		bl	buffer_append_float32_auto
 3455              	.LVL287:
 3456              		.loc 1 696 0
 3457 02e0 019B     		ldr	r3, [sp, #4]
 3458 02e2 95F80821 		ldrb	r2, [r5, #264]	@ zero_extendqisi2
 3459 02e6 E254     		strb	r2, [r4, r3]
 3460              		.loc 1 697 0
 3461 02e8 E218     		adds	r2, r4, r3
 3462 02ea 95F80911 		ldrb	r1, [r5, #265]	@ zero_extendqisi2
 3463 02ee 5170     		strb	r1, [r2, #1]
 3464 02f0 0233     		adds	r3, r3, #2
 3465              		.loc 1 698 0
 3466 02f2 95ED430A 		vldr.32	s0, [r5, #268]
 3467              		.loc 1 697 0
 3468 02f6 0193     		str	r3, [sp, #4]
 3469              		.loc 1 698 0
 3470 02f8 3146     		mov	r1, r6
 3471 02fa 2046     		mov	r0, r4
 3472 02fc FFF7FEFF 		bl	buffer_append_float32_auto
 3473              	.LVL288:
 3474              		.loc 1 699 0
 3475 0300 019B     		ldr	r3, [sp, #4]
 3476 0302 95F81021 		ldrb	r2, [r5, #272]	@ zero_extendqisi2
 3477 0306 E254     		strb	r2, [r4, r3]
ARM GAS  /tmp/cczXzW7i.s 			page 62


 3478              		.loc 1 700 0
 3479 0308 3146     		mov	r1, r6
 3480              		.loc 1 699 0
 3481 030a 0133     		adds	r3, r3, #1
 3482              		.loc 1 700 0
 3483 030c 95ED450A 		vldr.32	s0, [r5, #276]
 3484              		.loc 1 699 0
 3485 0310 0193     		str	r3, [sp, #4]
 3486              		.loc 1 700 0
 3487 0312 2046     		mov	r0, r4
 3488 0314 FFF7FEFF 		bl	buffer_append_float32_auto
 3489              	.LVL289:
 3490              		.loc 1 701 0
 3491 0318 3146     		mov	r1, r6
 3492 031a 95ED460A 		vldr.32	s0, [r5, #280]
 3493 031e 2046     		mov	r0, r4
 3494 0320 FFF7FEFF 		bl	buffer_append_float32_auto
 3495              	.LVL290:
 3496              		.loc 1 703 0
 3497 0324 3146     		mov	r1, r6
 3498 0326 95ED470A 		vldr.32	s0, [r5, #284]
 3499 032a 2046     		mov	r0, r4
 3500 032c FFF7FEFF 		bl	buffer_append_float32_auto
 3501              	.LVL291:
 3502              		.loc 1 704 0
 3503 0330 3146     		mov	r1, r6
 3504 0332 95ED480A 		vldr.32	s0, [r5, #288]
 3505 0336 2046     		mov	r0, r4
 3506 0338 FFF7FEFF 		bl	buffer_append_float32_auto
 3507              	.LVL292:
 3508              		.loc 1 705 0
 3509 033c 3146     		mov	r1, r6
 3510 033e 95ED490A 		vldr.32	s0, [r5, #292]
 3511 0342 2046     		mov	r0, r4
 3512 0344 FFF7FEFF 		bl	buffer_append_float32_auto
 3513              	.LVL293:
 3514              		.loc 1 706 0
 3515 0348 3146     		mov	r1, r6
 3516 034a 95ED4A0A 		vldr.32	s0, [r5, #296]
 3517 034e 2046     		mov	r0, r4
 3518 0350 FFF7FEFF 		bl	buffer_append_float32_auto
 3519              	.LVL294:
 3520              		.loc 1 707 0
 3521 0354 3146     		mov	r1, r6
 3522 0356 95ED4B0A 		vldr.32	s0, [r5, #300]
 3523 035a 2046     		mov	r0, r4
 3524 035c FFF7FEFF 		bl	buffer_append_float32_auto
 3525              	.LVL295:
 3526              		.loc 1 708 0
 3527 0360 019B     		ldr	r3, [sp, #4]
 3528 0362 95F83021 		ldrb	r2, [r5, #304]	@ zero_extendqisi2
 3529 0366 E254     		strb	r2, [r4, r3]
 3530              		.loc 1 710 0
 3531 0368 3146     		mov	r1, r6
 3532              		.loc 1 708 0
 3533 036a 0133     		adds	r3, r3, #1
 3534              		.loc 1 710 0
ARM GAS  /tmp/cczXzW7i.s 			page 63


 3535 036c 95ED4D0A 		vldr.32	s0, [r5, #308]
 3536              		.loc 1 708 0
 3537 0370 0193     		str	r3, [sp, #4]
 3538              		.loc 1 710 0
 3539 0372 2046     		mov	r0, r4
 3540 0374 FFF7FEFF 		bl	buffer_append_float32_auto
 3541              	.LVL296:
 3542              		.loc 1 711 0
 3543 0378 3146     		mov	r1, r6
 3544 037a 95ED4E0A 		vldr.32	s0, [r5, #312]
 3545 037e 2046     		mov	r0, r4
 3546 0380 FFF7FEFF 		bl	buffer_append_float32_auto
 3547              	.LVL297:
 3548              		.loc 1 712 0
 3549 0384 3146     		mov	r1, r6
 3550 0386 95ED4F0A 		vldr.32	s0, [r5, #316]
 3551 038a 2046     		mov	r0, r4
 3552 038c FFF7FEFF 		bl	buffer_append_float32_auto
 3553              	.LVL298:
 3554              		.loc 1 713 0
 3555 0390 3146     		mov	r1, r6
 3556 0392 95ED500A 		vldr.32	s0, [r5, #320]
 3557 0396 2046     		mov	r0, r4
 3558 0398 FFF7FEFF 		bl	buffer_append_float32_auto
 3559              	.LVL299:
 3560              		.loc 1 714 0
 3561 039c 3146     		mov	r1, r6
 3562 039e 95ED510A 		vldr.32	s0, [r5, #324]
 3563 03a2 2046     		mov	r0, r4
 3564 03a4 FFF7FEFF 		bl	buffer_append_float32_auto
 3565              	.LVL300:
 3566              		.loc 1 716 0
 3567 03a8 3146     		mov	r1, r6
 3568 03aa 95ED520A 		vldr.32	s0, [r5, #328]
 3569 03ae 2046     		mov	r0, r4
 3570 03b0 FFF7FEFF 		bl	buffer_append_float32_auto
 3571              	.LVL301:
 3572              		.loc 1 717 0
 3573 03b4 3146     		mov	r1, r6
 3574 03b6 95ED530A 		vldr.32	s0, [r5, #332]
 3575 03ba 2046     		mov	r0, r4
 3576 03bc FFF7FEFF 		bl	buffer_append_float32_auto
 3577              	.LVL302:
 3578              		.loc 1 718 0
 3579 03c0 3146     		mov	r1, r6
 3580 03c2 95ED540A 		vldr.32	s0, [r5, #336]
 3581 03c6 2046     		mov	r0, r4
 3582 03c8 FFF7FEFF 		bl	buffer_append_float32_auto
 3583              	.LVL303:
 3584 03cc 02E0     		b	.L189
 3585              	.L190:
 3586 03ce 00BF     		.align	2
 3587              	.L188:
 3588 03d0 00000000 		.word	.LANCHOR22
 3589              	.L189:
 3590              		.loc 1 719 0
 3591 03d4 95ED550A 		vldr.32	s0, [r5, #340]
ARM GAS  /tmp/cczXzW7i.s 			page 64


 3592 03d8 3146     		mov	r1, r6
 3593 03da 2046     		mov	r0, r4
 3594 03dc FFF7FEFF 		bl	buffer_append_float32_auto
 3595              	.LVL304:
 3596              		.loc 1 721 0
 3597 03e0 3246     		mov	r2, r6
 3598 03e2 D5F85811 		ldr	r1, [r5, #344]
 3599 03e6 2046     		mov	r0, r4
 3600 03e8 FFF7FEFF 		bl	buffer_append_int32
 3601              	.LVL305:
 3602              		.loc 1 722 0
 3603 03ec 3146     		mov	r1, r6
 3604 03ee 95ED570A 		vldr.32	s0, [r5, #348]
 3605 03f2 2046     		mov	r0, r4
 3606 03f4 FFF7FEFF 		bl	buffer_append_float32_auto
 3607              	.LVL306:
 3608              		.loc 1 723 0
 3609 03f8 95ED580A 		vldr.32	s0, [r5, #352]
 3610 03fc 3146     		mov	r1, r6
 3611 03fe 2046     		mov	r0, r4
 3612 0400 FFF7FEFF 		bl	buffer_append_float32_auto
 3613              	.LVL307:
 3614              		.loc 1 724 0
 3615 0404 3246     		mov	r2, r6
 3616 0406 D5F86411 		ldr	r1, [r5, #356]
 3617 040a 2046     		mov	r0, r4
 3618 040c FFF7FEFF 		bl	buffer_append_uint32
 3619              	.LVL308:
 3620              		.loc 1 725 0
 3621 0410 019B     		ldr	r3, [sp, #4]
 3622 0412 95F86821 		ldrb	r2, [r5, #360]	@ zero_extendqisi2
 3623 0416 E254     		strb	r2, [r4, r3]
 3624              		.loc 1 726 0
 3625 0418 E218     		adds	r2, r4, r3
 3626 041a 95F86911 		ldrb	r1, [r5, #361]	@ zero_extendqisi2
 3627 041e 5170     		strb	r1, [r2, #1]
 3628              		.loc 1 727 0
 3629 0420 95F86A11 		ldrb	r1, [r5, #362]	@ zero_extendqisi2
 3630 0424 9170     		strb	r1, [r2, #2]
 3631              		.loc 1 728 0
 3632 0426 D5F86C11 		ldr	r1, [r5, #364]
 3633 042a D170     		strb	r1, [r2, #3]
 3634 042c 0433     		adds	r3, r3, #4
 3635              		.loc 1 729 0
 3636 042e 95ED5C0A 		vldr.32	s0, [r5, #368]
 3637              		.loc 1 728 0
 3638 0432 0193     		str	r3, [sp, #4]
 3639              		.loc 1 729 0
 3640 0434 3146     		mov	r1, r6
 3641 0436 2046     		mov	r0, r4
 3642 0438 FFF7FEFF 		bl	buffer_append_float32_auto
 3643              	.LVL309:
 3644              		.loc 1 730 0
 3645 043c 3146     		mov	r1, r6
 3646 043e 95ED5D0A 		vldr.32	s0, [r5, #372]
 3647 0442 2046     		mov	r0, r4
 3648 0444 FFF7FEFF 		bl	buffer_append_float32_auto
ARM GAS  /tmp/cczXzW7i.s 			page 65


 3649              	.LVL310:
 3650              		.loc 1 731 0
 3651 0448 3146     		mov	r1, r6
 3652 044a 95ED5E0A 		vldr.32	s0, [r5, #376]
 3653 044e 2046     		mov	r0, r4
 3654 0450 FFF7FEFF 		bl	buffer_append_float32_auto
 3655              	.LVL311:
 3656              		.loc 1 732 0
 3657 0454 3146     		mov	r1, r6
 3658 0456 95ED5F0A 		vldr.32	s0, [r5, #380]
 3659 045a 2046     		mov	r0, r4
 3660 045c FFF7FEFF 		bl	buffer_append_float32_auto
 3661              	.LVL312:
 3662              	.LBB72:
 3663              	.LBB73:
 3664              		.loc 1 908 0
 3665 0460 074B     		ldr	r3, .L191
 3666              	.LBE73:
 3667              	.LBE72:
 3668              		.loc 1 733 0
 3669 0462 0199     		ldr	r1, [sp, #4]
 3670 0464 95F88021 		ldrb	r2, [r5, #384]	@ zero_extendqisi2
 3671              	.LBB77:
 3672              	.LBB74:
 3673              		.loc 1 908 0
 3674 0468 1B68     		ldr	r3, [r3]
 3675              	.LBE74:
 3676              	.LBE77:
 3677              		.loc 1 733 0
 3678 046a 6254     		strb	r2, [r4, r1]
 3679              	.LVL313:
 3680 046c 0131     		adds	r1, r1, #1
 3681              	.LVL314:
 3682 046e 0191     		str	r1, [sp, #4]
 3683              	.LBB78:
 3684              	.LBB75:
 3685              		.loc 1 908 0
 3686 0470 0BB1     		cbz	r3, .L187
 3687              	.LBE75:
 3688              	.LBE78:
 3689              		.loc 1 736 0
 3690 0472 02B0     		add	sp, sp, #8
 3691              		.cfi_remember_state
 3692              		.cfi_def_cfa_offset 16
 3693              		@ sp needed
 3694 0474 70BD     		pop	{r4, r5, r6, pc}
 3695              	.LVL315:
 3696              	.L187:
 3697              		.cfi_restore_state
 3698              	.LBB79:
 3699              	.LBB76:
 3700 0476 2046     		mov	r0, r4
 3701 0478 FFF7FEFF 		bl	send_packet_no_fwd.part.0
 3702              	.LVL316:
 3703              	.LBE76:
 3704              	.LBE79:
 3705 047c 02B0     		add	sp, sp, #8
ARM GAS  /tmp/cczXzW7i.s 			page 66


 3706              		.cfi_def_cfa_offset 16
 3707              		@ sp needed
 3708 047e 70BD     		pop	{r4, r5, r6, pc}
 3709              	.LVL317:
 3710              	.L192:
 3711              		.align	2
 3712              	.L191:
 3713 0480 00000000 		.word	.LANCHOR1
 3714              		.cfi_endproc
 3715              	.LFE255:
 3716              		.size	bldc_interface_set_mcconf, .-bldc_interface_set_mcconf
 3717              		.section	.text.bldc_interface_set_appconf,"ax",%progbits
 3718              		.align	1
 3719              		.p2align 4,,15
 3720              		.global	bldc_interface_set_appconf
 3721              		.syntax unified
 3722              		.thumb
 3723              		.thumb_func
 3724              		.fpu fpv4-sp-d16
 3725              		.type	bldc_interface_set_appconf, %function
 3726              	bldc_interface_set_appconf:
 3727              	.LFB256:
 3728              		.loc 1 738 0
 3729              		.cfi_startproc
 3730              		@ args = 0, pretend = 0, frame = 8
 3731              		@ frame_needed = 0, uses_anonymous_args = 0
 3732              	.LVL318:
 3733 0000 F0B5     		push	{r4, r5, r6, r7, lr}
 3734              		.cfi_def_cfa_offset 20
 3735              		.cfi_offset 4, -20
 3736              		.cfi_offset 5, -16
 3737              		.cfi_offset 6, -12
 3738              		.cfi_offset 7, -8
 3739              		.cfi_offset 14, -4
 3740              		.loc 1 740 0
 3741 0002 B14D     		ldr	r5, .L197
 3742              	.LBB80:
 3743              	.LBB81:
 3744              		.loc 1 908 0
 3745 0004 B14F     		ldr	r7, .L197+4
 3746              	.LBE81:
 3747              	.LBE80:
 3748              		.loc 1 738 0
 3749 0006 83B0     		sub	sp, sp, #12
 3750              		.cfi_def_cfa_offset 32
 3751              		.loc 1 741 0
 3752 0008 02AE     		add	r6, sp, #8
 3753              		.loc 1 740 0
 3754 000a 1023     		movs	r3, #16
 3755 000c 2B70     		strb	r3, [r5]
 3756              		.loc 1 741 0
 3757 000e 0222     		movs	r2, #2
 3758 0010 46F8042D 		str	r2, [r6, #-4]!
 3759 0014 0378     		ldrb	r3, [r0]	@ zero_extendqisi2
 3760 0016 6B70     		strb	r3, [r5, #1]
 3761              		.loc 1 738 0
 3762 0018 0446     		mov	r4, r0
ARM GAS  /tmp/cczXzW7i.s 			page 67


 3763              		.loc 1 742 0
 3764 001a 3246     		mov	r2, r6
 3765 001c 4168     		ldr	r1, [r0, #4]
 3766 001e 2846     		mov	r0, r5
 3767              	.LVL319:
 3768 0020 FFF7FEFF 		bl	buffer_append_uint32
 3769              	.LVL320:
 3770              		.loc 1 743 0
 3771 0024 3146     		mov	r1, r6
 3772 0026 94ED020A 		vldr.32	s0, [r4, #8]
 3773 002a 2846     		mov	r0, r5
 3774 002c FFF7FEFF 		bl	buffer_append_float32_auto
 3775              	.LVL321:
 3776              		.loc 1 744 0
 3777 0030 019B     		ldr	r3, [sp, #4]
 3778 0032 227B     		ldrb	r2, [r4, #12]	@ zero_extendqisi2
 3779 0034 EA54     		strb	r2, [r5, r3]
 3780              		.loc 1 745 0
 3781 0036 2846     		mov	r0, r5
 3782              		.loc 1 744 0
 3783 0038 0133     		adds	r3, r3, #1
 3784              		.loc 1 745 0
 3785 003a 3246     		mov	r2, r6
 3786 003c 218A     		ldrh	r1, [r4, #16]
 3787              		.loc 1 744 0
 3788 003e 0193     		str	r3, [sp, #4]
 3789              		.loc 1 745 0
 3790 0040 FFF7FEFF 		bl	buffer_append_uint16
 3791              	.LVL322:
 3792              		.loc 1 746 0
 3793 0044 019B     		ldr	r3, [sp, #4]
 3794 0046 227D     		ldrb	r2, [r4, #20]	@ zero_extendqisi2
 3795 0048 EA54     		strb	r2, [r5, r3]
 3796              		.loc 1 748 0
 3797 004a EA18     		adds	r2, r5, r3
 3798 004c 617D     		ldrb	r1, [r4, #21]	@ zero_extendqisi2
 3799 004e 5170     		strb	r1, [r2, #1]
 3800              		.loc 1 750 0
 3801 0050 217E     		ldrb	r1, [r4, #24]	@ zero_extendqisi2
 3802 0052 9170     		strb	r1, [r2, #2]
 3803 0054 0333     		adds	r3, r3, #3
 3804              		.loc 1 751 0
 3805 0056 3146     		mov	r1, r6
 3806 0058 94ED070A 		vldr.32	s0, [r4, #28]
 3807              		.loc 1 750 0
 3808 005c 0193     		str	r3, [sp, #4]
 3809              		.loc 1 751 0
 3810 005e 2846     		mov	r0, r5
 3811 0060 FFF7FEFF 		bl	buffer_append_float32_auto
 3812              	.LVL323:
 3813              		.loc 1 752 0
 3814 0064 3146     		mov	r1, r6
 3815 0066 94ED080A 		vldr.32	s0, [r4, #32]
 3816 006a 2846     		mov	r0, r5
 3817 006c FFF7FEFF 		bl	buffer_append_float32_auto
 3818              	.LVL324:
 3819              		.loc 1 753 0
ARM GAS  /tmp/cczXzW7i.s 			page 68


 3820 0070 3146     		mov	r1, r6
 3821 0072 94ED090A 		vldr.32	s0, [r4, #36]
 3822 0076 2846     		mov	r0, r5
 3823 0078 FFF7FEFF 		bl	buffer_append_float32_auto
 3824              	.LVL325:
 3825              		.loc 1 754 0
 3826 007c 3146     		mov	r1, r6
 3827 007e 94ED0A0A 		vldr.32	s0, [r4, #40]
 3828 0082 2846     		mov	r0, r5
 3829 0084 FFF7FEFF 		bl	buffer_append_float32_auto
 3830              	.LVL326:
 3831              		.loc 1 755 0
 3832 0088 3146     		mov	r1, r6
 3833 008a 94ED0B0A 		vldr.32	s0, [r4, #44]
 3834 008e 2846     		mov	r0, r5
 3835 0090 FFF7FEFF 		bl	buffer_append_float32_auto
 3836              	.LVL327:
 3837              		.loc 1 756 0
 3838 0094 019B     		ldr	r3, [sp, #4]
 3839 0096 94F83020 		ldrb	r2, [r4, #48]	@ zero_extendqisi2
 3840 009a EA54     		strb	r2, [r5, r3]
 3841              		.loc 1 757 0
 3842 009c EA18     		adds	r2, r5, r3
 3843 009e 94F83110 		ldrb	r1, [r4, #49]	@ zero_extendqisi2
 3844 00a2 5170     		strb	r1, [r2, #1]
 3845 00a4 0233     		adds	r3, r3, #2
 3846              		.loc 1 758 0
 3847 00a6 3146     		mov	r1, r6
 3848 00a8 94ED0D0A 		vldr.32	s0, [r4, #52]
 3849              		.loc 1 757 0
 3850 00ac 0193     		str	r3, [sp, #4]
 3851              		.loc 1 758 0
 3852 00ae 2846     		mov	r0, r5
 3853 00b0 FFF7FEFF 		bl	buffer_append_float32_auto
 3854              	.LVL328:
 3855              		.loc 1 759 0
 3856 00b4 3146     		mov	r1, r6
 3857 00b6 94ED0E0A 		vldr.32	s0, [r4, #56]
 3858 00ba 2846     		mov	r0, r5
 3859 00bc FFF7FEFF 		bl	buffer_append_float32_auto
 3860              	.LVL329:
 3861              		.loc 1 760 0
 3862 00c0 019B     		ldr	r3, [sp, #4]
 3863 00c2 94F83C20 		ldrb	r2, [r4, #60]	@ zero_extendqisi2
 3864 00c6 EA54     		strb	r2, [r5, r3]
 3865              		.loc 1 761 0
 3866 00c8 3146     		mov	r1, r6
 3867              		.loc 1 760 0
 3868 00ca 0133     		adds	r3, r3, #1
 3869              		.loc 1 761 0
 3870 00cc 94ED100A 		vldr.32	s0, [r4, #64]
 3871              		.loc 1 760 0
 3872 00d0 0193     		str	r3, [sp, #4]
 3873              		.loc 1 761 0
 3874 00d2 2846     		mov	r0, r5
 3875 00d4 FFF7FEFF 		bl	buffer_append_float32_auto
 3876              	.LVL330:
ARM GAS  /tmp/cczXzW7i.s 			page 69


 3877              		.loc 1 762 0
 3878 00d8 3146     		mov	r1, r6
 3879 00da 94ED110A 		vldr.32	s0, [r4, #68]
 3880 00de 2846     		mov	r0, r5
 3881 00e0 FFF7FEFF 		bl	buffer_append_float32_auto
 3882              	.LVL331:
 3883              		.loc 1 763 0
 3884 00e4 019B     		ldr	r3, [sp, #4]
 3885 00e6 94F84820 		ldrb	r2, [r4, #72]	@ zero_extendqisi2
 3886 00ea EA54     		strb	r2, [r5, r3]
 3887              		.loc 1 764 0
 3888 00ec EA18     		adds	r2, r5, r3
 3889 00ee 94F84910 		ldrb	r1, [r4, #73]	@ zero_extendqisi2
 3890 00f2 5170     		strb	r1, [r2, #1]
 3891 00f4 0233     		adds	r3, r3, #2
 3892              		.loc 1 765 0
 3893 00f6 3146     		mov	r1, r6
 3894 00f8 94ED130A 		vldr.32	s0, [r4, #76]
 3895              		.loc 1 764 0
 3896 00fc 0193     		str	r3, [sp, #4]
 3897              		.loc 1 765 0
 3898 00fe 2846     		mov	r0, r5
 3899 0100 FFF7FEFF 		bl	buffer_append_float32_auto
 3900              	.LVL332:
 3901              		.loc 1 767 0
 3902 0104 019B     		ldr	r3, [sp, #4]
 3903 0106 94F85020 		ldrb	r2, [r4, #80]	@ zero_extendqisi2
 3904 010a EA54     		strb	r2, [r5, r3]
 3905              		.loc 1 768 0
 3906 010c 3146     		mov	r1, r6
 3907              		.loc 1 767 0
 3908 010e 0133     		adds	r3, r3, #1
 3909              		.loc 1 768 0
 3910 0110 94ED150A 		vldr.32	s0, [r4, #84]
 3911              		.loc 1 767 0
 3912 0114 0193     		str	r3, [sp, #4]
 3913              		.loc 1 768 0
 3914 0116 2846     		mov	r0, r5
 3915 0118 FFF7FEFF 		bl	buffer_append_float32_auto
 3916              	.LVL333:
 3917              		.loc 1 769 0
 3918 011c 3146     		mov	r1, r6
 3919 011e 94ED160A 		vldr.32	s0, [r4, #88]
 3920 0122 2846     		mov	r0, r5
 3921 0124 FFF7FEFF 		bl	buffer_append_float32_auto
 3922              	.LVL334:
 3923              		.loc 1 770 0
 3924 0128 3146     		mov	r1, r6
 3925 012a 94ED170A 		vldr.32	s0, [r4, #92]
 3926 012e 2846     		mov	r0, r5
 3927 0130 FFF7FEFF 		bl	buffer_append_float32_auto
 3928              	.LVL335:
 3929              		.loc 1 771 0
 3930 0134 3146     		mov	r1, r6
 3931 0136 94ED180A 		vldr.32	s0, [r4, #96]
 3932 013a 2846     		mov	r0, r5
 3933 013c FFF7FEFF 		bl	buffer_append_float32_auto
ARM GAS  /tmp/cczXzW7i.s 			page 70


 3934              	.LVL336:
 3935              		.loc 1 772 0
 3936 0140 3146     		mov	r1, r6
 3937 0142 94ED190A 		vldr.32	s0, [r4, #100]
 3938 0146 2846     		mov	r0, r5
 3939 0148 FFF7FEFF 		bl	buffer_append_float32_auto
 3940              	.LVL337:
 3941              		.loc 1 773 0
 3942 014c 3146     		mov	r1, r6
 3943 014e 94ED1A0A 		vldr.32	s0, [r4, #104]
 3944 0152 2846     		mov	r0, r5
 3945 0154 FFF7FEFF 		bl	buffer_append_float32_auto
 3946              	.LVL338:
 3947              		.loc 1 774 0
 3948 0158 019B     		ldr	r3, [sp, #4]
 3949 015a 94F86C20 		ldrb	r2, [r4, #108]	@ zero_extendqisi2
 3950 015e EA54     		strb	r2, [r5, r3]
 3951              		.loc 1 775 0
 3952 0160 EA18     		adds	r2, r5, r3
 3953 0162 94F86D10 		ldrb	r1, [r4, #109]	@ zero_extendqisi2
 3954 0166 5170     		strb	r1, [r2, #1]
 3955              		.loc 1 776 0
 3956 0168 94F86E10 		ldrb	r1, [r4, #110]	@ zero_extendqisi2
 3957 016c 9170     		strb	r1, [r2, #2]
 3958              		.loc 1 777 0
 3959 016e 94F86F10 		ldrb	r1, [r4, #111]	@ zero_extendqisi2
 3960 0172 D170     		strb	r1, [r2, #3]
 3961              		.loc 1 778 0
 3962 0174 94F87010 		ldrb	r1, [r4, #112]	@ zero_extendqisi2
 3963 0178 1171     		strb	r1, [r2, #4]
 3964              		.loc 1 779 0
 3965 017a 94F87110 		ldrb	r1, [r4, #113]	@ zero_extendqisi2
 3966 017e 5171     		strb	r1, [r2, #5]
 3967 0180 0633     		adds	r3, r3, #6
 3968              		.loc 1 780 0
 3969 0182 3146     		mov	r1, r6
 3970 0184 94ED1D0A 		vldr.32	s0, [r4, #116]
 3971              		.loc 1 779 0
 3972 0188 0193     		str	r3, [sp, #4]
 3973              		.loc 1 780 0
 3974 018a 2846     		mov	r0, r5
 3975 018c FFF7FEFF 		bl	buffer_append_float32_auto
 3976              	.LVL339:
 3977              		.loc 1 781 0
 3978 0190 3146     		mov	r1, r6
 3979 0192 94ED1E0A 		vldr.32	s0, [r4, #120]
 3980 0196 2846     		mov	r0, r5
 3981 0198 FFF7FEFF 		bl	buffer_append_float32_auto
 3982              	.LVL340:
 3983              		.loc 1 782 0
 3984 019c 019B     		ldr	r3, [sp, #4]
 3985 019e 94F87C20 		ldrb	r2, [r4, #124]	@ zero_extendqisi2
 3986 01a2 EA54     		strb	r2, [r5, r3]
 3987              		.loc 1 783 0
 3988 01a4 3146     		mov	r1, r6
 3989              		.loc 1 782 0
 3990 01a6 0133     		adds	r3, r3, #1
ARM GAS  /tmp/cczXzW7i.s 			page 71


 3991              		.loc 1 783 0
 3992 01a8 94ED200A 		vldr.32	s0, [r4, #128]
 3993              		.loc 1 782 0
 3994 01ac 0193     		str	r3, [sp, #4]
 3995              		.loc 1 783 0
 3996 01ae 2846     		mov	r0, r5
 3997 01b0 FFF7FEFF 		bl	buffer_append_float32_auto
 3998              	.LVL341:
 3999              		.loc 1 784 0
 4000 01b4 3146     		mov	r1, r6
 4001 01b6 94ED210A 		vldr.32	s0, [r4, #132]
 4002 01ba 2846     		mov	r0, r5
 4003 01bc FFF7FEFF 		bl	buffer_append_float32_auto
 4004              	.LVL342:
 4005              		.loc 1 785 0
 4006 01c0 019B     		ldr	r3, [sp, #4]
 4007 01c2 94F88820 		ldrb	r2, [r4, #136]	@ zero_extendqisi2
 4008 01c6 EA54     		strb	r2, [r5, r3]
 4009              		.loc 1 786 0
 4010 01c8 EA18     		adds	r2, r5, r3
 4011 01ca 94F88910 		ldrb	r1, [r4, #137]	@ zero_extendqisi2
 4012 01ce 5170     		strb	r1, [r2, #1]
 4013 01d0 0233     		adds	r3, r3, #2
 4014              		.loc 1 787 0
 4015 01d2 94ED230A 		vldr.32	s0, [r4, #140]
 4016              		.loc 1 786 0
 4017 01d6 0193     		str	r3, [sp, #4]
 4018              		.loc 1 787 0
 4019 01d8 3146     		mov	r1, r6
 4020 01da 2846     		mov	r0, r5
 4021 01dc FFF7FEFF 		bl	buffer_append_float32_auto
 4022              	.LVL343:
 4023              		.loc 1 788 0
 4024 01e0 3246     		mov	r2, r6
 4025 01e2 B4F89010 		ldrh	r1, [r4, #144]
 4026 01e6 2846     		mov	r0, r5
 4027 01e8 FFF7FEFF 		bl	buffer_append_uint16
 4028              	.LVL344:
 4029              		.loc 1 790 0
 4030 01ec 3246     		mov	r2, r6
 4031 01ee D4F89410 		ldr	r1, [r4, #148]
 4032 01f2 2846     		mov	r0, r5
 4033 01f4 FFF7FEFF 		bl	buffer_append_uint32
 4034              	.LVL345:
 4035              		.loc 1 792 0
 4036 01f8 019B     		ldr	r3, [sp, #4]
 4037 01fa 94F89820 		ldrb	r2, [r4, #152]	@ zero_extendqisi2
 4038 01fe EA54     		strb	r2, [r5, r3]
 4039              		.loc 1 793 0
 4040 0200 3146     		mov	r1, r6
 4041              		.loc 1 792 0
 4042 0202 0133     		adds	r3, r3, #1
 4043              		.loc 1 793 0
 4044 0204 94ED270A 		vldr.32	s0, [r4, #156]
 4045              		.loc 1 792 0
 4046 0208 0193     		str	r3, [sp, #4]
 4047              		.loc 1 793 0
ARM GAS  /tmp/cczXzW7i.s 			page 72


 4048 020a 2846     		mov	r0, r5
 4049 020c FFF7FEFF 		bl	buffer_append_float32_auto
 4050              	.LVL346:
 4051              		.loc 1 794 0
 4052 0210 3146     		mov	r1, r6
 4053 0212 94ED280A 		vldr.32	s0, [r4, #160]
 4054 0216 2846     		mov	r0, r5
 4055 0218 FFF7FEFF 		bl	buffer_append_float32_auto
 4056              	.LVL347:
 4057              		.loc 1 795 0
 4058 021c 3146     		mov	r1, r6
 4059 021e 94ED290A 		vldr.32	s0, [r4, #164]
 4060 0222 2846     		mov	r0, r5
 4061 0224 FFF7FEFF 		bl	buffer_append_float32_auto
 4062              	.LVL348:
 4063              		.loc 1 796 0
 4064 0228 3146     		mov	r1, r6
 4065 022a 94ED2A0A 		vldr.32	s0, [r4, #168]
 4066 022e 2846     		mov	r0, r5
 4067 0230 FFF7FEFF 		bl	buffer_append_float32_auto
 4068              	.LVL349:
 4069              		.loc 1 797 0
 4070 0234 3146     		mov	r1, r6
 4071 0236 94ED2B0A 		vldr.32	s0, [r4, #172]
 4072 023a 2846     		mov	r0, r5
 4073 023c FFF7FEFF 		bl	buffer_append_float32_auto
 4074              	.LVL350:
 4075              		.loc 1 798 0
 4076 0240 3146     		mov	r1, r6
 4077 0242 94ED2C0A 		vldr.32	s0, [r4, #176]
 4078 0246 2846     		mov	r0, r5
 4079 0248 FFF7FEFF 		bl	buffer_append_float32_auto
 4080              	.LVL351:
 4081              		.loc 1 799 0
 4082 024c 019B     		ldr	r3, [sp, #4]
 4083 024e 94F8B420 		ldrb	r2, [r4, #180]	@ zero_extendqisi2
 4084 0252 EA54     		strb	r2, [r5, r3]
 4085              		.loc 1 800 0
 4086 0254 EA18     		adds	r2, r5, r3
 4087 0256 94F8B510 		ldrb	r1, [r4, #181]	@ zero_extendqisi2
 4088 025a 5170     		strb	r1, [r2, #1]
 4089              		.loc 1 801 0
 4090 025c 94F8B610 		ldrb	r1, [r4, #182]	@ zero_extendqisi2
 4091 0260 9170     		strb	r1, [r2, #2]
 4092 0262 0333     		adds	r3, r3, #3
 4093              		.loc 1 802 0
 4094 0264 3146     		mov	r1, r6
 4095 0266 2846     		mov	r0, r5
 4096 0268 94ED2E0A 		vldr.32	s0, [r4, #184]
 4097              		.loc 1 801 0
 4098 026c 0193     		str	r3, [sp, #4]
 4099              		.loc 1 802 0
 4100 026e FFF7FEFF 		bl	buffer_append_float32_auto
 4101              	.LVL352:
 4102              		.loc 1 804 0
 4103 0272 0199     		ldr	r1, [sp, #4]
 4104 0274 94F8BC30 		ldrb	r3, [r4, #188]	@ zero_extendqisi2
ARM GAS  /tmp/cczXzW7i.s 			page 73


 4105 0278 6B54     		strb	r3, [r5, r1]
 4106              		.loc 1 805 0
 4107 027a 6B18     		adds	r3, r5, r1
 4108 027c 94F8BD20 		ldrb	r2, [r4, #189]	@ zero_extendqisi2
 4109 0280 5A70     		strb	r2, [r3, #1]
 4110              		.loc 1 806 0
 4111 0282 94F8BE20 		ldrb	r2, [r4, #190]	@ zero_extendqisi2
 4112 0286 9A70     		strb	r2, [r3, #2]
 4113              		.loc 1 807 0
 4114 0288 94F8BF20 		ldrb	r2, [r4, #191]	@ zero_extendqisi2
 4115 028c DA70     		strb	r2, [r3, #3]
 4116              		.loc 1 808 0
 4117 028e 94F8C020 		ldrb	r2, [r4, #192]	@ zero_extendqisi2
 4118 0292 1A71     		strb	r2, [r3, #4]
 4119              		.loc 1 809 0
 4120 0294 94F8C120 		ldrb	r2, [r4, #193]	@ zero_extendqisi2
 4121 0298 5A71     		strb	r2, [r3, #5]
 4122              		.loc 1 810 0
 4123 029a 2046     		mov	r0, r4
 4124              		.loc 1 809 0
 4125 029c 8A1D     		adds	r2, r1, #6
 4126              		.loc 1 810 0
 4127 029e 30F8C2CF 		ldrh	ip, [r0, #194]!	@ unaligned
 4128 02a2 8678     		ldrb	r6, [r0, #2]	@ zero_extendqisi2
 4129 02a4 25F802C0 		strh	ip, [r5, r2]	@ unaligned
 4130 02a8 2A44     		add	r2, r2, r5
 4131              	.LBB85:
 4132              	.LBB82:
 4133              		.loc 1 908 0
 4134 02aa 3868     		ldr	r0, [r7]
 4135              	.LBE82:
 4136              	.LBE85:
 4137              		.loc 1 810 0
 4138 02ac 9670     		strb	r6, [r2, #2]
 4139              		.loc 1 812 0
 4140 02ae 94F8C520 		ldrb	r2, [r4, #197]	@ zero_extendqisi2
 4141 02b2 5A72     		strb	r2, [r3, #9]
 4142              	.LVL353:
 4143 02b4 0A31     		adds	r1, r1, #10
 4144              	.LVL354:
 4145 02b6 0191     		str	r1, [sp, #4]
 4146              	.LBB86:
 4147              	.LBB83:
 4148              		.loc 1 908 0
 4149 02b8 08B1     		cbz	r0, .L196
 4150              	.LBE83:
 4151              	.LBE86:
 4152              		.loc 1 815 0
 4153 02ba 03B0     		add	sp, sp, #12
 4154              		.cfi_remember_state
 4155              		.cfi_def_cfa_offset 20
 4156              		@ sp needed
 4157 02bc F0BD     		pop	{r4, r5, r6, r7, pc}
 4158              	.LVL355:
 4159              	.L196:
 4160              		.cfi_restore_state
 4161              	.LBB87:
ARM GAS  /tmp/cczXzW7i.s 			page 74


 4162              	.LBB84:
 4163 02be 2846     		mov	r0, r5
 4164 02c0 FFF7FEFF 		bl	send_packet_no_fwd.part.0
 4165              	.LVL356:
 4166              	.LBE84:
 4167              	.LBE87:
 4168 02c4 03B0     		add	sp, sp, #12
 4169              		.cfi_def_cfa_offset 20
 4170              		@ sp needed
 4171 02c6 F0BD     		pop	{r4, r5, r6, r7, pc}
 4172              	.LVL357:
 4173              	.L198:
 4174              		.align	2
 4175              	.L197:
 4176 02c8 00000000 		.word	.LANCHOR22
 4177 02cc 00000000 		.word	.LANCHOR1
 4178              		.cfi_endproc
 4179              	.LFE256:
 4180              		.size	bldc_interface_set_appconf, .-bldc_interface_set_appconf
 4181              		.section	.text.bldc_interface_get_fw_version,"ax",%progbits
 4182              		.align	1
 4183              		.p2align 4,,15
 4184              		.global	bldc_interface_get_fw_version
 4185              		.syntax unified
 4186              		.thumb
 4187              		.thumb_func
 4188              		.fpu fpv4-sp-d16
 4189              		.type	bldc_interface_get_fw_version, %function
 4190              	bldc_interface_get_fw_version:
 4191              	.LFB257:
 4192              		.loc 1 818 0
 4193              		.cfi_startproc
 4194              		@ args = 0, pretend = 0, frame = 0
 4195              		@ frame_needed = 0, uses_anonymous_args = 0
 4196              		@ link register save eliminated.
 4197              	.LVL358:
 4198              	.LBB88:
 4199              	.LBB89:
 4200              		.loc 1 908 0
 4201 0000 044B     		ldr	r3, .L202
 4202              	.LBE89:
 4203              	.LBE88:
 4204              		.loc 1 820 0
 4205 0002 0548     		ldr	r0, .L202+4
 4206              	.LBB93:
 4207              	.LBB90:
 4208              		.loc 1 908 0
 4209 0004 1B68     		ldr	r3, [r3]
 4210              	.LBE90:
 4211              	.LBE93:
 4212              		.loc 1 820 0
 4213 0006 0022     		movs	r2, #0
 4214 0008 0270     		strb	r2, [r0]
 4215              	.LVL359:
 4216              	.LBB94:
 4217              	.LBB91:
 4218              		.loc 1 908 0
ARM GAS  /tmp/cczXzW7i.s 			page 75


 4219 000a 03B1     		cbz	r3, .L201
 4220              	.LBE91:
 4221              	.LBE94:
 4222              		.loc 1 822 0
 4223 000c 7047     		bx	lr
 4224              	.L201:
 4225              	.LBB95:
 4226              	.LBB92:
 4227 000e 0121     		movs	r1, #1
 4228 0010 FFF7FEBF 		b	send_packet_no_fwd.part.0
 4229              	.LVL360:
 4230              	.L203:
 4231              		.align	2
 4232              	.L202:
 4233 0014 00000000 		.word	.LANCHOR1
 4234 0018 00000000 		.word	.LANCHOR22
 4235              	.LBE92:
 4236              	.LBE95:
 4237              		.cfi_endproc
 4238              	.LFE257:
 4239              		.size	bldc_interface_get_fw_version, .-bldc_interface_get_fw_version
 4240              		.section	.text.bldc_interface_get_values,"ax",%progbits
 4241              		.align	1
 4242              		.p2align 4,,15
 4243              		.global	bldc_interface_get_values
 4244              		.syntax unified
 4245              		.thumb
 4246              		.thumb_func
 4247              		.fpu fpv4-sp-d16
 4248              		.type	bldc_interface_get_values, %function
 4249              	bldc_interface_get_values:
 4250              	.LFB258:
 4251              		.loc 1 824 0
 4252              		.cfi_startproc
 4253              		@ args = 0, pretend = 0, frame = 0
 4254              		@ frame_needed = 0, uses_anonymous_args = 0
 4255              		@ link register save eliminated.
 4256              		.loc 1 825 0
 4257 0000 064B     		ldr	r3, .L208
 4258 0002 1B68     		ldr	r3, [r3]
 4259 0004 03B1     		cbz	r3, .L205
 4260              		.loc 1 826 0
 4261 0006 1847     		bx	r3	@ indirect register sibling call
 4262              	.LVL361:
 4263              	.L205:
 4264              	.LBB96:
 4265              	.LBB97:
 4266              		.loc 1 908 0
 4267 0008 054B     		ldr	r3, .L208+4
 4268              	.LBE97:
 4269              	.LBE96:
 4270              		.loc 1 830 0
 4271 000a 0648     		ldr	r0, .L208+8
 4272              	.LBB101:
 4273              	.LBB98:
 4274              		.loc 1 908 0
 4275 000c 1B68     		ldr	r3, [r3]
ARM GAS  /tmp/cczXzW7i.s 			page 76


 4276              	.LBE98:
 4277              	.LBE101:
 4278              		.loc 1 830 0
 4279 000e 0422     		movs	r2, #4
 4280 0010 0270     		strb	r2, [r0]
 4281              	.LVL362:
 4282              	.LBB102:
 4283              	.LBB99:
 4284              		.loc 1 908 0
 4285 0012 03B1     		cbz	r3, .L207
 4286              	.LBE99:
 4287              	.LBE102:
 4288              		.loc 1 832 0
 4289 0014 7047     		bx	lr
 4290              	.L207:
 4291              	.LBB103:
 4292              	.LBB100:
 4293 0016 0121     		movs	r1, #1
 4294 0018 FFF7FEBF 		b	send_packet_no_fwd.part.0
 4295              	.LVL363:
 4296              	.L209:
 4297              		.align	2
 4298              	.L208:
 4299 001c 00000000 		.word	.LANCHOR21
 4300 0020 00000000 		.word	.LANCHOR1
 4301 0024 00000000 		.word	.LANCHOR22
 4302              	.LBE100:
 4303              	.LBE103:
 4304              		.cfi_endproc
 4305              	.LFE258:
 4306              		.size	bldc_interface_get_values, .-bldc_interface_get_values
 4307              		.section	.text.bldc_interface_get_mcconf,"ax",%progbits
 4308              		.align	1
 4309              		.p2align 4,,15
 4310              		.global	bldc_interface_get_mcconf
 4311              		.syntax unified
 4312              		.thumb
 4313              		.thumb_func
 4314              		.fpu fpv4-sp-d16
 4315              		.type	bldc_interface_get_mcconf, %function
 4316              	bldc_interface_get_mcconf:
 4317              	.LFB259:
 4318              		.loc 1 834 0
 4319              		.cfi_startproc
 4320              		@ args = 0, pretend = 0, frame = 0
 4321              		@ frame_needed = 0, uses_anonymous_args = 0
 4322              		@ link register save eliminated.
 4323              	.LVL364:
 4324              	.LBB104:
 4325              	.LBB105:
 4326              		.loc 1 908 0
 4327 0000 044B     		ldr	r3, .L213
 4328              	.LBE105:
 4329              	.LBE104:
 4330              		.loc 1 836 0
 4331 0002 0548     		ldr	r0, .L213+4
 4332              	.LBB109:
ARM GAS  /tmp/cczXzW7i.s 			page 77


 4333              	.LBB106:
 4334              		.loc 1 908 0
 4335 0004 1B68     		ldr	r3, [r3]
 4336              	.LBE106:
 4337              	.LBE109:
 4338              		.loc 1 836 0
 4339 0006 0E22     		movs	r2, #14
 4340 0008 0270     		strb	r2, [r0]
 4341              	.LVL365:
 4342              	.LBB110:
 4343              	.LBB107:
 4344              		.loc 1 908 0
 4345 000a 03B1     		cbz	r3, .L212
 4346              	.LBE107:
 4347              	.LBE110:
 4348              		.loc 1 838 0
 4349 000c 7047     		bx	lr
 4350              	.L212:
 4351              	.LBB111:
 4352              	.LBB108:
 4353 000e 0121     		movs	r1, #1
 4354 0010 FFF7FEBF 		b	send_packet_no_fwd.part.0
 4355              	.LVL366:
 4356              	.L214:
 4357              		.align	2
 4358              	.L213:
 4359 0014 00000000 		.word	.LANCHOR1
 4360 0018 00000000 		.word	.LANCHOR22
 4361              	.LBE108:
 4362              	.LBE111:
 4363              		.cfi_endproc
 4364              	.LFE259:
 4365              		.size	bldc_interface_get_mcconf, .-bldc_interface_get_mcconf
 4366              		.section	.text.bldc_interface_get_appconf,"ax",%progbits
 4367              		.align	1
 4368              		.p2align 4,,15
 4369              		.global	bldc_interface_get_appconf
 4370              		.syntax unified
 4371              		.thumb
 4372              		.thumb_func
 4373              		.fpu fpv4-sp-d16
 4374              		.type	bldc_interface_get_appconf, %function
 4375              	bldc_interface_get_appconf:
 4376              	.LFB260:
 4377              		.loc 1 840 0
 4378              		.cfi_startproc
 4379              		@ args = 0, pretend = 0, frame = 0
 4380              		@ frame_needed = 0, uses_anonymous_args = 0
 4381              		@ link register save eliminated.
 4382              	.LVL367:
 4383              	.LBB112:
 4384              	.LBB113:
 4385              		.loc 1 908 0
 4386 0000 044B     		ldr	r3, .L218
 4387              	.LBE113:
 4388              	.LBE112:
 4389              		.loc 1 842 0
ARM GAS  /tmp/cczXzW7i.s 			page 78


 4390 0002 0548     		ldr	r0, .L218+4
 4391              	.LBB117:
 4392              	.LBB114:
 4393              		.loc 1 908 0
 4394 0004 1B68     		ldr	r3, [r3]
 4395              	.LBE114:
 4396              	.LBE117:
 4397              		.loc 1 842 0
 4398 0006 1122     		movs	r2, #17
 4399 0008 0270     		strb	r2, [r0]
 4400              	.LVL368:
 4401              	.LBB118:
 4402              	.LBB115:
 4403              		.loc 1 908 0
 4404 000a 03B1     		cbz	r3, .L217
 4405              	.LBE115:
 4406              	.LBE118:
 4407              		.loc 1 844 0
 4408 000c 7047     		bx	lr
 4409              	.L217:
 4410              	.LBB119:
 4411              	.LBB116:
 4412 000e 0121     		movs	r1, #1
 4413 0010 FFF7FEBF 		b	send_packet_no_fwd.part.0
 4414              	.LVL369:
 4415              	.L219:
 4416              		.align	2
 4417              	.L218:
 4418 0014 00000000 		.word	.LANCHOR1
 4419 0018 00000000 		.word	.LANCHOR22
 4420              	.LBE116:
 4421              	.LBE119:
 4422              		.cfi_endproc
 4423              	.LFE260:
 4424              		.size	bldc_interface_get_appconf, .-bldc_interface_get_appconf
 4425              		.section	.text.bldc_interface_get_decoded_ppm,"ax",%progbits
 4426              		.align	1
 4427              		.p2align 4,,15
 4428              		.global	bldc_interface_get_decoded_ppm
 4429              		.syntax unified
 4430              		.thumb
 4431              		.thumb_func
 4432              		.fpu fpv4-sp-d16
 4433              		.type	bldc_interface_get_decoded_ppm, %function
 4434              	bldc_interface_get_decoded_ppm:
 4435              	.LFB261:
 4436              		.loc 1 846 0
 4437              		.cfi_startproc
 4438              		@ args = 0, pretend = 0, frame = 0
 4439              		@ frame_needed = 0, uses_anonymous_args = 0
 4440              		@ link register save eliminated.
 4441              	.LVL370:
 4442              	.LBB120:
 4443              	.LBB121:
 4444              		.loc 1 908 0
 4445 0000 044B     		ldr	r3, .L223
 4446              	.LBE121:
ARM GAS  /tmp/cczXzW7i.s 			page 79


 4447              	.LBE120:
 4448              		.loc 1 848 0
 4449 0002 0548     		ldr	r0, .L223+4
 4450              	.LBB125:
 4451              	.LBB122:
 4452              		.loc 1 908 0
 4453 0004 1B68     		ldr	r3, [r3]
 4454              	.LBE122:
 4455              	.LBE125:
 4456              		.loc 1 848 0
 4457 0006 1F22     		movs	r2, #31
 4458 0008 0270     		strb	r2, [r0]
 4459              	.LVL371:
 4460              	.LBB126:
 4461              	.LBB123:
 4462              		.loc 1 908 0
 4463 000a 03B1     		cbz	r3, .L222
 4464              	.LBE123:
 4465              	.LBE126:
 4466              		.loc 1 850 0
 4467 000c 7047     		bx	lr
 4468              	.L222:
 4469              	.LBB127:
 4470              	.LBB124:
 4471 000e 0121     		movs	r1, #1
 4472 0010 FFF7FEBF 		b	send_packet_no_fwd.part.0
 4473              	.LVL372:
 4474              	.L224:
 4475              		.align	2
 4476              	.L223:
 4477 0014 00000000 		.word	.LANCHOR1
 4478 0018 00000000 		.word	.LANCHOR22
 4479              	.LBE124:
 4480              	.LBE127:
 4481              		.cfi_endproc
 4482              	.LFE261:
 4483              		.size	bldc_interface_get_decoded_ppm, .-bldc_interface_get_decoded_ppm
 4484              		.section	.text.bldc_interface_get_decoded_adc,"ax",%progbits
 4485              		.align	1
 4486              		.p2align 4,,15
 4487              		.global	bldc_interface_get_decoded_adc
 4488              		.syntax unified
 4489              		.thumb
 4490              		.thumb_func
 4491              		.fpu fpv4-sp-d16
 4492              		.type	bldc_interface_get_decoded_adc, %function
 4493              	bldc_interface_get_decoded_adc:
 4494              	.LFB262:
 4495              		.loc 1 852 0
 4496              		.cfi_startproc
 4497              		@ args = 0, pretend = 0, frame = 0
 4498              		@ frame_needed = 0, uses_anonymous_args = 0
 4499              		@ link register save eliminated.
 4500              	.LVL373:
 4501              	.LBB128:
 4502              	.LBB129:
 4503              		.loc 1 908 0
ARM GAS  /tmp/cczXzW7i.s 			page 80


 4504 0000 044B     		ldr	r3, .L228
 4505              	.LBE129:
 4506              	.LBE128:
 4507              		.loc 1 854 0
 4508 0002 0548     		ldr	r0, .L228+4
 4509              	.LBB133:
 4510              	.LBB130:
 4511              		.loc 1 908 0
 4512 0004 1B68     		ldr	r3, [r3]
 4513              	.LBE130:
 4514              	.LBE133:
 4515              		.loc 1 854 0
 4516 0006 2022     		movs	r2, #32
 4517 0008 0270     		strb	r2, [r0]
 4518              	.LVL374:
 4519              	.LBB134:
 4520              	.LBB131:
 4521              		.loc 1 908 0
 4522 000a 03B1     		cbz	r3, .L227
 4523              	.LBE131:
 4524              	.LBE134:
 4525              		.loc 1 856 0
 4526 000c 7047     		bx	lr
 4527              	.L227:
 4528              	.LBB135:
 4529              	.LBB132:
 4530 000e 0121     		movs	r1, #1
 4531 0010 FFF7FEBF 		b	send_packet_no_fwd.part.0
 4532              	.LVL375:
 4533              	.L229:
 4534              		.align	2
 4535              	.L228:
 4536 0014 00000000 		.word	.LANCHOR1
 4537 0018 00000000 		.word	.LANCHOR22
 4538              	.LBE132:
 4539              	.LBE135:
 4540              		.cfi_endproc
 4541              	.LFE262:
 4542              		.size	bldc_interface_get_decoded_adc, .-bldc_interface_get_decoded_adc
 4543              		.section	.text.bldc_interface_get_decoded_chuk,"ax",%progbits
 4544              		.align	1
 4545              		.p2align 4,,15
 4546              		.global	bldc_interface_get_decoded_chuk
 4547              		.syntax unified
 4548              		.thumb
 4549              		.thumb_func
 4550              		.fpu fpv4-sp-d16
 4551              		.type	bldc_interface_get_decoded_chuk, %function
 4552              	bldc_interface_get_decoded_chuk:
 4553              	.LFB263:
 4554              		.loc 1 858 0
 4555              		.cfi_startproc
 4556              		@ args = 0, pretend = 0, frame = 0
 4557              		@ frame_needed = 0, uses_anonymous_args = 0
 4558              		@ link register save eliminated.
 4559              	.LVL376:
 4560              	.LBB136:
ARM GAS  /tmp/cczXzW7i.s 			page 81


 4561              	.LBB137:
 4562              		.loc 1 908 0
 4563 0000 044B     		ldr	r3, .L233
 4564              	.LBE137:
 4565              	.LBE136:
 4566              		.loc 1 860 0
 4567 0002 0548     		ldr	r0, .L233+4
 4568              	.LBB141:
 4569              	.LBB138:
 4570              		.loc 1 908 0
 4571 0004 1B68     		ldr	r3, [r3]
 4572              	.LBE138:
 4573              	.LBE141:
 4574              		.loc 1 860 0
 4575 0006 2122     		movs	r2, #33
 4576 0008 0270     		strb	r2, [r0]
 4577              	.LVL377:
 4578              	.LBB142:
 4579              	.LBB139:
 4580              		.loc 1 908 0
 4581 000a 03B1     		cbz	r3, .L232
 4582              	.LBE139:
 4583              	.LBE142:
 4584              		.loc 1 862 0
 4585 000c 7047     		bx	lr
 4586              	.L232:
 4587              	.LBB143:
 4588              	.LBB140:
 4589 000e 0121     		movs	r1, #1
 4590 0010 FFF7FEBF 		b	send_packet_no_fwd.part.0
 4591              	.LVL378:
 4592              	.L234:
 4593              		.align	2
 4594              	.L233:
 4595 0014 00000000 		.word	.LANCHOR1
 4596 0018 00000000 		.word	.LANCHOR22
 4597              	.LBE140:
 4598              	.LBE143:
 4599              		.cfi_endproc
 4600              	.LFE263:
 4601              		.size	bldc_interface_get_decoded_chuk, .-bldc_interface_get_decoded_chuk
 4602              		.section	.text.bldc_interface_detect_motor_param,"ax",%progbits
 4603              		.align	1
 4604              		.p2align 4,,15
 4605              		.global	bldc_interface_detect_motor_param
 4606              		.syntax unified
 4607              		.thumb
 4608              		.thumb_func
 4609              		.fpu fpv4-sp-d16
 4610              		.type	bldc_interface_detect_motor_param, %function
 4611              	bldc_interface_detect_motor_param:
 4612              	.LFB264:
 4613              		.loc 1 865 0
 4614              		.cfi_startproc
 4615              		@ args = 0, pretend = 0, frame = 8
 4616              		@ frame_needed = 0, uses_anonymous_args = 0
 4617              	.LVL379:
ARM GAS  /tmp/cczXzW7i.s 			page 82


 4618 0000 30B5     		push	{r4, r5, lr}
 4619              		.cfi_def_cfa_offset 12
 4620              		.cfi_offset 4, -12
 4621              		.cfi_offset 5, -8
 4622              		.cfi_offset 14, -4
 4623 0002 2DED028B 		vpush.64	{d8}
 4624              		.cfi_def_cfa_offset 20
 4625              		.cfi_offset 80, -20
 4626              		.cfi_offset 81, -16
 4627 0006 83B0     		sub	sp, sp, #12
 4628              		.cfi_def_cfa_offset 32
 4629              		.loc 1 867 0
 4630 0008 02AC     		add	r4, sp, #8
 4631 000a 0123     		movs	r3, #1
 4632 000c 44F8043D 		str	r3, [r4, #-4]!
 4633 0010 154D     		ldr	r5, .L239
 4634 0012 1823     		movs	r3, #24
 4635              		.loc 1 865 0
 4636 0014 F0EE608A 		vmov.f32	s17, s1
 4637              		.loc 1 868 0
 4638 0018 2146     		mov	r1, r4
 4639 001a 2846     		mov	r0, r5
 4640 001c DFED130A 		vldr.32	s1, .L239+4
 4641              	.LVL380:
 4642              		.loc 1 867 0
 4643 0020 2B70     		strb	r3, [r5]
 4644              		.loc 1 865 0
 4645 0022 B0EE418A 		vmov.f32	s16, s2
 4646              		.loc 1 868 0
 4647 0026 FFF7FEFF 		bl	buffer_append_float32
 4648              	.LVL381:
 4649              		.loc 1 869 0
 4650 002a 2146     		mov	r1, r4
 4651 002c B0EE680A 		vmov.f32	s0, s17
 4652 0030 2846     		mov	r0, r5
 4653 0032 DFED0E0A 		vldr.32	s1, .L239+4
 4654 0036 FFF7FEFF 		bl	buffer_append_float32
 4655              	.LVL382:
 4656              		.loc 1 870 0
 4657 003a 2146     		mov	r1, r4
 4658 003c B0EE480A 		vmov.f32	s0, s16
 4659 0040 2846     		mov	r0, r5
 4660 0042 DFED0A0A 		vldr.32	s1, .L239+4
 4661 0046 FFF7FEFF 		bl	buffer_append_float32
 4662              	.LVL383:
 4663              	.LBB144:
 4664              	.LBB145:
 4665              		.loc 1 908 0
 4666 004a 094B     		ldr	r3, .L239+8
 4667 004c 1B68     		ldr	r3, [r3]
 4668 004e 1BB1     		cbz	r3, .L238
 4669              	.LBE145:
 4670              	.LBE144:
 4671              		.loc 1 872 0
 4672 0050 03B0     		add	sp, sp, #12
 4673              		.cfi_remember_state
 4674              		.cfi_def_cfa_offset 20
ARM GAS  /tmp/cczXzW7i.s 			page 83


 4675              		@ sp needed
 4676 0052 BDEC028B 		vldm	sp!, {d8}
 4677              		.cfi_restore 80
 4678              		.cfi_restore 81
 4679              		.cfi_def_cfa_offset 12
 4680              	.LVL384:
 4681 0056 30BD     		pop	{r4, r5, pc}
 4682              	.LVL385:
 4683              	.L238:
 4684              		.cfi_restore_state
 4685              	.LBB147:
 4686              	.LBB146:
 4687 0058 2846     		mov	r0, r5
 4688 005a 0199     		ldr	r1, [sp, #4]
 4689 005c FFF7FEFF 		bl	send_packet_no_fwd.part.0
 4690              	.LVL386:
 4691              	.LBE146:
 4692              	.LBE147:
 4693 0060 03B0     		add	sp, sp, #12
 4694              		.cfi_def_cfa_offset 20
 4695              		@ sp needed
 4696 0062 BDEC028B 		vldm	sp!, {d8}
 4697              		.cfi_restore 80
 4698              		.cfi_restore 81
 4699              		.cfi_def_cfa_offset 12
 4700              	.LVL387:
 4701 0066 30BD     		pop	{r4, r5, pc}
 4702              	.L240:
 4703              		.align	2
 4704              	.L239:
 4705 0068 00000000 		.word	.LANCHOR22
 4706 006c 00007A44 		.word	1148846080
 4707 0070 00000000 		.word	.LANCHOR1
 4708              		.cfi_endproc
 4709              	.LFE264:
 4710              		.size	bldc_interface_detect_motor_param, .-bldc_interface_detect_motor_param
 4711              		.section	.text.bldc_interface_reboot,"ax",%progbits
 4712              		.align	1
 4713              		.p2align 4,,15
 4714              		.global	bldc_interface_reboot
 4715              		.syntax unified
 4716              		.thumb
 4717              		.thumb_func
 4718              		.fpu fpv4-sp-d16
 4719              		.type	bldc_interface_reboot, %function
 4720              	bldc_interface_reboot:
 4721              	.LFB265:
 4722              		.loc 1 874 0
 4723              		.cfi_startproc
 4724              		@ args = 0, pretend = 0, frame = 0
 4725              		@ frame_needed = 0, uses_anonymous_args = 0
 4726              		@ link register save eliminated.
 4727              	.LVL388:
 4728              	.LBB148:
 4729              	.LBB149:
 4730              		.loc 1 908 0
 4731 0000 044B     		ldr	r3, .L244
ARM GAS  /tmp/cczXzW7i.s 			page 84


 4732              	.LBE149:
 4733              	.LBE148:
 4734              		.loc 1 876 0
 4735 0002 0548     		ldr	r0, .L244+4
 4736              	.LBB153:
 4737              	.LBB150:
 4738              		.loc 1 908 0
 4739 0004 1B68     		ldr	r3, [r3]
 4740              	.LBE150:
 4741              	.LBE153:
 4742              		.loc 1 876 0
 4743 0006 1D22     		movs	r2, #29
 4744 0008 0270     		strb	r2, [r0]
 4745              	.LVL389:
 4746              	.LBB154:
 4747              	.LBB151:
 4748              		.loc 1 908 0
 4749 000a 03B1     		cbz	r3, .L243
 4750              	.LBE151:
 4751              	.LBE154:
 4752              		.loc 1 878 0
 4753 000c 7047     		bx	lr
 4754              	.L243:
 4755              	.LBB155:
 4756              	.LBB152:
 4757 000e 0121     		movs	r1, #1
 4758 0010 FFF7FEBF 		b	send_packet_no_fwd.part.0
 4759              	.LVL390:
 4760              	.L245:
 4761              		.align	2
 4762              	.L244:
 4763 0014 00000000 		.word	.LANCHOR1
 4764 0018 00000000 		.word	.LANCHOR22
 4765              	.LBE152:
 4766              	.LBE155:
 4767              		.cfi_endproc
 4768              	.LFE265:
 4769              		.size	bldc_interface_reboot, .-bldc_interface_reboot
 4770              		.section	.text.bldc_interface_send_alive,"ax",%progbits
 4771              		.align	1
 4772              		.p2align 4,,15
 4773              		.global	bldc_interface_send_alive
 4774              		.syntax unified
 4775              		.thumb
 4776              		.thumb_func
 4777              		.fpu fpv4-sp-d16
 4778              		.type	bldc_interface_send_alive, %function
 4779              	bldc_interface_send_alive:
 4780              	.LFB266:
 4781              		.loc 1 880 0
 4782              		.cfi_startproc
 4783              		@ args = 0, pretend = 0, frame = 0
 4784              		@ frame_needed = 0, uses_anonymous_args = 0
 4785              		@ link register save eliminated.
 4786              	.LVL391:
 4787              	.LBB156:
 4788              	.LBB157:
ARM GAS  /tmp/cczXzW7i.s 			page 85


 4789              		.loc 1 908 0
 4790 0000 044B     		ldr	r3, .L249
 4791              	.LBE157:
 4792              	.LBE156:
 4793              		.loc 1 882 0
 4794 0002 0548     		ldr	r0, .L249+4
 4795              	.LBB161:
 4796              	.LBB158:
 4797              		.loc 1 908 0
 4798 0004 1B68     		ldr	r3, [r3]
 4799              	.LBE158:
 4800              	.LBE161:
 4801              		.loc 1 882 0
 4802 0006 1E22     		movs	r2, #30
 4803 0008 0270     		strb	r2, [r0]
 4804              	.LVL392:
 4805              	.LBB162:
 4806              	.LBB159:
 4807              		.loc 1 908 0
 4808 000a 03B1     		cbz	r3, .L248
 4809              	.LBE159:
 4810              	.LBE162:
 4811              		.loc 1 884 0
 4812 000c 7047     		bx	lr
 4813              	.L248:
 4814              	.LBB163:
 4815              	.LBB160:
 4816 000e 0121     		movs	r1, #1
 4817 0010 FFF7FEBF 		b	send_packet_no_fwd.part.0
 4818              	.LVL393:
 4819              	.L250:
 4820              		.align	2
 4821              	.L249:
 4822 0014 00000000 		.word	.LANCHOR1
 4823 0018 00000000 		.word	.LANCHOR22
 4824              	.LBE160:
 4825              	.LBE163:
 4826              		.cfi_endproc
 4827              	.LFE266:
 4828              		.size	bldc_interface_send_alive, .-bldc_interface_send_alive
 4829              		.section	.text.send_values_to_receiver,"ax",%progbits
 4830              		.align	1
 4831              		.p2align 4,,15
 4832              		.global	send_values_to_receiver
 4833              		.syntax unified
 4834              		.thumb
 4835              		.thumb_func
 4836              		.fpu fpv4-sp-d16
 4837              		.type	send_values_to_receiver, %function
 4838              	send_values_to_receiver:
 4839              	.LFB267:
 4840              		.loc 1 886 0
 4841              		.cfi_startproc
 4842              		@ args = 0, pretend = 0, frame = 0
 4843              		@ frame_needed = 0, uses_anonymous_args = 0
 4844              		@ link register save eliminated.
 4845              	.LVL394:
ARM GAS  /tmp/cczXzW7i.s 			page 86


 4846              		.loc 1 887 0
 4847 0000 024B     		ldr	r3, .L253
 4848 0002 1B68     		ldr	r3, [r3]
 4849 0004 03B1     		cbz	r3, .L251
 4850              		.loc 1 888 0
 4851 0006 1847     		bx	r3	@ indirect register sibling call
 4852              	.LVL395:
 4853              	.L251:
 4854              		.loc 1 890 0
 4855 0008 7047     		bx	lr
 4856              	.L254:
 4857 000a 00BF     		.align	2
 4858              	.L253:
 4859 000c 00000000 		.word	.LANCHOR3
 4860              		.cfi_endproc
 4861              	.LFE267:
 4862              		.size	send_values_to_receiver, .-send_values_to_receiver
 4863              		.section	.text.bldc_interface_fault_to_string,"ax",%progbits
 4864              		.align	1
 4865              		.p2align 4,,15
 4866              		.global	bldc_interface_fault_to_string
 4867              		.syntax unified
 4868              		.thumb
 4869              		.thumb_func
 4870              		.fpu fpv4-sp-d16
 4871              		.type	bldc_interface_fault_to_string, %function
 4872              	bldc_interface_fault_to_string:
 4873              	.LFB268:
 4874              		.loc 1 893 0
 4875              		.cfi_startproc
 4876              		@ args = 0, pretend = 0, frame = 0
 4877              		@ frame_needed = 0, uses_anonymous_args = 0
 4878              		@ link register save eliminated.
 4879              	.LVL396:
 4880 0000 0628     		cmp	r0, #6
 4881 0002 9ABF     		itte	ls
 4882 0004 024B     		ldrls	r3, .L258
 4883 0006 53F82000 		ldrls	r0, [r3, r0, lsl #2]
 4884              	.LVL397:
 4885              		.loc 1 893 0
 4886 000a 0248     		ldrhi	r0, .L258+4
 4887              		.loc 1 904 0
 4888 000c 7047     		bx	lr
 4889              	.L259:
 4890 000e 00BF     		.align	2
 4891              	.L258:
 4892 0010 00000000 		.word	.LANCHOR23
 4893 0014 00000000 		.word	.LC0
 4894              		.cfi_endproc
 4895              	.LFE268:
 4896              		.size	bldc_interface_fault_to_string, .-bldc_interface_fault_to_string
 4897              		.section	.text.send_packet_no_fwd,"ax",%progbits
 4898              		.align	1
 4899              		.p2align 4,,15
 4900              		.global	send_packet_no_fwd
 4901              		.syntax unified
 4902              		.thumb
ARM GAS  /tmp/cczXzW7i.s 			page 87


 4903              		.thumb_func
 4904              		.fpu fpv4-sp-d16
 4905              		.type	send_packet_no_fwd, %function
 4906              	send_packet_no_fwd:
 4907              	.LFB269:
 4908              		.loc 1 907 0
 4909              		.cfi_startproc
 4910              		@ args = 0, pretend = 0, frame = 0
 4911              		@ frame_needed = 0, uses_anonymous_args = 0
 4912              		@ link register save eliminated.
 4913              	.LVL398:
 4914              		.loc 1 908 0
 4915 0000 024B     		ldr	r3, .L263
 4916 0002 1B68     		ldr	r3, [r3]
 4917 0004 03B1     		cbz	r3, .L262
 4918              		.loc 1 911 0
 4919 0006 7047     		bx	lr
 4920              	.L262:
 4921 0008 FFF7FEBF 		b	send_packet_no_fwd.part.0
 4922              	.LVL399:
 4923              	.L264:
 4924              		.align	2
 4925              	.L263:
 4926 000c 00000000 		.word	.LANCHOR1
 4927              		.cfi_endproc
 4928              	.LFE269:
 4929              		.size	send_packet_no_fwd, .-send_packet_no_fwd
 4930              		.section	.bss.appconf,"aw",%nobits
 4931              		.align	2
 4932              		.set	.LANCHOR8,. + 0
 4933              		.type	appconf, %object
 4934              		.size	appconf, 200
 4935              	appconf:
 4936 0000 00000000 		.space	200
 4936      00000000 
 4936      00000000 
 4936      00000000 
 4936      00000000 
 4937              		.section	.bss.dec_adc,"aw",%nobits
 4938              		.align	2
 4939              		.set	.LANCHOR15,. + 0
 4940              		.type	dec_adc, %object
 4941              		.size	dec_adc, 4
 4942              	dec_adc:
 4943 0000 00000000 		.space	4
 4944              		.section	.bss.dec_ppm,"aw",%nobits
 4945              		.align	2
 4946              		.set	.LANCHOR13,. + 0
 4947              		.type	dec_ppm, %object
 4948              		.size	dec_ppm, 4
 4949              	dec_ppm:
 4950 0000 00000000 		.space	4
 4951              		.section	.bss.detect_cycle_int_limit,"aw",%nobits
 4952              		.align	2
 4953              		.set	.LANCHOR10,. + 0
 4954              		.type	detect_cycle_int_limit, %object
 4955              		.size	detect_cycle_int_limit, 4
ARM GAS  /tmp/cczXzW7i.s 			page 88


 4956              	detect_cycle_int_limit:
 4957 0000 00000000 		.space	4
 4958              		.section	.bss.detect_hall_table,"aw",%nobits
 4959              		.align	2
 4960              		.set	.LANCHOR11,. + 0
 4961              		.type	detect_hall_table, %object
 4962              		.size	detect_hall_table, 8
 4963              	detect_hall_table:
 4964 0000 00000000 		.space	8
 4964      00000000 
 4965              		.section	.bss.forward_func,"aw",%nobits
 4966              		.align	2
 4967              		.set	.LANCHOR1,. + 0
 4968              		.type	forward_func, %object
 4969              		.size	forward_func, 4
 4970              	forward_func:
 4971 0000 00000000 		.space	4
 4972              		.section	.bss.mcconf,"aw",%nobits
 4973              		.align	2
 4974              		.set	.LANCHOR6,. + 0
 4975              		.type	mcconf, %object
 4976              		.size	mcconf, 388
 4977              	mcconf:
 4978 0000 00000000 		.space	388
 4978      00000000 
 4978      00000000 
 4978      00000000 
 4978      00000000 
 4979              		.section	.bss.motor_control_set_func,"aw",%nobits
 4980              		.align	2
 4981              		.set	.LANCHOR20,. + 0
 4982              		.type	motor_control_set_func, %object
 4983              		.size	motor_control_set_func, 4
 4984              	motor_control_set_func:
 4985 0000 00000000 		.space	4
 4986              		.section	.bss.rx_appconf_func,"aw",%nobits
 4987              		.align	2
 4988              		.set	.LANCHOR9,. + 0
 4989              		.type	rx_appconf_func, %object
 4990              		.size	rx_appconf_func, 4
 4991              	rx_appconf_func:
 4992 0000 00000000 		.space	4
 4993              		.section	.bss.rx_appconf_received_func,"aw",%nobits
 4994              		.align	2
 4995              		.set	.LANCHOR19,. + 0
 4996              		.type	rx_appconf_received_func, %object
 4997              		.size	rx_appconf_received_func, 4
 4998              	rx_appconf_received_func:
 4999 0000 00000000 		.space	4
 5000              		.section	.bss.rx_dec_adc_func,"aw",%nobits
 5001              		.align	2
 5002              		.set	.LANCHOR16,. + 0
 5003              		.type	rx_dec_adc_func, %object
 5004              		.size	rx_dec_adc_func, 4
 5005              	rx_dec_adc_func:
 5006 0000 00000000 		.space	4
 5007              		.section	.bss.rx_dec_chuk_func,"aw",%nobits
ARM GAS  /tmp/cczXzW7i.s 			page 89


 5008              		.align	2
 5009              		.set	.LANCHOR17,. + 0
 5010              		.type	rx_dec_chuk_func, %object
 5011              		.size	rx_dec_chuk_func, 4
 5012              	rx_dec_chuk_func:
 5013 0000 00000000 		.space	4
 5014              		.section	.bss.rx_dec_ppm_func,"aw",%nobits
 5015              		.align	2
 5016              		.set	.LANCHOR14,. + 0
 5017              		.type	rx_dec_ppm_func, %object
 5018              		.size	rx_dec_ppm_func, 4
 5019              	rx_dec_ppm_func:
 5020 0000 00000000 		.space	4
 5021              		.section	.bss.rx_detect_func,"aw",%nobits
 5022              		.align	2
 5023              		.set	.LANCHOR12,. + 0
 5024              		.type	rx_detect_func, %object
 5025              		.size	rx_detect_func, 4
 5026              	rx_detect_func:
 5027 0000 00000000 		.space	4
 5028              		.section	.bss.rx_mcconf_func,"aw",%nobits
 5029              		.align	2
 5030              		.set	.LANCHOR7,. + 0
 5031              		.type	rx_mcconf_func, %object
 5032              		.size	rx_mcconf_func, 4
 5033              	rx_mcconf_func:
 5034 0000 00000000 		.space	4
 5035              		.section	.bss.rx_mcconf_received_func,"aw",%nobits
 5036              		.align	2
 5037              		.set	.LANCHOR18,. + 0
 5038              		.type	rx_mcconf_received_func, %object
 5039              		.size	rx_mcconf_received_func, 4
 5040              	rx_mcconf_received_func:
 5041 0000 00000000 		.space	4
 5042              		.section	.bss.rx_printf_func,"aw",%nobits
 5043              		.align	2
 5044              		.set	.LANCHOR4,. + 0
 5045              		.type	rx_printf_func, %object
 5046              		.size	rx_printf_func, 4
 5047              	rx_printf_func:
 5048 0000 00000000 		.space	4
 5049              		.section	.bss.rx_rotor_pos_func,"aw",%nobits
 5050              		.align	2
 5051              		.set	.LANCHOR5,. + 0
 5052              		.type	rx_rotor_pos_func, %object
 5053              		.size	rx_rotor_pos_func, 4
 5054              	rx_rotor_pos_func:
 5055 0000 00000000 		.space	4
 5056              		.section	.bss.rx_value_func,"aw",%nobits
 5057              		.align	2
 5058              		.set	.LANCHOR3,. + 0
 5059              		.type	rx_value_func, %object
 5060              		.size	rx_value_func, 4
 5061              	rx_value_func:
 5062 0000 00000000 		.space	4
 5063              		.section	.bss.send_buffer,"aw",%nobits
 5064              		.align	2
ARM GAS  /tmp/cczXzW7i.s 			page 90


 5065              		.set	.LANCHOR22,. + 0
 5066              		.type	send_buffer, %object
 5067              		.size	send_buffer, 1024
 5068              	send_buffer:
 5069 0000 00000000 		.space	1024
 5069      00000000 
 5069      00000000 
 5069      00000000 
 5069      00000000 
 5070              		.section	.bss.send_func,"aw",%nobits
 5071              		.align	2
 5072              		.set	.LANCHOR0,. + 0
 5073              		.type	send_func, %object
 5074              		.size	send_func, 4
 5075              	send_func:
 5076 0000 00000000 		.space	4
 5077              		.section	.bss.values,"aw",%nobits
 5078              		.align	2
 5079              		.set	.LANCHOR2,. + 0
 5080              		.type	values, %object
 5081              		.size	values, 72
 5082              	values:
 5083 0000 00000000 		.space	72
 5083      00000000 
 5083      00000000 
 5083      00000000 
 5083      00000000 
 5084              		.section	.bss.values_requested_func,"aw",%nobits
 5085              		.align	2
 5086              		.set	.LANCHOR21,. + 0
 5087              		.type	values_requested_func, %object
 5088              		.size	values_requested_func, 4
 5089              	values_requested_func:
 5090 0000 00000000 		.space	4
 5091              		.section	.rodata.CSWTCH.404,"a",%progbits
 5092              		.align	2
 5093              		.set	.LANCHOR23,. + 0
 5094              		.type	CSWTCH.404, %object
 5095              		.size	CSWTCH.404, 28
 5096              	CSWTCH.404:
 5097 0000 00000000 		.word	.LC1
 5098 0004 10000000 		.word	.LC2
 5099 0008 28000000 		.word	.LC3
 5100 000c 44000000 		.word	.LC4
 5101 0010 54000000 		.word	.LC5
 5102 0014 70000000 		.word	.LC6
 5103 0018 8C000000 		.word	.LC7
 5104              		.section	.rodata.bldc_interface_fault_to_string.str1.4,"aMS",%progbits,1
 5105              		.align	2
 5106              	.LC0:
 5107 0000 556E6B6E 		.ascii	"Unknown fault\000"
 5107      6F776E20 
 5107      6661756C 
 5107      7400
 5108              		.section	.rodata.str1.4,"aMS",%progbits,1
 5109              		.align	2
 5110              	.LC1:
ARM GAS  /tmp/cczXzW7i.s 			page 91


 5111 0000 4641554C 		.ascii	"FAULT_CODE_NONE\000"
 5111      545F434F 
 5111      44455F4E 
 5111      4F4E4500 
 5112              	.LC2:
 5113 0010 4641554C 		.ascii	"FAULT_CODE_OVER_VOLTAGE\000"
 5113      545F434F 
 5113      44455F4F 
 5113      5645525F 
 5113      564F4C54 
 5114              	.LC3:
 5115 0028 4641554C 		.ascii	"FAULT_CODE_UNDER_VOLTAGE\000"
 5115      545F434F 
 5115      44455F55 
 5115      4E444552 
 5115      5F564F4C 
 5116 0041 000000   		.space	3
 5117              	.LC4:
 5118 0044 4641554C 		.ascii	"FAULT_CODE_DRV\000"
 5118      545F434F 
 5118      44455F44 
 5118      525600
 5119 0053 00       		.space	1
 5120              	.LC5:
 5121 0054 4641554C 		.ascii	"FAULT_CODE_ABS_OVER_CURRENT\000"
 5121      545F434F 
 5121      44455F41 
 5121      42535F4F 
 5121      5645525F 
 5122              	.LC6:
 5123 0070 4641554C 		.ascii	"FAULT_CODE_OVER_TEMP_FET\000"
 5123      545F434F 
 5123      44455F4F 
 5123      5645525F 
 5123      54454D50 
 5124 0089 000000   		.space	3
 5125              	.LC7:
 5126 008c 4641554C 		.ascii	"FAULT_CODE_OVER_TEMP_MOTOR\000"
 5126      545F434F 
 5126      44455F4F 
 5126      5645525F 
 5126      54454D50 
 5127              		.text
 5128              	.Letext0:
 5129              		.file 2 "/usr/arm-none-eabi/include/machine/_default_types.h"
 5130              		.file 3 "/usr/arm-none-eabi/include/sys/_stdint.h"
 5131              		.file 4 "/usr/lib/gcc/arm-none-eabi/7.3.1/include/stddef.h"
 5132              		.file 5 "ChibiOS_3.0.2/os/rt/ports/ARMCMx/compilers/GCC/chtypes.h"
 5133              		.file 6 "ChibiOS_3.0.2/os/rt/include/chsystypes.h"
 5134              		.file 7 "ChibiOS_3.0.2/os/rt/include/chschd.h"
 5135              		.file 8 "ChibiOS_3.0.2/os/ext/CMSIS/include/core_cm4.h"
 5136              		.file 9 "ChibiOS_3.0.2/os/ext/CMSIS/ST/system_stm32f4xx.h"
 5137              		.file 10 "ChibiOS_3.0.2/os/rt/ports/ARMCMx/chcore.h"
 5138              		.file 11 "ChibiOS_3.0.2/os/rt/ports/ARMCMx/chcore_v7m.h"
 5139              		.file 12 "ChibiOS_3.0.2/os/rt/include/chtm.h"
 5140              		.file 13 "ChibiOS_3.0.2/os/rt/include/chsem.h"
 5141              		.file 14 "ChibiOS_3.0.2/os/rt/include/chmtx.h"
ARM GAS  /tmp/cczXzW7i.s 			page 92


 5142              		.file 15 "ChibiOS_3.0.2/os/rt/include/chregistry.h"
 5143              		.file 16 "datatypes.h"
 5144              		.file 17 "/usr/arm-none-eabi/include/sys/lock.h"
 5145              		.file 18 "/usr/arm-none-eabi/include/sys/_types.h"
 5146              		.file 19 "/usr/arm-none-eabi/include/sys/reent.h"
 5147              		.file 20 "buffer.h"
 5148              		.file 21 "/usr/arm-none-eabi/include/string.h"
 5149              		.file 22 "<built-in>"
 5150              		.section	.debug_info,"",%progbits
 5151              	.Ldebug_info0:
 5152 0000 B84B0000 		.4byte	0x4bb8
 5153 0004 0400     		.2byte	0x4
 5154 0006 00000000 		.4byte	.Ldebug_abbrev0
 5155 000a 04       		.byte	0x4
 5156 000b 01       		.uleb128 0x1
 5157 000c 600D0000 		.4byte	.LASF665
 5158 0010 0C       		.byte	0xc
 5159 0011 18050000 		.4byte	.LASF666
 5160 0015 56130000 		.4byte	.LASF667
 5161 0019 20020000 		.4byte	.Ldebug_ranges0+0x220
 5162 001d 00000000 		.4byte	0
 5163 0021 00000000 		.4byte	.Ldebug_line0
 5164 0025 02       		.uleb128 0x2
 5165 0026 04       		.byte	0x4
 5166 0027 04       		.byte	0x4
 5167 0028 1F090000 		.4byte	.LASF0
 5168 002c 03       		.uleb128 0x3
 5169 002d 04       		.byte	0x4
 5170 002e 05       		.byte	0x5
 5171 002f 696E7400 		.ascii	"int\000"
 5172 0033 04       		.uleb128 0x4
 5173 0034 8F270000 		.4byte	.LASF2
 5174 0038 02       		.byte	0x2
 5175 0039 29       		.byte	0x29
 5176 003a 3E000000 		.4byte	0x3e
 5177 003e 02       		.uleb128 0x2
 5178 003f 01       		.byte	0x1
 5179 0040 06       		.byte	0x6
 5180 0041 21150000 		.4byte	.LASF1
 5181 0045 05       		.uleb128 0x5
 5182 0046 3E000000 		.4byte	0x3e
 5183 004a 04       		.uleb128 0x4
 5184 004b 24010000 		.4byte	.LASF3
 5185 004f 02       		.byte	0x2
 5186 0050 2B       		.byte	0x2b
 5187 0051 55000000 		.4byte	0x55
 5188 0055 02       		.uleb128 0x2
 5189 0056 01       		.byte	0x1
 5190 0057 08       		.byte	0x8
 5191 0058 B6080000 		.4byte	.LASF4
 5192 005c 02       		.uleb128 0x2
 5193 005d 02       		.byte	0x2
 5194 005e 05       		.byte	0x5
 5195 005f 4F280000 		.4byte	.LASF5
 5196 0063 04       		.uleb128 0x4
 5197 0064 B1070000 		.4byte	.LASF6
 5198 0068 02       		.byte	0x2
ARM GAS  /tmp/cczXzW7i.s 			page 93


 5199 0069 39       		.byte	0x39
 5200 006a 6E000000 		.4byte	0x6e
 5201 006e 02       		.uleb128 0x2
 5202 006f 02       		.byte	0x2
 5203 0070 07       		.byte	0x7
 5204 0071 09150000 		.4byte	.LASF7
 5205 0075 04       		.uleb128 0x4
 5206 0076 5B1F0000 		.4byte	.LASF8
 5207 007a 02       		.byte	0x2
 5208 007b 4D       		.byte	0x4d
 5209 007c 80000000 		.4byte	0x80
 5210 0080 02       		.uleb128 0x2
 5211 0081 04       		.byte	0x4
 5212 0082 05       		.byte	0x5
 5213 0083 25180000 		.4byte	.LASF9
 5214 0087 04       		.uleb128 0x4
 5215 0088 731F0000 		.4byte	.LASF10
 5216 008c 02       		.byte	0x2
 5217 008d 4F       		.byte	0x4f
 5218 008e 92000000 		.4byte	0x92
 5219 0092 02       		.uleb128 0x2
 5220 0093 04       		.byte	0x4
 5221 0094 07       		.byte	0x7
 5222 0095 AC190000 		.4byte	.LASF11
 5223 0099 02       		.uleb128 0x2
 5224 009a 08       		.byte	0x8
 5225 009b 05       		.byte	0x5
 5226 009c 60240000 		.4byte	.LASF12
 5227 00a0 04       		.uleb128 0x4
 5228 00a1 6D110000 		.4byte	.LASF13
 5229 00a5 02       		.byte	0x2
 5230 00a6 69       		.byte	0x69
 5231 00a7 AB000000 		.4byte	0xab
 5232 00ab 02       		.uleb128 0x2
 5233 00ac 08       		.byte	0x8
 5234 00ad 07       		.byte	0x7
 5235 00ae 35210000 		.4byte	.LASF14
 5236 00b2 02       		.uleb128 0x2
 5237 00b3 04       		.byte	0x4
 5238 00b4 07       		.byte	0x7
 5239 00b5 17280000 		.4byte	.LASF15
 5240 00b9 04       		.uleb128 0x4
 5241 00ba 15140000 		.4byte	.LASF16
 5242 00be 03       		.byte	0x3
 5243 00bf 14       		.byte	0x14
 5244 00c0 33000000 		.4byte	0x33
 5245 00c4 04       		.uleb128 0x4
 5246 00c5 0E0D0000 		.4byte	.LASF17
 5247 00c9 03       		.byte	0x3
 5248 00ca 18       		.byte	0x18
 5249 00cb 4A000000 		.4byte	0x4a
 5250 00cf 04       		.uleb128 0x4
 5251 00d0 0E020000 		.4byte	.LASF18
 5252 00d4 03       		.byte	0x3
 5253 00d5 24       		.byte	0x24
 5254 00d6 63000000 		.4byte	0x63
 5255 00da 04       		.uleb128 0x4
ARM GAS  /tmp/cczXzW7i.s 			page 94


 5256 00db D5030000 		.4byte	.LASF19
 5257 00df 03       		.byte	0x3
 5258 00e0 2C       		.byte	0x2c
 5259 00e1 75000000 		.4byte	0x75
 5260 00e5 06       		.uleb128 0x6
 5261 00e6 DA000000 		.4byte	0xda
 5262 00ea 04       		.uleb128 0x4
 5263 00eb EF180000 		.4byte	.LASF20
 5264 00ef 03       		.byte	0x3
 5265 00f0 30       		.byte	0x30
 5266 00f1 87000000 		.4byte	0x87
 5267 00f5 04       		.uleb128 0x4
 5268 00f6 740A0000 		.4byte	.LASF21
 5269 00fa 03       		.byte	0x3
 5270 00fb 3C       		.byte	0x3c
 5271 00fc A0000000 		.4byte	0xa0
 5272 0100 04       		.uleb128 0x4
 5273 0101 C70C0000 		.4byte	.LASF22
 5274 0105 04       		.byte	0x4
 5275 0106 D8       		.byte	0xd8
 5276 0107 B2000000 		.4byte	0xb2
 5277 010b 02       		.uleb128 0x2
 5278 010c 08       		.byte	0x8
 5279 010d 04       		.byte	0x4
 5280 010e 39190000 		.4byte	.LASF23
 5281 0112 04       		.uleb128 0x4
 5282 0113 EC0B0000 		.4byte	.LASF24
 5283 0117 05       		.byte	0x5
 5284 0118 45       		.byte	0x45
 5285 0119 EA000000 		.4byte	0xea
 5286 011d 04       		.uleb128 0x4
 5287 011e 03130000 		.4byte	.LASF25
 5288 0122 05       		.byte	0x5
 5289 0123 48       		.byte	0x48
 5290 0124 C4000000 		.4byte	0xc4
 5291 0128 04       		.uleb128 0x4
 5292 0129 64220000 		.4byte	.LASF26
 5293 012d 05       		.byte	0x5
 5294 012e 49       		.byte	0x49
 5295 012f C4000000 		.4byte	0xc4
 5296 0133 04       		.uleb128 0x4
 5297 0134 5F120000 		.4byte	.LASF27
 5298 0138 05       		.byte	0x5
 5299 0139 4A       		.byte	0x4a
 5300 013a C4000000 		.4byte	0xc4
 5301 013e 04       		.uleb128 0x4
 5302 013f AA060000 		.4byte	.LASF28
 5303 0143 05       		.byte	0x5
 5304 0144 4C       		.byte	0x4c
 5305 0145 EA000000 		.4byte	0xea
 5306 0149 04       		.uleb128 0x4
 5307 014a 9A000000 		.4byte	.LASF29
 5308 014e 05       		.byte	0x5
 5309 014f 4D       		.byte	0x4d
 5310 0150 DA000000 		.4byte	0xda
 5311 0154 04       		.uleb128 0x4
 5312 0155 5B190000 		.4byte	.LASF30
ARM GAS  /tmp/cczXzW7i.s 			page 95


 5313 0159 05       		.byte	0x5
 5314 015a 4F       		.byte	0x4f
 5315 015b EA000000 		.4byte	0xea
 5316 015f 04       		.uleb128 0x4
 5317 0160 681C0000 		.4byte	.LASF31
 5318 0164 05       		.byte	0x5
 5319 0165 51       		.byte	0x51
 5320 0166 DA000000 		.4byte	0xda
 5321 016a 04       		.uleb128 0x4
 5322 016b EB030000 		.4byte	.LASF32
 5323 016f 06       		.byte	0x6
 5324 0170 33       		.byte	0x33
 5325 0171 EA000000 		.4byte	0xea
 5326 0175 04       		.uleb128 0x4
 5327 0176 B5030000 		.4byte	.LASF33
 5328 017a 06       		.byte	0x6
 5329 017b 3F       		.byte	0x3f
 5330 017c 80010000 		.4byte	0x180
 5331 0180 07       		.uleb128 0x7
 5332 0181 E8080000 		.4byte	.LASF53
 5333 0185 44       		.byte	0x44
 5334 0186 07       		.byte	0x7
 5335 0187 C2       		.byte	0xc2
 5336 0188 6D020000 		.4byte	0x26d
 5337 018c 08       		.uleb128 0x8
 5338 018d 07120000 		.4byte	.LASF34
 5339 0191 07       		.byte	0x7
 5340 0192 C3       		.byte	0xc3
 5341 0193 78020000 		.4byte	0x278
 5342 0197 00       		.byte	0
 5343 0198 08       		.uleb128 0x8
 5344 0199 2E0D0000 		.4byte	.LASF35
 5345 019d 07       		.byte	0x7
 5346 019e C5       		.byte	0xc5
 5347 019f 78020000 		.4byte	0x278
 5348 01a3 04       		.byte	0x4
 5349 01a4 08       		.uleb128 0x8
 5350 01a5 66110000 		.4byte	.LASF36
 5351 01a9 07       		.byte	0x7
 5352 01aa C7       		.byte	0xc7
 5353 01ab 3E010000 		.4byte	0x13e
 5354 01af 08       		.byte	0x8
 5355 01b0 08       		.uleb128 0x8
 5356 01b1 E6090000 		.4byte	.LASF37
 5357 01b5 07       		.byte	0x7
 5358 01b6 C8       		.byte	0xc8
 5359 01b7 B8040000 		.4byte	0x4b8
 5360 01bb 0C       		.byte	0xc
 5361 01bc 08       		.uleb128 0x8
 5362 01bd C9020000 		.4byte	.LASF38
 5363 01c1 07       		.byte	0x7
 5364 01c2 CA       		.byte	0xca
 5365 01c3 78020000 		.4byte	0x278
 5366 01c7 10       		.byte	0x10
 5367 01c8 08       		.uleb128 0x8
 5368 01c9 87260000 		.4byte	.LASF39
 5369 01cd 07       		.byte	0x7
ARM GAS  /tmp/cczXzW7i.s 			page 96


 5370 01ce CB       		.byte	0xcb
 5371 01cf 78020000 		.4byte	0x278
 5372 01d3 14       		.byte	0x14
 5373 01d4 08       		.uleb128 0x8
 5374 01d5 E7220000 		.4byte	.LASF40
 5375 01d9 07       		.byte	0x7
 5376 01da D2       		.byte	0xd2
 5377 01db FD060000 		.4byte	0x6fd
 5378 01df 18       		.byte	0x18
 5379 01e0 08       		.uleb128 0x8
 5380 01e1 A2280000 		.4byte	.LASF41
 5381 01e5 07       		.byte	0x7
 5382 01e6 DD       		.byte	0xdd
 5383 01e7 28010000 		.4byte	0x128
 5384 01eb 1C       		.byte	0x1c
 5385 01ec 08       		.uleb128 0x8
 5386 01ed 04220000 		.4byte	.LASF42
 5387 01f1 07       		.byte	0x7
 5388 01f2 E1       		.byte	0xe1
 5389 01f3 1D010000 		.4byte	0x11d
 5390 01f7 1D       		.byte	0x1d
 5391 01f8 08       		.uleb128 0x8
 5392 01f9 ED170000 		.4byte	.LASF43
 5393 01fd 07       		.byte	0x7
 5394 01fe E6       		.byte	0xe6
 5395 01ff 33010000 		.4byte	0x133
 5396 0203 1E       		.byte	0x1e
 5397 0204 09       		.uleb128 0x9
 5398 0205 705F7500 		.ascii	"p_u\000"
 5399 0209 07       		.byte	0x7
 5400 020a 3101     		.2byte	0x131
 5401 020c 38060000 		.4byte	0x638
 5402 0210 20       		.byte	0x20
 5403 0211 0A       		.uleb128 0xa
 5404 0212 89050000 		.4byte	.LASF44
 5405 0216 07       		.byte	0x7
 5406 0217 3601     		.2byte	0x136
 5407 0219 7E020000 		.4byte	0x27e
 5408 021d 24       		.byte	0x24
 5409 021e 0A       		.uleb128 0xa
 5410 021f EF150000 		.4byte	.LASF45
 5411 0223 07       		.byte	0x7
 5412 0224 3C01     		.2byte	0x13c
 5413 0226 A2020000 		.4byte	0x2a2
 5414 022a 28       		.byte	0x28
 5415 022b 0A       		.uleb128 0xa
 5416 022c D9070000 		.4byte	.LASF46
 5417 0230 07       		.byte	0x7
 5418 0231 4001     		.2byte	0x140
 5419 0233 49010000 		.4byte	0x149
 5420 0237 30       		.byte	0x30
 5421 0238 0A       		.uleb128 0xa
 5422 0239 35200000 		.4byte	.LASF47
 5423 023d 07       		.byte	0x7
 5424 023e 4601     		.2byte	0x146
 5425 0240 54010000 		.4byte	0x154
 5426 0244 34       		.byte	0x34
ARM GAS  /tmp/cczXzW7i.s 			page 97


 5427 0245 0A       		.uleb128 0xa
 5428 0246 46220000 		.4byte	.LASF48
 5429 024a 07       		.byte	0x7
 5430 024b 4D01     		.2byte	0x14d
 5431 024d F7060000 		.4byte	0x6f7
 5432 0251 38       		.byte	0x38
 5433 0252 0A       		.uleb128 0xa
 5434 0253 351E0000 		.4byte	.LASF49
 5435 0257 07       		.byte	0x7
 5436 0258 5101     		.2byte	0x151
 5437 025a 3E010000 		.4byte	0x13e
 5438 025e 3C       		.byte	0x3c
 5439 025f 0A       		.uleb128 0xa
 5440 0260 67120000 		.4byte	.LASF50
 5441 0264 07       		.byte	0x7
 5442 0265 5801     		.2byte	0x158
 5443 0267 55030000 		.4byte	0x355
 5444 026b 40       		.byte	0x40
 5445 026c 00       		.byte	0
 5446 026d 04       		.uleb128 0x4
 5447 026e E0260000 		.4byte	.LASF51
 5448 0272 06       		.byte	0x6
 5449 0273 44       		.byte	0x44
 5450 0274 78020000 		.4byte	0x278
 5451 0278 0B       		.uleb128 0xb
 5452 0279 04       		.byte	0x4
 5453 027a 75010000 		.4byte	0x175
 5454 027e 04       		.uleb128 0x4
 5455 027f B0050000 		.4byte	.LASF52
 5456 0283 06       		.byte	0x6
 5457 0284 49       		.byte	0x49
 5458 0285 89020000 		.4byte	0x289
 5459 0289 07       		.uleb128 0x7
 5460 028a AA280000 		.4byte	.LASF54
 5461 028e 04       		.byte	0x4
 5462 028f 07       		.byte	0x7
 5463 0290 B0       		.byte	0xb0
 5464 0291 A2020000 		.4byte	0x2a2
 5465 0295 08       		.uleb128 0x8
 5466 0296 07120000 		.4byte	.LASF34
 5467 029a 07       		.byte	0x7
 5468 029b B1       		.byte	0xb1
 5469 029c 78020000 		.4byte	0x278
 5470 02a0 00       		.byte	0
 5471 02a1 00       		.byte	0
 5472 02a2 04       		.uleb128 0x4
 5473 02a3 A3170000 		.4byte	.LASF55
 5474 02a7 06       		.byte	0x6
 5475 02a8 50       		.byte	0x50
 5476 02a9 AD020000 		.4byte	0x2ad
 5477 02ad 07       		.uleb128 0x7
 5478 02ae 9B020000 		.4byte	.LASF56
 5479 02b2 08       		.byte	0x8
 5480 02b3 07       		.byte	0x7
 5481 02b4 B7       		.byte	0xb7
 5482 02b5 D2020000 		.4byte	0x2d2
 5483 02b9 08       		.uleb128 0x8
ARM GAS  /tmp/cczXzW7i.s 			page 98


 5484 02ba 07120000 		.4byte	.LASF34
 5485 02be 07       		.byte	0x7
 5486 02bf B8       		.byte	0xb8
 5487 02c0 78020000 		.4byte	0x278
 5488 02c4 00       		.byte	0
 5489 02c5 08       		.uleb128 0x8
 5490 02c6 2E0D0000 		.4byte	.LASF35
 5491 02ca 07       		.byte	0x7
 5492 02cb B9       		.byte	0xb9
 5493 02cc 78020000 		.4byte	0x278
 5494 02d0 04       		.byte	0x4
 5495 02d1 00       		.byte	0
 5496 02d2 04       		.uleb128 0x4
 5497 02d3 DB080000 		.4byte	.LASF57
 5498 02d7 06       		.byte	0x6
 5499 02d8 57       		.byte	0x57
 5500 02d9 DD020000 		.4byte	0x2dd
 5501 02dd 0C       		.uleb128 0xc
 5502 02de 4D1F0000 		.4byte	.LASF58
 5503 02e2 1C       		.byte	0x1c
 5504 02e3 07       		.byte	0x7
 5505 02e4 9001     		.2byte	0x190
 5506 02e6 39030000 		.4byte	0x339
 5507 02ea 0A       		.uleb128 0xa
 5508 02eb AD1A0000 		.4byte	.LASF59
 5509 02ef 07       		.byte	0x7
 5510 02f0 9101     		.2byte	0x191
 5511 02f2 A2020000 		.4byte	0x2a2
 5512 02f6 00       		.byte	0
 5513 02f7 0A       		.uleb128 0xa
 5514 02f8 FC200000 		.4byte	.LASF60
 5515 02fc 07       		.byte	0x7
 5516 02fd 9201     		.2byte	0x192
 5517 02ff 3E010000 		.4byte	0x13e
 5518 0303 08       		.byte	0x8
 5519 0304 0A       		.uleb128 0xa
 5520 0305 B30B0000 		.4byte	.LASF61
 5521 0309 07       		.byte	0x7
 5522 030a 9401     		.2byte	0x194
 5523 030c B8040000 		.4byte	0x4b8
 5524 0310 0C       		.byte	0xc
 5525 0311 0A       		.uleb128 0xa
 5526 0312 57140000 		.4byte	.LASF62
 5527 0316 07       		.byte	0x7
 5528 0317 9701     		.2byte	0x197
 5529 0319 78020000 		.4byte	0x278
 5530 031d 10       		.byte	0x10
 5531 031e 0A       		.uleb128 0xa
 5532 031f 260D0000 		.4byte	.LASF63
 5533 0323 07       		.byte	0x7
 5534 0324 9801     		.2byte	0x198
 5535 0326 78020000 		.4byte	0x278
 5536 032a 14       		.byte	0x14
 5537 032b 0A       		.uleb128 0xa
 5538 032c 020A0000 		.4byte	.LASF64
 5539 0330 07       		.byte	0x7
 5540 0331 9B01     		.2byte	0x19b
ARM GAS  /tmp/cczXzW7i.s 			page 99


 5541 0333 78020000 		.4byte	0x278
 5542 0337 18       		.byte	0x18
 5543 0338 00       		.byte	0
 5544 0339 04       		.uleb128 0x4
 5545 033a C01D0000 		.4byte	.LASF65
 5546 033e 06       		.byte	0x6
 5547 033f 5C       		.byte	0x5c
 5548 0340 44030000 		.4byte	0x344
 5549 0344 0B       		.uleb128 0xb
 5550 0345 04       		.byte	0x4
 5551 0346 4A030000 		.4byte	0x34a
 5552 034a 0D       		.uleb128 0xd
 5553 034b 55030000 		.4byte	0x355
 5554 034f 0E       		.uleb128 0xe
 5555 0350 55030000 		.4byte	0x355
 5556 0354 00       		.byte	0
 5557 0355 0F       		.uleb128 0xf
 5558 0356 04       		.byte	0x4
 5559 0357 04       		.uleb128 0x4
 5560 0358 A30B0000 		.4byte	.LASF66
 5561 035c 06       		.byte	0x6
 5562 035d 61       		.byte	0x61
 5563 035e 62030000 		.4byte	0x362
 5564 0362 0C       		.uleb128 0xc
 5565 0363 F3210000 		.4byte	.LASF67
 5566 0367 14       		.byte	0x14
 5567 0368 07       		.byte	0x7
 5568 0369 6B01     		.2byte	0x16b
 5569 036b B1030000 		.4byte	0x3b1
 5570 036f 0A       		.uleb128 0xa
 5571 0370 B90B0000 		.4byte	.LASF68
 5572 0374 07       		.byte	0x7
 5573 0375 6C01     		.2byte	0x16c
 5574 0377 14070000 		.4byte	0x714
 5575 037b 00       		.byte	0
 5576 037c 0A       		.uleb128 0xa
 5577 037d AE080000 		.4byte	.LASF69
 5578 0381 07       		.byte	0x7
 5579 0382 6D01     		.2byte	0x16d
 5580 0384 14070000 		.4byte	0x714
 5581 0388 04       		.byte	0x4
 5582 0389 0A       		.uleb128 0xa
 5583 038a F4140000 		.4byte	.LASF70
 5584 038e 07       		.byte	0x7
 5585 038f 6E01     		.2byte	0x16e
 5586 0391 6A010000 		.4byte	0x16a
 5587 0395 08       		.byte	0x8
 5588 0396 0A       		.uleb128 0xa
 5589 0397 D4210000 		.4byte	.LASF71
 5590 039b 07       		.byte	0x7
 5591 039c 6F01     		.2byte	0x16f
 5592 039e 39030000 		.4byte	0x339
 5593 03a2 0C       		.byte	0xc
 5594 03a3 0A       		.uleb128 0xa
 5595 03a4 EC090000 		.4byte	.LASF72
 5596 03a8 07       		.byte	0x7
 5597 03a9 7101     		.2byte	0x171
ARM GAS  /tmp/cczXzW7i.s 			page 100


 5598 03ab 55030000 		.4byte	0x355
 5599 03af 10       		.byte	0x10
 5600 03b0 00       		.byte	0
 5601 03b1 04       		.uleb128 0x4
 5602 03b2 5A230000 		.4byte	.LASF73
 5603 03b6 06       		.byte	0x6
 5604 03b7 66       		.byte	0x66
 5605 03b8 BC030000 		.4byte	0x3bc
 5606 03bc 0C       		.uleb128 0xc
 5607 03bd BE030000 		.4byte	.LASF74
 5608 03c1 10       		.byte	0x10
 5609 03c2 07       		.byte	0x7
 5610 03c3 7B01     		.2byte	0x17b
 5611 03c5 FE030000 		.4byte	0x3fe
 5612 03c9 0A       		.uleb128 0xa
 5613 03ca B90B0000 		.4byte	.LASF68
 5614 03ce 07       		.byte	0x7
 5615 03cf 7C01     		.2byte	0x17c
 5616 03d1 14070000 		.4byte	0x714
 5617 03d5 00       		.byte	0
 5618 03d6 0A       		.uleb128 0xa
 5619 03d7 AE080000 		.4byte	.LASF69
 5620 03db 07       		.byte	0x7
 5621 03dc 7E01     		.2byte	0x17e
 5622 03de 14070000 		.4byte	0x714
 5623 03e2 04       		.byte	0x4
 5624 03e3 0A       		.uleb128 0xa
 5625 03e4 F4140000 		.4byte	.LASF70
 5626 03e8 07       		.byte	0x7
 5627 03e9 8001     		.2byte	0x180
 5628 03eb 6A010000 		.4byte	0x16a
 5629 03ef 08       		.byte	0x8
 5630 03f0 0A       		.uleb128 0xa
 5631 03f1 431B0000 		.4byte	.LASF75
 5632 03f5 07       		.byte	0x7
 5633 03f6 8801     		.2byte	0x188
 5634 03f8 6A010000 		.4byte	0x16a
 5635 03fc 0C       		.byte	0xc
 5636 03fd 00       		.byte	0
 5637 03fe 04       		.uleb128 0x4
 5638 03ff A1090000 		.4byte	.LASF76
 5639 0403 06       		.byte	0x6
 5640 0404 6B       		.byte	0x6b
 5641 0405 09040000 		.4byte	0x409
 5642 0409 0C       		.uleb128 0xc
 5643 040a 7E1F0000 		.4byte	.LASF77
 5644 040e 04       		.byte	0x4
 5645 040f 07       		.byte	0x7
 5646 0410 A201     		.2byte	0x1a2
 5647 0412 24040000 		.4byte	0x424
 5648 0416 0A       		.uleb128 0xa
 5649 0417 37140000 		.4byte	.LASF78
 5650 041b 07       		.byte	0x7
 5651 041c AA01     		.2byte	0x1aa
 5652 041e 03070000 		.4byte	0x703
 5653 0422 00       		.byte	0
 5654 0423 00       		.byte	0
ARM GAS  /tmp/cczXzW7i.s 			page 101


 5655 0424 04       		.uleb128 0x4
 5656 0425 18010000 		.4byte	.LASF79
 5657 0429 06       		.byte	0x6
 5658 042a 70       		.byte	0x70
 5659 042b 2F040000 		.4byte	0x42f
 5660 042f 10       		.uleb128 0x10
 5661 0430 DD160000 		.4byte	.LASF80
 5662 0434 D801     		.2byte	0x1d8
 5663 0436 07       		.byte	0x7
 5664 0437 C201     		.2byte	0x1c2
 5665 0439 8B040000 		.4byte	0x48b
 5666 043d 0A       		.uleb128 0xa
 5667 043e AA050000 		.4byte	.LASF81
 5668 0442 07       		.byte	0x7
 5669 0443 C601     		.2byte	0x1c6
 5670 0445 D2020000 		.4byte	0x2d2
 5671 0449 00       		.byte	0
 5672 044a 0A       		.uleb128 0xa
 5673 044b 4C050000 		.4byte	.LASF82
 5674 044f 07       		.byte	0x7
 5675 0450 CA01     		.2byte	0x1ca
 5676 0452 B1030000 		.4byte	0x3b1
 5677 0456 1C       		.byte	0x1c
 5678 0457 09       		.uleb128 0x9
 5679 0458 64626700 		.ascii	"dbg\000"
 5680 045c 07       		.byte	0x7
 5681 045d CE01     		.2byte	0x1ce
 5682 045f FE030000 		.4byte	0x3fe
 5683 0463 2C       		.byte	0x2c
 5684 0464 0A       		.uleb128 0xa
 5685 0465 2E180000 		.4byte	.LASF83
 5686 0469 07       		.byte	0x7
 5687 046a D201     		.2byte	0x1d2
 5688 046c 75010000 		.4byte	0x175
 5689 0470 30       		.byte	0x30
 5690 0471 09       		.uleb128 0x9
 5691 0472 746D00   		.ascii	"tm\000"
 5692 0475 07       		.byte	0x7
 5693 0476 D701     		.2byte	0x1d7
 5694 0478 2D060000 		.4byte	0x62d
 5695 047c 74       		.byte	0x74
 5696 047d 0A       		.uleb128 0xa
 5697 047e BA210000 		.4byte	.LASF84
 5698 0482 07       		.byte	0x7
 5699 0483 E301     		.2byte	0x1e3
 5700 0485 1A070000 		.4byte	0x71a
 5701 0489 78       		.byte	0x78
 5702 048a 00       		.byte	0
 5703 048b 11       		.uleb128 0x11
 5704 048c 13210000 		.4byte	.LASF85
 5705 0490 08       		.byte	0x8
 5706 0491 A706     		.2byte	0x6a7
 5707 0493 E5000000 		.4byte	0xe5
 5708 0497 12       		.uleb128 0x12
 5709 0498 65160000 		.4byte	.LASF86
 5710 049c 09       		.byte	0x9
 5711 049d 4C       		.byte	0x4c
ARM GAS  /tmp/cczXzW7i.s 			page 102


 5712 049e EA000000 		.4byte	0xea
 5713 04a2 04       		.uleb128 0x4
 5714 04a3 52190000 		.4byte	.LASF87
 5715 04a7 0A       		.byte	0xa
 5716 04a8 65       		.byte	0x65
 5717 04a9 55030000 		.4byte	0x355
 5718 04ad 04       		.uleb128 0x4
 5719 04ae A3080000 		.4byte	.LASF88
 5720 04b2 0A       		.byte	0xa
 5721 04b3 6D       		.byte	0x6d
 5722 04b4 F5000000 		.4byte	0xf5
 5723 04b8 07       		.uleb128 0x7
 5724 04b9 CA180000 		.4byte	.LASF89
 5725 04bd 04       		.byte	0x4
 5726 04be 0A       		.byte	0xa
 5727 04bf 89       		.byte	0x89
 5728 04c0 D1040000 		.4byte	0x4d1
 5729 04c4 13       		.uleb128 0x13
 5730 04c5 72313300 		.ascii	"r13\000"
 5731 04c9 0A       		.byte	0xa
 5732 04ca 8A       		.byte	0x8a
 5733 04cb 12060000 		.4byte	0x612
 5734 04cf 00       		.byte	0
 5735 04d0 00       		.byte	0
 5736 04d1 07       		.uleb128 0x7
 5737 04d2 42000000 		.4byte	.LASF90
 5738 04d6 64       		.byte	0x64
 5739 04d7 0B       		.byte	0xb
 5740 04d8 F4       		.byte	0xf4
 5741 04d9 12060000 		.4byte	0x612
 5742 04dd 13       		.uleb128 0x13
 5743 04de 73313600 		.ascii	"s16\000"
 5744 04e2 0B       		.byte	0xb
 5745 04e3 F6       		.byte	0xf6
 5746 04e4 A2040000 		.4byte	0x4a2
 5747 04e8 00       		.byte	0
 5748 04e9 13       		.uleb128 0x13
 5749 04ea 73313700 		.ascii	"s17\000"
 5750 04ee 0B       		.byte	0xb
 5751 04ef F7       		.byte	0xf7
 5752 04f0 A2040000 		.4byte	0x4a2
 5753 04f4 04       		.byte	0x4
 5754 04f5 13       		.uleb128 0x13
 5755 04f6 73313800 		.ascii	"s18\000"
 5756 04fa 0B       		.byte	0xb
 5757 04fb F8       		.byte	0xf8
 5758 04fc A2040000 		.4byte	0x4a2
 5759 0500 08       		.byte	0x8
 5760 0501 13       		.uleb128 0x13
 5761 0502 73313900 		.ascii	"s19\000"
 5762 0506 0B       		.byte	0xb
 5763 0507 F9       		.byte	0xf9
 5764 0508 A2040000 		.4byte	0x4a2
 5765 050c 0C       		.byte	0xc
 5766 050d 13       		.uleb128 0x13
 5767 050e 73323000 		.ascii	"s20\000"
 5768 0512 0B       		.byte	0xb
ARM GAS  /tmp/cczXzW7i.s 			page 103


 5769 0513 FA       		.byte	0xfa
 5770 0514 A2040000 		.4byte	0x4a2
 5771 0518 10       		.byte	0x10
 5772 0519 13       		.uleb128 0x13
 5773 051a 73323100 		.ascii	"s21\000"
 5774 051e 0B       		.byte	0xb
 5775 051f FB       		.byte	0xfb
 5776 0520 A2040000 		.4byte	0x4a2
 5777 0524 14       		.byte	0x14
 5778 0525 13       		.uleb128 0x13
 5779 0526 73323200 		.ascii	"s22\000"
 5780 052a 0B       		.byte	0xb
 5781 052b FC       		.byte	0xfc
 5782 052c A2040000 		.4byte	0x4a2
 5783 0530 18       		.byte	0x18
 5784 0531 13       		.uleb128 0x13
 5785 0532 73323300 		.ascii	"s23\000"
 5786 0536 0B       		.byte	0xb
 5787 0537 FD       		.byte	0xfd
 5788 0538 A2040000 		.4byte	0x4a2
 5789 053c 1C       		.byte	0x1c
 5790 053d 13       		.uleb128 0x13
 5791 053e 73323400 		.ascii	"s24\000"
 5792 0542 0B       		.byte	0xb
 5793 0543 FE       		.byte	0xfe
 5794 0544 A2040000 		.4byte	0x4a2
 5795 0548 20       		.byte	0x20
 5796 0549 13       		.uleb128 0x13
 5797 054a 73323500 		.ascii	"s25\000"
 5798 054e 0B       		.byte	0xb
 5799 054f FF       		.byte	0xff
 5800 0550 A2040000 		.4byte	0x4a2
 5801 0554 24       		.byte	0x24
 5802 0555 09       		.uleb128 0x9
 5803 0556 73323600 		.ascii	"s26\000"
 5804 055a 0B       		.byte	0xb
 5805 055b 0001     		.2byte	0x100
 5806 055d A2040000 		.4byte	0x4a2
 5807 0561 28       		.byte	0x28
 5808 0562 09       		.uleb128 0x9
 5809 0563 73323700 		.ascii	"s27\000"
 5810 0567 0B       		.byte	0xb
 5811 0568 0101     		.2byte	0x101
 5812 056a A2040000 		.4byte	0x4a2
 5813 056e 2C       		.byte	0x2c
 5814 056f 09       		.uleb128 0x9
 5815 0570 73323800 		.ascii	"s28\000"
 5816 0574 0B       		.byte	0xb
 5817 0575 0201     		.2byte	0x102
 5818 0577 A2040000 		.4byte	0x4a2
 5819 057b 30       		.byte	0x30
 5820 057c 09       		.uleb128 0x9
 5821 057d 73323900 		.ascii	"s29\000"
 5822 0581 0B       		.byte	0xb
 5823 0582 0301     		.2byte	0x103
 5824 0584 A2040000 		.4byte	0x4a2
 5825 0588 34       		.byte	0x34
ARM GAS  /tmp/cczXzW7i.s 			page 104


 5826 0589 09       		.uleb128 0x9
 5827 058a 73333000 		.ascii	"s30\000"
 5828 058e 0B       		.byte	0xb
 5829 058f 0401     		.2byte	0x104
 5830 0591 A2040000 		.4byte	0x4a2
 5831 0595 38       		.byte	0x38
 5832 0596 09       		.uleb128 0x9
 5833 0597 73333100 		.ascii	"s31\000"
 5834 059b 0B       		.byte	0xb
 5835 059c 0501     		.2byte	0x105
 5836 059e A2040000 		.4byte	0x4a2
 5837 05a2 3C       		.byte	0x3c
 5838 05a3 09       		.uleb128 0x9
 5839 05a4 723400   		.ascii	"r4\000"
 5840 05a7 0B       		.byte	0xb
 5841 05a8 0701     		.2byte	0x107
 5842 05aa A2040000 		.4byte	0x4a2
 5843 05ae 40       		.byte	0x40
 5844 05af 09       		.uleb128 0x9
 5845 05b0 723500   		.ascii	"r5\000"
 5846 05b3 0B       		.byte	0xb
 5847 05b4 0801     		.2byte	0x108
 5848 05b6 A2040000 		.4byte	0x4a2
 5849 05ba 44       		.byte	0x44
 5850 05bb 09       		.uleb128 0x9
 5851 05bc 723600   		.ascii	"r6\000"
 5852 05bf 0B       		.byte	0xb
 5853 05c0 0901     		.2byte	0x109
 5854 05c2 A2040000 		.4byte	0x4a2
 5855 05c6 48       		.byte	0x48
 5856 05c7 09       		.uleb128 0x9
 5857 05c8 723700   		.ascii	"r7\000"
 5858 05cb 0B       		.byte	0xb
 5859 05cc 0A01     		.2byte	0x10a
 5860 05ce A2040000 		.4byte	0x4a2
 5861 05d2 4C       		.byte	0x4c
 5862 05d3 09       		.uleb128 0x9
 5863 05d4 723800   		.ascii	"r8\000"
 5864 05d7 0B       		.byte	0xb
 5865 05d8 0B01     		.2byte	0x10b
 5866 05da A2040000 		.4byte	0x4a2
 5867 05de 50       		.byte	0x50
 5868 05df 09       		.uleb128 0x9
 5869 05e0 723900   		.ascii	"r9\000"
 5870 05e3 0B       		.byte	0xb
 5871 05e4 0C01     		.2byte	0x10c
 5872 05e6 A2040000 		.4byte	0x4a2
 5873 05ea 54       		.byte	0x54
 5874 05eb 09       		.uleb128 0x9
 5875 05ec 72313000 		.ascii	"r10\000"
 5876 05f0 0B       		.byte	0xb
 5877 05f1 0D01     		.2byte	0x10d
 5878 05f3 A2040000 		.4byte	0x4a2
 5879 05f7 58       		.byte	0x58
 5880 05f8 09       		.uleb128 0x9
 5881 05f9 72313100 		.ascii	"r11\000"
 5882 05fd 0B       		.byte	0xb
ARM GAS  /tmp/cczXzW7i.s 			page 105


 5883 05fe 0E01     		.2byte	0x10e
 5884 0600 A2040000 		.4byte	0x4a2
 5885 0604 5C       		.byte	0x5c
 5886 0605 09       		.uleb128 0x9
 5887 0606 6C7200   		.ascii	"lr\000"
 5888 0609 0B       		.byte	0xb
 5889 060a 0F01     		.2byte	0x10f
 5890 060c A2040000 		.4byte	0x4a2
 5891 0610 60       		.byte	0x60
 5892 0611 00       		.byte	0
 5893 0612 0B       		.uleb128 0xb
 5894 0613 04       		.byte	0x4
 5895 0614 D1040000 		.4byte	0x4d1
 5896 0618 14       		.uleb128 0x14
 5897 0619 04       		.byte	0x4
 5898 061a 0C       		.byte	0xc
 5899 061b 38       		.byte	0x38
 5900 061c 2D060000 		.4byte	0x62d
 5901 0620 08       		.uleb128 0x8
 5902 0621 4C210000 		.4byte	.LASF91
 5903 0625 0C       		.byte	0xc
 5904 0626 3C       		.byte	0x3c
 5905 0627 12010000 		.4byte	0x112
 5906 062b 00       		.byte	0
 5907 062c 00       		.byte	0
 5908 062d 04       		.uleb128 0x4
 5909 062e 7E270000 		.4byte	.LASF92
 5910 0632 0C       		.byte	0xc
 5911 0633 3D       		.byte	0x3d
 5912 0634 18060000 		.4byte	0x618
 5913 0638 15       		.uleb128 0x15
 5914 0639 04       		.byte	0x4
 5915 063a 07       		.byte	0x7
 5916 063b FA       		.byte	0xfa
 5917 063c 95060000 		.4byte	0x695
 5918 0640 16       		.uleb128 0x16
 5919 0641 0C110000 		.4byte	.LASF93
 5920 0645 07       		.byte	0x7
 5921 0646 0101     		.2byte	0x101
 5922 0648 49010000 		.4byte	0x149
 5923 064c 16       		.uleb128 0x16
 5924 064d BA0E0000 		.4byte	.LASF94
 5925 0651 07       		.byte	0x7
 5926 0652 0801     		.2byte	0x108
 5927 0654 49010000 		.4byte	0x149
 5928 0658 16       		.uleb128 0x16
 5929 0659 031E0000 		.4byte	.LASF95
 5930 065d 07       		.byte	0x7
 5931 065e 0F01     		.2byte	0x10f
 5932 0660 55030000 		.4byte	0x355
 5933 0664 16       		.uleb128 0x16
 5934 0665 C4180000 		.4byte	.LASF96
 5935 0669 07       		.byte	0x7
 5936 066a 1601     		.2byte	0x116
 5937 066c 95060000 		.4byte	0x695
 5938 0670 16       		.uleb128 0x16
 5939 0671 2E010000 		.4byte	.LASF97
ARM GAS  /tmp/cczXzW7i.s 			page 106


 5940 0675 07       		.byte	0x7
 5941 0676 1E01     		.2byte	0x11e
 5942 0678 C0060000 		.4byte	0x6c0
 5943 067c 16       		.uleb128 0x16
 5944 067d 831E0000 		.4byte	.LASF98
 5945 0681 07       		.byte	0x7
 5946 0682 2701     		.2byte	0x127
 5947 0684 F7060000 		.4byte	0x6f7
 5948 0688 16       		.uleb128 0x16
 5949 0689 1C220000 		.4byte	.LASF99
 5950 068d 07       		.byte	0x7
 5951 068e 2F01     		.2byte	0x12f
 5952 0690 54010000 		.4byte	0x154
 5953 0694 00       		.byte	0
 5954 0695 0B       		.uleb128 0xb
 5955 0696 04       		.byte	0x4
 5956 0697 6D020000 		.4byte	0x26d
 5957 069b 07       		.uleb128 0x7
 5958 069c 1C170000 		.4byte	.LASF100
 5959 06a0 0C       		.byte	0xc
 5960 06a1 0D       		.byte	0xd
 5961 06a2 34       		.byte	0x34
 5962 06a3 C0060000 		.4byte	0x6c0
 5963 06a7 08       		.uleb128 0x8
 5964 06a8 F9230000 		.4byte	.LASF101
 5965 06ac 0D       		.byte	0xd
 5966 06ad 35       		.byte	0x35
 5967 06ae A2020000 		.4byte	0x2a2
 5968 06b2 00       		.byte	0
 5969 06b3 08       		.uleb128 0x8
 5970 06b4 5A150000 		.4byte	.LASF102
 5971 06b8 0D       		.byte	0xd
 5972 06b9 37       		.byte	0x37
 5973 06ba 5F010000 		.4byte	0x15f
 5974 06be 08       		.byte	0x8
 5975 06bf 00       		.byte	0
 5976 06c0 0B       		.uleb128 0xb
 5977 06c1 04       		.byte	0x4
 5978 06c2 9B060000 		.4byte	0x69b
 5979 06c6 07       		.uleb128 0x7
 5980 06c7 CD0A0000 		.4byte	.LASF103
 5981 06cb 10       		.byte	0x10
 5982 06cc 0E       		.byte	0xe
 5983 06cd 39       		.byte	0x39
 5984 06ce F7060000 		.4byte	0x6f7
 5985 06d2 08       		.uleb128 0x8
 5986 06d3 50180000 		.4byte	.LASF104
 5987 06d7 0E       		.byte	0xe
 5988 06d8 3A       		.byte	0x3a
 5989 06d9 A2020000 		.4byte	0x2a2
 5990 06dd 00       		.byte	0
 5991 06de 08       		.uleb128 0x8
 5992 06df 40160000 		.4byte	.LASF105
 5993 06e3 0E       		.byte	0xe
 5994 06e4 3C       		.byte	0x3c
 5995 06e5 78020000 		.4byte	0x278
 5996 06e9 08       		.byte	0x8
ARM GAS  /tmp/cczXzW7i.s 			page 107


 5997 06ea 08       		.uleb128 0x8
 5998 06eb D9010000 		.4byte	.LASF106
 5999 06ef 0E       		.byte	0xe
 6000 06f0 3E       		.byte	0x3e
 6001 06f1 4C080000 		.4byte	0x84c
 6002 06f5 0C       		.byte	0xc
 6003 06f6 00       		.byte	0
 6004 06f7 0B       		.uleb128 0xb
 6005 06f8 04       		.byte	0x4
 6006 06f9 C6060000 		.4byte	0x6c6
 6007 06fd 0B       		.uleb128 0xb
 6008 06fe 04       		.byte	0x4
 6009 06ff 0F070000 		.4byte	0x70f
 6010 0703 06       		.uleb128 0x6
 6011 0704 FD060000 		.4byte	0x6fd
 6012 0708 02       		.uleb128 0x2
 6013 0709 01       		.byte	0x1
 6014 070a 08       		.byte	0x8
 6015 070b A81A0000 		.4byte	.LASF107
 6016 070f 05       		.uleb128 0x5
 6017 0710 08070000 		.4byte	0x708
 6018 0714 0B       		.uleb128 0xb
 6019 0715 04       		.byte	0x4
 6020 0716 57030000 		.4byte	0x357
 6021 071a 17       		.uleb128 0x17
 6022 071b AD040000 		.4byte	0x4ad
 6023 071f 2A070000 		.4byte	0x72a
 6024 0723 18       		.uleb128 0x18
 6025 0724 B2000000 		.4byte	0xb2
 6026 0728 2B       		.byte	0x2b
 6027 0729 00       		.byte	0
 6028 072a 19       		.uleb128 0x19
 6029 072b 636800   		.ascii	"ch\000"
 6030 072e 07       		.byte	0x7
 6031 072f 0902     		.2byte	0x209
 6032 0731 24040000 		.4byte	0x424
 6033 0735 14       		.uleb128 0x14
 6034 0736 16       		.byte	0x16
 6035 0737 0F       		.byte	0xf
 6036 0738 34       		.byte	0x34
 6037 0739 16080000 		.4byte	0x816
 6038 073d 08       		.uleb128 0x8
 6039 073e 3C240000 		.4byte	.LASF108
 6040 0742 0F       		.byte	0xf
 6041 0743 35       		.byte	0x35
 6042 0744 16080000 		.4byte	0x816
 6043 0748 00       		.byte	0
 6044 0749 08       		.uleb128 0x8
 6045 074a B6270000 		.4byte	.LASF109
 6046 074e 0F       		.byte	0xf
 6047 074f 36       		.byte	0x36
 6048 0750 C4000000 		.4byte	0xc4
 6049 0754 04       		.byte	0x4
 6050 0755 08       		.uleb128 0x8
 6051 0756 6D030000 		.4byte	.LASF110
 6052 075a 0F       		.byte	0xf
 6053 075b 37       		.byte	0x37
ARM GAS  /tmp/cczXzW7i.s 			page 108


 6054 075c C4000000 		.4byte	0xc4
 6055 0760 05       		.byte	0x5
 6056 0761 08       		.uleb128 0x8
 6057 0762 A1160000 		.4byte	.LASF111
 6058 0766 0F       		.byte	0xf
 6059 0767 38       		.byte	0x38
 6060 0768 CF000000 		.4byte	0xcf
 6061 076c 06       		.byte	0x6
 6062 076d 08       		.uleb128 0x8
 6063 076e 6A000000 		.4byte	.LASF112
 6064 0772 0F       		.byte	0xf
 6065 0773 39       		.byte	0x39
 6066 0774 C4000000 		.4byte	0xc4
 6067 0778 08       		.byte	0x8
 6068 0779 08       		.uleb128 0x8
 6069 077a BE140000 		.4byte	.LASF113
 6070 077e 0F       		.byte	0xf
 6071 077f 3A       		.byte	0x3a
 6072 0780 C4000000 		.4byte	0xc4
 6073 0784 09       		.byte	0x9
 6074 0785 08       		.uleb128 0x8
 6075 0786 E5270000 		.4byte	.LASF114
 6076 078a 0F       		.byte	0xf
 6077 078b 3B       		.byte	0x3b
 6078 078c C4000000 		.4byte	0xc4
 6079 0790 0A       		.byte	0xa
 6080 0791 08       		.uleb128 0x8
 6081 0792 6E240000 		.4byte	.LASF115
 6082 0796 0F       		.byte	0xf
 6083 0797 3C       		.byte	0x3c
 6084 0798 C4000000 		.4byte	0xc4
 6085 079c 0B       		.byte	0xb
 6086 079d 08       		.uleb128 0x8
 6087 079e BF050000 		.4byte	.LASF116
 6088 07a2 0F       		.byte	0xf
 6089 07a3 3D       		.byte	0x3d
 6090 07a4 C4000000 		.4byte	0xc4
 6091 07a8 0C       		.byte	0xc
 6092 07a9 08       		.uleb128 0x8
 6093 07aa 320B0000 		.4byte	.LASF117
 6094 07ae 0F       		.byte	0xf
 6095 07af 3E       		.byte	0x3e
 6096 07b0 C4000000 		.4byte	0xc4
 6097 07b4 0D       		.byte	0xd
 6098 07b5 08       		.uleb128 0x8
 6099 07b6 F4050000 		.4byte	.LASF118
 6100 07ba 0F       		.byte	0xf
 6101 07bb 3F       		.byte	0x3f
 6102 07bc C4000000 		.4byte	0xc4
 6103 07c0 0E       		.byte	0xe
 6104 07c1 08       		.uleb128 0x8
 6105 07c2 350D0000 		.4byte	.LASF119
 6106 07c6 0F       		.byte	0xf
 6107 07c7 40       		.byte	0x40
 6108 07c8 C4000000 		.4byte	0xc4
 6109 07cc 0F       		.byte	0xf
 6110 07cd 08       		.uleb128 0x8
ARM GAS  /tmp/cczXzW7i.s 			page 109


 6111 07ce F5030000 		.4byte	.LASF120
 6112 07d2 0F       		.byte	0xf
 6113 07d3 41       		.byte	0x41
 6114 07d4 C4000000 		.4byte	0xc4
 6115 07d8 10       		.byte	0x10
 6116 07d9 08       		.uleb128 0x8
 6117 07da 5A080000 		.4byte	.LASF121
 6118 07de 0F       		.byte	0xf
 6119 07df 43       		.byte	0x43
 6120 07e0 C4000000 		.4byte	0xc4
 6121 07e4 11       		.byte	0x11
 6122 07e5 08       		.uleb128 0x8
 6123 07e6 DA020000 		.4byte	.LASF122
 6124 07ea 0F       		.byte	0xf
 6125 07eb 44       		.byte	0x44
 6126 07ec C4000000 		.4byte	0xc4
 6127 07f0 12       		.byte	0x12
 6128 07f1 08       		.uleb128 0x8
 6129 07f2 0A160000 		.4byte	.LASF123
 6130 07f6 0F       		.byte	0xf
 6131 07f7 45       		.byte	0x45
 6132 07f8 C4000000 		.4byte	0xc4
 6133 07fc 13       		.byte	0x13
 6134 07fd 08       		.uleb128 0x8
 6135 07fe 211D0000 		.4byte	.LASF124
 6136 0802 0F       		.byte	0xf
 6137 0803 46       		.byte	0x46
 6138 0804 C4000000 		.4byte	0xc4
 6139 0808 14       		.byte	0x14
 6140 0809 08       		.uleb128 0x8
 6141 080a 0C010000 		.4byte	.LASF125
 6142 080e 0F       		.byte	0xf
 6143 080f 48       		.byte	0x48
 6144 0810 C4000000 		.4byte	0xc4
 6145 0814 15       		.byte	0x15
 6146 0815 00       		.byte	0
 6147 0816 17       		.uleb128 0x17
 6148 0817 08070000 		.4byte	0x708
 6149 081b 26080000 		.4byte	0x826
 6150 081f 18       		.uleb128 0x18
 6151 0820 B2000000 		.4byte	0xb2
 6152 0824 03       		.byte	0x3
 6153 0825 00       		.byte	0
 6154 0826 04       		.uleb128 0x4
 6155 0827 8C140000 		.4byte	.LASF126
 6156 082b 0F       		.byte	0xf
 6157 082c 49       		.byte	0x49
 6158 082d 35070000 		.4byte	0x735
 6159 0831 05       		.uleb128 0x5
 6160 0832 26080000 		.4byte	0x826
 6161 0836 12       		.uleb128 0x12
 6162 0837 7D0A0000 		.4byte	.LASF127
 6163 083b 0F       		.byte	0xf
 6164 083c 6E       		.byte	0x6e
 6165 083d 31080000 		.4byte	0x831
 6166 0841 04       		.uleb128 0x4
 6167 0842 FA1F0000 		.4byte	.LASF128
ARM GAS  /tmp/cczXzW7i.s 			page 110


 6168 0846 0E       		.byte	0xe
 6169 0847 34       		.byte	0x34
 6170 0848 C6060000 		.4byte	0x6c6
 6171 084c 0B       		.uleb128 0xb
 6172 084d 04       		.byte	0x4
 6173 084e 41080000 		.4byte	0x841
 6174 0852 1A       		.uleb128 0x1a
 6175 0853 07       		.byte	0x7
 6176 0854 01       		.byte	0x1
 6177 0855 55000000 		.4byte	0x55
 6178 0859 10       		.byte	0x10
 6179 085a 22       		.byte	0x22
 6180 085b 72080000 		.4byte	0x872
 6181 085f 1B       		.uleb128 0x1b
 6182 0860 70230000 		.4byte	.LASF129
 6183 0864 00       		.byte	0
 6184 0865 1B       		.uleb128 0x1b
 6185 0866 341A0000 		.4byte	.LASF130
 6186 086a 01       		.byte	0x1
 6187 086b 1B       		.uleb128 0x1b
 6188 086c 58040000 		.4byte	.LASF131
 6189 0870 02       		.byte	0x2
 6190 0871 00       		.byte	0
 6191 0872 04       		.uleb128 0x4
 6192 0873 69040000 		.4byte	.LASF132
 6193 0877 10       		.byte	0x10
 6194 0878 26       		.byte	0x26
 6195 0879 52080000 		.4byte	0x852
 6196 087d 1A       		.uleb128 0x1a
 6197 087e 07       		.byte	0x7
 6198 087f 01       		.byte	0x1
 6199 0880 55000000 		.4byte	0x55
 6200 0884 10       		.byte	0x10
 6201 0885 28       		.byte	0x28
 6202 0886 97080000 		.4byte	0x897
 6203 088a 1B       		.uleb128 0x1b
 6204 088b 80180000 		.4byte	.LASF133
 6205 088f 00       		.byte	0
 6206 0890 1B       		.uleb128 0x1b
 6207 0891 BA280000 		.4byte	.LASF134
 6208 0895 01       		.byte	0x1
 6209 0896 00       		.byte	0
 6210 0897 04       		.uleb128 0x4
 6211 0898 DA220000 		.4byte	.LASF135
 6212 089c 10       		.byte	0x10
 6213 089d 2B       		.byte	0x2b
 6214 089e 7D080000 		.4byte	0x87d
 6215 08a2 1A       		.uleb128 0x1a
 6216 08a3 07       		.byte	0x7
 6217 08a4 01       		.byte	0x1
 6218 08a5 55000000 		.4byte	0x55
 6219 08a9 10       		.byte	0x10
 6220 08aa 2D       		.byte	0x2d
 6221 08ab C2080000 		.4byte	0x8c2
 6222 08af 1B       		.uleb128 0x1b
 6223 08b0 301F0000 		.4byte	.LASF136
 6224 08b4 00       		.byte	0
ARM GAS  /tmp/cczXzW7i.s 			page 111


 6225 08b5 1B       		.uleb128 0x1b
 6226 08b6 1D0B0000 		.4byte	.LASF137
 6227 08ba 01       		.byte	0x1
 6228 08bb 1B       		.uleb128 0x1b
 6229 08bc F40B0000 		.4byte	.LASF138
 6230 08c0 02       		.byte	0x2
 6231 08c1 00       		.byte	0
 6232 08c2 04       		.uleb128 0x4
 6233 08c3 06180000 		.4byte	.LASF139
 6234 08c7 10       		.byte	0x10
 6235 08c8 31       		.byte	0x31
 6236 08c9 A2080000 		.4byte	0x8a2
 6237 08cd 1A       		.uleb128 0x1a
 6238 08ce 07       		.byte	0x7
 6239 08cf 01       		.byte	0x1
 6240 08d0 55000000 		.4byte	0x55
 6241 08d4 10       		.byte	0x10
 6242 08d5 34       		.byte	0x34
 6243 08d6 F3080000 		.4byte	0x8f3
 6244 08da 1B       		.uleb128 0x1b
 6245 08db D7040000 		.4byte	.LASF140
 6246 08df 00       		.byte	0
 6247 08e0 1B       		.uleb128 0x1b
 6248 08e1 E0230000 		.4byte	.LASF141
 6249 08e5 01       		.byte	0x1
 6250 08e6 1B       		.uleb128 0x1b
 6251 08e7 01270000 		.4byte	.LASF142
 6252 08eb 02       		.byte	0x2
 6253 08ec 1B       		.uleb128 0x1b
 6254 08ed B2060000 		.4byte	.LASF143
 6255 08f1 03       		.byte	0x3
 6256 08f2 00       		.byte	0
 6257 08f3 04       		.uleb128 0x4
 6258 08f4 E2150000 		.4byte	.LASF144
 6259 08f8 10       		.byte	0x10
 6260 08f9 39       		.byte	0x39
 6261 08fa CD080000 		.4byte	0x8cd
 6262 08fe 1A       		.uleb128 0x1a
 6263 08ff 07       		.byte	0x7
 6264 0900 01       		.byte	0x1
 6265 0901 55000000 		.4byte	0x55
 6266 0905 10       		.byte	0x10
 6267 0906 3B       		.byte	0x3b
 6268 0907 1E090000 		.4byte	0x91e
 6269 090b 1B       		.uleb128 0x1b
 6270 090c D2170000 		.4byte	.LASF145
 6271 0910 00       		.byte	0
 6272 0911 1B       		.uleb128 0x1b
 6273 0912 41070000 		.4byte	.LASF146
 6274 0916 01       		.byte	0x1
 6275 0917 1B       		.uleb128 0x1b
 6276 0918 20210000 		.4byte	.LASF147
 6277 091c 02       		.byte	0x2
 6278 091d 00       		.byte	0
 6279 091e 04       		.uleb128 0x4
 6280 091f 04280000 		.4byte	.LASF148
 6281 0923 10       		.byte	0x10
ARM GAS  /tmp/cczXzW7i.s 			page 112


 6282 0924 3F       		.byte	0x3f
 6283 0925 FE080000 		.4byte	0x8fe
 6284 0929 1A       		.uleb128 0x1a
 6285 092a 07       		.byte	0x7
 6286 092b 01       		.byte	0x1
 6287 092c 55000000 		.4byte	0x55
 6288 0930 10       		.byte	0x10
 6289 0931 41       		.byte	0x41
 6290 0932 49090000 		.4byte	0x949
 6291 0936 1B       		.uleb128 0x1b
 6292 0937 8A280000 		.4byte	.LASF149
 6293 093b 00       		.byte	0
 6294 093c 1B       		.uleb128 0x1b
 6295 093d A3130000 		.4byte	.LASF150
 6296 0941 01       		.byte	0x1
 6297 0942 1B       		.uleb128 0x1b
 6298 0943 38100000 		.4byte	.LASF151
 6299 0947 02       		.byte	0x2
 6300 0948 00       		.byte	0
 6301 0949 04       		.uleb128 0x4
 6302 094a 8A1E0000 		.4byte	.LASF152
 6303 094e 10       		.byte	0x10
 6304 094f 45       		.byte	0x45
 6305 0950 29090000 		.4byte	0x929
 6306 0954 1A       		.uleb128 0x1a
 6307 0955 07       		.byte	0x7
 6308 0956 01       		.byte	0x1
 6309 0957 55000000 		.4byte	0x55
 6310 095b 10       		.byte	0x10
 6311 095c 47       		.byte	0x47
 6312 095d 8C090000 		.4byte	0x98c
 6313 0961 1B       		.uleb128 0x1b
 6314 0962 9D1C0000 		.4byte	.LASF153
 6315 0966 00       		.byte	0
 6316 0967 1B       		.uleb128 0x1b
 6317 0968 9A100000 		.4byte	.LASF154
 6318 096c 01       		.byte	0x1
 6319 096d 1B       		.uleb128 0x1b
 6320 096e 131C0000 		.4byte	.LASF155
 6321 0972 02       		.byte	0x2
 6322 0973 1B       		.uleb128 0x1b
 6323 0974 89080000 		.4byte	.LASF156
 6324 0978 03       		.byte	0x3
 6325 0979 1B       		.uleb128 0x1b
 6326 097a 210A0000 		.4byte	.LASF157
 6327 097e 04       		.byte	0x4
 6328 097f 1B       		.uleb128 0x1b
 6329 0980 16040000 		.4byte	.LASF158
 6330 0984 05       		.byte	0x5
 6331 0985 1B       		.uleb128 0x1b
 6332 0986 C7150000 		.4byte	.LASF159
 6333 098a 06       		.byte	0x6
 6334 098b 00       		.byte	0
 6335 098c 04       		.uleb128 0x4
 6336 098d 0C240000 		.4byte	.LASF160
 6337 0991 10       		.byte	0x10
 6338 0992 4F       		.byte	0x4f
ARM GAS  /tmp/cczXzW7i.s 			page 113


 6339 0993 54090000 		.4byte	0x954
 6340 0997 14       		.uleb128 0x14
 6341 0998 48       		.byte	0x48
 6342 0999 10       		.byte	0x10
 6343 099a 51       		.byte	0x51
 6344 099b 760A0000 		.4byte	0xa76
 6345 099f 08       		.uleb128 0x8
 6346 09a0 1C150000 		.4byte	.LASF161
 6347 09a4 10       		.byte	0x10
 6348 09a5 52       		.byte	0x52
 6349 09a6 25000000 		.4byte	0x25
 6350 09aa 00       		.byte	0
 6351 09ab 08       		.uleb128 0x8
 6352 09ac 7F1B0000 		.4byte	.LASF162
 6353 09b0 10       		.byte	0x10
 6354 09b1 53       		.byte	0x53
 6355 09b2 25000000 		.4byte	0x25
 6356 09b6 04       		.byte	0x4
 6357 09b7 08       		.uleb128 0x8
 6358 09b8 D3110000 		.4byte	.LASF163
 6359 09bc 10       		.byte	0x10
 6360 09bd 54       		.byte	0x54
 6361 09be 25000000 		.4byte	0x25
 6362 09c2 08       		.byte	0x8
 6363 09c3 08       		.uleb128 0x8
 6364 09c4 660A0000 		.4byte	.LASF164
 6365 09c8 10       		.byte	0x10
 6366 09c9 55       		.byte	0x55
 6367 09ca 25000000 		.4byte	0x25
 6368 09ce 0C       		.byte	0xc
 6369 09cf 08       		.uleb128 0x8
 6370 09d0 1D080000 		.4byte	.LASF165
 6371 09d4 10       		.byte	0x10
 6372 09d5 56       		.byte	0x56
 6373 09d6 25000000 		.4byte	0x25
 6374 09da 10       		.byte	0x10
 6375 09db 13       		.uleb128 0x13
 6376 09dc 696400   		.ascii	"id\000"
 6377 09df 10       		.byte	0x10
 6378 09e0 57       		.byte	0x57
 6379 09e1 25000000 		.4byte	0x25
 6380 09e5 14       		.byte	0x14
 6381 09e6 13       		.uleb128 0x13
 6382 09e7 697100   		.ascii	"iq\000"
 6383 09ea 10       		.byte	0x10
 6384 09eb 58       		.byte	0x58
 6385 09ec 25000000 		.4byte	0x25
 6386 09f0 18       		.byte	0x18
 6387 09f1 13       		.uleb128 0x13
 6388 09f2 72706D00 		.ascii	"rpm\000"
 6389 09f6 10       		.byte	0x10
 6390 09f7 59       		.byte	0x59
 6391 09f8 25000000 		.4byte	0x25
 6392 09fc 1C       		.byte	0x1c
 6393 09fd 08       		.uleb128 0x8
 6394 09fe D4160000 		.4byte	.LASF166
 6395 0a02 10       		.byte	0x10
ARM GAS  /tmp/cczXzW7i.s 			page 114


 6396 0a03 5A       		.byte	0x5a
 6397 0a04 25000000 		.4byte	0x25
 6398 0a08 20       		.byte	0x20
 6399 0a09 08       		.uleb128 0x8
 6400 0a0a 0B130000 		.4byte	.LASF167
 6401 0a0e 10       		.byte	0x10
 6402 0a0f 5B       		.byte	0x5b
 6403 0a10 25000000 		.4byte	0x25
 6404 0a14 24       		.byte	0x24
 6405 0a15 08       		.uleb128 0x8
 6406 0a16 DF1D0000 		.4byte	.LASF168
 6407 0a1a 10       		.byte	0x10
 6408 0a1b 5C       		.byte	0x5c
 6409 0a1c 25000000 		.4byte	0x25
 6410 0a20 28       		.byte	0x28
 6411 0a21 08       		.uleb128 0x8
 6412 0a22 00000000 		.4byte	.LASF169
 6413 0a26 10       		.byte	0x10
 6414 0a27 5D       		.byte	0x5d
 6415 0a28 25000000 		.4byte	0x25
 6416 0a2c 2C       		.byte	0x2c
 6417 0a2d 08       		.uleb128 0x8
 6418 0a2e 26120000 		.4byte	.LASF170
 6419 0a32 10       		.byte	0x10
 6420 0a33 5E       		.byte	0x5e
 6421 0a34 25000000 		.4byte	0x25
 6422 0a38 30       		.byte	0x30
 6423 0a39 08       		.uleb128 0x8
 6424 0a3a 67170000 		.4byte	.LASF171
 6425 0a3e 10       		.byte	0x10
 6426 0a3f 5F       		.byte	0x5f
 6427 0a40 2C000000 		.4byte	0x2c
 6428 0a44 34       		.byte	0x34
 6429 0a45 08       		.uleb128 0x8
 6430 0a46 4B080000 		.4byte	.LASF172
 6431 0a4a 10       		.byte	0x10
 6432 0a4b 60       		.byte	0x60
 6433 0a4c 2C000000 		.4byte	0x2c
 6434 0a50 38       		.byte	0x38
 6435 0a51 08       		.uleb128 0x8
 6436 0a52 29170000 		.4byte	.LASF173
 6437 0a56 10       		.byte	0x10
 6438 0a57 61       		.byte	0x61
 6439 0a58 8C090000 		.4byte	0x98c
 6440 0a5c 3C       		.byte	0x3c
 6441 0a5d 08       		.uleb128 0x8
 6442 0a5e AA1B0000 		.4byte	.LASF174
 6443 0a62 10       		.byte	0x10
 6444 0a63 62       		.byte	0x62
 6445 0a64 25000000 		.4byte	0x25
 6446 0a68 40       		.byte	0x40
 6447 0a69 08       		.uleb128 0x8
 6448 0a6a 9B130000 		.4byte	.LASF175
 6449 0a6e 10       		.byte	0x10
 6450 0a6f 63       		.byte	0x63
 6451 0a70 C4000000 		.4byte	0xc4
 6452 0a74 44       		.byte	0x44
ARM GAS  /tmp/cczXzW7i.s 			page 115


 6453 0a75 00       		.byte	0
 6454 0a76 04       		.uleb128 0x4
 6455 0a77 CF190000 		.4byte	.LASF176
 6456 0a7b 10       		.byte	0x10
 6457 0a7c 64       		.byte	0x64
 6458 0a7d 97090000 		.4byte	0x997
 6459 0a81 1A       		.uleb128 0x1a
 6460 0a82 07       		.byte	0x7
 6461 0a83 01       		.byte	0x1
 6462 0a84 55000000 		.4byte	0x55
 6463 0a88 10       		.byte	0x10
 6464 0a89 66       		.byte	0x66
 6465 0a8a A10A0000 		.4byte	0xaa1
 6466 0a8e 1B       		.uleb128 0x1b
 6467 0a8f B3170000 		.4byte	.LASF177
 6468 0a93 00       		.byte	0
 6469 0a94 1B       		.uleb128 0x1b
 6470 0a95 560C0000 		.4byte	.LASF178
 6471 0a99 01       		.byte	0x1
 6472 0a9a 1B       		.uleb128 0x1b
 6473 0a9b DD0C0000 		.4byte	.LASF179
 6474 0a9f 02       		.byte	0x2
 6475 0aa0 00       		.byte	0
 6476 0aa1 04       		.uleb128 0x4
 6477 0aa2 F3270000 		.4byte	.LASF180
 6478 0aa6 10       		.byte	0x10
 6479 0aa7 6A       		.byte	0x6a
 6480 0aa8 810A0000 		.4byte	0xa81
 6481 0aac 1A       		.uleb128 0x1a
 6482 0aad 07       		.byte	0x7
 6483 0aae 01       		.byte	0x1
 6484 0aaf 55000000 		.4byte	0x55
 6485 0ab3 10       		.byte	0x10
 6486 0ab4 6C       		.byte	0x6c
 6487 0ab5 D20A0000 		.4byte	0xad2
 6488 0ab9 1B       		.uleb128 0x1b
 6489 0aba 05040000 		.4byte	.LASF181
 6490 0abe 00       		.byte	0
 6491 0abf 1B       		.uleb128 0x1b
 6492 0ac0 1B1E0000 		.4byte	.LASF182
 6493 0ac4 01       		.byte	0x1
 6494 0ac5 1B       		.uleb128 0x1b
 6495 0ac6 92070000 		.4byte	.LASF183
 6496 0aca 02       		.byte	0x2
 6497 0acb 1B       		.uleb128 0x1b
 6498 0acc 8D230000 		.4byte	.LASF184
 6499 0ad0 03       		.byte	0x3
 6500 0ad1 00       		.byte	0
 6501 0ad2 04       		.uleb128 0x4
 6502 0ad3 771A0000 		.4byte	.LASF185
 6503 0ad7 10       		.byte	0x10
 6504 0ad8 71       		.byte	0x71
 6505 0ad9 AC0A0000 		.4byte	0xaac
 6506 0add 1A       		.uleb128 0x1a
 6507 0ade 07       		.byte	0x7
 6508 0adf 01       		.byte	0x1
 6509 0ae0 55000000 		.4byte	0x55
ARM GAS  /tmp/cczXzW7i.s 			page 116


 6510 0ae4 10       		.byte	0x10
 6511 0ae5 73       		.byte	0x73
 6512 0ae6 090B0000 		.4byte	0xb09
 6513 0aea 1B       		.uleb128 0x1b
 6514 0aeb D9190000 		.4byte	.LASF186
 6515 0aef 00       		.byte	0
 6516 0af0 1B       		.uleb128 0x1b
 6517 0af1 55200000 		.4byte	.LASF187
 6518 0af5 01       		.byte	0x1
 6519 0af6 1B       		.uleb128 0x1b
 6520 0af7 4B090000 		.4byte	.LASF188
 6521 0afb 02       		.byte	0x2
 6522 0afc 1B       		.uleb128 0x1b
 6523 0afd BD160000 		.4byte	.LASF189
 6524 0b01 03       		.byte	0x3
 6525 0b02 1B       		.uleb128 0x1b
 6526 0b03 D80E0000 		.4byte	.LASF190
 6527 0b07 04       		.byte	0x4
 6528 0b08 00       		.byte	0
 6529 0b09 04       		.uleb128 0x4
 6530 0b0a BB040000 		.4byte	.LASF191
 6531 0b0e 10       		.byte	0x10
 6532 0b0f 79       		.byte	0x79
 6533 0b10 DD0A0000 		.4byte	0xadd
 6534 0b14 1A       		.uleb128 0x1a
 6535 0b15 07       		.byte	0x7
 6536 0b16 01       		.byte	0x1
 6537 0b17 55000000 		.4byte	0x55
 6538 0b1b 10       		.byte	0x10
 6539 0b1c 7B       		.byte	0x7b
 6540 0b1d 3A0B0000 		.4byte	0xb3a
 6541 0b21 1B       		.uleb128 0x1b
 6542 0b22 94040000 		.4byte	.LASF192
 6543 0b26 00       		.byte	0
 6544 0b27 1B       		.uleb128 0x1b
 6545 0b28 C4200000 		.4byte	.LASF193
 6546 0b2c 01       		.byte	0x1
 6547 0b2d 1B       		.uleb128 0x1b
 6548 0b2e 651F0000 		.4byte	.LASF194
 6549 0b32 02       		.byte	0x2
 6550 0b33 1B       		.uleb128 0x1b
 6551 0b34 09100000 		.4byte	.LASF195
 6552 0b38 03       		.byte	0x3
 6553 0b39 00       		.byte	0
 6554 0b3a 04       		.uleb128 0x4
 6555 0b3b D1020000 		.4byte	.LASF196
 6556 0b3f 10       		.byte	0x10
 6557 0b40 80       		.byte	0x80
 6558 0b41 140B0000 		.4byte	0xb14
 6559 0b45 1C       		.uleb128 0x1c
 6560 0b46 8401     		.2byte	0x184
 6561 0b48 10       		.byte	0x10
 6562 0b49 82       		.byte	0x82
 6563 0b4a 2E100000 		.4byte	0x102e
 6564 0b4e 08       		.uleb128 0x8
 6565 0b4f 6F120000 		.4byte	.LASF197
 6566 0b53 10       		.byte	0x10
ARM GAS  /tmp/cczXzW7i.s 			page 117


 6567 0b54 84       		.byte	0x84
 6568 0b55 72080000 		.4byte	0x872
 6569 0b59 00       		.byte	0
 6570 0b5a 08       		.uleb128 0x8
 6571 0b5b 170A0000 		.4byte	.LASF198
 6572 0b5f 10       		.byte	0x10
 6573 0b60 85       		.byte	0x85
 6574 0b61 97080000 		.4byte	0x897
 6575 0b65 01       		.byte	0x1
 6576 0b66 08       		.uleb128 0x8
 6577 0b67 A0120000 		.4byte	.LASF199
 6578 0b6b 10       		.byte	0x10
 6579 0b6c 86       		.byte	0x86
 6580 0b6d 49090000 		.4byte	0x949
 6581 0b71 02       		.byte	0x2
 6582 0b72 08       		.uleb128 0x8
 6583 0b73 241F0000 		.4byte	.LASF200
 6584 0b77 10       		.byte	0x10
 6585 0b78 87       		.byte	0x87
 6586 0b79 C2080000 		.4byte	0x8c2
 6587 0b7d 03       		.byte	0x3
 6588 0b7e 08       		.uleb128 0x8
 6589 0b7f E7160000 		.4byte	.LASF201
 6590 0b83 10       		.byte	0x10
 6591 0b84 89       		.byte	0x89
 6592 0b85 25000000 		.4byte	0x25
 6593 0b89 04       		.byte	0x4
 6594 0b8a 08       		.uleb128 0x8
 6595 0b8b CD1B0000 		.4byte	.LASF202
 6596 0b8f 10       		.byte	0x10
 6597 0b90 8A       		.byte	0x8a
 6598 0b91 25000000 		.4byte	0x25
 6599 0b95 08       		.byte	0x8
 6600 0b96 08       		.uleb128 0x8
 6601 0b97 60260000 		.4byte	.LASF203
 6602 0b9b 10       		.byte	0x10
 6603 0b9c 8B       		.byte	0x8b
 6604 0b9d 25000000 		.4byte	0x25
 6605 0ba1 0C       		.byte	0xc
 6606 0ba2 08       		.uleb128 0x8
 6607 0ba3 FD010000 		.4byte	.LASF204
 6608 0ba7 10       		.byte	0x10
 6609 0ba8 8C       		.byte	0x8c
 6610 0ba9 25000000 		.4byte	0x25
 6611 0bad 10       		.byte	0x10
 6612 0bae 08       		.uleb128 0x8
 6613 0baf 75000000 		.4byte	.LASF205
 6614 0bb3 10       		.byte	0x10
 6615 0bb4 8D       		.byte	0x8d
 6616 0bb5 25000000 		.4byte	0x25
 6617 0bb9 14       		.byte	0x14
 6618 0bba 08       		.uleb128 0x8
 6619 0bbb BE020000 		.4byte	.LASF206
 6620 0bbf 10       		.byte	0x10
 6621 0bc0 8E       		.byte	0x8e
 6622 0bc1 25000000 		.4byte	0x25
 6623 0bc5 18       		.byte	0x18
ARM GAS  /tmp/cczXzW7i.s 			page 118


 6624 0bc6 08       		.uleb128 0x8
 6625 0bc7 60150000 		.4byte	.LASF207
 6626 0bcb 10       		.byte	0x10
 6627 0bcc 8F       		.byte	0x8f
 6628 0bcd 25000000 		.4byte	0x25
 6629 0bd1 1C       		.byte	0x1c
 6630 0bd2 08       		.uleb128 0x8
 6631 0bd3 70090000 		.4byte	.LASF208
 6632 0bd7 10       		.byte	0x10
 6633 0bd8 90       		.byte	0x90
 6634 0bd9 25000000 		.4byte	0x25
 6635 0bdd 20       		.byte	0x20
 6636 0bde 08       		.uleb128 0x8
 6637 0bdf 58000000 		.4byte	.LASF209
 6638 0be3 10       		.byte	0x10
 6639 0be4 91       		.byte	0x91
 6640 0be5 25000000 		.4byte	0x25
 6641 0be9 24       		.byte	0x24
 6642 0bea 08       		.uleb128 0x8
 6643 0beb 1F250000 		.4byte	.LASF210
 6644 0bef 10       		.byte	0x10
 6645 0bf0 92       		.byte	0x92
 6646 0bf1 25000000 		.4byte	0x25
 6647 0bf5 28       		.byte	0x28
 6648 0bf6 08       		.uleb128 0x8
 6649 0bf7 A40F0000 		.4byte	.LASF211
 6650 0bfb 10       		.byte	0x10
 6651 0bfc 93       		.byte	0x93
 6652 0bfd 25000000 		.4byte	0x25
 6653 0c01 2C       		.byte	0x2c
 6654 0c02 08       		.uleb128 0x8
 6655 0c03 9E0E0000 		.4byte	.LASF212
 6656 0c07 10       		.byte	0x10
 6657 0c08 94       		.byte	0x94
 6658 0c09 25000000 		.4byte	0x25
 6659 0c0d 30       		.byte	0x30
 6660 0c0e 08       		.uleb128 0x8
 6661 0c0f 740F0000 		.4byte	.LASF213
 6662 0c13 10       		.byte	0x10
 6663 0c14 95       		.byte	0x95
 6664 0c15 25000000 		.4byte	0x25
 6665 0c19 34       		.byte	0x34
 6666 0c1a 08       		.uleb128 0x8
 6667 0c1b 920F0000 		.4byte	.LASF214
 6668 0c1f 10       		.byte	0x10
 6669 0c20 96       		.byte	0x96
 6670 0c21 25000000 		.4byte	0x25
 6671 0c25 38       		.byte	0x38
 6672 0c26 08       		.uleb128 0x8
 6673 0c27 E0010000 		.4byte	.LASF215
 6674 0c2b 10       		.byte	0x10
 6675 0c2c 97       		.byte	0x97
 6676 0c2d 2E100000 		.4byte	0x102e
 6677 0c31 3C       		.byte	0x3c
 6678 0c32 08       		.uleb128 0x8
 6679 0c33 B0090000 		.4byte	.LASF216
 6680 0c37 10       		.byte	0x10
ARM GAS  /tmp/cczXzW7i.s 			page 119


 6681 0c38 98       		.byte	0x98
 6682 0c39 25000000 		.4byte	0x25
 6683 0c3d 40       		.byte	0x40
 6684 0c3e 08       		.uleb128 0x8
 6685 0c3f 7E030000 		.4byte	.LASF217
 6686 0c43 10       		.byte	0x10
 6687 0c44 99       		.byte	0x99
 6688 0c45 25000000 		.4byte	0x25
 6689 0c49 44       		.byte	0x44
 6690 0c4a 08       		.uleb128 0x8
 6691 0c4b 6C1B0000 		.4byte	.LASF218
 6692 0c4f 10       		.byte	0x10
 6693 0c50 9A       		.byte	0x9a
 6694 0c51 25000000 		.4byte	0x25
 6695 0c55 48       		.byte	0x48
 6696 0c56 08       		.uleb128 0x8
 6697 0c57 DB1E0000 		.4byte	.LASF219
 6698 0c5b 10       		.byte	0x10
 6699 0c5c 9B       		.byte	0x9b
 6700 0c5d 25000000 		.4byte	0x25
 6701 0c61 4C       		.byte	0x4c
 6702 0c62 08       		.uleb128 0x8
 6703 0c63 CE1A0000 		.4byte	.LASF220
 6704 0c67 10       		.byte	0x10
 6705 0c68 9C       		.byte	0x9c
 6706 0c69 25000000 		.4byte	0x25
 6707 0c6d 50       		.byte	0x50
 6708 0c6e 08       		.uleb128 0x8
 6709 0c6f BE270000 		.4byte	.LASF221
 6710 0c73 10       		.byte	0x10
 6711 0c74 9D       		.byte	0x9d
 6712 0c75 25000000 		.4byte	0x25
 6713 0c79 54       		.byte	0x54
 6714 0c7a 08       		.uleb128 0x8
 6715 0c7b 26110000 		.4byte	.LASF222
 6716 0c7f 10       		.byte	0x10
 6717 0c80 9E       		.byte	0x9e
 6718 0c81 25000000 		.4byte	0x25
 6719 0c85 58       		.byte	0x58
 6720 0c86 08       		.uleb128 0x8
 6721 0c87 40090000 		.4byte	.LASF223
 6722 0c8b 10       		.byte	0x10
 6723 0c8c 9F       		.byte	0x9f
 6724 0c8d 25000000 		.4byte	0x25
 6725 0c91 5C       		.byte	0x5c
 6726 0c92 08       		.uleb128 0x8
 6727 0c93 EC240000 		.4byte	.LASF224
 6728 0c97 10       		.byte	0x10
 6729 0c98 A0       		.byte	0xa0
 6730 0c99 25000000 		.4byte	0x25
 6731 0c9d 60       		.byte	0x60
 6732 0c9e 08       		.uleb128 0x8
 6733 0c9f 190C0000 		.4byte	.LASF225
 6734 0ca3 10       		.byte	0x10
 6735 0ca4 A2       		.byte	0xa2
 6736 0ca5 25000000 		.4byte	0x25
 6737 0ca9 64       		.byte	0x64
ARM GAS  /tmp/cczXzW7i.s 			page 120


 6738 0caa 08       		.uleb128 0x8
 6739 0cab AB120000 		.4byte	.LASF226
 6740 0caf 10       		.byte	0x10
 6741 0cb0 A3       		.byte	0xa3
 6742 0cb1 25000000 		.4byte	0x25
 6743 0cb5 68       		.byte	0x68
 6744 0cb6 08       		.uleb128 0x8
 6745 0cb7 D2200000 		.4byte	.LASF227
 6746 0cbb 10       		.byte	0x10
 6747 0cbc A4       		.byte	0xa4
 6748 0cbd 25000000 		.4byte	0x25
 6749 0cc1 6C       		.byte	0x6c
 6750 0cc2 08       		.uleb128 0x8
 6751 0cc3 98270000 		.4byte	.LASF228
 6752 0cc7 10       		.byte	0x10
 6753 0cc8 A5       		.byte	0xa5
 6754 0cc9 25000000 		.4byte	0x25
 6755 0ccd 70       		.byte	0x70
 6756 0cce 08       		.uleb128 0x8
 6757 0ccf E91C0000 		.4byte	.LASF229
 6758 0cd3 10       		.byte	0x10
 6759 0cd4 A6       		.byte	0xa6
 6760 0cd5 25000000 		.4byte	0x25
 6761 0cd9 74       		.byte	0x74
 6762 0cda 08       		.uleb128 0x8
 6763 0cdb 850E0000 		.4byte	.LASF230
 6764 0cdf 10       		.byte	0x10
 6765 0ce0 A7       		.byte	0xa7
 6766 0ce1 25000000 		.4byte	0x25
 6767 0ce5 78       		.byte	0x78
 6768 0ce6 08       		.uleb128 0x8
 6769 0ce7 4E100000 		.4byte	.LASF231
 6770 0ceb 10       		.byte	0x10
 6771 0cec A9       		.byte	0xa9
 6772 0ced 25000000 		.4byte	0x25
 6773 0cf1 7C       		.byte	0x7c
 6774 0cf2 08       		.uleb128 0x8
 6775 0cf3 D1050000 		.4byte	.LASF232
 6776 0cf7 10       		.byte	0x10
 6777 0cf8 AA       		.byte	0xaa
 6778 0cf9 25000000 		.4byte	0x25
 6779 0cfd 80       		.byte	0x80
 6780 0cfe 08       		.uleb128 0x8
 6781 0cff BA120000 		.4byte	.LASF233
 6782 0d03 10       		.byte	0x10
 6783 0d04 AB       		.byte	0xab
 6784 0d05 25000000 		.4byte	0x25
 6785 0d09 84       		.byte	0x84
 6786 0d0a 08       		.uleb128 0x8
 6787 0d0b 02140000 		.4byte	.LASF234
 6788 0d0f 10       		.byte	0x10
 6789 0d10 AC       		.byte	0xac
 6790 0d11 25000000 		.4byte	0x25
 6791 0d15 88       		.byte	0x88
 6792 0d16 08       		.uleb128 0x8
 6793 0d17 BC110000 		.4byte	.LASF235
 6794 0d1b 10       		.byte	0x10
ARM GAS  /tmp/cczXzW7i.s 			page 121


 6795 0d1c AD       		.byte	0xad
 6796 0d1d 25000000 		.4byte	0x25
 6797 0d21 8C       		.byte	0x8c
 6798 0d22 08       		.uleb128 0x8
 6799 0d23 50220000 		.4byte	.LASF236
 6800 0d27 10       		.byte	0x10
 6801 0d28 AE       		.byte	0xae
 6802 0d29 25000000 		.4byte	0x25
 6803 0d2d 90       		.byte	0x90
 6804 0d2e 08       		.uleb128 0x8
 6805 0d2f BB1A0000 		.4byte	.LASF237
 6806 0d33 10       		.byte	0x10
 6807 0d34 AF       		.byte	0xaf
 6808 0d35 25000000 		.4byte	0x25
 6809 0d39 94       		.byte	0x94
 6810 0d3a 08       		.uleb128 0x8
 6811 0d3b 90130000 		.4byte	.LASF238
 6812 0d3f 10       		.byte	0x10
 6813 0d40 B1       		.byte	0xb1
 6814 0d41 35100000 		.4byte	0x1035
 6815 0d45 98       		.byte	0x98
 6816 0d46 08       		.uleb128 0x8
 6817 0d47 B61C0000 		.4byte	.LASF239
 6818 0d4b 10       		.byte	0x10
 6819 0d4c B2       		.byte	0xb2
 6820 0d4d 25000000 		.4byte	0x25
 6821 0d51 A0       		.byte	0xa0
 6822 0d52 08       		.uleb128 0x8
 6823 0d53 29060000 		.4byte	.LASF240
 6824 0d57 10       		.byte	0x10
 6825 0d58 B4       		.byte	0xb4
 6826 0d59 25000000 		.4byte	0x25
 6827 0d5d A4       		.byte	0xa4
 6828 0d5e 08       		.uleb128 0x8
 6829 0d5f 01060000 		.4byte	.LASF241
 6830 0d63 10       		.byte	0x10
 6831 0d64 B5       		.byte	0xb5
 6832 0d65 25000000 		.4byte	0x25
 6833 0d69 A8       		.byte	0xa8
 6834 0d6a 08       		.uleb128 0x8
 6835 0d6b 67090000 		.4byte	.LASF242
 6836 0d6f 10       		.byte	0x10
 6837 0d70 B6       		.byte	0xb6
 6838 0d71 25000000 		.4byte	0x25
 6839 0d75 AC       		.byte	0xac
 6840 0d76 08       		.uleb128 0x8
 6841 0d77 85210000 		.4byte	.LASF243
 6842 0d7b 10       		.byte	0x10
 6843 0d7c B7       		.byte	0xb7
 6844 0d7d 25000000 		.4byte	0x25
 6845 0d81 B0       		.byte	0xb0
 6846 0d82 08       		.uleb128 0x8
 6847 0d83 07200000 		.4byte	.LASF244
 6848 0d87 10       		.byte	0x10
 6849 0d88 B8       		.byte	0xb8
 6850 0d89 25000000 		.4byte	0x25
 6851 0d8d B4       		.byte	0xb4
ARM GAS  /tmp/cczXzW7i.s 			page 122


 6852 0d8e 08       		.uleb128 0x8
 6853 0d8f 280C0000 		.4byte	.LASF245
 6854 0d93 10       		.byte	0x10
 6855 0d94 B9       		.byte	0xb9
 6856 0d95 2E100000 		.4byte	0x102e
 6857 0d99 B8       		.byte	0xb8
 6858 0d9a 08       		.uleb128 0x8
 6859 0d9b DD180000 		.4byte	.LASF246
 6860 0d9f 10       		.byte	0x10
 6861 0da0 BA       		.byte	0xba
 6862 0da1 25000000 		.4byte	0x25
 6863 0da5 BC       		.byte	0xbc
 6864 0da6 08       		.uleb128 0x8
 6865 0da7 67080000 		.4byte	.LASF247
 6866 0dab 10       		.byte	0x10
 6867 0dac BB       		.byte	0xbb
 6868 0dad 25000000 		.4byte	0x25
 6869 0db1 C0       		.byte	0xc0
 6870 0db2 08       		.uleb128 0x8
 6871 0db3 73080000 		.4byte	.LASF248
 6872 0db7 10       		.byte	0x10
 6873 0db8 BC       		.byte	0xbc
 6874 0db9 25000000 		.4byte	0x25
 6875 0dbd C4       		.byte	0xc4
 6876 0dbe 08       		.uleb128 0x8
 6877 0dbf EB130000 		.4byte	.LASF249
 6878 0dc3 10       		.byte	0x10
 6879 0dc4 BD       		.byte	0xbd
 6880 0dc5 25000000 		.4byte	0x25
 6881 0dc9 C8       		.byte	0xc8
 6882 0dca 08       		.uleb128 0x8
 6883 0dcb 3D0A0000 		.4byte	.LASF250
 6884 0dcf 10       		.byte	0x10
 6885 0dd0 BE       		.byte	0xbe
 6886 0dd1 25000000 		.4byte	0x25
 6887 0dd5 CC       		.byte	0xcc
 6888 0dd6 08       		.uleb128 0x8
 6889 0dd7 C5000000 		.4byte	.LASF251
 6890 0ddb 10       		.byte	0x10
 6891 0ddc BF       		.byte	0xbf
 6892 0ddd 25000000 		.4byte	0x25
 6893 0de1 D0       		.byte	0xd0
 6894 0de2 08       		.uleb128 0x8
 6895 0de3 A01D0000 		.4byte	.LASF252
 6896 0de7 10       		.byte	0x10
 6897 0de8 C0       		.byte	0xc0
 6898 0de9 25000000 		.4byte	0x25
 6899 0ded D4       		.byte	0xd4
 6900 0dee 08       		.uleb128 0x8
 6901 0def 951D0000 		.4byte	.LASF253
 6902 0df3 10       		.byte	0x10
 6903 0df4 C1       		.byte	0xc1
 6904 0df5 25000000 		.4byte	0x25
 6905 0df9 D8       		.byte	0xd8
 6906 0dfa 08       		.uleb128 0x8
 6907 0dfb 48160000 		.4byte	.LASF254
 6908 0dff 10       		.byte	0x10
ARM GAS  /tmp/cczXzW7i.s 			page 123


 6909 0e00 C2       		.byte	0xc2
 6910 0e01 25000000 		.4byte	0x25
 6911 0e05 DC       		.byte	0xdc
 6912 0e06 08       		.uleb128 0x8
 6913 0e07 16160000 		.4byte	.LASF255
 6914 0e0b 10       		.byte	0x10
 6915 0e0c C3       		.byte	0xc3
 6916 0e0d 25000000 		.4byte	0x25
 6917 0e11 E0       		.byte	0xe0
 6918 0e12 08       		.uleb128 0x8
 6919 0e13 4C1D0000 		.4byte	.LASF256
 6920 0e17 10       		.byte	0x10
 6921 0e18 C4       		.byte	0xc4
 6922 0e19 25000000 		.4byte	0x25
 6923 0e1d E4       		.byte	0xe4
 6924 0e1e 08       		.uleb128 0x8
 6925 0e1f 40200000 		.4byte	.LASF257
 6926 0e23 10       		.byte	0x10
 6927 0e24 C5       		.byte	0xc5
 6928 0e25 25000000 		.4byte	0x25
 6929 0e29 E8       		.byte	0xe8
 6930 0e2a 08       		.uleb128 0x8
 6931 0e2b 69270000 		.4byte	.LASF258
 6932 0e2f 10       		.byte	0x10
 6933 0e30 C6       		.byte	0xc6
 6934 0e31 25000000 		.4byte	0x25
 6935 0e35 EC       		.byte	0xec
 6936 0e36 08       		.uleb128 0x8
 6937 0e37 1B130000 		.4byte	.LASF259
 6938 0e3b 10       		.byte	0x10
 6939 0e3c C7       		.byte	0xc7
 6940 0e3d 25000000 		.4byte	0x25
 6941 0e41 F0       		.byte	0xf0
 6942 0e42 08       		.uleb128 0x8
 6943 0e43 5D1D0000 		.4byte	.LASF260
 6944 0e47 10       		.byte	0x10
 6945 0e48 C8       		.byte	0xc8
 6946 0e49 25000000 		.4byte	0x25
 6947 0e4d F4       		.byte	0xf4
 6948 0e4e 08       		.uleb128 0x8
 6949 0e4f 03210000 		.4byte	.LASF261
 6950 0e53 10       		.byte	0x10
 6951 0e54 C9       		.byte	0xc9
 6952 0e55 1E090000 		.4byte	0x91e
 6953 0e59 F8       		.byte	0xf8
 6954 0e5a 08       		.uleb128 0x8
 6955 0e5b F50F0000 		.4byte	.LASF262
 6956 0e5f 10       		.byte	0x10
 6957 0e60 CA       		.byte	0xca
 6958 0e61 45100000 		.4byte	0x1045
 6959 0e65 F9       		.byte	0xf9
 6960 0e66 1D       		.uleb128 0x1d
 6961 0e67 8E110000 		.4byte	.LASF263
 6962 0e6b 10       		.byte	0x10
 6963 0e6c CB       		.byte	0xcb
 6964 0e6d 25000000 		.4byte	0x25
 6965 0e71 0401     		.2byte	0x104
ARM GAS  /tmp/cczXzW7i.s 			page 124


 6966 0e73 1D       		.uleb128 0x1d
 6967 0e74 59280000 		.4byte	.LASF264
 6968 0e78 10       		.byte	0x10
 6969 0e79 CC       		.byte	0xcc
 6970 0e7a 2E100000 		.4byte	0x102e
 6971 0e7e 0801     		.2byte	0x108
 6972 0e80 1D       		.uleb128 0x1d
 6973 0e81 C2220000 		.4byte	.LASF265
 6974 0e85 10       		.byte	0x10
 6975 0e86 CD       		.byte	0xcd
 6976 0e87 2E100000 		.4byte	0x102e
 6977 0e8b 0901     		.2byte	0x109
 6978 0e8d 1D       		.uleb128 0x1d
 6979 0e8e 8F210000 		.4byte	.LASF266
 6980 0e92 10       		.byte	0x10
 6981 0e93 CE       		.byte	0xce
 6982 0e94 25000000 		.4byte	0x25
 6983 0e98 0C01     		.2byte	0x10c
 6984 0e9a 1D       		.uleb128 0x1d
 6985 0e9b 871A0000 		.4byte	.LASF267
 6986 0e9f 10       		.byte	0x10
 6987 0ea0 CF       		.byte	0xcf
 6988 0ea1 2E100000 		.4byte	0x102e
 6989 0ea5 1001     		.2byte	0x110
 6990 0ea7 1D       		.uleb128 0x1d
 6991 0ea8 0C1F0000 		.4byte	.LASF268
 6992 0eac 10       		.byte	0x10
 6993 0ead D0       		.byte	0xd0
 6994 0eae 25000000 		.4byte	0x25
 6995 0eb2 1401     		.2byte	0x114
 6996 0eb4 1D       		.uleb128 0x1d
 6997 0eb5 A7260000 		.4byte	.LASF269
 6998 0eb9 10       		.byte	0x10
 6999 0eba D1       		.byte	0xd1
 7000 0ebb 25000000 		.4byte	0x25
 7001 0ebf 1801     		.2byte	0x118
 7002 0ec1 1D       		.uleb128 0x1d
 7003 0ec2 C31C0000 		.4byte	.LASF270
 7004 0ec6 10       		.byte	0x10
 7005 0ec7 D3       		.byte	0xd3
 7006 0ec8 25000000 		.4byte	0x25
 7007 0ecc 1C01     		.2byte	0x11c
 7008 0ece 1D       		.uleb128 0x1d
 7009 0ecf AD1C0000 		.4byte	.LASF271
 7010 0ed3 10       		.byte	0x10
 7011 0ed4 D4       		.byte	0xd4
 7012 0ed5 25000000 		.4byte	0x25
 7013 0ed9 2001     		.2byte	0x120
 7014 0edb 1D       		.uleb128 0x1d
 7015 0edc 28080000 		.4byte	.LASF272
 7016 0ee0 10       		.byte	0x10
 7017 0ee1 D5       		.byte	0xd5
 7018 0ee2 25000000 		.4byte	0x25
 7019 0ee6 2401     		.2byte	0x124
 7020 0ee8 1D       		.uleb128 0x1d
 7021 0ee9 0D080000 		.4byte	.LASF273
 7022 0eed 10       		.byte	0x10
ARM GAS  /tmp/cczXzW7i.s 			page 125


 7023 0eee D6       		.byte	0xd6
 7024 0eef 25000000 		.4byte	0x25
 7025 0ef3 2801     		.2byte	0x128
 7026 0ef5 1D       		.uleb128 0x1d
 7027 0ef6 CC080000 		.4byte	.LASF274
 7028 0efa 10       		.byte	0x10
 7029 0efb D7       		.byte	0xd7
 7030 0efc 25000000 		.4byte	0x25
 7031 0f00 2C01     		.2byte	0x12c
 7032 0f02 1D       		.uleb128 0x1d
 7033 0f03 FB0A0000 		.4byte	.LASF275
 7034 0f07 10       		.byte	0x10
 7035 0f08 D8       		.byte	0xd8
 7036 0f09 2E100000 		.4byte	0x102e
 7037 0f0d 3001     		.2byte	0x130
 7038 0f0f 1D       		.uleb128 0x1d
 7039 0f10 1C1A0000 		.4byte	.LASF276
 7040 0f14 10       		.byte	0x10
 7041 0f15 DA       		.byte	0xda
 7042 0f16 25000000 		.4byte	0x25
 7043 0f1a 3401     		.2byte	0x134
 7044 0f1c 1D       		.uleb128 0x1d
 7045 0f1d 021A0000 		.4byte	.LASF277
 7046 0f21 10       		.byte	0x10
 7047 0f22 DB       		.byte	0xdb
 7048 0f23 25000000 		.4byte	0x25
 7049 0f27 3801     		.2byte	0x138
 7050 0f29 1D       		.uleb128 0x1d
 7051 0f2a F9190000 		.4byte	.LASF278
 7052 0f2e 10       		.byte	0x10
 7053 0f2f DC       		.byte	0xdc
 7054 0f30 25000000 		.4byte	0x25
 7055 0f34 3C01     		.2byte	0x13c
 7056 0f36 1D       		.uleb128 0x1d
 7057 0f37 75210000 		.4byte	.LASF279
 7058 0f3b 10       		.byte	0x10
 7059 0f3c DD       		.byte	0xdd
 7060 0f3d 25000000 		.4byte	0x25
 7061 0f41 4001     		.2byte	0x140
 7062 0f43 1D       		.uleb128 0x1d
 7063 0f44 F3260000 		.4byte	.LASF280
 7064 0f48 10       		.byte	0x10
 7065 0f49 DE       		.byte	0xde
 7066 0f4a 25000000 		.4byte	0x25
 7067 0f4e 4401     		.2byte	0x144
 7068 0f50 1D       		.uleb128 0x1d
 7069 0f51 62020000 		.4byte	.LASF281
 7070 0f55 10       		.byte	0x10
 7071 0f56 E0       		.byte	0xe0
 7072 0f57 25000000 		.4byte	0x25
 7073 0f5b 4801     		.2byte	0x148
 7074 0f5d 1D       		.uleb128 0x1d
 7075 0f5e 3D0C0000 		.4byte	.LASF282
 7076 0f62 10       		.byte	0x10
 7077 0f63 E1       		.byte	0xe1
 7078 0f64 25000000 		.4byte	0x25
 7079 0f68 4C01     		.2byte	0x14c
ARM GAS  /tmp/cczXzW7i.s 			page 126


 7080 0f6a 1D       		.uleb128 0x1d
 7081 0f6b 41120000 		.4byte	.LASF283
 7082 0f6f 10       		.byte	0x10
 7083 0f70 E2       		.byte	0xe2
 7084 0f71 25000000 		.4byte	0x25
 7085 0f75 5001     		.2byte	0x150
 7086 0f77 1D       		.uleb128 0x1d
 7087 0f78 BE190000 		.4byte	.LASF284
 7088 0f7c 10       		.byte	0x10
 7089 0f7d E3       		.byte	0xe3
 7090 0f7e 25000000 		.4byte	0x25
 7091 0f82 5401     		.2byte	0x154
 7092 0f84 1D       		.uleb128 0x1d
 7093 0f85 EC070000 		.4byte	.LASF285
 7094 0f89 10       		.byte	0x10
 7095 0f8a E5       		.byte	0xe5
 7096 0f8b DA000000 		.4byte	0xda
 7097 0f8f 5801     		.2byte	0x158
 7098 0f91 1D       		.uleb128 0x1d
 7099 0f92 1A240000 		.4byte	.LASF286
 7100 0f96 10       		.byte	0x10
 7101 0f97 E6       		.byte	0xe6
 7102 0f98 25000000 		.4byte	0x25
 7103 0f9c 5C01     		.2byte	0x15c
 7104 0f9e 1D       		.uleb128 0x1d
 7105 0f9f B2100000 		.4byte	.LASF287
 7106 0fa3 10       		.byte	0x10
 7107 0fa4 E7       		.byte	0xe7
 7108 0fa5 25000000 		.4byte	0x25
 7109 0fa9 6001     		.2byte	0x160
 7110 0fab 1D       		.uleb128 0x1d
 7111 0fac D9280000 		.4byte	.LASF288
 7112 0fb0 10       		.byte	0x10
 7113 0fb1 E8       		.byte	0xe8
 7114 0fb2 EA000000 		.4byte	0xea
 7115 0fb6 6401     		.2byte	0x164
 7116 0fb8 1D       		.uleb128 0x1d
 7117 0fb9 C1090000 		.4byte	.LASF289
 7118 0fbd 10       		.byte	0x10
 7119 0fbe E9       		.byte	0xe9
 7120 0fbf A10A0000 		.4byte	0xaa1
 7121 0fc3 6801     		.2byte	0x168
 7122 0fc5 1D       		.uleb128 0x1d
 7123 0fc6 D3100000 		.4byte	.LASF290
 7124 0fca 10       		.byte	0x10
 7125 0fcb EA       		.byte	0xea
 7126 0fcc 2E100000 		.4byte	0x102e
 7127 0fd0 6901     		.2byte	0x169
 7128 0fd2 1D       		.uleb128 0x1d
 7129 0fd3 070C0000 		.4byte	.LASF291
 7130 0fd7 10       		.byte	0x10
 7131 0fd8 EB       		.byte	0xeb
 7132 0fd9 D20A0000 		.4byte	0xad2
 7133 0fdd 6A01     		.2byte	0x16a
 7134 0fdf 1D       		.uleb128 0x1d
 7135 0fe0 9B010000 		.4byte	.LASF292
 7136 0fe4 10       		.byte	0x10
ARM GAS  /tmp/cczXzW7i.s 			page 127


 7137 0fe5 EC       		.byte	0xec
 7138 0fe6 2C000000 		.4byte	0x2c
 7139 0fea 6C01     		.2byte	0x16c
 7140 0fec 1D       		.uleb128 0x1d
 7141 0fed DD1F0000 		.4byte	.LASF293
 7142 0ff1 10       		.byte	0x10
 7143 0ff2 ED       		.byte	0xed
 7144 0ff3 25000000 		.4byte	0x25
 7145 0ff7 7001     		.2byte	0x170
 7146 0ff9 1D       		.uleb128 0x1d
 7147 0ffa 491A0000 		.4byte	.LASF294
 7148 0ffe 10       		.byte	0x10
 7149 0fff EE       		.byte	0xee
 7150 1000 25000000 		.4byte	0x25
 7151 1004 7401     		.2byte	0x174
 7152 1006 1D       		.uleb128 0x1d
 7153 1007 B8220000 		.4byte	.LASF295
 7154 100b 10       		.byte	0x10
 7155 100c EF       		.byte	0xef
 7156 100d 25000000 		.4byte	0x25
 7157 1011 7801     		.2byte	0x178
 7158 1013 1D       		.uleb128 0x1d
 7159 1014 79060000 		.4byte	.LASF296
 7160 1018 10       		.byte	0x10
 7161 1019 F0       		.byte	0xf0
 7162 101a 25000000 		.4byte	0x25
 7163 101e 7C01     		.2byte	0x17c
 7164 1020 1D       		.uleb128 0x1d
 7165 1021 CA280000 		.4byte	.LASF297
 7166 1025 10       		.byte	0x10
 7167 1026 F1       		.byte	0xf1
 7168 1027 F3080000 		.4byte	0x8f3
 7169 102b 8001     		.2byte	0x180
 7170 102d 00       		.byte	0
 7171 102e 02       		.uleb128 0x2
 7172 102f 01       		.byte	0x1
 7173 1030 02       		.byte	0x2
 7174 1031 3A010000 		.4byte	.LASF298
 7175 1035 17       		.uleb128 0x17
 7176 1036 B9000000 		.4byte	0xb9
 7177 103a 45100000 		.4byte	0x1045
 7178 103e 18       		.uleb128 0x18
 7179 103f B2000000 		.4byte	0xb2
 7180 1043 07       		.byte	0x7
 7181 1044 00       		.byte	0
 7182 1045 17       		.uleb128 0x17
 7183 1046 C4000000 		.4byte	0xc4
 7184 104a 55100000 		.4byte	0x1055
 7185 104e 18       		.uleb128 0x18
 7186 104f B2000000 		.4byte	0xb2
 7187 1053 07       		.byte	0x7
 7188 1054 00       		.byte	0
 7189 1055 04       		.uleb128 0x4
 7190 1056 2B240000 		.4byte	.LASF299
 7191 105a 10       		.byte	0x10
 7192 105b F2       		.byte	0xf2
 7193 105c 450B0000 		.4byte	0xb45
ARM GAS  /tmp/cczXzW7i.s 			page 128


 7194 1060 05       		.uleb128 0x5
 7195 1061 55100000 		.4byte	0x1055
 7196 1065 1A       		.uleb128 0x1a
 7197 1066 07       		.byte	0x7
 7198 1067 01       		.byte	0x1
 7199 1068 55000000 		.4byte	0x55
 7200 106c 10       		.byte	0x10
 7201 106d F5       		.byte	0xf5
 7202 106e A9100000 		.4byte	0x10a9
 7203 1072 1B       		.uleb128 0x1b
 7204 1073 2B1A0000 		.4byte	.LASF300
 7205 1077 00       		.byte	0
 7206 1078 1B       		.uleb128 0x1b
 7207 1079 93010000 		.4byte	.LASF301
 7208 107d 01       		.byte	0x1
 7209 107e 1B       		.uleb128 0x1b
 7210 107f 0B1C0000 		.4byte	.LASF302
 7211 1083 02       		.byte	0x2
 7212 1084 1B       		.uleb128 0x1b
 7213 1085 121E0000 		.4byte	.LASF303
 7214 1089 03       		.byte	0x3
 7215 108a 1B       		.uleb128 0x1b
 7216 108b 571B0000 		.4byte	.LASF304
 7217 108f 04       		.byte	0x4
 7218 1090 1B       		.uleb128 0x1b
 7219 1091 401E0000 		.4byte	.LASF305
 7220 1095 05       		.byte	0x5
 7221 1096 1B       		.uleb128 0x1b
 7222 1097 790E0000 		.4byte	.LASF306
 7223 109b 06       		.byte	0x6
 7224 109c 1B       		.uleb128 0x1b
 7225 109d A9070000 		.4byte	.LASF307
 7226 10a1 07       		.byte	0x7
 7227 10a2 1B       		.uleb128 0x1b
 7228 10a3 B51D0000 		.4byte	.LASF308
 7229 10a7 08       		.byte	0x8
 7230 10a8 00       		.byte	0
 7231 10a9 04       		.uleb128 0x4
 7232 10aa 63050000 		.4byte	.LASF309
 7233 10ae 10       		.byte	0x10
 7234 10af FF       		.byte	0xff
 7235 10b0 65100000 		.4byte	0x1065
 7236 10b4 1E       		.uleb128 0x1e
 7237 10b5 07       		.byte	0x7
 7238 10b6 01       		.byte	0x1
 7239 10b7 55000000 		.4byte	0x55
 7240 10bb 10       		.byte	0x10
 7241 10bc 0201     		.2byte	0x102
 7242 10be D5100000 		.4byte	0x10d5
 7243 10c2 1B       		.uleb128 0x1b
 7244 10c3 7F140000 		.4byte	.LASF310
 7245 10c7 00       		.byte	0
 7246 10c8 1B       		.uleb128 0x1b
 7247 10c9 7D090000 		.4byte	.LASF311
 7248 10cd 01       		.byte	0x1
 7249 10ce 1B       		.uleb128 0x1b
 7250 10cf 2C230000 		.4byte	.LASF312
ARM GAS  /tmp/cczXzW7i.s 			page 129


 7251 10d3 02       		.byte	0x2
 7252 10d4 00       		.byte	0
 7253 10d5 1F       		.uleb128 0x1f
 7254 10d6 7C150000 		.4byte	.LASF313
 7255 10da 10       		.byte	0x10
 7256 10db 0601     		.2byte	0x106
 7257 10dd B4100000 		.4byte	0x10b4
 7258 10e1 1E       		.uleb128 0x1e
 7259 10e2 07       		.byte	0x7
 7260 10e3 01       		.byte	0x1
 7261 10e4 55000000 		.4byte	0x55
 7262 10e8 10       		.byte	0x10
 7263 10e9 0901     		.2byte	0x109
 7264 10eb 20110000 		.4byte	0x1120
 7265 10ef 1B       		.uleb128 0x1b
 7266 10f0 87000000 		.4byte	.LASF314
 7267 10f4 00       		.byte	0
 7268 10f5 1B       		.uleb128 0x1b
 7269 10f6 C7130000 		.4byte	.LASF315
 7270 10fa 01       		.byte	0x1
 7271 10fb 1B       		.uleb128 0x1b
 7272 10fc C9270000 		.4byte	.LASF316
 7273 1100 02       		.byte	0x2
 7274 1101 1B       		.uleb128 0x1b
 7275 1102 45170000 		.4byte	.LASF317
 7276 1106 03       		.byte	0x3
 7277 1107 1B       		.uleb128 0x1b
 7278 1108 8C220000 		.4byte	.LASF318
 7279 110c 04       		.byte	0x4
 7280 110d 1B       		.uleb128 0x1b
 7281 110e AB200000 		.4byte	.LASF319
 7282 1112 05       		.byte	0x5
 7283 1113 1B       		.uleb128 0x1b
 7284 1114 B2180000 		.4byte	.LASF320
 7285 1118 06       		.byte	0x6
 7286 1119 1B       		.uleb128 0x1b
 7287 111a 64070000 		.4byte	.LASF321
 7288 111e 07       		.byte	0x7
 7289 111f 00       		.byte	0
 7290 1120 1F       		.uleb128 0x1f
 7291 1121 370F0000 		.4byte	.LASF322
 7292 1125 10       		.byte	0x10
 7293 1126 1201     		.2byte	0x112
 7294 1128 E1100000 		.4byte	0x10e1
 7295 112c 20       		.uleb128 0x20
 7296 112d 38       		.byte	0x38
 7297 112e 10       		.byte	0x10
 7298 112f 1401     		.2byte	0x114
 7299 1131 05120000 		.4byte	0x1205
 7300 1135 0A       		.uleb128 0xa
 7301 1136 4E000000 		.4byte	.LASF323
 7302 113a 10       		.byte	0x10
 7303 113b 1501     		.2byte	0x115
 7304 113d 20110000 		.4byte	0x1120
 7305 1141 00       		.byte	0
 7306 1142 0A       		.uleb128 0xa
 7307 1143 8E250000 		.4byte	.LASF324
ARM GAS  /tmp/cczXzW7i.s 			page 130


 7308 1147 10       		.byte	0x10
 7309 1148 1601     		.2byte	0x116
 7310 114a 25000000 		.4byte	0x25
 7311 114e 04       		.byte	0x4
 7312 114f 0A       		.uleb128 0xa
 7313 1150 35010000 		.4byte	.LASF325
 7314 1154 10       		.byte	0x10
 7315 1155 1701     		.2byte	0x117
 7316 1157 25000000 		.4byte	0x25
 7317 115b 08       		.byte	0x8
 7318 115c 0A       		.uleb128 0xa
 7319 115d AA270000 		.4byte	.LASF326
 7320 1161 10       		.byte	0x10
 7321 1162 1801     		.2byte	0x118
 7322 1164 25000000 		.4byte	0x25
 7323 1168 0C       		.byte	0xc
 7324 1169 0A       		.uleb128 0xa
 7325 116a 4C0C0000 		.4byte	.LASF327
 7326 116e 10       		.byte	0x10
 7327 116f 1901     		.2byte	0x119
 7328 1171 25000000 		.4byte	0x25
 7329 1175 10       		.byte	0x10
 7330 1176 0A       		.uleb128 0xa
 7331 1177 CA140000 		.4byte	.LASF328
 7332 117b 10       		.byte	0x10
 7333 117c 1A01     		.2byte	0x11a
 7334 117e 25000000 		.4byte	0x25
 7335 1182 14       		.byte	0x14
 7336 1183 0A       		.uleb128 0xa
 7337 1184 93090000 		.4byte	.LASF329
 7338 1188 10       		.byte	0x10
 7339 1189 1B01     		.2byte	0x11b
 7340 118b 2E100000 		.4byte	0x102e
 7341 118f 18       		.byte	0x18
 7342 1190 0A       		.uleb128 0xa
 7343 1191 6B200000 		.4byte	.LASF330
 7344 1195 10       		.byte	0x10
 7345 1196 1C01     		.2byte	0x11c
 7346 1198 2E100000 		.4byte	0x102e
 7347 119c 19       		.byte	0x19
 7348 119d 0A       		.uleb128 0xa
 7349 119e A5180000 		.4byte	.LASF331
 7350 11a2 10       		.byte	0x10
 7351 11a3 1D01     		.2byte	0x11d
 7352 11a5 25000000 		.4byte	0x25
 7353 11a9 1C       		.byte	0x1c
 7354 11aa 0A       		.uleb128 0xa
 7355 11ab 021D0000 		.4byte	.LASF332
 7356 11af 10       		.byte	0x10
 7357 11b0 1E01     		.2byte	0x11e
 7358 11b2 25000000 		.4byte	0x25
 7359 11b6 20       		.byte	0x20
 7360 11b7 0A       		.uleb128 0xa
 7361 11b8 98060000 		.4byte	.LASF333
 7362 11bc 10       		.byte	0x10
 7363 11bd 1F01     		.2byte	0x11f
 7364 11bf D5100000 		.4byte	0x10d5
ARM GAS  /tmp/cczXzW7i.s 			page 131


 7365 11c3 24       		.byte	0x24
 7366 11c4 0A       		.uleb128 0xa
 7367 11c5 DF1A0000 		.4byte	.LASF334
 7368 11c9 10       		.byte	0x10
 7369 11ca 2001     		.2byte	0x120
 7370 11cc 25000000 		.4byte	0x25
 7371 11d0 28       		.byte	0x28
 7372 11d1 0A       		.uleb128 0xa
 7373 11d2 950B0000 		.4byte	.LASF335
 7374 11d6 10       		.byte	0x10
 7375 11d7 2101     		.2byte	0x121
 7376 11d9 25000000 		.4byte	0x25
 7377 11dd 2C       		.byte	0x2c
 7378 11de 0A       		.uleb128 0xa
 7379 11df 0A260000 		.4byte	.LASF336
 7380 11e3 10       		.byte	0x10
 7381 11e4 2201     		.2byte	0x122
 7382 11e6 2E100000 		.4byte	0x102e
 7383 11ea 30       		.byte	0x30
 7384 11eb 09       		.uleb128 0x9
 7385 11ec 746300   		.ascii	"tc\000"
 7386 11ef 10       		.byte	0x10
 7387 11f0 2301     		.2byte	0x123
 7388 11f2 2E100000 		.4byte	0x102e
 7389 11f6 31       		.byte	0x31
 7390 11f7 0A       		.uleb128 0xa
 7391 11f8 1D060000 		.4byte	.LASF337
 7392 11fc 10       		.byte	0x10
 7393 11fd 2401     		.2byte	0x124
 7394 11ff 25000000 		.4byte	0x25
 7395 1203 34       		.byte	0x34
 7396 1204 00       		.byte	0
 7397 1205 1F       		.uleb128 0x1f
 7398 1206 59070000 		.4byte	.LASF338
 7399 120a 10       		.byte	0x10
 7400 120b 2501     		.2byte	0x125
 7401 120d 2C110000 		.4byte	0x112c
 7402 1211 1E       		.uleb128 0x1e
 7403 1212 07       		.byte	0x7
 7404 1213 01       		.byte	0x1
 7405 1214 55000000 		.4byte	0x55
 7406 1218 10       		.byte	0x10
 7407 1219 2801     		.2byte	0x128
 7408 121b 74120000 		.4byte	0x1274
 7409 121f 1B       		.uleb128 0x1b
 7410 1220 CA1F0000 		.4byte	.LASF339
 7411 1224 00       		.byte	0
 7412 1225 1B       		.uleb128 0x1b
 7413 1226 D6240000 		.4byte	.LASF340
 7414 122a 01       		.byte	0x1
 7415 122b 1B       		.uleb128 0x1b
 7416 122c A60C0000 		.4byte	.LASF341
 7417 1230 02       		.byte	0x2
 7418 1231 1B       		.uleb128 0x1b
 7419 1232 5A0B0000 		.4byte	.LASF342
 7420 1236 03       		.byte	0x3
 7421 1237 1B       		.uleb128 0x1b
ARM GAS  /tmp/cczXzW7i.s 			page 132


 7422 1238 740C0000 		.4byte	.LASF343
 7423 123c 04       		.byte	0x4
 7424 123d 1B       		.uleb128 0x1b
 7425 123e DE110000 		.4byte	.LASF344
 7426 1242 05       		.byte	0x5
 7427 1243 1B       		.uleb128 0x1b
 7428 1244 FD020000 		.4byte	.LASF345
 7429 1248 06       		.byte	0x6
 7430 1249 1B       		.uleb128 0x1b
 7431 124a 29280000 		.4byte	.LASF346
 7432 124e 07       		.byte	0x7
 7433 124f 1B       		.uleb128 0x1b
 7434 1250 99190000 		.4byte	.LASF347
 7435 1254 08       		.byte	0x8
 7436 1255 1B       		.uleb128 0x1b
 7437 1256 190F0000 		.4byte	.LASF348
 7438 125a 09       		.byte	0x9
 7439 125b 1B       		.uleb128 0x1b
 7440 125c 82120000 		.4byte	.LASF349
 7441 1260 0A       		.byte	0xa
 7442 1261 1B       		.uleb128 0x1b
 7443 1262 DE250000 		.4byte	.LASF350
 7444 1266 0B       		.byte	0xb
 7445 1267 1B       		.uleb128 0x1b
 7446 1268 0F230000 		.4byte	.LASF351
 7447 126c 0C       		.byte	0xc
 7448 126d 1B       		.uleb128 0x1b
 7449 126e D7140000 		.4byte	.LASF352
 7450 1272 0D       		.byte	0xd
 7451 1273 00       		.byte	0
 7452 1274 1F       		.uleb128 0x1f
 7453 1275 8C1C0000 		.4byte	.LASF353
 7454 1279 10       		.byte	0x10
 7455 127a 3701     		.2byte	0x137
 7456 127c 11120000 		.4byte	0x1211
 7457 1280 20       		.uleb128 0x20
 7458 1281 44       		.byte	0x44
 7459 1282 10       		.byte	0x10
 7460 1283 3901     		.2byte	0x139
 7461 1285 A7130000 		.4byte	0x13a7
 7462 1289 0A       		.uleb128 0xa
 7463 128a 4E000000 		.4byte	.LASF323
 7464 128e 10       		.byte	0x10
 7465 128f 3A01     		.2byte	0x13a
 7466 1291 74120000 		.4byte	0x1274
 7467 1295 00       		.byte	0
 7468 1296 0A       		.uleb128 0xa
 7469 1297 35010000 		.4byte	.LASF325
 7470 129b 10       		.byte	0x10
 7471 129c 3B01     		.2byte	0x13b
 7472 129e 25000000 		.4byte	0x25
 7473 12a2 04       		.byte	0x4
 7474 12a3 0A       		.uleb128 0xa
 7475 12a4 84070000 		.4byte	.LASF354
 7476 12a8 10       		.byte	0x10
 7477 12a9 3C01     		.2byte	0x13c
 7478 12ab 25000000 		.4byte	0x25
ARM GAS  /tmp/cczXzW7i.s 			page 133


 7479 12af 08       		.byte	0x8
 7480 12b0 0A       		.uleb128 0xa
 7481 12b1 951A0000 		.4byte	.LASF355
 7482 12b5 10       		.byte	0x10
 7483 12b6 3D01     		.2byte	0x13d
 7484 12b8 25000000 		.4byte	0x25
 7485 12bc 0C       		.byte	0xc
 7486 12bd 0A       		.uleb128 0xa
 7487 12be 8B200000 		.4byte	.LASF356
 7488 12c2 10       		.byte	0x10
 7489 12c3 3E01     		.2byte	0x13e
 7490 12c5 25000000 		.4byte	0x25
 7491 12c9 10       		.byte	0x10
 7492 12ca 0A       		.uleb128 0xa
 7493 12cb E9060000 		.4byte	.LASF357
 7494 12cf 10       		.byte	0x10
 7495 12d0 3F01     		.2byte	0x13f
 7496 12d2 25000000 		.4byte	0x25
 7497 12d6 14       		.byte	0x14
 7498 12d7 0A       		.uleb128 0xa
 7499 12d8 8C190000 		.4byte	.LASF358
 7500 12dc 10       		.byte	0x10
 7501 12dd 4001     		.2byte	0x140
 7502 12df 25000000 		.4byte	0x25
 7503 12e3 18       		.byte	0x18
 7504 12e4 0A       		.uleb128 0xa
 7505 12e5 01240000 		.4byte	.LASF359
 7506 12e9 10       		.byte	0x10
 7507 12ea 4101     		.2byte	0x141
 7508 12ec 2E100000 		.4byte	0x102e
 7509 12f0 1C       		.byte	0x1c
 7510 12f1 0A       		.uleb128 0xa
 7511 12f2 6B200000 		.4byte	.LASF330
 7512 12f6 10       		.byte	0x10
 7513 12f7 4201     		.2byte	0x142
 7514 12f9 2E100000 		.4byte	0x102e
 7515 12fd 1D       		.byte	0x1d
 7516 12fe 0A       		.uleb128 0xa
 7517 12ff 80010000 		.4byte	.LASF360
 7518 1303 10       		.byte	0x10
 7519 1304 4301     		.2byte	0x143
 7520 1306 2E100000 		.4byte	0x102e
 7521 130a 1E       		.byte	0x1e
 7522 130b 0A       		.uleb128 0xa
 7523 130c A01E0000 		.4byte	.LASF361
 7524 1310 10       		.byte	0x10
 7525 1311 4401     		.2byte	0x144
 7526 1313 2E100000 		.4byte	0x102e
 7527 1317 1F       		.byte	0x1f
 7528 1318 0A       		.uleb128 0xa
 7529 1319 B5010000 		.4byte	.LASF362
 7530 131d 10       		.byte	0x10
 7531 131e 4501     		.2byte	0x145
 7532 1320 2E100000 		.4byte	0x102e
 7533 1324 20       		.byte	0x20
 7534 1325 0A       		.uleb128 0xa
 7535 1326 D4090000 		.4byte	.LASF363
ARM GAS  /tmp/cczXzW7i.s 			page 134


 7536 132a 10       		.byte	0x10
 7537 132b 4601     		.2byte	0x146
 7538 132d 2E100000 		.4byte	0x102e
 7539 1331 21       		.byte	0x21
 7540 1332 0A       		.uleb128 0xa
 7541 1333 A5180000 		.4byte	.LASF331
 7542 1337 10       		.byte	0x10
 7543 1338 4701     		.2byte	0x147
 7544 133a 25000000 		.4byte	0x25
 7545 133e 24       		.byte	0x24
 7546 133f 0A       		.uleb128 0xa
 7547 1340 021D0000 		.4byte	.LASF332
 7548 1344 10       		.byte	0x10
 7549 1345 4801     		.2byte	0x148
 7550 1347 25000000 		.4byte	0x25
 7551 134b 28       		.byte	0x28
 7552 134c 0A       		.uleb128 0xa
 7553 134d 98060000 		.4byte	.LASF333
 7554 1351 10       		.byte	0x10
 7555 1352 4901     		.2byte	0x149
 7556 1354 D5100000 		.4byte	0x10d5
 7557 1358 2C       		.byte	0x2c
 7558 1359 0A       		.uleb128 0xa
 7559 135a DF1A0000 		.4byte	.LASF334
 7560 135e 10       		.byte	0x10
 7561 135f 4A01     		.2byte	0x14a
 7562 1361 25000000 		.4byte	0x25
 7563 1365 30       		.byte	0x30
 7564 1366 0A       		.uleb128 0xa
 7565 1367 950B0000 		.4byte	.LASF335
 7566 136b 10       		.byte	0x10
 7567 136c 4B01     		.2byte	0x14b
 7568 136e 25000000 		.4byte	0x25
 7569 1372 34       		.byte	0x34
 7570 1373 0A       		.uleb128 0xa
 7571 1374 0A260000 		.4byte	.LASF336
 7572 1378 10       		.byte	0x10
 7573 1379 4C01     		.2byte	0x14c
 7574 137b 2E100000 		.4byte	0x102e
 7575 137f 38       		.byte	0x38
 7576 1380 09       		.uleb128 0x9
 7577 1381 746300   		.ascii	"tc\000"
 7578 1384 10       		.byte	0x10
 7579 1385 4D01     		.2byte	0x14d
 7580 1387 2E100000 		.4byte	0x102e
 7581 138b 39       		.byte	0x39
 7582 138c 0A       		.uleb128 0xa
 7583 138d 1D060000 		.4byte	.LASF337
 7584 1391 10       		.byte	0x10
 7585 1392 4E01     		.2byte	0x14e
 7586 1394 25000000 		.4byte	0x25
 7587 1398 3C       		.byte	0x3c
 7588 1399 0A       		.uleb128 0xa
 7589 139a F3090000 		.4byte	.LASF364
 7590 139e 10       		.byte	0x10
 7591 139f 4F01     		.2byte	0x14f
 7592 13a1 EA000000 		.4byte	0xea
ARM GAS  /tmp/cczXzW7i.s 			page 135


 7593 13a5 40       		.byte	0x40
 7594 13a6 00       		.byte	0
 7595 13a7 1F       		.uleb128 0x1f
 7596 13a8 CE070000 		.4byte	.LASF365
 7597 13ac 10       		.byte	0x10
 7598 13ad 5001     		.2byte	0x150
 7599 13af 80120000 		.4byte	0x1280
 7600 13b3 1E       		.uleb128 0x1e
 7601 13b4 07       		.byte	0x7
 7602 13b5 01       		.byte	0x1
 7603 13b6 55000000 		.4byte	0x55
 7604 13ba 10       		.byte	0x10
 7605 13bb 5301     		.2byte	0x153
 7606 13bd D4130000 		.4byte	0x13d4
 7607 13c1 1B       		.uleb128 0x1b
 7608 13c2 8F170000 		.4byte	.LASF366
 7609 13c6 00       		.byte	0
 7610 13c7 1B       		.uleb128 0x1b
 7611 13c8 0B000000 		.4byte	.LASF367
 7612 13cc 01       		.byte	0x1
 7613 13cd 1B       		.uleb128 0x1b
 7614 13ce 72170000 		.4byte	.LASF368
 7615 13d2 02       		.byte	0x2
 7616 13d3 00       		.byte	0
 7617 13d4 1F       		.uleb128 0x1f
 7618 13d5 F4170000 		.4byte	.LASF369
 7619 13d9 10       		.byte	0x10
 7620 13da 5701     		.2byte	0x157
 7621 13dc B3130000 		.4byte	0x13b3
 7622 13e0 20       		.uleb128 0x20
 7623 13e1 24       		.byte	0x24
 7624 13e2 10       		.byte	0x10
 7625 13e3 5901     		.2byte	0x159
 7626 13e5 78140000 		.4byte	0x1478
 7627 13e9 0A       		.uleb128 0xa
 7628 13ea 4E000000 		.4byte	.LASF323
 7629 13ee 10       		.byte	0x10
 7630 13ef 5A01     		.2byte	0x15a
 7631 13f1 D4130000 		.4byte	0x13d4
 7632 13f5 00       		.byte	0
 7633 13f6 0A       		.uleb128 0xa
 7634 13f7 35010000 		.4byte	.LASF325
 7635 13fb 10       		.byte	0x10
 7636 13fc 5B01     		.2byte	0x15b
 7637 13fe 25000000 		.4byte	0x25
 7638 1402 04       		.byte	0x4
 7639 1403 0A       		.uleb128 0xa
 7640 1404 DF1A0000 		.4byte	.LASF334
 7641 1408 10       		.byte	0x10
 7642 1409 5C01     		.2byte	0x15c
 7643 140b 25000000 		.4byte	0x25
 7644 140f 08       		.byte	0x8
 7645 1410 0A       		.uleb128 0xa
 7646 1411 950B0000 		.4byte	.LASF335
 7647 1415 10       		.byte	0x10
 7648 1416 5D01     		.2byte	0x15d
 7649 1418 25000000 		.4byte	0x25
ARM GAS  /tmp/cczXzW7i.s 			page 136


 7650 141c 0C       		.byte	0xc
 7651 141d 0A       		.uleb128 0xa
 7652 141e 4F0A0000 		.4byte	.LASF370
 7653 1422 10       		.byte	0x10
 7654 1423 5E01     		.2byte	0x15e
 7655 1425 25000000 		.4byte	0x25
 7656 1429 10       		.byte	0x10
 7657 142a 0A       		.uleb128 0xa
 7658 142b A5180000 		.4byte	.LASF331
 7659 142f 10       		.byte	0x10
 7660 1430 5F01     		.2byte	0x15f
 7661 1432 25000000 		.4byte	0x25
 7662 1436 14       		.byte	0x14
 7663 1437 0A       		.uleb128 0xa
 7664 1438 021D0000 		.4byte	.LASF332
 7665 143c 10       		.byte	0x10
 7666 143d 6001     		.2byte	0x160
 7667 143f 25000000 		.4byte	0x25
 7668 1443 18       		.byte	0x18
 7669 1444 0A       		.uleb128 0xa
 7670 1445 98060000 		.4byte	.LASF333
 7671 1449 10       		.byte	0x10
 7672 144a 6101     		.2byte	0x161
 7673 144c D5100000 		.4byte	0x10d5
 7674 1450 1C       		.byte	0x1c
 7675 1451 0A       		.uleb128 0xa
 7676 1452 0A260000 		.4byte	.LASF336
 7677 1456 10       		.byte	0x10
 7678 1457 6201     		.2byte	0x162
 7679 1459 2E100000 		.4byte	0x102e
 7680 145d 1D       		.byte	0x1d
 7681 145e 09       		.uleb128 0x9
 7682 145f 746300   		.ascii	"tc\000"
 7683 1462 10       		.byte	0x10
 7684 1463 6301     		.2byte	0x163
 7685 1465 2E100000 		.4byte	0x102e
 7686 1469 1E       		.byte	0x1e
 7687 146a 0A       		.uleb128 0xa
 7688 146b 1D060000 		.4byte	.LASF337
 7689 146f 10       		.byte	0x10
 7690 1470 6401     		.2byte	0x164
 7691 1472 25000000 		.4byte	0x25
 7692 1476 20       		.byte	0x20
 7693 1477 00       		.byte	0
 7694 1478 1F       		.uleb128 0x1f
 7695 1479 B51F0000 		.4byte	.LASF371
 7696 147d 10       		.byte	0x10
 7697 147e 6501     		.2byte	0x165
 7698 1480 E0130000 		.4byte	0x13e0
 7699 1484 1E       		.uleb128 0x1e
 7700 1485 07       		.byte	0x7
 7701 1486 01       		.byte	0x1
 7702 1487 55000000 		.4byte	0x55
 7703 148b 10       		.byte	0x10
 7704 148c 6801     		.2byte	0x168
 7705 148e A5140000 		.4byte	0x14a5
 7706 1492 1B       		.uleb128 0x1b
ARM GAS  /tmp/cczXzW7i.s 			page 137


 7707 1493 0D170000 		.4byte	.LASF372
 7708 1497 00       		.byte	0
 7709 1498 1B       		.uleb128 0x1b
 7710 1499 301D0000 		.4byte	.LASF373
 7711 149d 01       		.byte	0x1
 7712 149e 1B       		.uleb128 0x1b
 7713 149f EC190000 		.4byte	.LASF374
 7714 14a3 02       		.byte	0x2
 7715 14a4 00       		.byte	0
 7716 14a5 1F       		.uleb128 0x1f
 7717 14a6 8B0B0000 		.4byte	.LASF375
 7718 14aa 10       		.byte	0x10
 7719 14ab 6C01     		.2byte	0x16c
 7720 14ad 84140000 		.4byte	0x1484
 7721 14b1 1E       		.uleb128 0x1e
 7722 14b2 07       		.byte	0x7
 7723 14b3 01       		.byte	0x1
 7724 14b4 55000000 		.4byte	0x55
 7725 14b8 10       		.byte	0x10
 7726 14b9 6E01     		.2byte	0x16e
 7727 14bb DE140000 		.4byte	0x14de
 7728 14bf 1B       		.uleb128 0x1b
 7729 14c0 17020000 		.4byte	.LASF376
 7730 14c4 00       		.byte	0
 7731 14c5 1B       		.uleb128 0x1b
 7732 14c6 38060000 		.4byte	.LASF377
 7733 14ca 01       		.byte	0x1
 7734 14cb 1B       		.uleb128 0x1b
 7735 14cc 30090000 		.4byte	.LASF378
 7736 14d0 02       		.byte	0x2
 7737 14d1 1B       		.uleb128 0x1b
 7738 14d2 5E030000 		.4byte	.LASF379
 7739 14d6 03       		.byte	0x3
 7740 14d7 1B       		.uleb128 0x1b
 7741 14d8 2A100000 		.4byte	.LASF380
 7742 14dc 04       		.byte	0x4
 7743 14dd 00       		.byte	0
 7744 14de 1F       		.uleb128 0x1f
 7745 14df 2F190000 		.4byte	.LASF381
 7746 14e3 10       		.byte	0x10
 7747 14e4 7401     		.2byte	0x174
 7748 14e6 B1140000 		.4byte	0x14b1
 7749 14ea 1E       		.uleb128 0x1e
 7750 14eb 07       		.byte	0x7
 7751 14ec 01       		.byte	0x1
 7752 14ed 55000000 		.4byte	0x55
 7753 14f1 10       		.byte	0x10
 7754 14f2 7C01     		.2byte	0x17c
 7755 14f4 0B150000 		.4byte	0x150b
 7756 14f8 1B       		.uleb128 0x1b
 7757 14f9 0B1A0000 		.4byte	.LASF382
 7758 14fd 00       		.byte	0
 7759 14fe 1B       		.uleb128 0x1b
 7760 14ff F7240000 		.4byte	.LASF383
 7761 1503 01       		.byte	0x1
 7762 1504 1B       		.uleb128 0x1b
 7763 1505 3F260000 		.4byte	.LASF384
ARM GAS  /tmp/cczXzW7i.s 			page 138


 7764 1509 02       		.byte	0x2
 7765 150a 00       		.byte	0
 7766 150b 1F       		.uleb128 0x1f
 7767 150c D1060000 		.4byte	.LASF385
 7768 1510 10       		.byte	0x10
 7769 1511 8001     		.2byte	0x180
 7770 1513 EA140000 		.4byte	0x14ea
 7771 1517 1E       		.uleb128 0x1e
 7772 1518 07       		.byte	0x7
 7773 1519 01       		.byte	0x1
 7774 151a 55000000 		.4byte	0x55
 7775 151e 10       		.byte	0x10
 7776 151f 8201     		.2byte	0x182
 7777 1521 86150000 		.4byte	0x1586
 7778 1525 1B       		.uleb128 0x1b
 7779 1526 2B160000 		.4byte	.LASF386
 7780 152a 00       		.byte	0
 7781 152b 1B       		.uleb128 0x1b
 7782 152c 49030000 		.4byte	.LASF387
 7783 1530 01       		.byte	0x1
 7784 1531 1B       		.uleb128 0x1b
 7785 1532 DC000000 		.4byte	.LASF388
 7786 1536 02       		.byte	0x2
 7787 1537 1B       		.uleb128 0x1b
 7788 1538 B6230000 		.4byte	.LASF389
 7789 153c 03       		.byte	0x3
 7790 153d 1B       		.uleb128 0x1b
 7791 153e 4A260000 		.4byte	.LASF390
 7792 1542 04       		.byte	0x4
 7793 1543 1B       		.uleb128 0x1b
 7794 1544 49120000 		.4byte	.LASF391
 7795 1548 05       		.byte	0x5
 7796 1549 1B       		.uleb128 0x1b
 7797 154a B1130000 		.4byte	.LASF392
 7798 154e 06       		.byte	0x6
 7799 154f 1B       		.uleb128 0x1b
 7800 1550 F9220000 		.4byte	.LASF393
 7801 1554 07       		.byte	0x7
 7802 1555 1B       		.uleb128 0x1b
 7803 1556 3C250000 		.4byte	.LASF394
 7804 155a 08       		.byte	0x8
 7805 155b 1B       		.uleb128 0x1b
 7806 155c AE0F0000 		.4byte	.LASF395
 7807 1560 09       		.byte	0x9
 7808 1561 1B       		.uleb128 0x1b
 7809 1562 40130000 		.4byte	.LASF396
 7810 1566 0A       		.byte	0xa
 7811 1567 1B       		.uleb128 0x1b
 7812 1568 30220000 		.4byte	.LASF397
 7813 156c 0B       		.byte	0xb
 7814 156d 1B       		.uleb128 0x1b
 7815 156e 4A240000 		.4byte	.LASF398
 7816 1572 0C       		.byte	0xc
 7817 1573 1B       		.uleb128 0x1b
 7818 1574 78110000 		.4byte	.LASF399
 7819 1578 0D       		.byte	0xd
 7820 1579 1B       		.uleb128 0x1b
ARM GAS  /tmp/cczXzW7i.s 			page 139


 7821 157a 2D1B0000 		.4byte	.LASF400
 7822 157e 0E       		.byte	0xe
 7823 157f 1B       		.uleb128 0x1b
 7824 1580 860A0000 		.4byte	.LASF401
 7825 1584 0F       		.byte	0xf
 7826 1585 00       		.byte	0
 7827 1586 1F       		.uleb128 0x1f
 7828 1587 49040000 		.4byte	.LASF402
 7829 158b 10       		.byte	0x10
 7830 158c 9301     		.2byte	0x193
 7831 158e 17150000 		.4byte	0x1517
 7832 1592 20       		.uleb128 0x20
 7833 1593 0A       		.byte	0xa
 7834 1594 10       		.byte	0x10
 7835 1595 9501     		.2byte	0x195
 7836 1597 04160000 		.4byte	0x1604
 7837 159b 0A       		.uleb128 0xa
 7838 159c 471F0000 		.4byte	.LASF403
 7839 15a0 10       		.byte	0x10
 7840 15a1 9601     		.2byte	0x196
 7841 15a3 A5140000 		.4byte	0x14a5
 7842 15a7 00       		.byte	0
 7843 15a8 0A       		.uleb128 0xa
 7844 15a9 251A0000 		.4byte	.LASF404
 7845 15ad 10       		.byte	0x10
 7846 15ae 9701     		.2byte	0x197
 7847 15b0 DE140000 		.4byte	0x14de
 7848 15b4 01       		.byte	0x1
 7849 15b5 0A       		.uleb128 0xa
 7850 15b6 C9170000 		.4byte	.LASF405
 7851 15ba 10       		.byte	0x10
 7852 15bb 9801     		.2byte	0x198
 7853 15bd 0B150000 		.4byte	0x150b
 7854 15c1 02       		.byte	0x2
 7855 15c2 0A       		.uleb128 0xa
 7856 15c3 F0250000 		.4byte	.LASF406
 7857 15c7 10       		.byte	0x10
 7858 15c8 9901     		.2byte	0x199
 7859 15ca 86150000 		.4byte	0x1586
 7860 15ce 03       		.byte	0x3
 7861 15cf 0A       		.uleb128 0xa
 7862 15d0 ED020000 		.4byte	.LASF407
 7863 15d4 10       		.byte	0x10
 7864 15d5 9A01     		.2byte	0x19a
 7865 15d7 55000000 		.4byte	0x55
 7866 15db 04       		.byte	0x4
 7867 15dc 0A       		.uleb128 0xa
 7868 15dd 39120000 		.4byte	.LASF408
 7869 15e1 10       		.byte	0x10
 7870 15e2 9B01     		.2byte	0x19b
 7871 15e4 55000000 		.4byte	0x55
 7872 15e8 05       		.byte	0x5
 7873 15e9 0A       		.uleb128 0xa
 7874 15ea AC110000 		.4byte	.LASF409
 7875 15ee 10       		.byte	0x10
 7876 15ef 9C01     		.2byte	0x19c
 7877 15f1 04160000 		.4byte	0x1604
ARM GAS  /tmp/cczXzW7i.s 			page 140


 7878 15f5 06       		.byte	0x6
 7879 15f6 0A       		.uleb128 0xa
 7880 15f7 C30E0000 		.4byte	.LASF410
 7881 15fb 10       		.byte	0x10
 7882 15fc 9D01     		.2byte	0x19d
 7883 15fe 2E100000 		.4byte	0x102e
 7884 1602 09       		.byte	0x9
 7885 1603 00       		.byte	0
 7886 1604 17       		.uleb128 0x17
 7887 1605 55000000 		.4byte	0x55
 7888 1609 14160000 		.4byte	0x1614
 7889 160d 18       		.uleb128 0x18
 7890 160e B2000000 		.4byte	0xb2
 7891 1612 02       		.byte	0x2
 7892 1613 00       		.byte	0
 7893 1614 1F       		.uleb128 0x1f
 7894 1615 25090000 		.4byte	.LASF411
 7895 1619 10       		.byte	0x10
 7896 161a 9E01     		.2byte	0x19e
 7897 161c 92150000 		.4byte	0x1592
 7898 1620 20       		.uleb128 0x20
 7899 1621 C8       		.byte	0xc8
 7900 1622 10       		.byte	0x10
 7901 1623 A001     		.2byte	0x1a0
 7902 1625 C6160000 		.4byte	0x16c6
 7903 1629 0A       		.uleb128 0xa
 7904 162a 5B270000 		.4byte	.LASF412
 7905 162e 10       		.byte	0x10
 7906 162f A201     		.2byte	0x1a2
 7907 1631 C4000000 		.4byte	0xc4
 7908 1635 00       		.byte	0
 7909 1636 0A       		.uleb128 0xa
 7910 1637 010D0000 		.4byte	.LASF413
 7911 163b 10       		.byte	0x10
 7912 163c A301     		.2byte	0x1a3
 7913 163e EA000000 		.4byte	0xea
 7914 1642 04       		.byte	0x4
 7915 1643 0A       		.uleb128 0xa
 7916 1644 41140000 		.4byte	.LASF414
 7917 1648 10       		.byte	0x10
 7918 1649 A401     		.2byte	0x1a4
 7919 164b 25000000 		.4byte	0x25
 7920 164f 08       		.byte	0x8
 7921 1650 0A       		.uleb128 0xa
 7922 1651 160D0000 		.4byte	.LASF415
 7923 1655 10       		.byte	0x10
 7924 1656 A501     		.2byte	0x1a5
 7925 1658 2E100000 		.4byte	0x102e
 7926 165c 0C       		.byte	0xc
 7927 165d 0A       		.uleb128 0xa
 7928 165e 8F260000 		.4byte	.LASF416
 7929 1662 10       		.byte	0x10
 7930 1663 A601     		.2byte	0x1a6
 7931 1665 EA000000 		.4byte	0xea
 7932 1669 10       		.byte	0x10
 7933 166a 0A       		.uleb128 0xa
 7934 166b FC250000 		.4byte	.LASF417
ARM GAS  /tmp/cczXzW7i.s 			page 141


 7935 166f 10       		.byte	0x10
 7936 1670 A701     		.2byte	0x1a7
 7937 1672 3A0B0000 		.4byte	0xb3a
 7938 1676 14       		.byte	0x14
 7939 1677 0A       		.uleb128 0xa
 7940 1678 2D150000 		.4byte	.LASF418
 7941 167c 10       		.byte	0x10
 7942 167d AA01     		.2byte	0x1aa
 7943 167f A9100000 		.4byte	0x10a9
 7944 1683 15       		.byte	0x15
 7945 1684 0A       		.uleb128 0xa
 7946 1685 BA150000 		.4byte	.LASF419
 7947 1689 10       		.byte	0x10
 7948 168a AD01     		.2byte	0x1ad
 7949 168c 05120000 		.4byte	0x1205
 7950 1690 18       		.byte	0x18
 7951 1691 0A       		.uleb128 0xa
 7952 1692 75160000 		.4byte	.LASF420
 7953 1696 10       		.byte	0x10
 7954 1697 B001     		.2byte	0x1b0
 7955 1699 A7130000 		.4byte	0x13a7
 7956 169d 50       		.byte	0x50
 7957 169e 0A       		.uleb128 0xa
 7958 169f A9040000 		.4byte	.LASF421
 7959 16a3 10       		.byte	0x10
 7960 16a4 B301     		.2byte	0x1b3
 7961 16a6 EA000000 		.4byte	0xea
 7962 16aa 94       		.byte	0x94
 7963 16ab 0A       		.uleb128 0xa
 7964 16ac DD130000 		.4byte	.LASF422
 7965 16b0 10       		.byte	0x10
 7966 16b1 B601     		.2byte	0x1b6
 7967 16b3 78140000 		.4byte	0x1478
 7968 16b7 98       		.byte	0x98
 7969 16b8 0A       		.uleb128 0xa
 7970 16b9 10060000 		.4byte	.LASF423
 7971 16bd 10       		.byte	0x10
 7972 16be B901     		.2byte	0x1b9
 7973 16c0 14160000 		.4byte	0x1614
 7974 16c4 BC       		.byte	0xbc
 7975 16c5 00       		.byte	0
 7976 16c6 1F       		.uleb128 0x1f
 7977 16c7 D71C0000 		.4byte	.LASF424
 7978 16cb 10       		.byte	0x10
 7979 16cc BA01     		.2byte	0x1ba
 7980 16ce 20160000 		.4byte	0x1620
 7981 16d2 05       		.uleb128 0x5
 7982 16d3 C6160000 		.4byte	0x16c6
 7983 16d7 1E       		.uleb128 0x1e
 7984 16d8 07       		.byte	0x7
 7985 16d9 01       		.byte	0x1
 7986 16da 55000000 		.4byte	0x55
 7987 16de 10       		.byte	0x10
 7988 16df BD01     		.2byte	0x1bd
 7989 16e1 CA170000 		.4byte	0x17ca
 7990 16e5 1B       		.uleb128 0x1b
 7991 16e6 A0000000 		.4byte	.LASF425
ARM GAS  /tmp/cczXzW7i.s 			page 142


 7992 16ea 00       		.byte	0
 7993 16eb 1B       		.uleb128 0x1b
 7994 16ec 68180000 		.4byte	.LASF426
 7995 16f0 01       		.byte	0x1
 7996 16f1 1B       		.uleb128 0x1b
 7997 16f2 D90B0000 		.4byte	.LASF427
 7998 16f6 02       		.byte	0x2
 7999 16f7 1B       		.uleb128 0x1b
 8000 16f8 C10B0000 		.4byte	.LASF428
 8001 16fc 03       		.byte	0x3
 8002 16fd 1B       		.uleb128 0x1b
 8003 16fe 581C0000 		.4byte	.LASF429
 8004 1702 04       		.byte	0x4
 8005 1703 1B       		.uleb128 0x1b
 8006 1704 480F0000 		.4byte	.LASF430
 8007 1708 05       		.byte	0x5
 8008 1709 1B       		.uleb128 0x1b
 8009 170a 6E140000 		.4byte	.LASF431
 8010 170e 06       		.byte	0x6
 8011 170f 1B       		.uleb128 0x1b
 8012 1710 DC210000 		.4byte	.LASF432
 8013 1714 07       		.byte	0x7
 8014 1715 1B       		.uleb128 0x1b
 8015 1716 23220000 		.4byte	.LASF433
 8016 171a 08       		.byte	0x8
 8017 171b 1B       		.uleb128 0x1b
 8018 171c 45190000 		.4byte	.LASF434
 8019 1720 09       		.byte	0x9
 8020 1721 1B       		.uleb128 0x1b
 8021 1722 16190000 		.4byte	.LASF435
 8022 1726 0A       		.byte	0xa
 8023 1727 1B       		.uleb128 0x1b
 8024 1728 58180000 		.4byte	.LASF436
 8025 172c 0B       		.byte	0xb
 8026 172d 1B       		.uleb128 0x1b
 8027 172e 1C140000 		.4byte	.LASF437
 8028 1732 0C       		.byte	0xc
 8029 1733 1B       		.uleb128 0x1b
 8030 1734 0C220000 		.4byte	.LASF438
 8031 1738 0D       		.byte	0xd
 8032 1739 1B       		.uleb128 0x1b
 8033 173a CA0F0000 		.4byte	.LASF439
 8034 173e 0E       		.byte	0xe
 8035 173f 1B       		.uleb128 0x1b
 8036 1740 401C0000 		.4byte	.LASF440
 8037 1744 0F       		.byte	0xf
 8038 1745 1B       		.uleb128 0x1b
 8039 1746 9A200000 		.4byte	.LASF441
 8040 174a 10       		.byte	0x10
 8041 174b 1B       		.uleb128 0x1b
 8042 174c B91E0000 		.4byte	.LASF442
 8043 1750 11       		.byte	0x11
 8044 1751 1B       		.uleb128 0x1b
 8045 1752 52250000 		.4byte	.LASF443
 8046 1756 12       		.byte	0x12
 8047 1757 1B       		.uleb128 0x1b
 8048 1758 BC070000 		.4byte	.LASF444
ARM GAS  /tmp/cczXzW7i.s 			page 143


 8049 175c 13       		.byte	0x13
 8050 175d 1B       		.uleb128 0x1b
 8051 175e C4240000 		.4byte	.LASF445
 8052 1762 14       		.byte	0x14
 8053 1763 1B       		.uleb128 0x1b
 8054 1764 CC1C0000 		.4byte	.LASF446
 8055 1768 15       		.byte	0x15
 8056 1769 1B       		.uleb128 0x1b
 8057 176a CC230000 		.4byte	.LASF447
 8058 176e 16       		.byte	0x16
 8059 176f 1B       		.uleb128 0x1b
 8060 1770 31110000 		.4byte	.LASF448
 8061 1774 17       		.byte	0x17
 8062 1775 1B       		.uleb128 0x1b
 8063 1776 E4200000 		.4byte	.LASF449
 8064 177a 18       		.byte	0x18
 8065 177b 1B       		.uleb128 0x1b
 8066 177c C91D0000 		.4byte	.LASF450
 8067 1780 19       		.byte	0x19
 8068 1781 1B       		.uleb128 0x1b
 8069 1782 410D0000 		.4byte	.LASF451
 8070 1786 1A       		.byte	0x1a
 8071 1787 1B       		.uleb128 0x1b
 8072 1788 2C1C0000 		.4byte	.LASF452
 8073 178c 1B       		.byte	0x1b
 8074 178d 1B       		.uleb128 0x1b
 8075 178e B0000000 		.4byte	.LASF453
 8076 1792 1C       		.byte	0x1c
 8077 1793 1B       		.uleb128 0x1b
 8078 1794 9E050000 		.4byte	.LASF454
 8079 1798 1D       		.byte	0x1d
 8080 1799 1B       		.uleb128 0x1b
 8081 179a 0C0A0000 		.4byte	.LASF455
 8082 179e 1E       		.byte	0x1e
 8083 179f 1B       		.uleb128 0x1b
 8084 17a0 15100000 		.4byte	.LASF456
 8085 17a4 1F       		.byte	0x1f
 8086 17a5 1B       		.uleb128 0x1b
 8087 17a6 76200000 		.4byte	.LASF457
 8088 17aa 20       		.byte	0x20
 8089 17ab 1B       		.uleb128 0x1b
 8090 17ac F8180000 		.4byte	.LASF458
 8091 17b0 21       		.byte	0x21
 8092 17b1 1B       		.uleb128 0x1b
 8093 17b2 FB100000 		.4byte	.LASF459
 8094 17b6 22       		.byte	0x22
 8095 17b7 1B       		.uleb128 0x1b
 8096 17b8 4D1E0000 		.4byte	.LASF460
 8097 17bc 23       		.byte	0x23
 8098 17bd 1B       		.uleb128 0x1b
 8099 17be A1230000 		.4byte	.LASF461
 8100 17c2 24       		.byte	0x24
 8101 17c3 1B       		.uleb128 0x1b
 8102 17c4 EC1E0000 		.4byte	.LASF462
 8103 17c8 25       		.byte	0x25
 8104 17c9 00       		.byte	0
 8105 17ca 04       		.uleb128 0x4
ARM GAS  /tmp/cczXzW7i.s 			page 144


 8106 17cb 7C070000 		.4byte	.LASF463
 8107 17cf 11       		.byte	0x11
 8108 17d0 22       		.byte	0x22
 8109 17d1 D5170000 		.4byte	0x17d5
 8110 17d5 0B       		.uleb128 0xb
 8111 17d6 04       		.byte	0x4
 8112 17d7 DB170000 		.4byte	0x17db
 8113 17db 21       		.uleb128 0x21
 8114 17dc CA050000 		.4byte	.LASF569
 8115 17e0 04       		.uleb128 0x4
 8116 17e1 9F0C0000 		.4byte	.LASF464
 8117 17e5 12       		.byte	0x12
 8118 17e6 2C       		.byte	0x2c
 8119 17e7 80000000 		.4byte	0x80
 8120 17eb 04       		.uleb128 0x4
 8121 17ec 0A1E0000 		.4byte	.LASF465
 8122 17f0 12       		.byte	0x12
 8123 17f1 72       		.byte	0x72
 8124 17f2 80000000 		.4byte	0x80
 8125 17f6 1F       		.uleb128 0x1f
 8126 17f7 DA0F0000 		.4byte	.LASF466
 8127 17fb 04       		.byte	0x4
 8128 17fc 6501     		.2byte	0x165
 8129 17fe B2000000 		.4byte	0xb2
 8130 1802 15       		.uleb128 0x15
 8131 1803 04       		.byte	0x4
 8132 1804 12       		.byte	0x12
 8133 1805 A6       		.byte	0xa6
 8134 1806 21180000 		.4byte	0x1821
 8135 180a 22       		.uleb128 0x22
 8136 180b 07170000 		.4byte	.LASF467
 8137 180f 12       		.byte	0x12
 8138 1810 A8       		.byte	0xa8
 8139 1811 F6170000 		.4byte	0x17f6
 8140 1815 22       		.uleb128 0x22
 8141 1816 560F0000 		.4byte	.LASF468
 8142 181a 12       		.byte	0x12
 8143 181b A9       		.byte	0xa9
 8144 181c 21180000 		.4byte	0x1821
 8145 1820 00       		.byte	0
 8146 1821 17       		.uleb128 0x17
 8147 1822 55000000 		.4byte	0x55
 8148 1826 31180000 		.4byte	0x1831
 8149 182a 18       		.uleb128 0x18
 8150 182b B2000000 		.4byte	0xb2
 8151 182f 03       		.byte	0x3
 8152 1830 00       		.byte	0
 8153 1831 14       		.uleb128 0x14
 8154 1832 08       		.byte	0x8
 8155 1833 12       		.byte	0x12
 8156 1834 A3       		.byte	0xa3
 8157 1835 52180000 		.4byte	0x1852
 8158 1839 08       		.uleb128 0x8
 8159 183a F90C0000 		.4byte	.LASF469
 8160 183e 12       		.byte	0x12
 8161 183f A5       		.byte	0xa5
 8162 1840 2C000000 		.4byte	0x2c
ARM GAS  /tmp/cczXzW7i.s 			page 145


 8163 1844 00       		.byte	0
 8164 1845 08       		.uleb128 0x8
 8165 1846 A51F0000 		.4byte	.LASF470
 8166 184a 12       		.byte	0x12
 8167 184b AA       		.byte	0xaa
 8168 184c 02180000 		.4byte	0x1802
 8169 1850 04       		.byte	0x4
 8170 1851 00       		.byte	0
 8171 1852 04       		.uleb128 0x4
 8172 1853 1B110000 		.4byte	.LASF471
 8173 1857 12       		.byte	0x12
 8174 1858 AB       		.byte	0xab
 8175 1859 31180000 		.4byte	0x1831
 8176 185d 04       		.uleb128 0x4
 8177 185e 51230000 		.4byte	.LASF472
 8178 1862 12       		.byte	0x12
 8179 1863 AF       		.byte	0xaf
 8180 1864 CA170000 		.4byte	0x17ca
 8181 1868 0B       		.uleb128 0xb
 8182 1869 04       		.byte	0x4
 8183 186a 08070000 		.4byte	0x708
 8184 186e 04       		.uleb128 0x4
 8185 186f 2F140000 		.4byte	.LASF473
 8186 1873 13       		.byte	0x13
 8187 1874 16       		.byte	0x16
 8188 1875 92000000 		.4byte	0x92
 8189 1879 07       		.uleb128 0x7
 8190 187a 641B0000 		.4byte	.LASF474
 8191 187e 18       		.byte	0x18
 8192 187f 13       		.byte	0x13
 8193 1880 2F       		.byte	0x2f
 8194 1881 CC180000 		.4byte	0x18cc
 8195 1885 08       		.uleb128 0x8
 8196 1886 9A110000 		.4byte	.LASF475
 8197 188a 13       		.byte	0x13
 8198 188b 31       		.byte	0x31
 8199 188c CC180000 		.4byte	0x18cc
 8200 1890 00       		.byte	0
 8201 1891 13       		.uleb128 0x13
 8202 1892 5F6B00   		.ascii	"_k\000"
 8203 1895 13       		.byte	0x13
 8204 1896 32       		.byte	0x32
 8205 1897 2C000000 		.4byte	0x2c
 8206 189b 04       		.byte	0x4
 8207 189c 08       		.uleb128 0x8
 8208 189d 0E190000 		.4byte	.LASF476
 8209 18a1 13       		.byte	0x13
 8210 18a2 32       		.byte	0x32
 8211 18a3 2C000000 		.4byte	0x2c
 8212 18a7 08       		.byte	0x8
 8213 18a8 08       		.uleb128 0x8
 8214 18a9 29190000 		.4byte	.LASF477
 8215 18ad 13       		.byte	0x13
 8216 18ae 32       		.byte	0x32
 8217 18af 2C000000 		.4byte	0x2c
 8218 18b3 0C       		.byte	0xc
 8219 18b4 08       		.uleb128 0x8
ARM GAS  /tmp/cczXzW7i.s 			page 146


 8220 18b5 1A090000 		.4byte	.LASF478
 8221 18b9 13       		.byte	0x13
 8222 18ba 32       		.byte	0x32
 8223 18bb 2C000000 		.4byte	0x2c
 8224 18bf 10       		.byte	0x10
 8225 18c0 13       		.uleb128 0x13
 8226 18c1 5F7800   		.ascii	"_x\000"
 8227 18c4 13       		.byte	0x13
 8228 18c5 33       		.byte	0x33
 8229 18c6 D2180000 		.4byte	0x18d2
 8230 18ca 14       		.byte	0x14
 8231 18cb 00       		.byte	0
 8232 18cc 0B       		.uleb128 0xb
 8233 18cd 04       		.byte	0x4
 8234 18ce 79180000 		.4byte	0x1879
 8235 18d2 17       		.uleb128 0x17
 8236 18d3 6E180000 		.4byte	0x186e
 8237 18d7 E2180000 		.4byte	0x18e2
 8238 18db 18       		.uleb128 0x18
 8239 18dc B2000000 		.4byte	0xb2
 8240 18e0 00       		.byte	0
 8241 18e1 00       		.byte	0
 8242 18e2 07       		.uleb128 0x7
 8243 18e3 CC060000 		.4byte	.LASF479
 8244 18e7 24       		.byte	0x24
 8245 18e8 13       		.byte	0x13
 8246 18e9 37       		.byte	0x37
 8247 18ea 5B190000 		.4byte	0x195b
 8248 18ee 08       		.uleb128 0x8
 8249 18ef 3F0B0000 		.4byte	.LASF480
 8250 18f3 13       		.byte	0x13
 8251 18f4 39       		.byte	0x39
 8252 18f5 2C000000 		.4byte	0x2c
 8253 18f9 00       		.byte	0
 8254 18fa 08       		.uleb128 0x8
 8255 18fb 9C0A0000 		.4byte	.LASF481
 8256 18ff 13       		.byte	0x13
 8257 1900 3A       		.byte	0x3a
 8258 1901 2C000000 		.4byte	0x2c
 8259 1905 04       		.byte	0x4
 8260 1906 08       		.uleb128 0x8
 8261 1907 880F0000 		.4byte	.LASF482
 8262 190b 13       		.byte	0x13
 8263 190c 3B       		.byte	0x3b
 8264 190d 2C000000 		.4byte	0x2c
 8265 1911 08       		.byte	0x8
 8266 1912 08       		.uleb128 0x8
 8267 1913 C9100000 		.4byte	.LASF483
 8268 1917 13       		.byte	0x13
 8269 1918 3C       		.byte	0x3c
 8270 1919 2C000000 		.4byte	0x2c
 8271 191d 0C       		.byte	0xc
 8272 191e 08       		.uleb128 0x8
 8273 191f AC010000 		.4byte	.LASF484
 8274 1923 13       		.byte	0x13
 8275 1924 3D       		.byte	0x3d
 8276 1925 2C000000 		.4byte	0x2c
ARM GAS  /tmp/cczXzW7i.s 			page 147


 8277 1929 10       		.byte	0x10
 8278 192a 08       		.uleb128 0x8
 8279 192b BD0A0000 		.4byte	.LASF485
 8280 192f 13       		.byte	0x13
 8281 1930 3E       		.byte	0x3e
 8282 1931 2C000000 		.4byte	0x2c
 8283 1935 14       		.byte	0x14
 8284 1936 08       		.uleb128 0x8
 8285 1937 7F080000 		.4byte	.LASF486
 8286 193b 13       		.byte	0x13
 8287 193c 3F       		.byte	0x3f
 8288 193d 2C000000 		.4byte	0x2c
 8289 1941 18       		.byte	0x18
 8290 1942 08       		.uleb128 0x8
 8291 1943 1C070000 		.4byte	.LASF487
 8292 1947 13       		.byte	0x13
 8293 1948 40       		.byte	0x40
 8294 1949 2C000000 		.4byte	0x2c
 8295 194d 1C       		.byte	0x1c
 8296 194e 08       		.uleb128 0x8
 8297 194f 98080000 		.4byte	.LASF488
 8298 1953 13       		.byte	0x13
 8299 1954 41       		.byte	0x41
 8300 1955 2C000000 		.4byte	0x2c
 8301 1959 20       		.byte	0x20
 8302 195a 00       		.byte	0
 8303 195b 23       		.uleb128 0x23
 8304 195c DE120000 		.4byte	.LASF489
 8305 1960 0801     		.2byte	0x108
 8306 1962 13       		.byte	0x13
 8307 1963 4A       		.byte	0x4a
 8308 1964 9B190000 		.4byte	0x199b
 8309 1968 08       		.uleb128 0x8
 8310 1969 13110000 		.4byte	.LASF490
 8311 196d 13       		.byte	0x13
 8312 196e 4B       		.byte	0x4b
 8313 196f 9B190000 		.4byte	0x199b
 8314 1973 00       		.byte	0
 8315 1974 08       		.uleb128 0x8
 8316 1975 A9030000 		.4byte	.LASF491
 8317 1979 13       		.byte	0x13
 8318 197a 4C       		.byte	0x4c
 8319 197b 9B190000 		.4byte	0x199b
 8320 197f 80       		.byte	0x80
 8321 1980 1D       		.uleb128 0x1d
 8322 1981 C6010000 		.4byte	.LASF492
 8323 1985 13       		.byte	0x13
 8324 1986 4E       		.byte	0x4e
 8325 1987 6E180000 		.4byte	0x186e
 8326 198b 0001     		.2byte	0x100
 8327 198d 1D       		.uleb128 0x1d
 8328 198e AD1F0000 		.4byte	.LASF493
 8329 1992 13       		.byte	0x13
 8330 1993 51       		.byte	0x51
 8331 1994 6E180000 		.4byte	0x186e
 8332 1998 0401     		.2byte	0x104
 8333 199a 00       		.byte	0
ARM GAS  /tmp/cczXzW7i.s 			page 148


 8334 199b 17       		.uleb128 0x17
 8335 199c 55030000 		.4byte	0x355
 8336 19a0 AB190000 		.4byte	0x19ab
 8337 19a4 18       		.uleb128 0x18
 8338 19a5 B2000000 		.4byte	0xb2
 8339 19a9 1F       		.byte	0x1f
 8340 19aa 00       		.byte	0
 8341 19ab 23       		.uleb128 0x23
 8342 19ac 63010000 		.4byte	.LASF494
 8343 19b0 9001     		.2byte	0x190
 8344 19b2 13       		.byte	0x13
 8345 19b3 5D       		.byte	0x5d
 8346 19b4 E9190000 		.4byte	0x19e9
 8347 19b8 08       		.uleb128 0x8
 8348 19b9 9A110000 		.4byte	.LASF475
 8349 19bd 13       		.byte	0x13
 8350 19be 5E       		.byte	0x5e
 8351 19bf E9190000 		.4byte	0x19e9
 8352 19c3 00       		.byte	0
 8353 19c4 08       		.uleb128 0x8
 8354 19c5 F8010000 		.4byte	.LASF495
 8355 19c9 13       		.byte	0x13
 8356 19ca 5F       		.byte	0x5f
 8357 19cb 2C000000 		.4byte	0x2c
 8358 19cf 04       		.byte	0x4
 8359 19d0 08       		.uleb128 0x8
 8360 19d1 B41E0000 		.4byte	.LASF496
 8361 19d5 13       		.byte	0x13
 8362 19d6 61       		.byte	0x61
 8363 19d7 EF190000 		.4byte	0x19ef
 8364 19db 08       		.byte	0x8
 8365 19dc 08       		.uleb128 0x8
 8366 19dd DE120000 		.4byte	.LASF489
 8367 19e1 13       		.byte	0x13
 8368 19e2 62       		.byte	0x62
 8369 19e3 5B190000 		.4byte	0x195b
 8370 19e7 88       		.byte	0x88
 8371 19e8 00       		.byte	0
 8372 19e9 0B       		.uleb128 0xb
 8373 19ea 04       		.byte	0x4
 8374 19eb AB190000 		.4byte	0x19ab
 8375 19ef 17       		.uleb128 0x17
 8376 19f0 FF190000 		.4byte	0x19ff
 8377 19f4 FF190000 		.4byte	0x19ff
 8378 19f8 18       		.uleb128 0x18
 8379 19f9 B2000000 		.4byte	0xb2
 8380 19fd 1F       		.byte	0x1f
 8381 19fe 00       		.byte	0
 8382 19ff 0B       		.uleb128 0xb
 8383 1a00 04       		.byte	0x4
 8384 1a01 051A0000 		.4byte	0x1a05
 8385 1a05 24       		.uleb128 0x24
 8386 1a06 07       		.uleb128 0x7
 8387 1a07 AC160000 		.4byte	.LASF497
 8388 1a0b 08       		.byte	0x8
 8389 1a0c 13       		.byte	0x13
 8390 1a0d 75       		.byte	0x75
ARM GAS  /tmp/cczXzW7i.s 			page 149


 8391 1a0e 2B1A0000 		.4byte	0x1a2b
 8392 1a12 08       		.uleb128 0x8
 8393 1a13 15130000 		.4byte	.LASF498
 8394 1a17 13       		.byte	0x13
 8395 1a18 76       		.byte	0x76
 8396 1a19 2B1A0000 		.4byte	0x1a2b
 8397 1a1d 00       		.byte	0
 8398 1a1e 08       		.uleb128 0x8
 8399 1a1f 8D090000 		.4byte	.LASF499
 8400 1a23 13       		.byte	0x13
 8401 1a24 77       		.byte	0x77
 8402 1a25 2C000000 		.4byte	0x2c
 8403 1a29 04       		.byte	0x4
 8404 1a2a 00       		.byte	0
 8405 1a2b 0B       		.uleb128 0xb
 8406 1a2c 04       		.byte	0x4
 8407 1a2d 55000000 		.4byte	0x55
 8408 1a31 07       		.uleb128 0x7
 8409 1a32 981E0000 		.4byte	.LASF500
 8410 1a36 68       		.byte	0x68
 8411 1a37 13       		.byte	0x13
 8412 1a38 B5       		.byte	0xb5
 8413 1a39 5B1B0000 		.4byte	0x1b5b
 8414 1a3d 13       		.uleb128 0x13
 8415 1a3e 5F7000   		.ascii	"_p\000"
 8416 1a41 13       		.byte	0x13
 8417 1a42 B6       		.byte	0xb6
 8418 1a43 2B1A0000 		.4byte	0x1a2b
 8419 1a47 00       		.byte	0
 8420 1a48 13       		.uleb128 0x13
 8421 1a49 5F7200   		.ascii	"_r\000"
 8422 1a4c 13       		.byte	0x13
 8423 1a4d B7       		.byte	0xb7
 8424 1a4e 2C000000 		.4byte	0x2c
 8425 1a52 04       		.byte	0x4
 8426 1a53 13       		.uleb128 0x13
 8427 1a54 5F7700   		.ascii	"_w\000"
 8428 1a57 13       		.byte	0x13
 8429 1a58 B8       		.byte	0xb8
 8430 1a59 2C000000 		.4byte	0x2c
 8431 1a5d 08       		.byte	0x8
 8432 1a5e 08       		.uleb128 0x8
 8433 1a5f 4B020000 		.4byte	.LASF501
 8434 1a63 13       		.byte	0x13
 8435 1a64 B9       		.byte	0xb9
 8436 1a65 5C000000 		.4byte	0x5c
 8437 1a69 0C       		.byte	0xc
 8438 1a6a 08       		.uleb128 0x8
 8439 1a6b ED1F0000 		.4byte	.LASF502
 8440 1a6f 13       		.byte	0x13
 8441 1a70 BA       		.byte	0xba
 8442 1a71 5C000000 		.4byte	0x5c
 8443 1a75 0E       		.byte	0xe
 8444 1a76 13       		.uleb128 0x13
 8445 1a77 5F626600 		.ascii	"_bf\000"
 8446 1a7b 13       		.byte	0x13
 8447 1a7c BB       		.byte	0xbb
ARM GAS  /tmp/cczXzW7i.s 			page 150


 8448 1a7d 061A0000 		.4byte	0x1a06
 8449 1a81 10       		.byte	0x10
 8450 1a82 08       		.uleb128 0x8
 8451 1a83 CE040000 		.4byte	.LASF503
 8452 1a87 13       		.byte	0x13
 8453 1a88 BC       		.byte	0xbc
 8454 1a89 2C000000 		.4byte	0x2c
 8455 1a8d 18       		.byte	0x18
 8456 1a8e 08       		.uleb128 0x8
 8457 1a8f B4110000 		.4byte	.LASF504
 8458 1a93 13       		.byte	0x13
 8459 1a94 C3       		.byte	0xc3
 8460 1a95 55030000 		.4byte	0x355
 8461 1a99 1C       		.byte	0x1c
 8462 1a9a 08       		.uleb128 0x8
 8463 1a9b 6A280000 		.4byte	.LASF505
 8464 1a9f 13       		.byte	0x13
 8465 1aa0 C5       		.byte	0xc5
 8466 1aa1 B61C0000 		.4byte	0x1cb6
 8467 1aa5 20       		.byte	0x20
 8468 1aa6 08       		.uleb128 0x8
 8469 1aa7 D60A0000 		.4byte	.LASF506
 8470 1aab 13       		.byte	0x13
 8471 1aac C7       		.byte	0xc7
 8472 1aad DA1C0000 		.4byte	0x1cda
 8473 1ab1 24       		.byte	0x24
 8474 1ab2 08       		.uleb128 0x8
 8475 1ab3 03150000 		.4byte	.LASF507
 8476 1ab7 13       		.byte	0x13
 8477 1ab8 CA       		.byte	0xca
 8478 1ab9 FE1C0000 		.4byte	0x1cfe
 8479 1abd 28       		.byte	0x28
 8480 1abe 08       		.uleb128 0x8
 8481 1abf A11A0000 		.4byte	.LASF508
 8482 1ac3 13       		.byte	0x13
 8483 1ac4 CB       		.byte	0xcb
 8484 1ac5 181D0000 		.4byte	0x1d18
 8485 1ac9 2C       		.byte	0x2c
 8486 1aca 13       		.uleb128 0x13
 8487 1acb 5F756200 		.ascii	"_ub\000"
 8488 1acf 13       		.byte	0x13
 8489 1ad0 CE       		.byte	0xce
 8490 1ad1 061A0000 		.4byte	0x1a06
 8491 1ad5 30       		.byte	0x30
 8492 1ad6 13       		.uleb128 0x13
 8493 1ad7 5F757000 		.ascii	"_up\000"
 8494 1adb 13       		.byte	0x13
 8495 1adc CF       		.byte	0xcf
 8496 1add 2B1A0000 		.4byte	0x1a2b
 8497 1ae1 38       		.byte	0x38
 8498 1ae2 13       		.uleb128 0x13
 8499 1ae3 5F757200 		.ascii	"_ur\000"
 8500 1ae7 13       		.byte	0x13
 8501 1ae8 D0       		.byte	0xd0
 8502 1ae9 2C000000 		.4byte	0x2c
 8503 1aed 3C       		.byte	0x3c
 8504 1aee 08       		.uleb128 0x8
ARM GAS  /tmp/cczXzW7i.s 			page 151


 8505 1aef 461D0000 		.4byte	.LASF509
 8506 1af3 13       		.byte	0x13
 8507 1af4 D3       		.byte	0xd3
 8508 1af5 04160000 		.4byte	0x1604
 8509 1af9 40       		.byte	0x40
 8510 1afa 08       		.uleb128 0x8
 8511 1afb C40F0000 		.4byte	.LASF510
 8512 1aff 13       		.byte	0x13
 8513 1b00 D4       		.byte	0xd4
 8514 1b01 1E1D0000 		.4byte	0x1d1e
 8515 1b05 43       		.byte	0x43
 8516 1b06 13       		.uleb128 0x13
 8517 1b07 5F6C6200 		.ascii	"_lb\000"
 8518 1b0b 13       		.byte	0x13
 8519 1b0c D7       		.byte	0xd7
 8520 1b0d 061A0000 		.4byte	0x1a06
 8521 1b11 44       		.byte	0x44
 8522 1b12 08       		.uleb128 0x8
 8523 1b13 3D1D0000 		.4byte	.LASF511
 8524 1b17 13       		.byte	0x13
 8525 1b18 DA       		.byte	0xda
 8526 1b19 2C000000 		.4byte	0x2c
 8527 1b1d 4C       		.byte	0x4c
 8528 1b1e 08       		.uleb128 0x8
 8529 1b1f 5D160000 		.4byte	.LASF512
 8530 1b23 13       		.byte	0x13
 8531 1b24 DB       		.byte	0xdb
 8532 1b25 E0170000 		.4byte	0x17e0
 8533 1b29 50       		.byte	0x50
 8534 1b2a 08       		.uleb128 0x8
 8535 1b2b 46050000 		.4byte	.LASF513
 8536 1b2f 13       		.byte	0x13
 8537 1b30 DE       		.byte	0xde
 8538 1b31 791B0000 		.4byte	0x1b79
 8539 1b35 54       		.byte	0x54
 8540 1b36 08       		.uleb128 0x8
 8541 1b37 E7020000 		.4byte	.LASF514
 8542 1b3b 13       		.byte	0x13
 8543 1b3c E2       		.byte	0xe2
 8544 1b3d 5D180000 		.4byte	0x185d
 8545 1b41 58       		.byte	0x58
 8546 1b42 08       		.uleb128 0x8
 8547 1b43 5A010000 		.4byte	.LASF515
 8548 1b47 13       		.byte	0x13
 8549 1b48 E4       		.byte	0xe4
 8550 1b49 52180000 		.4byte	0x1852
 8551 1b4d 5C       		.byte	0x5c
 8552 1b4e 08       		.uleb128 0x8
 8553 1b4f 7A240000 		.4byte	.LASF516
 8554 1b53 13       		.byte	0x13
 8555 1b54 E5       		.byte	0xe5
 8556 1b55 2C000000 		.4byte	0x2c
 8557 1b59 64       		.byte	0x64
 8558 1b5a 00       		.byte	0
 8559 1b5b 25       		.uleb128 0x25
 8560 1b5c 2C000000 		.4byte	0x2c
 8561 1b60 791B0000 		.4byte	0x1b79
ARM GAS  /tmp/cczXzW7i.s 			page 152


 8562 1b64 0E       		.uleb128 0xe
 8563 1b65 791B0000 		.4byte	0x1b79
 8564 1b69 0E       		.uleb128 0xe
 8565 1b6a 55030000 		.4byte	0x355
 8566 1b6e 0E       		.uleb128 0xe
 8567 1b6f 68180000 		.4byte	0x1868
 8568 1b73 0E       		.uleb128 0xe
 8569 1b74 2C000000 		.4byte	0x2c
 8570 1b78 00       		.byte	0
 8571 1b79 0B       		.uleb128 0xb
 8572 1b7a 04       		.byte	0x4
 8573 1b7b 841B0000 		.4byte	0x1b84
 8574 1b7f 05       		.uleb128 0x5
 8575 1b80 791B0000 		.4byte	0x1b79
 8576 1b84 10       		.uleb128 0x10
 8577 1b85 ED050000 		.4byte	.LASF517
 8578 1b89 2804     		.2byte	0x428
 8579 1b8b 13       		.byte	0x13
 8580 1b8c 6002     		.2byte	0x260
 8581 1b8e B61C0000 		.4byte	0x1cb6
 8582 1b92 0A       		.uleb128 0xa
 8583 1b93 71100000 		.4byte	.LASF518
 8584 1b97 13       		.byte	0x13
 8585 1b98 6202     		.2byte	0x262
 8586 1b9a 2C000000 		.4byte	0x2c
 8587 1b9e 00       		.byte	0
 8588 1b9f 0A       		.uleb128 0xa
 8589 1ba0 7B0B0000 		.4byte	.LASF519
 8590 1ba4 13       		.byte	0x13
 8591 1ba5 6702     		.2byte	0x267
 8592 1ba7 751D0000 		.4byte	0x1d75
 8593 1bab 04       		.byte	0x4
 8594 1bac 0A       		.uleb128 0xa
 8595 1bad C4080000 		.4byte	.LASF520
 8596 1bb1 13       		.byte	0x13
 8597 1bb2 6702     		.2byte	0x267
 8598 1bb4 751D0000 		.4byte	0x1d75
 8599 1bb8 08       		.byte	0x8
 8600 1bb9 0A       		.uleb128 0xa
 8601 1bba 3B080000 		.4byte	.LASF521
 8602 1bbe 13       		.byte	0x13
 8603 1bbf 6702     		.2byte	0x267
 8604 1bc1 751D0000 		.4byte	0x1d75
 8605 1bc5 0C       		.byte	0xc
 8606 1bc6 0A       		.uleb128 0xa
 8607 1bc7 F3010000 		.4byte	.LASF522
 8608 1bcb 13       		.byte	0x13
 8609 1bcc 6902     		.2byte	0x269
 8610 1bce 2C000000 		.4byte	0x2c
 8611 1bd2 10       		.byte	0x10
 8612 1bd3 0A       		.uleb128 0xa
 8613 1bd4 9A180000 		.4byte	.LASF523
 8614 1bd8 13       		.byte	0x13
 8615 1bd9 6A02     		.2byte	0x26a
 8616 1bdb 571F0000 		.4byte	0x1f57
 8617 1bdf 14       		.byte	0x14
 8618 1be0 0A       		.uleb128 0xa
ARM GAS  /tmp/cczXzW7i.s 			page 153


 8619 1be1 9F220000 		.4byte	.LASF524
 8620 1be5 13       		.byte	0x13
 8621 1be6 6D02     		.2byte	0x26d
 8622 1be8 2C000000 		.4byte	0x2c
 8623 1bec 30       		.byte	0x30
 8624 1bed 0A       		.uleb128 0xa
 8625 1bee 34250000 		.4byte	.LASF525
 8626 1bf2 13       		.byte	0x13
 8627 1bf3 6E02     		.2byte	0x26e
 8628 1bf5 6C1F0000 		.4byte	0x1f6c
 8629 1bf9 34       		.byte	0x34
 8630 1bfa 0A       		.uleb128 0xa
 8631 1bfb EE220000 		.4byte	.LASF526
 8632 1bff 13       		.byte	0x13
 8633 1c00 7002     		.2byte	0x270
 8634 1c02 2C000000 		.4byte	0x2c
 8635 1c06 38       		.byte	0x38
 8636 1c07 0A       		.uleb128 0xa
 8637 1c08 AB1D0000 		.4byte	.LASF527
 8638 1c0c 13       		.byte	0x13
 8639 1c0d 7202     		.2byte	0x272
 8640 1c0f 7D1F0000 		.4byte	0x1f7d
 8641 1c13 3C       		.byte	0x3c
 8642 1c14 0A       		.uleb128 0xa
 8643 1c15 43080000 		.4byte	.LASF528
 8644 1c19 13       		.byte	0x13
 8645 1c1a 7502     		.2byte	0x275
 8646 1c1c CC180000 		.4byte	0x18cc
 8647 1c20 40       		.byte	0x40
 8648 1c21 0A       		.uleb128 0xa
 8649 1c22 31080000 		.4byte	.LASF529
 8650 1c26 13       		.byte	0x13
 8651 1c27 7602     		.2byte	0x276
 8652 1c29 2C000000 		.4byte	0x2c
 8653 1c2d 44       		.byte	0x44
 8654 1c2e 0A       		.uleb128 0xa
 8655 1c2f 02200000 		.4byte	.LASF530
 8656 1c33 13       		.byte	0x13
 8657 1c34 7702     		.2byte	0x277
 8658 1c36 CC180000 		.4byte	0x18cc
 8659 1c3a 48       		.byte	0x48
 8660 1c3b 0A       		.uleb128 0xa
 8661 1c3c B0150000 		.4byte	.LASF531
 8662 1c40 13       		.byte	0x13
 8663 1c41 7802     		.2byte	0x278
 8664 1c43 831F0000 		.4byte	0x1f83
 8665 1c47 4C       		.byte	0x4c
 8666 1c48 0A       		.uleb128 0xa
 8667 1c49 93020000 		.4byte	.LASF532
 8668 1c4d 13       		.byte	0x13
 8669 1c4e 7B02     		.2byte	0x27b
 8670 1c50 2C000000 		.4byte	0x2c
 8671 1c54 50       		.byte	0x50
 8672 1c55 0A       		.uleb128 0xa
 8673 1c56 D00E0000 		.4byte	.LASF533
 8674 1c5a 13       		.byte	0x13
 8675 1c5b 7C02     		.2byte	0x27c
ARM GAS  /tmp/cczXzW7i.s 			page 154


 8676 1c5d 68180000 		.4byte	0x1868
 8677 1c61 54       		.byte	0x54
 8678 1c62 0A       		.uleb128 0xa
 8679 1c63 04100000 		.4byte	.LASF534
 8680 1c67 13       		.byte	0x13
 8681 1c68 9F02     		.2byte	0x29f
 8682 1c6a 351F0000 		.4byte	0x1f35
 8683 1c6e 58       		.byte	0x58
 8684 1c6f 26       		.uleb128 0x26
 8685 1c70 63010000 		.4byte	.LASF494
 8686 1c74 13       		.byte	0x13
 8687 1c75 A302     		.2byte	0x2a3
 8688 1c77 E9190000 		.4byte	0x19e9
 8689 1c7b 4801     		.2byte	0x148
 8690 1c7d 26       		.uleb128 0x26
 8691 1c7e A11B0000 		.4byte	.LASF535
 8692 1c82 13       		.byte	0x13
 8693 1c83 A402     		.2byte	0x2a4
 8694 1c85 AB190000 		.4byte	0x19ab
 8695 1c89 4C01     		.2byte	0x14c
 8696 1c8b 26       		.uleb128 0x26
 8697 1c8c ED1A0000 		.4byte	.LASF536
 8698 1c90 13       		.byte	0x13
 8699 1c91 A802     		.2byte	0x2a8
 8700 1c93 941F0000 		.4byte	0x1f94
 8701 1c97 DC02     		.2byte	0x2dc
 8702 1c99 26       		.uleb128 0x26
 8703 1c9a 821D0000 		.4byte	.LASF537
 8704 1c9e 13       		.byte	0x13
 8705 1c9f AD02     		.2byte	0x2ad
 8706 1ca1 3A1D0000 		.4byte	0x1d3a
 8707 1ca5 E002     		.2byte	0x2e0
 8708 1ca7 26       		.uleb128 0x26
 8709 1ca8 49060000 		.4byte	.LASF538
 8710 1cac 13       		.byte	0x13
 8711 1cad AF02     		.2byte	0x2af
 8712 1caf A01F0000 		.4byte	0x1fa0
 8713 1cb3 EC02     		.2byte	0x2ec
 8714 1cb5 00       		.byte	0
 8715 1cb6 0B       		.uleb128 0xb
 8716 1cb7 04       		.byte	0x4
 8717 1cb8 5B1B0000 		.4byte	0x1b5b
 8718 1cbc 25       		.uleb128 0x25
 8719 1cbd 2C000000 		.4byte	0x2c
 8720 1cc1 DA1C0000 		.4byte	0x1cda
 8721 1cc5 0E       		.uleb128 0xe
 8722 1cc6 791B0000 		.4byte	0x1b79
 8723 1cca 0E       		.uleb128 0xe
 8724 1ccb 55030000 		.4byte	0x355
 8725 1ccf 0E       		.uleb128 0xe
 8726 1cd0 FD060000 		.4byte	0x6fd
 8727 1cd4 0E       		.uleb128 0xe
 8728 1cd5 2C000000 		.4byte	0x2c
 8729 1cd9 00       		.byte	0
 8730 1cda 0B       		.uleb128 0xb
 8731 1cdb 04       		.byte	0x4
 8732 1cdc BC1C0000 		.4byte	0x1cbc
ARM GAS  /tmp/cczXzW7i.s 			page 155


 8733 1ce0 25       		.uleb128 0x25
 8734 1ce1 EB170000 		.4byte	0x17eb
 8735 1ce5 FE1C0000 		.4byte	0x1cfe
 8736 1ce9 0E       		.uleb128 0xe
 8737 1cea 791B0000 		.4byte	0x1b79
 8738 1cee 0E       		.uleb128 0xe
 8739 1cef 55030000 		.4byte	0x355
 8740 1cf3 0E       		.uleb128 0xe
 8741 1cf4 EB170000 		.4byte	0x17eb
 8742 1cf8 0E       		.uleb128 0xe
 8743 1cf9 2C000000 		.4byte	0x2c
 8744 1cfd 00       		.byte	0
 8745 1cfe 0B       		.uleb128 0xb
 8746 1cff 04       		.byte	0x4
 8747 1d00 E01C0000 		.4byte	0x1ce0
 8748 1d04 25       		.uleb128 0x25
 8749 1d05 2C000000 		.4byte	0x2c
 8750 1d09 181D0000 		.4byte	0x1d18
 8751 1d0d 0E       		.uleb128 0xe
 8752 1d0e 791B0000 		.4byte	0x1b79
 8753 1d12 0E       		.uleb128 0xe
 8754 1d13 55030000 		.4byte	0x355
 8755 1d17 00       		.byte	0
 8756 1d18 0B       		.uleb128 0xb
 8757 1d19 04       		.byte	0x4
 8758 1d1a 041D0000 		.4byte	0x1d04
 8759 1d1e 17       		.uleb128 0x17
 8760 1d1f 55000000 		.4byte	0x55
 8761 1d23 2E1D0000 		.4byte	0x1d2e
 8762 1d27 18       		.uleb128 0x18
 8763 1d28 B2000000 		.4byte	0xb2
 8764 1d2c 00       		.byte	0
 8765 1d2d 00       		.byte	0
 8766 1d2e 1F       		.uleb128 0x1f
 8767 1d2f 54270000 		.4byte	.LASF539
 8768 1d33 13       		.byte	0x13
 8769 1d34 1F01     		.2byte	0x11f
 8770 1d36 311A0000 		.4byte	0x1a31
 8771 1d3a 0C       		.uleb128 0xc
 8772 1d3b B51A0000 		.4byte	.LASF540
 8773 1d3f 0C       		.byte	0xc
 8774 1d40 13       		.byte	0x13
 8775 1d41 2301     		.2byte	0x123
 8776 1d43 6F1D0000 		.4byte	0x1d6f
 8777 1d47 0A       		.uleb128 0xa
 8778 1d48 9A110000 		.4byte	.LASF475
 8779 1d4c 13       		.byte	0x13
 8780 1d4d 2501     		.2byte	0x125
 8781 1d4f 6F1D0000 		.4byte	0x1d6f
 8782 1d53 00       		.byte	0
 8783 1d54 0A       		.uleb128 0xa
 8784 1d55 47100000 		.4byte	.LASF541
 8785 1d59 13       		.byte	0x13
 8786 1d5a 2601     		.2byte	0x126
 8787 1d5c 2C000000 		.4byte	0x2c
 8788 1d60 04       		.byte	0x4
 8789 1d61 0A       		.uleb128 0xa
ARM GAS  /tmp/cczXzW7i.s 			page 156


 8790 1d62 94180000 		.4byte	.LASF542
 8791 1d66 13       		.byte	0x13
 8792 1d67 2701     		.2byte	0x127
 8793 1d69 751D0000 		.4byte	0x1d75
 8794 1d6d 08       		.byte	0x8
 8795 1d6e 00       		.byte	0
 8796 1d6f 0B       		.uleb128 0xb
 8797 1d70 04       		.byte	0x4
 8798 1d71 3A1D0000 		.4byte	0x1d3a
 8799 1d75 0B       		.uleb128 0xb
 8800 1d76 04       		.byte	0x4
 8801 1d77 2E1D0000 		.4byte	0x1d2e
 8802 1d7b 0C       		.uleb128 0xc
 8803 1d7c 9A280000 		.4byte	.LASF543
 8804 1d80 0E       		.byte	0xe
 8805 1d81 13       		.byte	0x13
 8806 1d82 3F01     		.2byte	0x13f
 8807 1d84 B01D0000 		.4byte	0x1db0
 8808 1d88 0A       		.uleb128 0xa
 8809 1d89 FD140000 		.4byte	.LASF544
 8810 1d8d 13       		.byte	0x13
 8811 1d8e 4001     		.2byte	0x140
 8812 1d90 B01D0000 		.4byte	0x1db0
 8813 1d94 00       		.byte	0
 8814 1d95 0A       		.uleb128 0xa
 8815 1d96 C70A0000 		.4byte	.LASF545
 8816 1d9a 13       		.byte	0x13
 8817 1d9b 4101     		.2byte	0x141
 8818 1d9d B01D0000 		.4byte	0x1db0
 8819 1da1 06       		.byte	0x6
 8820 1da2 0A       		.uleb128 0xa
 8821 1da3 CF160000 		.4byte	.LASF546
 8822 1da7 13       		.byte	0x13
 8823 1da8 4201     		.2byte	0x142
 8824 1daa 6E000000 		.4byte	0x6e
 8825 1dae 0C       		.byte	0xc
 8826 1daf 00       		.byte	0
 8827 1db0 17       		.uleb128 0x17
 8828 1db1 6E000000 		.4byte	0x6e
 8829 1db5 C01D0000 		.4byte	0x1dc0
 8830 1db9 18       		.uleb128 0x18
 8831 1dba B2000000 		.4byte	0xb2
 8832 1dbe 02       		.byte	0x2
 8833 1dbf 00       		.byte	0
 8834 1dc0 20       		.uleb128 0x20
 8835 1dc1 D0       		.byte	0xd0
 8836 1dc2 13       		.byte	0x13
 8837 1dc3 8002     		.2byte	0x280
 8838 1dc5 C11E0000 		.4byte	0x1ec1
 8839 1dc9 0A       		.uleb128 0xa
 8840 1dca DF070000 		.4byte	.LASF547
 8841 1dce 13       		.byte	0x13
 8842 1dcf 8202     		.2byte	0x282
 8843 1dd1 B2000000 		.4byte	0xb2
 8844 1dd5 00       		.byte	0
 8845 1dd6 0A       		.uleb128 0xa
 8846 1dd7 B1140000 		.4byte	.LASF548
ARM GAS  /tmp/cczXzW7i.s 			page 157


 8847 1ddb 13       		.byte	0x13
 8848 1ddc 8302     		.2byte	0x283
 8849 1dde 68180000 		.4byte	0x1868
 8850 1de2 04       		.byte	0x4
 8851 1de3 0A       		.uleb128 0xa
 8852 1de4 F5160000 		.4byte	.LASF549
 8853 1de8 13       		.byte	0x13
 8854 1de9 8402     		.2byte	0x284
 8855 1deb C11E0000 		.4byte	0x1ec1
 8856 1def 08       		.byte	0x8
 8857 1df0 0A       		.uleb128 0xa
 8858 1df1 CE0C0000 		.4byte	.LASF550
 8859 1df5 13       		.byte	0x13
 8860 1df6 8502     		.2byte	0x285
 8861 1df8 E2180000 		.4byte	0x18e2
 8862 1dfc 24       		.byte	0x24
 8863 1dfd 0A       		.uleb128 0xa
 8864 1dfe AB210000 		.4byte	.LASF551
 8865 1e02 13       		.byte	0x13
 8866 1e03 8602     		.2byte	0x286
 8867 1e05 2C000000 		.4byte	0x2c
 8868 1e09 48       		.byte	0x48
 8869 1e0a 0A       		.uleb128 0xa
 8870 1e0b D2180000 		.4byte	.LASF552
 8871 1e0f 13       		.byte	0x13
 8872 1e10 8702     		.2byte	0x287
 8873 1e12 AB000000 		.4byte	0xab
 8874 1e16 50       		.byte	0x50
 8875 1e17 0A       		.uleb128 0xa
 8876 1e18 24280000 		.4byte	.LASF553
 8877 1e1c 13       		.byte	0x13
 8878 1e1d 8802     		.2byte	0x288
 8879 1e1f 7B1D0000 		.4byte	0x1d7b
 8880 1e23 58       		.byte	0x58
 8881 1e24 0A       		.uleb128 0xa
 8882 1e25 751D0000 		.4byte	.LASF554
 8883 1e29 13       		.byte	0x13
 8884 1e2a 8902     		.2byte	0x289
 8885 1e2c 52180000 		.4byte	0x1852
 8886 1e30 68       		.byte	0x68
 8887 1e31 0A       		.uleb128 0xa
 8888 1e32 6B060000 		.4byte	.LASF555
 8889 1e36 13       		.byte	0x13
 8890 1e37 8A02     		.2byte	0x28a
 8891 1e39 52180000 		.4byte	0x1852
 8892 1e3d 70       		.byte	0x70
 8893 1e3e 0A       		.uleb128 0xa
 8894 1e3f DD030000 		.4byte	.LASF556
 8895 1e43 13       		.byte	0x13
 8896 1e44 8B02     		.2byte	0x28b
 8897 1e46 52180000 		.4byte	0x1852
 8898 1e4a 78       		.byte	0x78
 8899 1e4b 0A       		.uleb128 0xa
 8900 1e4c B3160000 		.4byte	.LASF557
 8901 1e50 13       		.byte	0x13
 8902 1e51 8C02     		.2byte	0x28c
 8903 1e53 D11E0000 		.4byte	0x1ed1
ARM GAS  /tmp/cczXzW7i.s 			page 158


 8904 1e57 80       		.byte	0x80
 8905 1e58 0A       		.uleb128 0xa
 8906 1e59 A0110000 		.4byte	.LASF558
 8907 1e5d 13       		.byte	0x13
 8908 1e5e 8D02     		.2byte	0x28d
 8909 1e60 E11E0000 		.4byte	0x1ee1
 8910 1e64 88       		.byte	0x88
 8911 1e65 0A       		.uleb128 0xa
 8912 1e66 DB1B0000 		.4byte	.LASF559
 8913 1e6a 13       		.byte	0x13
 8914 1e6b 8E02     		.2byte	0x28e
 8915 1e6d 2C000000 		.4byte	0x2c
 8916 1e71 A0       		.byte	0xa0
 8917 1e72 0A       		.uleb128 0xa
 8918 1e73 0F0B0000 		.4byte	.LASF560
 8919 1e77 13       		.byte	0x13
 8920 1e78 8F02     		.2byte	0x28f
 8921 1e7a 52180000 		.4byte	0x1852
 8922 1e7e A4       		.byte	0xa4
 8923 1e7f 0A       		.uleb128 0xa
 8924 1e80 650F0000 		.4byte	.LASF561
 8925 1e84 13       		.byte	0x13
 8926 1e85 9002     		.2byte	0x290
 8927 1e87 52180000 		.4byte	0x1852
 8928 1e8b AC       		.byte	0xac
 8929 1e8c 0A       		.uleb128 0xa
 8930 1e8d 09090000 		.4byte	.LASF562
 8931 1e91 13       		.byte	0x13
 8932 1e92 9102     		.2byte	0x291
 8933 1e94 52180000 		.4byte	0x1852
 8934 1e98 B4       		.byte	0xb4
 8935 1e99 0A       		.uleb128 0xa
 8936 1e9a 31130000 		.4byte	.LASF563
 8937 1e9e 13       		.byte	0x13
 8938 1e9f 9202     		.2byte	0x292
 8939 1ea1 52180000 		.4byte	0x1852
 8940 1ea5 BC       		.byte	0xbc
 8941 1ea6 0A       		.uleb128 0xa
 8942 1ea7 34170000 		.4byte	.LASF564
 8943 1eab 13       		.byte	0x13
 8944 1eac 9302     		.2byte	0x293
 8945 1eae 52180000 		.4byte	0x1852
 8946 1eb2 C4       		.byte	0xc4
 8947 1eb3 0A       		.uleb128 0xa
 8948 1eb4 031F0000 		.4byte	.LASF565
 8949 1eb8 13       		.byte	0x13
 8950 1eb9 9402     		.2byte	0x294
 8951 1ebb 2C000000 		.4byte	0x2c
 8952 1ebf CC       		.byte	0xcc
 8953 1ec0 00       		.byte	0
 8954 1ec1 17       		.uleb128 0x17
 8955 1ec2 08070000 		.4byte	0x708
 8956 1ec6 D11E0000 		.4byte	0x1ed1
 8957 1eca 18       		.uleb128 0x18
 8958 1ecb B2000000 		.4byte	0xb2
 8959 1ecf 19       		.byte	0x19
 8960 1ed0 00       		.byte	0
ARM GAS  /tmp/cczXzW7i.s 			page 159


 8961 1ed1 17       		.uleb128 0x17
 8962 1ed2 08070000 		.4byte	0x708
 8963 1ed6 E11E0000 		.4byte	0x1ee1
 8964 1eda 18       		.uleb128 0x18
 8965 1edb B2000000 		.4byte	0xb2
 8966 1edf 07       		.byte	0x7
 8967 1ee0 00       		.byte	0
 8968 1ee1 17       		.uleb128 0x17
 8969 1ee2 08070000 		.4byte	0x708
 8970 1ee6 F11E0000 		.4byte	0x1ef1
 8971 1eea 18       		.uleb128 0x18
 8972 1eeb B2000000 		.4byte	0xb2
 8973 1eef 17       		.byte	0x17
 8974 1ef0 00       		.byte	0
 8975 1ef1 20       		.uleb128 0x20
 8976 1ef2 F0       		.byte	0xf0
 8977 1ef3 13       		.byte	0x13
 8978 1ef4 9902     		.2byte	0x299
 8979 1ef6 151F0000 		.4byte	0x1f15
 8980 1efa 0A       		.uleb128 0xa
 8981 1efb 82240000 		.4byte	.LASF566
 8982 1eff 13       		.byte	0x13
 8983 1f00 9C02     		.2byte	0x29c
 8984 1f02 151F0000 		.4byte	0x1f15
 8985 1f06 00       		.byte	0
 8986 1f07 0A       		.uleb128 0xa
 8987 1f08 820B0000 		.4byte	.LASF567
 8988 1f0c 13       		.byte	0x13
 8989 1f0d 9D02     		.2byte	0x29d
 8990 1f0f 251F0000 		.4byte	0x1f25
 8991 1f13 78       		.byte	0x78
 8992 1f14 00       		.byte	0
 8993 1f15 17       		.uleb128 0x17
 8994 1f16 2B1A0000 		.4byte	0x1a2b
 8995 1f1a 251F0000 		.4byte	0x1f25
 8996 1f1e 18       		.uleb128 0x18
 8997 1f1f B2000000 		.4byte	0xb2
 8998 1f23 1D       		.byte	0x1d
 8999 1f24 00       		.byte	0
 9000 1f25 17       		.uleb128 0x17
 9001 1f26 B2000000 		.4byte	0xb2
 9002 1f2a 351F0000 		.4byte	0x1f35
 9003 1f2e 18       		.uleb128 0x18
 9004 1f2f B2000000 		.4byte	0xb2
 9005 1f33 1D       		.byte	0x1d
 9006 1f34 00       		.byte	0
 9007 1f35 27       		.uleb128 0x27
 9008 1f36 F0       		.byte	0xf0
 9009 1f37 13       		.byte	0x13
 9010 1f38 7E02     		.2byte	0x27e
 9011 1f3a 571F0000 		.4byte	0x1f57
 9012 1f3e 16       		.uleb128 0x16
 9013 1f3f ED050000 		.4byte	.LASF517
 9014 1f43 13       		.byte	0x13
 9015 1f44 9502     		.2byte	0x295
 9016 1f46 C01D0000 		.4byte	0x1dc0
 9017 1f4a 16       		.uleb128 0x16
ARM GAS  /tmp/cczXzW7i.s 			page 160


 9018 1f4b F5020000 		.4byte	.LASF568
 9019 1f4f 13       		.byte	0x13
 9020 1f50 9E02     		.2byte	0x29e
 9021 1f52 F11E0000 		.4byte	0x1ef1
 9022 1f56 00       		.byte	0
 9023 1f57 17       		.uleb128 0x17
 9024 1f58 08070000 		.4byte	0x708
 9025 1f5c 671F0000 		.4byte	0x1f67
 9026 1f60 18       		.uleb128 0x18
 9027 1f61 B2000000 		.4byte	0xb2
 9028 1f65 18       		.byte	0x18
 9029 1f66 00       		.byte	0
 9030 1f67 21       		.uleb128 0x21
 9031 1f68 8A1D0000 		.4byte	.LASF570
 9032 1f6c 0B       		.uleb128 0xb
 9033 1f6d 04       		.byte	0x4
 9034 1f6e 671F0000 		.4byte	0x1f67
 9035 1f72 0D       		.uleb128 0xd
 9036 1f73 7D1F0000 		.4byte	0x1f7d
 9037 1f77 0E       		.uleb128 0xe
 9038 1f78 791B0000 		.4byte	0x1b79
 9039 1f7c 00       		.byte	0
 9040 1f7d 0B       		.uleb128 0xb
 9041 1f7e 04       		.byte	0x4
 9042 1f7f 721F0000 		.4byte	0x1f72
 9043 1f83 0B       		.uleb128 0xb
 9044 1f84 04       		.byte	0x4
 9045 1f85 CC180000 		.4byte	0x18cc
 9046 1f89 0D       		.uleb128 0xd
 9047 1f8a 941F0000 		.4byte	0x1f94
 9048 1f8e 0E       		.uleb128 0xe
 9049 1f8f 2C000000 		.4byte	0x2c
 9050 1f93 00       		.byte	0
 9051 1f94 0B       		.uleb128 0xb
 9052 1f95 04       		.byte	0x4
 9053 1f96 9A1F0000 		.4byte	0x1f9a
 9054 1f9a 0B       		.uleb128 0xb
 9055 1f9b 04       		.byte	0x4
 9056 1f9c 891F0000 		.4byte	0x1f89
 9057 1fa0 17       		.uleb128 0x17
 9058 1fa1 2E1D0000 		.4byte	0x1d2e
 9059 1fa5 B01F0000 		.4byte	0x1fb0
 9060 1fa9 18       		.uleb128 0x18
 9061 1faa B2000000 		.4byte	0xb2
 9062 1fae 02       		.byte	0x2
 9063 1faf 00       		.byte	0
 9064 1fb0 11       		.uleb128 0x11
 9065 1fb1 151D0000 		.4byte	.LASF571
 9066 1fb5 13       		.byte	0x13
 9067 1fb6 2E03     		.2byte	0x32e
 9068 1fb8 791B0000 		.4byte	0x1b79
 9069 1fbc 11       		.uleb128 0x11
 9070 1fbd 6D220000 		.4byte	.LASF572
 9071 1fc1 13       		.byte	0x13
 9072 1fc2 2F03     		.2byte	0x32f
 9073 1fc4 7F1B0000 		.4byte	0x1b7f
 9074 1fc8 17       		.uleb128 0x17
ARM GAS  /tmp/cczXzW7i.s 			page 161


 9075 1fc9 55000000 		.4byte	0x55
 9076 1fcd D91F0000 		.4byte	0x1fd9
 9077 1fd1 28       		.uleb128 0x28
 9078 1fd2 B2000000 		.4byte	0xb2
 9079 1fd6 FF03     		.2byte	0x3ff
 9080 1fd8 00       		.byte	0
 9081 1fd9 29       		.uleb128 0x29
 9082 1fda 80220000 		.4byte	.LASF573
 9083 1fde 01       		.byte	0x1
 9084 1fdf 20       		.byte	0x20
 9085 1fe0 C81F0000 		.4byte	0x1fc8
 9086 1fe4 05       		.uleb128 0x5
 9087 1fe5 03       		.byte	0x3
 9088 1fe6 00000000 		.4byte	send_buffer
 9089 1fea 29       		.uleb128 0x29
 9090 1feb A2040000 		.4byte	.LASF574
 9091 1fef 01       		.byte	0x1
 9092 1ff0 23       		.byte	0x23
 9093 1ff1 760A0000 		.4byte	0xa76
 9094 1ff5 05       		.uleb128 0x5
 9095 1ff6 03       		.byte	0x3
 9096 1ff7 00000000 		.4byte	values
 9097 1ffb 2A       		.uleb128 0x2a
 9098 1ffc 73150000 		.4byte	.LASF575
 9099 2000 01       		.byte	0x1
 9100 2001 24       		.byte	0x24
 9101 2002 2C000000 		.4byte	0x2c
 9102 2006 2A       		.uleb128 0x2a
 9103 2007 C11F0000 		.4byte	.LASF576
 9104 200b 01       		.byte	0x1
 9105 200c 25       		.byte	0x25
 9106 200d 2C000000 		.4byte	0x2c
 9107 2011 2A       		.uleb128 0x2a
 9108 2012 231B0000 		.4byte	.LASF577
 9109 2016 01       		.byte	0x1
 9110 2017 26       		.byte	0x26
 9111 2018 25000000 		.4byte	0x25
 9112 201c 29       		.uleb128 0x29
 9113 201d F31F0000 		.4byte	.LASF578
 9114 2021 01       		.byte	0x1
 9115 2022 27       		.byte	0x27
 9116 2023 55100000 		.4byte	0x1055
 9117 2027 05       		.uleb128 0x5
 9118 2028 03       		.byte	0x3
 9119 2029 00000000 		.4byte	mcconf
 9120 202d 29       		.uleb128 0x29
 9121 202e 48110000 		.4byte	.LASF579
 9122 2032 01       		.byte	0x1
 9123 2033 28       		.byte	0x28
 9124 2034 C6160000 		.4byte	0x16c6
 9125 2038 05       		.uleb128 0x5
 9126 2039 03       		.byte	0x3
 9127 203a 00000000 		.4byte	appconf
 9128 203e 29       		.uleb128 0x29
 9129 203f EC120000 		.4byte	.LASF580
 9130 2043 01       		.byte	0x1
 9131 2044 29       		.byte	0x29
ARM GAS  /tmp/cczXzW7i.s 			page 162


 9132 2045 25000000 		.4byte	0x25
 9133 2049 05       		.uleb128 0x5
 9134 204a 03       		.byte	0x3
 9135 204b 00000000 		.4byte	detect_cycle_int_limit
 9136 204f 2A       		.uleb128 0x2a
 9137 2050 A80E0000 		.4byte	.LASF581
 9138 2054 01       		.byte	0x1
 9139 2055 2A       		.byte	0x2a
 9140 2056 25000000 		.4byte	0x25
 9141 205a 17       		.uleb128 0x17
 9142 205b 3E000000 		.4byte	0x3e
 9143 205f 6A200000 		.4byte	0x206a
 9144 2063 18       		.uleb128 0x18
 9145 2064 B2000000 		.4byte	0xb2
 9146 2068 07       		.byte	0x7
 9147 2069 00       		.byte	0
 9148 206a 29       		.uleb128 0x29
 9149 206b AC020000 		.4byte	.LASF582
 9150 206f 01       		.byte	0x1
 9151 2070 2B       		.byte	0x2b
 9152 2071 5A200000 		.4byte	0x205a
 9153 2075 05       		.uleb128 0x5
 9154 2076 03       		.byte	0x3
 9155 2077 00000000 		.4byte	detect_hall_table
 9156 207b 2A       		.uleb128 0x2a
 9157 207c FA150000 		.4byte	.LASF583
 9158 2080 01       		.byte	0x1
 9159 2081 2C       		.byte	0x2c
 9160 2082 3E000000 		.4byte	0x3e
 9161 2086 29       		.uleb128 0x29
 9162 2087 78010000 		.4byte	.LASF584
 9163 208b 01       		.byte	0x1
 9164 208c 2D       		.byte	0x2d
 9165 208d 25000000 		.4byte	0x25
 9166 2091 05       		.uleb128 0x5
 9167 2092 03       		.byte	0x3
 9168 2093 00000000 		.4byte	dec_ppm
 9169 2097 2A       		.uleb128 0x2a
 9170 2098 01080000 		.4byte	.LASF585
 9171 209c 01       		.byte	0x1
 9172 209d 2E       		.byte	0x2e
 9173 209e 25000000 		.4byte	0x25
 9174 20a2 29       		.uleb128 0x29
 9175 20a3 5D0F0000 		.4byte	.LASF586
 9176 20a7 01       		.byte	0x1
 9177 20a8 2F       		.byte	0x2f
 9178 20a9 25000000 		.4byte	0x25
 9179 20ad 05       		.uleb128 0x5
 9180 20ae 03       		.byte	0x3
 9181 20af 00000000 		.4byte	dec_adc
 9182 20b3 2A       		.uleb128 0x2a
 9183 20b4 D9060000 		.4byte	.LASF587
 9184 20b8 01       		.byte	0x1
 9185 20b9 30       		.byte	0x30
 9186 20ba 25000000 		.4byte	0x25
 9187 20be 2A       		.uleb128 0x2a
 9188 20bf 75030000 		.4byte	.LASF588
ARM GAS  /tmp/cczXzW7i.s 			page 163


 9189 20c3 01       		.byte	0x1
 9190 20c4 31       		.byte	0x31
 9191 20c5 25000000 		.4byte	0x25
 9192 20c9 0D       		.uleb128 0xd
 9193 20ca D9200000 		.4byte	0x20d9
 9194 20ce 0E       		.uleb128 0xe
 9195 20cf 2B1A0000 		.4byte	0x1a2b
 9196 20d3 0E       		.uleb128 0xe
 9197 20d4 B2000000 		.4byte	0xb2
 9198 20d8 00       		.byte	0
 9199 20d9 29       		.uleb128 0x29
 9200 20da CF010000 		.4byte	.LASF589
 9201 20de 01       		.byte	0x1
 9202 20df 37       		.byte	0x37
 9203 20e0 EA200000 		.4byte	0x20ea
 9204 20e4 05       		.uleb128 0x5
 9205 20e5 03       		.byte	0x3
 9206 20e6 00000000 		.4byte	send_func
 9207 20ea 0B       		.uleb128 0xb
 9208 20eb 04       		.byte	0x4
 9209 20ec C9200000 		.4byte	0x20c9
 9210 20f0 29       		.uleb128 0x29
 9211 20f1 6B010000 		.4byte	.LASF590
 9212 20f5 01       		.byte	0x1
 9213 20f6 38       		.byte	0x38
 9214 20f7 EA200000 		.4byte	0x20ea
 9215 20fb 05       		.uleb128 0x5
 9216 20fc 03       		.byte	0x3
 9217 20fd 00000000 		.4byte	forward_func
 9218 2101 0D       		.uleb128 0xd
 9219 2102 0C210000 		.4byte	0x210c
 9220 2106 0E       		.uleb128 0xe
 9221 2107 0C210000 		.4byte	0x210c
 9222 210b 00       		.byte	0
 9223 210c 0B       		.uleb128 0xb
 9224 210d 04       		.byte	0x4
 9225 210e 760A0000 		.4byte	0xa76
 9226 2112 29       		.uleb128 0x29
 9227 2113 8A060000 		.4byte	.LASF591
 9228 2117 01       		.byte	0x1
 9229 2118 3B       		.byte	0x3b
 9230 2119 23210000 		.4byte	0x2123
 9231 211d 05       		.uleb128 0x5
 9232 211e 03       		.byte	0x3
 9233 211f 00000000 		.4byte	rx_value_func
 9234 2123 0B       		.uleb128 0xb
 9235 2124 04       		.byte	0x4
 9236 2125 01210000 		.4byte	0x2101
 9237 2129 0D       		.uleb128 0xd
 9238 212a 34210000 		.4byte	0x2134
 9239 212e 0E       		.uleb128 0xe
 9240 212f 68180000 		.4byte	0x1868
 9241 2133 00       		.byte	0
 9242 2134 29       		.uleb128 0x29
 9243 2135 09050000 		.4byte	.LASF592
 9244 2139 01       		.byte	0x1
 9245 213a 3C       		.byte	0x3c
ARM GAS  /tmp/cczXzW7i.s 			page 164


 9246 213b 45210000 		.4byte	0x2145
 9247 213f 05       		.uleb128 0x5
 9248 2140 03       		.byte	0x3
 9249 2141 00000000 		.4byte	rx_printf_func
 9250 2145 0B       		.uleb128 0xb
 9251 2146 04       		.byte	0x4
 9252 2147 29210000 		.4byte	0x2129
 9253 214b 0D       		.uleb128 0xd
 9254 214c 5B210000 		.4byte	0x215b
 9255 2150 0E       		.uleb128 0xe
 9256 2151 2C000000 		.4byte	0x2c
 9257 2155 0E       		.uleb128 0xe
 9258 2156 2C000000 		.4byte	0x2c
 9259 215a 00       		.byte	0
 9260 215b 2A       		.uleb128 0x2a
 9261 215c 93050000 		.4byte	.LASF593
 9262 2160 01       		.byte	0x1
 9263 2161 3D       		.byte	0x3d
 9264 2162 66210000 		.4byte	0x2166
 9265 2166 0B       		.uleb128 0xb
 9266 2167 04       		.byte	0x4
 9267 2168 4B210000 		.4byte	0x214b
 9268 216c 0D       		.uleb128 0xd
 9269 216d 77210000 		.4byte	0x2177
 9270 2171 0E       		.uleb128 0xe
 9271 2172 25000000 		.4byte	0x25
 9272 2176 00       		.byte	0
 9273 2177 29       		.uleb128 0x29
 9274 2178 480B0000 		.4byte	.LASF594
 9275 217c 01       		.byte	0x1
 9276 217d 3E       		.byte	0x3e
 9277 217e 88210000 		.4byte	0x2188
 9278 2182 05       		.uleb128 0x5
 9279 2183 03       		.byte	0x3
 9280 2184 00000000 		.4byte	rx_rotor_pos_func
 9281 2188 0B       		.uleb128 0xb
 9282 2189 04       		.byte	0x4
 9283 218a 6C210000 		.4byte	0x216c
 9284 218e 0D       		.uleb128 0xd
 9285 218f 99210000 		.4byte	0x2199
 9286 2193 0E       		.uleb128 0xe
 9287 2194 99210000 		.4byte	0x2199
 9288 2198 00       		.byte	0
 9289 2199 0B       		.uleb128 0xb
 9290 219a 04       		.byte	0x4
 9291 219b 55100000 		.4byte	0x1055
 9292 219f 29       		.uleb128 0x29
 9293 21a0 9C210000 		.4byte	.LASF595
 9294 21a4 01       		.byte	0x1
 9295 21a5 3F       		.byte	0x3f
 9296 21a6 B0210000 		.4byte	0x21b0
 9297 21aa 05       		.uleb128 0x5
 9298 21ab 03       		.byte	0x3
 9299 21ac 00000000 		.4byte	rx_mcconf_func
 9300 21b0 0B       		.uleb128 0xb
 9301 21b1 04       		.byte	0x4
 9302 21b2 8E210000 		.4byte	0x218e
ARM GAS  /tmp/cczXzW7i.s 			page 165


 9303 21b6 0D       		.uleb128 0xd
 9304 21b7 C1210000 		.4byte	0x21c1
 9305 21bb 0E       		.uleb128 0xe
 9306 21bc C1210000 		.4byte	0x21c1
 9307 21c0 00       		.byte	0
 9308 21c1 0B       		.uleb128 0xb
 9309 21c2 04       		.byte	0x4
 9310 21c3 C6160000 		.4byte	0x16c6
 9311 21c7 29       		.uleb128 0x29
 9312 21c8 15180000 		.4byte	.LASF596
 9313 21cc 01       		.byte	0x1
 9314 21cd 40       		.byte	0x40
 9315 21ce D8210000 		.4byte	0x21d8
 9316 21d2 05       		.uleb128 0x5
 9317 21d3 03       		.byte	0x3
 9318 21d4 00000000 		.4byte	rx_appconf_func
 9319 21d8 0B       		.uleb128 0xb
 9320 21d9 04       		.byte	0x4
 9321 21da B6210000 		.4byte	0x21b6
 9322 21de 0D       		.uleb128 0xd
 9323 21df F8210000 		.4byte	0x21f8
 9324 21e3 0E       		.uleb128 0xe
 9325 21e4 25000000 		.4byte	0x25
 9326 21e8 0E       		.uleb128 0xe
 9327 21e9 25000000 		.4byte	0x25
 9328 21ed 0E       		.uleb128 0xe
 9329 21ee F8210000 		.4byte	0x21f8
 9330 21f2 0E       		.uleb128 0xe
 9331 21f3 3E000000 		.4byte	0x3e
 9332 21f7 00       		.byte	0
 9333 21f8 0B       		.uleb128 0xb
 9334 21f9 04       		.byte	0x4
 9335 21fa 45000000 		.4byte	0x45
 9336 21fe 29       		.uleb128 0x29
 9337 21ff 5F140000 		.4byte	.LASF597
 9338 2203 01       		.byte	0x1
 9339 2204 41       		.byte	0x41
 9340 2205 0F220000 		.4byte	0x220f
 9341 2209 05       		.uleb128 0x5
 9342 220a 03       		.byte	0x3
 9343 220b 00000000 		.4byte	rx_detect_func
 9344 220f 0B       		.uleb128 0xb
 9345 2210 04       		.byte	0x4
 9346 2211 DE210000 		.4byte	0x21de
 9347 2215 0D       		.uleb128 0xd
 9348 2216 25220000 		.4byte	0x2225
 9349 221a 0E       		.uleb128 0xe
 9350 221b 25000000 		.4byte	0x25
 9351 221f 0E       		.uleb128 0xe
 9352 2220 25000000 		.4byte	0x25
 9353 2224 00       		.byte	0
 9354 2225 29       		.uleb128 0x29
 9355 2226 52020000 		.4byte	.LASF598
 9356 222a 01       		.byte	0x1
 9357 222b 43       		.byte	0x43
 9358 222c 36220000 		.4byte	0x2236
 9359 2230 05       		.uleb128 0x5
ARM GAS  /tmp/cczXzW7i.s 			page 166


 9360 2231 03       		.byte	0x3
 9361 2232 00000000 		.4byte	rx_dec_ppm_func
 9362 2236 0B       		.uleb128 0xb
 9363 2237 04       		.byte	0x4
 9364 2238 15220000 		.4byte	0x2215
 9365 223c 29       		.uleb128 0x29
 9366 223d 53050000 		.4byte	.LASF599
 9367 2241 01       		.byte	0x1
 9368 2242 44       		.byte	0x44
 9369 2243 36220000 		.4byte	0x2236
 9370 2247 05       		.uleb128 0x5
 9371 2248 03       		.byte	0x3
 9372 2249 00000000 		.4byte	rx_dec_adc_func
 9373 224d 29       		.uleb128 0x29
 9374 224e AE250000 		.4byte	.LASF600
 9375 2252 01       		.byte	0x1
 9376 2253 45       		.byte	0x45
 9377 2254 88210000 		.4byte	0x2188
 9378 2258 05       		.uleb128 0x5
 9379 2259 03       		.byte	0x3
 9380 225a 00000000 		.4byte	rx_dec_chuk_func
 9381 225e 29       		.uleb128 0x29
 9382 225f 39230000 		.4byte	.LASF601
 9383 2263 01       		.byte	0x1
 9384 2264 46       		.byte	0x46
 9385 2265 FF190000 		.4byte	0x19ff
 9386 2269 05       		.uleb128 0x5
 9387 226a 03       		.byte	0x3
 9388 226b 00000000 		.4byte	rx_mcconf_received_func
 9389 226f 29       		.uleb128 0x29
 9390 2270 1A270000 		.4byte	.LASF602
 9391 2274 01       		.byte	0x1
 9392 2275 47       		.byte	0x47
 9393 2276 FF190000 		.4byte	0x19ff
 9394 227a 05       		.uleb128 0x5
 9395 227b 03       		.byte	0x3
 9396 227c 00000000 		.4byte	rx_appconf_received_func
 9397 2280 0D       		.uleb128 0xd
 9398 2281 90220000 		.4byte	0x2290
 9399 2285 0E       		.uleb128 0xe
 9400 2286 090B0000 		.4byte	0xb09
 9401 228a 0E       		.uleb128 0xe
 9402 228b 25000000 		.4byte	0x25
 9403 228f 00       		.byte	0
 9404 2290 29       		.uleb128 0x29
 9405 2291 F2080000 		.4byte	.LASF603
 9406 2295 01       		.byte	0x1
 9407 2296 48       		.byte	0x48
 9408 2297 A1220000 		.4byte	0x22a1
 9409 229b 05       		.uleb128 0x5
 9410 229c 03       		.byte	0x3
 9411 229d 00000000 		.4byte	motor_control_set_func
 9412 22a1 0B       		.uleb128 0xb
 9413 22a2 04       		.byte	0x4
 9414 22a3 80220000 		.4byte	0x2280
 9415 22a7 29       		.uleb128 0x29
 9416 22a8 71260000 		.4byte	.LASF604
ARM GAS  /tmp/cczXzW7i.s 			page 167


 9417 22ac 01       		.byte	0x1
 9418 22ad 49       		.byte	0x49
 9419 22ae FF190000 		.4byte	0x19ff
 9420 22b2 05       		.uleb128 0x5
 9421 22b3 03       		.byte	0x3
 9422 22b4 00000000 		.4byte	values_requested_func
 9423 22b8 2B       		.uleb128 0x2b
 9424 22b9 9B250000 		.4byte	.LASF648
 9425 22bd 01       		.byte	0x1
 9426 22be 8B03     		.2byte	0x38b
 9427 22c0 01       		.byte	0x1
 9428 22c1 DE220000 		.4byte	0x22de
 9429 22c5 2C       		.uleb128 0x2c
 9430 22c6 8E1F0000 		.4byte	.LASF605
 9431 22ca 01       		.byte	0x1
 9432 22cb 8B03     		.2byte	0x38b
 9433 22cd 2B1A0000 		.4byte	0x1a2b
 9434 22d1 2D       		.uleb128 0x2d
 9435 22d2 6C656E00 		.ascii	"len\000"
 9436 22d6 01       		.byte	0x1
 9437 22d7 8B03     		.2byte	0x38b
 9438 22d9 B2000000 		.4byte	0xb2
 9439 22dd 00       		.byte	0
 9440 22de 2E       		.uleb128 0x2e
 9441 22df 75040000 		.4byte	.LASF668
 9442 22e3 01       		.byte	0x1
 9443 22e4 7D03     		.2byte	0x37d
 9444 22e6 FD060000 		.4byte	0x6fd
 9445 22ea 00000000 		.4byte	.LFB268
 9446 22ee 18000000 		.4byte	.LFE268-.LFB268
 9447 22f2 01       		.uleb128 0x1
 9448 22f3 9C       		.byte	0x9c
 9449 22f4 09230000 		.4byte	0x2309
 9450 22f8 2F       		.uleb128 0x2f
 9451 22f9 9B1B0000 		.4byte	.LASF606
 9452 22fd 01       		.byte	0x1
 9453 22fe 7D03     		.2byte	0x37d
 9454 2300 8C090000 		.4byte	0x98c
 9455 2304 00000000 		.4byte	.LLST46
 9456 2308 00       		.byte	0
 9457 2309 30       		.uleb128 0x30
 9458 230a A50A0000 		.4byte	.LASF607
 9459 230e 01       		.byte	0x1
 9460 230f 7603     		.2byte	0x376
 9461 2311 00000000 		.4byte	.LFB267
 9462 2315 10000000 		.4byte	.LFE267-.LFB267
 9463 2319 01       		.uleb128 0x1
 9464 231a 9C       		.byte	0x9c
 9465 231b 3D230000 		.4byte	0x233d
 9466 231f 2F       		.uleb128 0x2f
 9467 2320 A2040000 		.4byte	.LASF574
 9468 2324 01       		.byte	0x1
 9469 2325 7603     		.2byte	0x376
 9470 2327 0C210000 		.4byte	0x210c
 9471 232b 21000000 		.4byte	.LLST45
 9472 232f 31       		.uleb128 0x31
 9473 2330 08000000 		.4byte	.LVL395
ARM GAS  /tmp/cczXzW7i.s 			page 168


 9474 2334 32       		.uleb128 0x32
 9475 2335 01       		.uleb128 0x1
 9476 2336 50       		.byte	0x50
 9477 2337 03       		.uleb128 0x3
 9478 2338 F3       		.byte	0xf3
 9479 2339 01       		.uleb128 0x1
 9480 233a 50       		.byte	0x50
 9481 233b 00       		.byte	0
 9482 233c 00       		.byte	0
 9483 233d 30       		.uleb128 0x30
 9484 233e 40010000 		.4byte	.LASF608
 9485 2342 01       		.byte	0x1
 9486 2343 7003     		.2byte	0x370
 9487 2345 00000000 		.4byte	.LFB266
 9488 2349 1C000000 		.4byte	.LFE266-.LFB266
 9489 234d 01       		.uleb128 0x1
 9490 234e 9C       		.byte	0x9c
 9491 234f 93230000 		.4byte	0x2393
 9492 2353 33       		.uleb128 0x33
 9493 2354 C9210000 		.4byte	.LASF609
 9494 2358 01       		.byte	0x1
 9495 2359 7103     		.2byte	0x371
 9496 235b DA000000 		.4byte	0xda
 9497 235f 01       		.byte	0x1
 9498 2360 34       		.uleb128 0x34
 9499 2361 B8220000 		.4byte	0x22b8
 9500 2365 00000000 		.4byte	.LBB156
 9501 2369 F8010000 		.4byte	.Ldebug_ranges0+0x1f8
 9502 236d 01       		.byte	0x1
 9503 236e 7303     		.2byte	0x373
 9504 2370 35       		.uleb128 0x35
 9505 2371 D1220000 		.4byte	0x22d1
 9506 2375 01       		.byte	0x1
 9507 2376 36       		.uleb128 0x36
 9508 2377 C5220000 		.4byte	0x22c5
 9509 237b 06       		.uleb128 0x6
 9510 237c 03       		.byte	0x3
 9511 237d 00000000 		.4byte	send_buffer
 9512 2381 9F       		.byte	0x9f
 9513 2382 37       		.uleb128 0x37
 9514 2383 14000000 		.4byte	.LVL393
 9515 2387 574A0000 		.4byte	0x4a57
 9516 238b 32       		.uleb128 0x32
 9517 238c 01       		.uleb128 0x1
 9518 238d 51       		.byte	0x51
 9519 238e 01       		.uleb128 0x1
 9520 238f 31       		.byte	0x31
 9521 2390 00       		.byte	0
 9522 2391 00       		.byte	0
 9523 2392 00       		.byte	0
 9524 2393 30       		.uleb128 0x30
 9525 2394 4E060000 		.4byte	.LASF610
 9526 2398 01       		.byte	0x1
 9527 2399 6A03     		.2byte	0x36a
 9528 239b 00000000 		.4byte	.LFB265
 9529 239f 1C000000 		.4byte	.LFE265-.LFB265
 9530 23a3 01       		.uleb128 0x1
ARM GAS  /tmp/cczXzW7i.s 			page 169


 9531 23a4 9C       		.byte	0x9c
 9532 23a5 E9230000 		.4byte	0x23e9
 9533 23a9 33       		.uleb128 0x33
 9534 23aa C9210000 		.4byte	.LASF609
 9535 23ae 01       		.byte	0x1
 9536 23af 6B03     		.2byte	0x36b
 9537 23b1 DA000000 		.4byte	0xda
 9538 23b5 01       		.byte	0x1
 9539 23b6 34       		.uleb128 0x34
 9540 23b7 B8220000 		.4byte	0x22b8
 9541 23bb 00000000 		.4byte	.LBB148
 9542 23bf D0010000 		.4byte	.Ldebug_ranges0+0x1d0
 9543 23c3 01       		.byte	0x1
 9544 23c4 6D03     		.2byte	0x36d
 9545 23c6 35       		.uleb128 0x35
 9546 23c7 D1220000 		.4byte	0x22d1
 9547 23cb 01       		.byte	0x1
 9548 23cc 36       		.uleb128 0x36
 9549 23cd C5220000 		.4byte	0x22c5
 9550 23d1 06       		.uleb128 0x6
 9551 23d2 03       		.byte	0x3
 9552 23d3 00000000 		.4byte	send_buffer
 9553 23d7 9F       		.byte	0x9f
 9554 23d8 37       		.uleb128 0x37
 9555 23d9 14000000 		.4byte	.LVL390
 9556 23dd 574A0000 		.4byte	0x4a57
 9557 23e1 32       		.uleb128 0x32
 9558 23e2 01       		.uleb128 0x1
 9559 23e3 51       		.byte	0x51
 9560 23e4 01       		.uleb128 0x1
 9561 23e5 31       		.byte	0x31
 9562 23e6 00       		.byte	0
 9563 23e7 00       		.byte	0
 9564 23e8 00       		.byte	0
 9565 23e9 30       		.uleb128 0x30
 9566 23ea 78100000 		.4byte	.LASF611
 9567 23ee 01       		.byte	0x1
 9568 23ef 6103     		.2byte	0x361
 9569 23f1 00000000 		.4byte	.LFB264
 9570 23f5 74000000 		.4byte	.LFE264-.LFB264
 9571 23f9 01       		.uleb128 0x1
 9572 23fa 9C       		.byte	0x9c
 9573 23fb FE240000 		.4byte	0x24fe
 9574 23ff 2F       		.uleb128 0x2f
 9575 2400 6B150000 		.4byte	.LASF612
 9576 2404 01       		.byte	0x1
 9577 2405 6103     		.2byte	0x361
 9578 2407 25000000 		.4byte	0x25
 9579 240b 4D000000 		.4byte	.LLST40
 9580 240f 2F       		.uleb128 0x2f
 9581 2410 4F1B0000 		.4byte	.LASF613
 9582 2414 01       		.byte	0x1
 9583 2415 6103     		.2byte	0x361
 9584 2417 25000000 		.4byte	0x25
 9585 241b 71000000 		.4byte	.LLST41
 9586 241f 2F       		.uleb128 0x2f
 9587 2420 6B0C0000 		.4byte	.LASF614
ARM GAS  /tmp/cczXzW7i.s 			page 170


 9588 2424 01       		.byte	0x1
 9589 2425 6103     		.2byte	0x361
 9590 2427 25000000 		.4byte	0x25
 9591 242b 91000000 		.4byte	.LLST42
 9592 242f 38       		.uleb128 0x38
 9593 2430 C9210000 		.4byte	.LASF609
 9594 2434 01       		.byte	0x1
 9595 2435 6203     		.2byte	0x362
 9596 2437 DA000000 		.4byte	0xda
 9597 243b 02       		.uleb128 0x2
 9598 243c 91       		.byte	0x91
 9599 243d 64       		.sleb128 -28
 9600 243e 39       		.uleb128 0x39
 9601 243f B8220000 		.4byte	0x22b8
 9602 2443 4A000000 		.4byte	.LBB144
 9603 2447 B8010000 		.4byte	.Ldebug_ranges0+0x1b8
 9604 244b 01       		.byte	0x1
 9605 244c 6703     		.2byte	0x367
 9606 244e 75240000 		.4byte	0x2475
 9607 2452 3A       		.uleb128 0x3a
 9608 2453 D1220000 		.4byte	0x22d1
 9609 2457 DD000000 		.4byte	.LLST43
 9610 245b 3A       		.uleb128 0x3a
 9611 245c C5220000 		.4byte	0x22c5
 9612 2460 F1000000 		.4byte	.LLST44
 9613 2464 3B       		.uleb128 0x3b
 9614 2465 60000000 		.4byte	.LVL386
 9615 2469 574A0000 		.4byte	0x4a57
 9616 246d 32       		.uleb128 0x32
 9617 246e 01       		.uleb128 0x1
 9618 246f 50       		.byte	0x50
 9619 2470 02       		.uleb128 0x2
 9620 2471 75       		.byte	0x75
 9621 2472 00       		.sleb128 0
 9622 2473 00       		.byte	0
 9623 2474 00       		.byte	0
 9624 2475 3C       		.uleb128 0x3c
 9625 2476 2A000000 		.4byte	.LVL381
 9626 247a 1D4B0000 		.4byte	0x4b1d
 9627 247e A5240000 		.4byte	0x24a5
 9628 2482 32       		.uleb128 0x32
 9629 2483 01       		.uleb128 0x1
 9630 2484 50       		.byte	0x50
 9631 2485 02       		.uleb128 0x2
 9632 2486 75       		.byte	0x75
 9633 2487 00       		.sleb128 0
 9634 2488 32       		.uleb128 0x32
 9635 2489 02       		.uleb128 0x2
 9636 248a 90       		.byte	0x90
 9637 248b 40       		.uleb128 0x40
 9638 248c 05       		.uleb128 0x5
 9639 248d F3       		.byte	0xf3
 9640 248e 03       		.uleb128 0x3
 9641 248f F5       		.byte	0xf5
 9642 2490 40       		.uleb128 0x40
 9643 2491 25       		.uleb128 0x25
 9644 2492 32       		.uleb128 0x32
ARM GAS  /tmp/cczXzW7i.s 			page 171


 9645 2493 02       		.uleb128 0x2
 9646 2494 90       		.byte	0x90
 9647 2495 41       		.uleb128 0x41
 9648 2496 07       		.uleb128 0x7
 9649 2497 F4       		.byte	0xf4
 9650 2498 25       		.uleb128 0x25
 9651 2499 04       		.byte	0x4
 9652 249a 00007A44 		.4byte	0x447a0000
 9653 249e 32       		.uleb128 0x32
 9654 249f 01       		.uleb128 0x1
 9655 24a0 51       		.byte	0x51
 9656 24a1 02       		.uleb128 0x2
 9657 24a2 74       		.byte	0x74
 9658 24a3 00       		.sleb128 0
 9659 24a4 00       		.byte	0
 9660 24a5 3C       		.uleb128 0x3c
 9661 24a6 3A000000 		.4byte	.LVL382
 9662 24aa 1D4B0000 		.4byte	0x4b1d
 9663 24ae D3240000 		.4byte	0x24d3
 9664 24b2 32       		.uleb128 0x32
 9665 24b3 01       		.uleb128 0x1
 9666 24b4 50       		.byte	0x50
 9667 24b5 02       		.uleb128 0x2
 9668 24b6 75       		.byte	0x75
 9669 24b7 00       		.sleb128 0
 9670 24b8 32       		.uleb128 0x32
 9671 24b9 02       		.uleb128 0x2
 9672 24ba 90       		.byte	0x90
 9673 24bb 40       		.uleb128 0x40
 9674 24bc 03       		.uleb128 0x3
 9675 24bd F5       		.byte	0xf5
 9676 24be 51       		.uleb128 0x51
 9677 24bf 25       		.uleb128 0x25
 9678 24c0 32       		.uleb128 0x32
 9679 24c1 02       		.uleb128 0x2
 9680 24c2 90       		.byte	0x90
 9681 24c3 41       		.uleb128 0x41
 9682 24c4 07       		.uleb128 0x7
 9683 24c5 F4       		.byte	0xf4
 9684 24c6 25       		.uleb128 0x25
 9685 24c7 04       		.byte	0x4
 9686 24c8 00007A44 		.4byte	0x447a0000
 9687 24cc 32       		.uleb128 0x32
 9688 24cd 01       		.uleb128 0x1
 9689 24ce 51       		.byte	0x51
 9690 24cf 02       		.uleb128 0x2
 9691 24d0 74       		.byte	0x74
 9692 24d1 00       		.sleb128 0
 9693 24d2 00       		.byte	0
 9694 24d3 3B       		.uleb128 0x3b
 9695 24d4 4A000000 		.4byte	.LVL383
 9696 24d8 1D4B0000 		.4byte	0x4b1d
 9697 24dc 32       		.uleb128 0x32
 9698 24dd 01       		.uleb128 0x1
 9699 24de 50       		.byte	0x50
 9700 24df 02       		.uleb128 0x2
 9701 24e0 75       		.byte	0x75
ARM GAS  /tmp/cczXzW7i.s 			page 172


 9702 24e1 00       		.sleb128 0
 9703 24e2 32       		.uleb128 0x32
 9704 24e3 02       		.uleb128 0x2
 9705 24e4 90       		.byte	0x90
 9706 24e5 40       		.uleb128 0x40
 9707 24e6 03       		.uleb128 0x3
 9708 24e7 F5       		.byte	0xf5
 9709 24e8 50       		.uleb128 0x50
 9710 24e9 25       		.uleb128 0x25
 9711 24ea 32       		.uleb128 0x32
 9712 24eb 02       		.uleb128 0x2
 9713 24ec 90       		.byte	0x90
 9714 24ed 41       		.uleb128 0x41
 9715 24ee 07       		.uleb128 0x7
 9716 24ef F4       		.byte	0xf4
 9717 24f0 25       		.uleb128 0x25
 9718 24f1 04       		.byte	0x4
 9719 24f2 00007A44 		.4byte	0x447a0000
 9720 24f6 32       		.uleb128 0x32
 9721 24f7 01       		.uleb128 0x1
 9722 24f8 51       		.byte	0x51
 9723 24f9 02       		.uleb128 0x2
 9724 24fa 74       		.byte	0x74
 9725 24fb 00       		.sleb128 0
 9726 24fc 00       		.byte	0
 9727 24fd 00       		.byte	0
 9728 24fe 30       		.uleb128 0x30
 9729 24ff C0260000 		.4byte	.LASF615
 9730 2503 01       		.byte	0x1
 9731 2504 5A03     		.2byte	0x35a
 9732 2506 00000000 		.4byte	.LFB263
 9733 250a 1C000000 		.4byte	.LFE263-.LFB263
 9734 250e 01       		.uleb128 0x1
 9735 250f 9C       		.byte	0x9c
 9736 2510 54250000 		.4byte	0x2554
 9737 2514 33       		.uleb128 0x33
 9738 2515 C9210000 		.4byte	.LASF609
 9739 2519 01       		.byte	0x1
 9740 251a 5B03     		.2byte	0x35b
 9741 251c DA000000 		.4byte	0xda
 9742 2520 01       		.byte	0x1
 9743 2521 34       		.uleb128 0x34
 9744 2522 B8220000 		.4byte	0x22b8
 9745 2526 00000000 		.4byte	.LBB136
 9746 252a 90010000 		.4byte	.Ldebug_ranges0+0x190
 9747 252e 01       		.byte	0x1
 9748 252f 5D03     		.2byte	0x35d
 9749 2531 35       		.uleb128 0x35
 9750 2532 D1220000 		.4byte	0x22d1
 9751 2536 01       		.byte	0x1
 9752 2537 36       		.uleb128 0x36
 9753 2538 C5220000 		.4byte	0x22c5
 9754 253c 06       		.uleb128 0x6
 9755 253d 03       		.byte	0x3
 9756 253e 00000000 		.4byte	send_buffer
 9757 2542 9F       		.byte	0x9f
 9758 2543 37       		.uleb128 0x37
ARM GAS  /tmp/cczXzW7i.s 			page 173


 9759 2544 14000000 		.4byte	.LVL378
 9760 2548 574A0000 		.4byte	0x4a57
 9761 254c 32       		.uleb128 0x32
 9762 254d 01       		.uleb128 0x1
 9763 254e 51       		.byte	0x51
 9764 254f 01       		.uleb128 0x1
 9765 2550 31       		.byte	0x31
 9766 2551 00       		.byte	0
 9767 2552 00       		.byte	0
 9768 2553 00       		.byte	0
 9769 2554 30       		.uleb128 0x30
 9770 2555 BF250000 		.4byte	.LASF616
 9771 2559 01       		.byte	0x1
 9772 255a 5403     		.2byte	0x354
 9773 255c 00000000 		.4byte	.LFB262
 9774 2560 1C000000 		.4byte	.LFE262-.LFB262
 9775 2564 01       		.uleb128 0x1
 9776 2565 9C       		.byte	0x9c
 9777 2566 AA250000 		.4byte	0x25aa
 9778 256a 33       		.uleb128 0x33
 9779 256b C9210000 		.4byte	.LASF609
 9780 256f 01       		.byte	0x1
 9781 2570 5503     		.2byte	0x355
 9782 2572 DA000000 		.4byte	0xda
 9783 2576 01       		.byte	0x1
 9784 2577 34       		.uleb128 0x34
 9785 2578 B8220000 		.4byte	0x22b8
 9786 257c 00000000 		.4byte	.LBB128
 9787 2580 68010000 		.4byte	.Ldebug_ranges0+0x168
 9788 2584 01       		.byte	0x1
 9789 2585 5703     		.2byte	0x357
 9790 2587 35       		.uleb128 0x35
 9791 2588 D1220000 		.4byte	0x22d1
 9792 258c 01       		.byte	0x1
 9793 258d 36       		.uleb128 0x36
 9794 258e C5220000 		.4byte	0x22c5
 9795 2592 06       		.uleb128 0x6
 9796 2593 03       		.byte	0x3
 9797 2594 00000000 		.4byte	send_buffer
 9798 2598 9F       		.byte	0x9f
 9799 2599 37       		.uleb128 0x37
 9800 259a 14000000 		.4byte	.LVL375
 9801 259e 574A0000 		.4byte	0x4a57
 9802 25a2 32       		.uleb128 0x32
 9803 25a3 01       		.uleb128 0x1
 9804 25a4 51       		.byte	0x51
 9805 25a5 01       		.uleb128 0x1
 9806 25a6 31       		.byte	0x31
 9807 25a7 00       		.byte	0
 9808 25a8 00       		.byte	0
 9809 25a9 00       		.byte	0
 9810 25aa 30       		.uleb128 0x30
 9811 25ab 82160000 		.4byte	.LASF617
 9812 25af 01       		.byte	0x1
 9813 25b0 4E03     		.2byte	0x34e
 9814 25b2 00000000 		.4byte	.LFB261
 9815 25b6 1C000000 		.4byte	.LFE261-.LFB261
ARM GAS  /tmp/cczXzW7i.s 			page 174


 9816 25ba 01       		.uleb128 0x1
 9817 25bb 9C       		.byte	0x9c
 9818 25bc 00260000 		.4byte	0x2600
 9819 25c0 33       		.uleb128 0x33
 9820 25c1 C9210000 		.4byte	.LASF609
 9821 25c5 01       		.byte	0x1
 9822 25c6 4F03     		.2byte	0x34f
 9823 25c8 DA000000 		.4byte	0xda
 9824 25cc 01       		.byte	0x1
 9825 25cd 34       		.uleb128 0x34
 9826 25ce B8220000 		.4byte	0x22b8
 9827 25d2 00000000 		.4byte	.LBB120
 9828 25d6 40010000 		.4byte	.Ldebug_ranges0+0x140
 9829 25da 01       		.byte	0x1
 9830 25db 5103     		.2byte	0x351
 9831 25dd 35       		.uleb128 0x35
 9832 25de D1220000 		.4byte	0x22d1
 9833 25e2 01       		.byte	0x1
 9834 25e3 36       		.uleb128 0x36
 9835 25e4 C5220000 		.4byte	0x22c5
 9836 25e8 06       		.uleb128 0x6
 9837 25e9 03       		.byte	0x3
 9838 25ea 00000000 		.4byte	send_buffer
 9839 25ee 9F       		.byte	0x9f
 9840 25ef 37       		.uleb128 0x37
 9841 25f0 14000000 		.4byte	.LVL372
 9842 25f4 574A0000 		.4byte	0x4a57
 9843 25f8 32       		.uleb128 0x32
 9844 25f9 01       		.uleb128 0x1
 9845 25fa 51       		.byte	0x51
 9846 25fb 01       		.uleb128 0x1
 9847 25fc 31       		.byte	0x31
 9848 25fd 00       		.byte	0
 9849 25fe 00       		.byte	0
 9850 25ff 00       		.byte	0
 9851 2600 30       		.uleb128 0x30
 9852 2601 F1000000 		.4byte	.LASF618
 9853 2605 01       		.byte	0x1
 9854 2606 4803     		.2byte	0x348
 9855 2608 00000000 		.4byte	.LFB260
 9856 260c 1C000000 		.4byte	.LFE260-.LFB260
 9857 2610 01       		.uleb128 0x1
 9858 2611 9C       		.byte	0x9c
 9859 2612 56260000 		.4byte	0x2656
 9860 2616 33       		.uleb128 0x33
 9861 2617 C9210000 		.4byte	.LASF609
 9862 261b 01       		.byte	0x1
 9863 261c 4903     		.2byte	0x349
 9864 261e DA000000 		.4byte	0xda
 9865 2622 01       		.byte	0x1
 9866 2623 34       		.uleb128 0x34
 9867 2624 B8220000 		.4byte	0x22b8
 9868 2628 00000000 		.4byte	.LBB112
 9869 262c 18010000 		.4byte	.Ldebug_ranges0+0x118
 9870 2630 01       		.byte	0x1
 9871 2631 4B03     		.2byte	0x34b
 9872 2633 35       		.uleb128 0x35
ARM GAS  /tmp/cczXzW7i.s 			page 175


 9873 2634 D1220000 		.4byte	0x22d1
 9874 2638 01       		.byte	0x1
 9875 2639 36       		.uleb128 0x36
 9876 263a C5220000 		.4byte	0x22c5
 9877 263e 06       		.uleb128 0x6
 9878 263f 03       		.byte	0x3
 9879 2640 00000000 		.4byte	send_buffer
 9880 2644 9F       		.byte	0x9f
 9881 2645 37       		.uleb128 0x37
 9882 2646 14000000 		.4byte	.LVL369
 9883 264a 574A0000 		.4byte	0x4a57
 9884 264e 32       		.uleb128 0x32
 9885 264f 01       		.uleb128 0x1
 9886 2650 51       		.byte	0x51
 9887 2651 01       		.uleb128 0x1
 9888 2652 31       		.byte	0x31
 9889 2653 00       		.byte	0
 9890 2654 00       		.byte	0
 9891 2655 00       		.byte	0
 9892 2656 30       		.uleb128 0x30
 9893 2657 2F040000 		.4byte	.LASF619
 9894 265b 01       		.byte	0x1
 9895 265c 4203     		.2byte	0x342
 9896 265e 00000000 		.4byte	.LFB259
 9897 2662 1C000000 		.4byte	.LFE259-.LFB259
 9898 2666 01       		.uleb128 0x1
 9899 2667 9C       		.byte	0x9c
 9900 2668 AC260000 		.4byte	0x26ac
 9901 266c 33       		.uleb128 0x33
 9902 266d C9210000 		.4byte	.LASF609
 9903 2671 01       		.byte	0x1
 9904 2672 4303     		.2byte	0x343
 9905 2674 DA000000 		.4byte	0xda
 9906 2678 01       		.byte	0x1
 9907 2679 34       		.uleb128 0x34
 9908 267a B8220000 		.4byte	0x22b8
 9909 267e 00000000 		.4byte	.LBB104
 9910 2682 F0000000 		.4byte	.Ldebug_ranges0+0xf0
 9911 2686 01       		.byte	0x1
 9912 2687 4503     		.2byte	0x345
 9913 2689 35       		.uleb128 0x35
 9914 268a D1220000 		.4byte	0x22d1
 9915 268e 01       		.byte	0x1
 9916 268f 36       		.uleb128 0x36
 9917 2690 C5220000 		.4byte	0x22c5
 9918 2694 06       		.uleb128 0x6
 9919 2695 03       		.byte	0x3
 9920 2696 00000000 		.4byte	send_buffer
 9921 269a 9F       		.byte	0x9f
 9922 269b 37       		.uleb128 0x37
 9923 269c 14000000 		.4byte	.LVL366
 9924 26a0 574A0000 		.4byte	0x4a57
 9925 26a4 32       		.uleb128 0x32
 9926 26a5 01       		.uleb128 0x1
 9927 26a6 51       		.byte	0x51
 9928 26a7 01       		.uleb128 0x1
 9929 26a8 31       		.byte	0x31
ARM GAS  /tmp/cczXzW7i.s 			page 176


 9930 26a9 00       		.byte	0
 9931 26aa 00       		.byte	0
 9932 26ab 00       		.byte	0
 9933 26ac 3D       		.uleb128 0x3d
 9934 26ad 70280000 		.4byte	.LASF669
 9935 26b1 01       		.byte	0x1
 9936 26b2 3803     		.2byte	0x338
 9937 26b4 00000000 		.4byte	.LFB258
 9938 26b8 28000000 		.4byte	.LFE258-.LFB258
 9939 26bc 01       		.uleb128 0x1
 9940 26bd 9C       		.byte	0x9c
 9941 26be 02270000 		.4byte	0x2702
 9942 26c2 33       		.uleb128 0x33
 9943 26c3 C9210000 		.4byte	.LASF609
 9944 26c7 01       		.byte	0x1
 9945 26c8 3D03     		.2byte	0x33d
 9946 26ca DA000000 		.4byte	0xda
 9947 26ce 01       		.byte	0x1
 9948 26cf 34       		.uleb128 0x34
 9949 26d0 B8220000 		.4byte	0x22b8
 9950 26d4 08000000 		.4byte	.LBB96
 9951 26d8 C8000000 		.4byte	.Ldebug_ranges0+0xc8
 9952 26dc 01       		.byte	0x1
 9953 26dd 3F03     		.2byte	0x33f
 9954 26df 35       		.uleb128 0x35
 9955 26e0 D1220000 		.4byte	0x22d1
 9956 26e4 01       		.byte	0x1
 9957 26e5 36       		.uleb128 0x36
 9958 26e6 C5220000 		.4byte	0x22c5
 9959 26ea 06       		.uleb128 0x6
 9960 26eb 03       		.byte	0x3
 9961 26ec 00000000 		.4byte	send_buffer
 9962 26f0 9F       		.byte	0x9f
 9963 26f1 37       		.uleb128 0x37
 9964 26f2 1C000000 		.4byte	.LVL363
 9965 26f6 574A0000 		.4byte	0x4a57
 9966 26fa 32       		.uleb128 0x32
 9967 26fb 01       		.uleb128 0x1
 9968 26fc 51       		.byte	0x51
 9969 26fd 01       		.uleb128 0x1
 9970 26fe 31       		.byte	0x31
 9971 26ff 00       		.byte	0
 9972 2700 00       		.byte	0
 9973 2701 00       		.byte	0
 9974 2702 30       		.uleb128 0x30
 9975 2703 6E1C0000 		.4byte	.LASF620
 9976 2707 01       		.byte	0x1
 9977 2708 3203     		.2byte	0x332
 9978 270a 00000000 		.4byte	.LFB257
 9979 270e 1C000000 		.4byte	.LFE257-.LFB257
 9980 2712 01       		.uleb128 0x1
 9981 2713 9C       		.byte	0x9c
 9982 2714 58270000 		.4byte	0x2758
 9983 2718 33       		.uleb128 0x33
 9984 2719 C9210000 		.4byte	.LASF609
 9985 271d 01       		.byte	0x1
 9986 271e 3303     		.2byte	0x333
ARM GAS  /tmp/cczXzW7i.s 			page 177


 9987 2720 DA000000 		.4byte	0xda
 9988 2724 01       		.byte	0x1
 9989 2725 34       		.uleb128 0x34
 9990 2726 B8220000 		.4byte	0x22b8
 9991 272a 00000000 		.4byte	.LBB88
 9992 272e A0000000 		.4byte	.Ldebug_ranges0+0xa0
 9993 2732 01       		.byte	0x1
 9994 2733 3503     		.2byte	0x335
 9995 2735 35       		.uleb128 0x35
 9996 2736 D1220000 		.4byte	0x22d1
 9997 273a 01       		.byte	0x1
 9998 273b 36       		.uleb128 0x36
 9999 273c C5220000 		.4byte	0x22c5
 10000 2740 06       		.uleb128 0x6
 10001 2741 03       		.byte	0x3
 10002 2742 00000000 		.4byte	send_buffer
 10003 2746 9F       		.byte	0x9f
 10004 2747 37       		.uleb128 0x37
 10005 2748 14000000 		.4byte	.LVL360
 10006 274c 574A0000 		.4byte	0x4a57
 10007 2750 32       		.uleb128 0x32
 10008 2751 01       		.uleb128 0x1
 10009 2752 51       		.byte	0x51
 10010 2753 01       		.uleb128 0x1
 10011 2754 31       		.byte	0x31
 10012 2755 00       		.byte	0
 10013 2756 00       		.byte	0
 10014 2757 00       		.byte	0
 10015 2758 30       		.uleb128 0x30
 10016 2759 78020000 		.4byte	.LASF621
 10017 275d 01       		.byte	0x1
 10018 275e E202     		.2byte	0x2e2
 10019 2760 00000000 		.4byte	.LFB256
 10020 2764 D0020000 		.4byte	.LFE256-.LFB256
 10021 2768 01       		.uleb128 0x1
 10022 2769 9C       		.byte	0x9c
 10023 276a 1B2B0000 		.4byte	0x2b1b
 10024 276e 2F       		.uleb128 0x2f
 10025 276f 48110000 		.4byte	.LASF579
 10026 2773 01       		.byte	0x1
 10027 2774 E202     		.2byte	0x2e2
 10028 2776 1B2B0000 		.4byte	0x2b1b
 10029 277a 09010000 		.4byte	.LLST37
 10030 277e 3E       		.uleb128 0x3e
 10031 277f 696E6400 		.ascii	"ind\000"
 10032 2783 01       		.byte	0x1
 10033 2784 E302     		.2byte	0x2e3
 10034 2786 DA000000 		.4byte	0xda
 10035 278a 02       		.uleb128 0x2
 10036 278b 91       		.byte	0x91
 10037 278c 64       		.sleb128 -28
 10038 278d 39       		.uleb128 0x39
 10039 278e B8220000 		.4byte	0x22b8
 10040 2792 04000000 		.4byte	.LBB80
 10041 2796 78000000 		.4byte	.Ldebug_ranges0+0x78
 10042 279a 01       		.byte	0x1
 10043 279b 2E03     		.2byte	0x32e
ARM GAS  /tmp/cczXzW7i.s 			page 178


 10044 279d C4270000 		.4byte	0x27c4
 10045 27a1 3A       		.uleb128 0x3a
 10046 27a2 D1220000 		.4byte	0x22d1
 10047 27a6 35010000 		.4byte	.LLST38
 10048 27aa 3A       		.uleb128 0x3a
 10049 27ab C5220000 		.4byte	0x22c5
 10050 27af 48010000 		.4byte	.LLST39
 10051 27b3 3B       		.uleb128 0x3b
 10052 27b4 C4020000 		.4byte	.LVL356
 10053 27b8 574A0000 		.4byte	0x4a57
 10054 27bc 32       		.uleb128 0x32
 10055 27bd 01       		.uleb128 0x1
 10056 27be 50       		.byte	0x50
 10057 27bf 02       		.uleb128 0x2
 10058 27c0 75       		.byte	0x75
 10059 27c1 00       		.sleb128 0
 10060 27c2 00       		.byte	0
 10061 27c3 00       		.byte	0
 10062 27c4 3C       		.uleb128 0x3c
 10063 27c5 24000000 		.4byte	.LVL320
 10064 27c9 284B0000 		.4byte	0x4b28
 10065 27cd DE270000 		.4byte	0x27de
 10066 27d1 32       		.uleb128 0x32
 10067 27d2 01       		.uleb128 0x1
 10068 27d3 50       		.byte	0x50
 10069 27d4 02       		.uleb128 0x2
 10070 27d5 75       		.byte	0x75
 10071 27d6 00       		.sleb128 0
 10072 27d7 32       		.uleb128 0x32
 10073 27d8 01       		.uleb128 0x1
 10074 27d9 52       		.byte	0x52
 10075 27da 02       		.uleb128 0x2
 10076 27db 76       		.byte	0x76
 10077 27dc 00       		.sleb128 0
 10078 27dd 00       		.byte	0
 10079 27de 3C       		.uleb128 0x3c
 10080 27df 30000000 		.4byte	.LVL321
 10081 27e3 334B0000 		.4byte	0x4b33
 10082 27e7 F8270000 		.4byte	0x27f8
 10083 27eb 32       		.uleb128 0x32
 10084 27ec 01       		.uleb128 0x1
 10085 27ed 50       		.byte	0x50
 10086 27ee 02       		.uleb128 0x2
 10087 27ef 75       		.byte	0x75
 10088 27f0 00       		.sleb128 0
 10089 27f1 32       		.uleb128 0x32
 10090 27f2 01       		.uleb128 0x1
 10091 27f3 51       		.byte	0x51
 10092 27f4 02       		.uleb128 0x2
 10093 27f5 76       		.byte	0x76
 10094 27f6 00       		.sleb128 0
 10095 27f7 00       		.byte	0
 10096 27f8 3C       		.uleb128 0x3c
 10097 27f9 44000000 		.4byte	.LVL322
 10098 27fd 3E4B0000 		.4byte	0x4b3e
 10099 2801 12280000 		.4byte	0x2812
 10100 2805 32       		.uleb128 0x32
ARM GAS  /tmp/cczXzW7i.s 			page 179


 10101 2806 01       		.uleb128 0x1
 10102 2807 50       		.byte	0x50
 10103 2808 02       		.uleb128 0x2
 10104 2809 75       		.byte	0x75
 10105 280a 00       		.sleb128 0
 10106 280b 32       		.uleb128 0x32
 10107 280c 01       		.uleb128 0x1
 10108 280d 52       		.byte	0x52
 10109 280e 02       		.uleb128 0x2
 10110 280f 76       		.byte	0x76
 10111 2810 00       		.sleb128 0
 10112 2811 00       		.byte	0
 10113 2812 3C       		.uleb128 0x3c
 10114 2813 64000000 		.4byte	.LVL323
 10115 2817 334B0000 		.4byte	0x4b33
 10116 281b 2C280000 		.4byte	0x282c
 10117 281f 32       		.uleb128 0x32
 10118 2820 01       		.uleb128 0x1
 10119 2821 50       		.byte	0x50
 10120 2822 02       		.uleb128 0x2
 10121 2823 75       		.byte	0x75
 10122 2824 00       		.sleb128 0
 10123 2825 32       		.uleb128 0x32
 10124 2826 01       		.uleb128 0x1
 10125 2827 51       		.byte	0x51
 10126 2828 02       		.uleb128 0x2
 10127 2829 76       		.byte	0x76
 10128 282a 00       		.sleb128 0
 10129 282b 00       		.byte	0
 10130 282c 3C       		.uleb128 0x3c
 10131 282d 70000000 		.4byte	.LVL324
 10132 2831 334B0000 		.4byte	0x4b33
 10133 2835 46280000 		.4byte	0x2846
 10134 2839 32       		.uleb128 0x32
 10135 283a 01       		.uleb128 0x1
 10136 283b 50       		.byte	0x50
 10137 283c 02       		.uleb128 0x2
 10138 283d 75       		.byte	0x75
 10139 283e 00       		.sleb128 0
 10140 283f 32       		.uleb128 0x32
 10141 2840 01       		.uleb128 0x1
 10142 2841 51       		.byte	0x51
 10143 2842 02       		.uleb128 0x2
 10144 2843 76       		.byte	0x76
 10145 2844 00       		.sleb128 0
 10146 2845 00       		.byte	0
 10147 2846 3C       		.uleb128 0x3c
 10148 2847 7C000000 		.4byte	.LVL325
 10149 284b 334B0000 		.4byte	0x4b33
 10150 284f 60280000 		.4byte	0x2860
 10151 2853 32       		.uleb128 0x32
 10152 2854 01       		.uleb128 0x1
 10153 2855 50       		.byte	0x50
 10154 2856 02       		.uleb128 0x2
 10155 2857 75       		.byte	0x75
 10156 2858 00       		.sleb128 0
 10157 2859 32       		.uleb128 0x32
ARM GAS  /tmp/cczXzW7i.s 			page 180


 10158 285a 01       		.uleb128 0x1
 10159 285b 51       		.byte	0x51
 10160 285c 02       		.uleb128 0x2
 10161 285d 76       		.byte	0x76
 10162 285e 00       		.sleb128 0
 10163 285f 00       		.byte	0
 10164 2860 3C       		.uleb128 0x3c
 10165 2861 88000000 		.4byte	.LVL326
 10166 2865 334B0000 		.4byte	0x4b33
 10167 2869 7A280000 		.4byte	0x287a
 10168 286d 32       		.uleb128 0x32
 10169 286e 01       		.uleb128 0x1
 10170 286f 50       		.byte	0x50
 10171 2870 02       		.uleb128 0x2
 10172 2871 75       		.byte	0x75
 10173 2872 00       		.sleb128 0
 10174 2873 32       		.uleb128 0x32
 10175 2874 01       		.uleb128 0x1
 10176 2875 51       		.byte	0x51
 10177 2876 02       		.uleb128 0x2
 10178 2877 76       		.byte	0x76
 10179 2878 00       		.sleb128 0
 10180 2879 00       		.byte	0
 10181 287a 3C       		.uleb128 0x3c
 10182 287b 94000000 		.4byte	.LVL327
 10183 287f 334B0000 		.4byte	0x4b33
 10184 2883 94280000 		.4byte	0x2894
 10185 2887 32       		.uleb128 0x32
 10186 2888 01       		.uleb128 0x1
 10187 2889 50       		.byte	0x50
 10188 288a 02       		.uleb128 0x2
 10189 288b 75       		.byte	0x75
 10190 288c 00       		.sleb128 0
 10191 288d 32       		.uleb128 0x32
 10192 288e 01       		.uleb128 0x1
 10193 288f 51       		.byte	0x51
 10194 2890 02       		.uleb128 0x2
 10195 2891 76       		.byte	0x76
 10196 2892 00       		.sleb128 0
 10197 2893 00       		.byte	0
 10198 2894 3C       		.uleb128 0x3c
 10199 2895 B4000000 		.4byte	.LVL328
 10200 2899 334B0000 		.4byte	0x4b33
 10201 289d AE280000 		.4byte	0x28ae
 10202 28a1 32       		.uleb128 0x32
 10203 28a2 01       		.uleb128 0x1
 10204 28a3 50       		.byte	0x50
 10205 28a4 02       		.uleb128 0x2
 10206 28a5 75       		.byte	0x75
 10207 28a6 00       		.sleb128 0
 10208 28a7 32       		.uleb128 0x32
 10209 28a8 01       		.uleb128 0x1
 10210 28a9 51       		.byte	0x51
 10211 28aa 02       		.uleb128 0x2
 10212 28ab 76       		.byte	0x76
 10213 28ac 00       		.sleb128 0
 10214 28ad 00       		.byte	0
ARM GAS  /tmp/cczXzW7i.s 			page 181


 10215 28ae 3C       		.uleb128 0x3c
 10216 28af C0000000 		.4byte	.LVL329
 10217 28b3 334B0000 		.4byte	0x4b33
 10218 28b7 C8280000 		.4byte	0x28c8
 10219 28bb 32       		.uleb128 0x32
 10220 28bc 01       		.uleb128 0x1
 10221 28bd 50       		.byte	0x50
 10222 28be 02       		.uleb128 0x2
 10223 28bf 75       		.byte	0x75
 10224 28c0 00       		.sleb128 0
 10225 28c1 32       		.uleb128 0x32
 10226 28c2 01       		.uleb128 0x1
 10227 28c3 51       		.byte	0x51
 10228 28c4 02       		.uleb128 0x2
 10229 28c5 76       		.byte	0x76
 10230 28c6 00       		.sleb128 0
 10231 28c7 00       		.byte	0
 10232 28c8 3C       		.uleb128 0x3c
 10233 28c9 D8000000 		.4byte	.LVL330
 10234 28cd 334B0000 		.4byte	0x4b33
 10235 28d1 E2280000 		.4byte	0x28e2
 10236 28d5 32       		.uleb128 0x32
 10237 28d6 01       		.uleb128 0x1
 10238 28d7 50       		.byte	0x50
 10239 28d8 02       		.uleb128 0x2
 10240 28d9 75       		.byte	0x75
 10241 28da 00       		.sleb128 0
 10242 28db 32       		.uleb128 0x32
 10243 28dc 01       		.uleb128 0x1
 10244 28dd 51       		.byte	0x51
 10245 28de 02       		.uleb128 0x2
 10246 28df 76       		.byte	0x76
 10247 28e0 00       		.sleb128 0
 10248 28e1 00       		.byte	0
 10249 28e2 3C       		.uleb128 0x3c
 10250 28e3 E4000000 		.4byte	.LVL331
 10251 28e7 334B0000 		.4byte	0x4b33
 10252 28eb FC280000 		.4byte	0x28fc
 10253 28ef 32       		.uleb128 0x32
 10254 28f0 01       		.uleb128 0x1
 10255 28f1 50       		.byte	0x50
 10256 28f2 02       		.uleb128 0x2
 10257 28f3 75       		.byte	0x75
 10258 28f4 00       		.sleb128 0
 10259 28f5 32       		.uleb128 0x32
 10260 28f6 01       		.uleb128 0x1
 10261 28f7 51       		.byte	0x51
 10262 28f8 02       		.uleb128 0x2
 10263 28f9 76       		.byte	0x76
 10264 28fa 00       		.sleb128 0
 10265 28fb 00       		.byte	0
 10266 28fc 3C       		.uleb128 0x3c
 10267 28fd 04010000 		.4byte	.LVL332
 10268 2901 334B0000 		.4byte	0x4b33
 10269 2905 16290000 		.4byte	0x2916
 10270 2909 32       		.uleb128 0x32
 10271 290a 01       		.uleb128 0x1
ARM GAS  /tmp/cczXzW7i.s 			page 182


 10272 290b 50       		.byte	0x50
 10273 290c 02       		.uleb128 0x2
 10274 290d 75       		.byte	0x75
 10275 290e 00       		.sleb128 0
 10276 290f 32       		.uleb128 0x32
 10277 2910 01       		.uleb128 0x1
 10278 2911 51       		.byte	0x51
 10279 2912 02       		.uleb128 0x2
 10280 2913 76       		.byte	0x76
 10281 2914 00       		.sleb128 0
 10282 2915 00       		.byte	0
 10283 2916 3C       		.uleb128 0x3c
 10284 2917 1C010000 		.4byte	.LVL333
 10285 291b 334B0000 		.4byte	0x4b33
 10286 291f 30290000 		.4byte	0x2930
 10287 2923 32       		.uleb128 0x32
 10288 2924 01       		.uleb128 0x1
 10289 2925 50       		.byte	0x50
 10290 2926 02       		.uleb128 0x2
 10291 2927 75       		.byte	0x75
 10292 2928 00       		.sleb128 0
 10293 2929 32       		.uleb128 0x32
 10294 292a 01       		.uleb128 0x1
 10295 292b 51       		.byte	0x51
 10296 292c 02       		.uleb128 0x2
 10297 292d 76       		.byte	0x76
 10298 292e 00       		.sleb128 0
 10299 292f 00       		.byte	0
 10300 2930 3C       		.uleb128 0x3c
 10301 2931 28010000 		.4byte	.LVL334
 10302 2935 334B0000 		.4byte	0x4b33
 10303 2939 4A290000 		.4byte	0x294a
 10304 293d 32       		.uleb128 0x32
 10305 293e 01       		.uleb128 0x1
 10306 293f 50       		.byte	0x50
 10307 2940 02       		.uleb128 0x2
 10308 2941 75       		.byte	0x75
 10309 2942 00       		.sleb128 0
 10310 2943 32       		.uleb128 0x32
 10311 2944 01       		.uleb128 0x1
 10312 2945 51       		.byte	0x51
 10313 2946 02       		.uleb128 0x2
 10314 2947 76       		.byte	0x76
 10315 2948 00       		.sleb128 0
 10316 2949 00       		.byte	0
 10317 294a 3C       		.uleb128 0x3c
 10318 294b 34010000 		.4byte	.LVL335
 10319 294f 334B0000 		.4byte	0x4b33
 10320 2953 64290000 		.4byte	0x2964
 10321 2957 32       		.uleb128 0x32
 10322 2958 01       		.uleb128 0x1
 10323 2959 50       		.byte	0x50
 10324 295a 02       		.uleb128 0x2
 10325 295b 75       		.byte	0x75
 10326 295c 00       		.sleb128 0
 10327 295d 32       		.uleb128 0x32
 10328 295e 01       		.uleb128 0x1
ARM GAS  /tmp/cczXzW7i.s 			page 183


 10329 295f 51       		.byte	0x51
 10330 2960 02       		.uleb128 0x2
 10331 2961 76       		.byte	0x76
 10332 2962 00       		.sleb128 0
 10333 2963 00       		.byte	0
 10334 2964 3C       		.uleb128 0x3c
 10335 2965 40010000 		.4byte	.LVL336
 10336 2969 334B0000 		.4byte	0x4b33
 10337 296d 7E290000 		.4byte	0x297e
 10338 2971 32       		.uleb128 0x32
 10339 2972 01       		.uleb128 0x1
 10340 2973 50       		.byte	0x50
 10341 2974 02       		.uleb128 0x2
 10342 2975 75       		.byte	0x75
 10343 2976 00       		.sleb128 0
 10344 2977 32       		.uleb128 0x32
 10345 2978 01       		.uleb128 0x1
 10346 2979 51       		.byte	0x51
 10347 297a 02       		.uleb128 0x2
 10348 297b 76       		.byte	0x76
 10349 297c 00       		.sleb128 0
 10350 297d 00       		.byte	0
 10351 297e 3C       		.uleb128 0x3c
 10352 297f 4C010000 		.4byte	.LVL337
 10353 2983 334B0000 		.4byte	0x4b33
 10354 2987 98290000 		.4byte	0x2998
 10355 298b 32       		.uleb128 0x32
 10356 298c 01       		.uleb128 0x1
 10357 298d 50       		.byte	0x50
 10358 298e 02       		.uleb128 0x2
 10359 298f 75       		.byte	0x75
 10360 2990 00       		.sleb128 0
 10361 2991 32       		.uleb128 0x32
 10362 2992 01       		.uleb128 0x1
 10363 2993 51       		.byte	0x51
 10364 2994 02       		.uleb128 0x2
 10365 2995 76       		.byte	0x76
 10366 2996 00       		.sleb128 0
 10367 2997 00       		.byte	0
 10368 2998 3C       		.uleb128 0x3c
 10369 2999 58010000 		.4byte	.LVL338
 10370 299d 334B0000 		.4byte	0x4b33
 10371 29a1 B2290000 		.4byte	0x29b2
 10372 29a5 32       		.uleb128 0x32
 10373 29a6 01       		.uleb128 0x1
 10374 29a7 50       		.byte	0x50
 10375 29a8 02       		.uleb128 0x2
 10376 29a9 75       		.byte	0x75
 10377 29aa 00       		.sleb128 0
 10378 29ab 32       		.uleb128 0x32
 10379 29ac 01       		.uleb128 0x1
 10380 29ad 51       		.byte	0x51
 10381 29ae 02       		.uleb128 0x2
 10382 29af 76       		.byte	0x76
 10383 29b0 00       		.sleb128 0
 10384 29b1 00       		.byte	0
 10385 29b2 3C       		.uleb128 0x3c
ARM GAS  /tmp/cczXzW7i.s 			page 184


 10386 29b3 90010000 		.4byte	.LVL339
 10387 29b7 334B0000 		.4byte	0x4b33
 10388 29bb CC290000 		.4byte	0x29cc
 10389 29bf 32       		.uleb128 0x32
 10390 29c0 01       		.uleb128 0x1
 10391 29c1 50       		.byte	0x50
 10392 29c2 02       		.uleb128 0x2
 10393 29c3 75       		.byte	0x75
 10394 29c4 00       		.sleb128 0
 10395 29c5 32       		.uleb128 0x32
 10396 29c6 01       		.uleb128 0x1
 10397 29c7 51       		.byte	0x51
 10398 29c8 02       		.uleb128 0x2
 10399 29c9 76       		.byte	0x76
 10400 29ca 00       		.sleb128 0
 10401 29cb 00       		.byte	0
 10402 29cc 3C       		.uleb128 0x3c
 10403 29cd 9C010000 		.4byte	.LVL340
 10404 29d1 334B0000 		.4byte	0x4b33
 10405 29d5 E6290000 		.4byte	0x29e6
 10406 29d9 32       		.uleb128 0x32
 10407 29da 01       		.uleb128 0x1
 10408 29db 50       		.byte	0x50
 10409 29dc 02       		.uleb128 0x2
 10410 29dd 75       		.byte	0x75
 10411 29de 00       		.sleb128 0
 10412 29df 32       		.uleb128 0x32
 10413 29e0 01       		.uleb128 0x1
 10414 29e1 51       		.byte	0x51
 10415 29e2 02       		.uleb128 0x2
 10416 29e3 76       		.byte	0x76
 10417 29e4 00       		.sleb128 0
 10418 29e5 00       		.byte	0
 10419 29e6 3C       		.uleb128 0x3c
 10420 29e7 B4010000 		.4byte	.LVL341
 10421 29eb 334B0000 		.4byte	0x4b33
 10422 29ef 002A0000 		.4byte	0x2a00
 10423 29f3 32       		.uleb128 0x32
 10424 29f4 01       		.uleb128 0x1
 10425 29f5 50       		.byte	0x50
 10426 29f6 02       		.uleb128 0x2
 10427 29f7 75       		.byte	0x75
 10428 29f8 00       		.sleb128 0
 10429 29f9 32       		.uleb128 0x32
 10430 29fa 01       		.uleb128 0x1
 10431 29fb 51       		.byte	0x51
 10432 29fc 02       		.uleb128 0x2
 10433 29fd 76       		.byte	0x76
 10434 29fe 00       		.sleb128 0
 10435 29ff 00       		.byte	0
 10436 2a00 3C       		.uleb128 0x3c
 10437 2a01 C0010000 		.4byte	.LVL342
 10438 2a05 334B0000 		.4byte	0x4b33
 10439 2a09 1A2A0000 		.4byte	0x2a1a
 10440 2a0d 32       		.uleb128 0x32
 10441 2a0e 01       		.uleb128 0x1
 10442 2a0f 50       		.byte	0x50
ARM GAS  /tmp/cczXzW7i.s 			page 185


 10443 2a10 02       		.uleb128 0x2
 10444 2a11 75       		.byte	0x75
 10445 2a12 00       		.sleb128 0
 10446 2a13 32       		.uleb128 0x32
 10447 2a14 01       		.uleb128 0x1
 10448 2a15 51       		.byte	0x51
 10449 2a16 02       		.uleb128 0x2
 10450 2a17 76       		.byte	0x76
 10451 2a18 00       		.sleb128 0
 10452 2a19 00       		.byte	0
 10453 2a1a 3C       		.uleb128 0x3c
 10454 2a1b E0010000 		.4byte	.LVL343
 10455 2a1f 334B0000 		.4byte	0x4b33
 10456 2a23 342A0000 		.4byte	0x2a34
 10457 2a27 32       		.uleb128 0x32
 10458 2a28 01       		.uleb128 0x1
 10459 2a29 50       		.byte	0x50
 10460 2a2a 02       		.uleb128 0x2
 10461 2a2b 75       		.byte	0x75
 10462 2a2c 00       		.sleb128 0
 10463 2a2d 32       		.uleb128 0x32
 10464 2a2e 01       		.uleb128 0x1
 10465 2a2f 51       		.byte	0x51
 10466 2a30 02       		.uleb128 0x2
 10467 2a31 76       		.byte	0x76
 10468 2a32 00       		.sleb128 0
 10469 2a33 00       		.byte	0
 10470 2a34 3C       		.uleb128 0x3c
 10471 2a35 EC010000 		.4byte	.LVL344
 10472 2a39 3E4B0000 		.4byte	0x4b3e
 10473 2a3d 4E2A0000 		.4byte	0x2a4e
 10474 2a41 32       		.uleb128 0x32
 10475 2a42 01       		.uleb128 0x1
 10476 2a43 50       		.byte	0x50
 10477 2a44 02       		.uleb128 0x2
 10478 2a45 75       		.byte	0x75
 10479 2a46 00       		.sleb128 0
 10480 2a47 32       		.uleb128 0x32
 10481 2a48 01       		.uleb128 0x1
 10482 2a49 52       		.byte	0x52
 10483 2a4a 02       		.uleb128 0x2
 10484 2a4b 76       		.byte	0x76
 10485 2a4c 00       		.sleb128 0
 10486 2a4d 00       		.byte	0
 10487 2a4e 3C       		.uleb128 0x3c
 10488 2a4f F8010000 		.4byte	.LVL345
 10489 2a53 284B0000 		.4byte	0x4b28
 10490 2a57 682A0000 		.4byte	0x2a68
 10491 2a5b 32       		.uleb128 0x32
 10492 2a5c 01       		.uleb128 0x1
 10493 2a5d 50       		.byte	0x50
 10494 2a5e 02       		.uleb128 0x2
 10495 2a5f 75       		.byte	0x75
 10496 2a60 00       		.sleb128 0
 10497 2a61 32       		.uleb128 0x32
 10498 2a62 01       		.uleb128 0x1
 10499 2a63 52       		.byte	0x52
ARM GAS  /tmp/cczXzW7i.s 			page 186


 10500 2a64 02       		.uleb128 0x2
 10501 2a65 76       		.byte	0x76
 10502 2a66 00       		.sleb128 0
 10503 2a67 00       		.byte	0
 10504 2a68 3C       		.uleb128 0x3c
 10505 2a69 10020000 		.4byte	.LVL346
 10506 2a6d 334B0000 		.4byte	0x4b33
 10507 2a71 822A0000 		.4byte	0x2a82
 10508 2a75 32       		.uleb128 0x32
 10509 2a76 01       		.uleb128 0x1
 10510 2a77 50       		.byte	0x50
 10511 2a78 02       		.uleb128 0x2
 10512 2a79 75       		.byte	0x75
 10513 2a7a 00       		.sleb128 0
 10514 2a7b 32       		.uleb128 0x32
 10515 2a7c 01       		.uleb128 0x1
 10516 2a7d 51       		.byte	0x51
 10517 2a7e 02       		.uleb128 0x2
 10518 2a7f 76       		.byte	0x76
 10519 2a80 00       		.sleb128 0
 10520 2a81 00       		.byte	0
 10521 2a82 3C       		.uleb128 0x3c
 10522 2a83 1C020000 		.4byte	.LVL347
 10523 2a87 334B0000 		.4byte	0x4b33
 10524 2a8b 9C2A0000 		.4byte	0x2a9c
 10525 2a8f 32       		.uleb128 0x32
 10526 2a90 01       		.uleb128 0x1
 10527 2a91 50       		.byte	0x50
 10528 2a92 02       		.uleb128 0x2
 10529 2a93 75       		.byte	0x75
 10530 2a94 00       		.sleb128 0
 10531 2a95 32       		.uleb128 0x32
 10532 2a96 01       		.uleb128 0x1
 10533 2a97 51       		.byte	0x51
 10534 2a98 02       		.uleb128 0x2
 10535 2a99 76       		.byte	0x76
 10536 2a9a 00       		.sleb128 0
 10537 2a9b 00       		.byte	0
 10538 2a9c 3C       		.uleb128 0x3c
 10539 2a9d 28020000 		.4byte	.LVL348
 10540 2aa1 334B0000 		.4byte	0x4b33
 10541 2aa5 B62A0000 		.4byte	0x2ab6
 10542 2aa9 32       		.uleb128 0x32
 10543 2aaa 01       		.uleb128 0x1
 10544 2aab 50       		.byte	0x50
 10545 2aac 02       		.uleb128 0x2
 10546 2aad 75       		.byte	0x75
 10547 2aae 00       		.sleb128 0
 10548 2aaf 32       		.uleb128 0x32
 10549 2ab0 01       		.uleb128 0x1
 10550 2ab1 51       		.byte	0x51
 10551 2ab2 02       		.uleb128 0x2
 10552 2ab3 76       		.byte	0x76
 10553 2ab4 00       		.sleb128 0
 10554 2ab5 00       		.byte	0
 10555 2ab6 3C       		.uleb128 0x3c
 10556 2ab7 34020000 		.4byte	.LVL349
ARM GAS  /tmp/cczXzW7i.s 			page 187


 10557 2abb 334B0000 		.4byte	0x4b33
 10558 2abf D02A0000 		.4byte	0x2ad0
 10559 2ac3 32       		.uleb128 0x32
 10560 2ac4 01       		.uleb128 0x1
 10561 2ac5 50       		.byte	0x50
 10562 2ac6 02       		.uleb128 0x2
 10563 2ac7 75       		.byte	0x75
 10564 2ac8 00       		.sleb128 0
 10565 2ac9 32       		.uleb128 0x32
 10566 2aca 01       		.uleb128 0x1
 10567 2acb 51       		.byte	0x51
 10568 2acc 02       		.uleb128 0x2
 10569 2acd 76       		.byte	0x76
 10570 2ace 00       		.sleb128 0
 10571 2acf 00       		.byte	0
 10572 2ad0 3C       		.uleb128 0x3c
 10573 2ad1 40020000 		.4byte	.LVL350
 10574 2ad5 334B0000 		.4byte	0x4b33
 10575 2ad9 EA2A0000 		.4byte	0x2aea
 10576 2add 32       		.uleb128 0x32
 10577 2ade 01       		.uleb128 0x1
 10578 2adf 50       		.byte	0x50
 10579 2ae0 02       		.uleb128 0x2
 10580 2ae1 75       		.byte	0x75
 10581 2ae2 00       		.sleb128 0
 10582 2ae3 32       		.uleb128 0x32
 10583 2ae4 01       		.uleb128 0x1
 10584 2ae5 51       		.byte	0x51
 10585 2ae6 02       		.uleb128 0x2
 10586 2ae7 76       		.byte	0x76
 10587 2ae8 00       		.sleb128 0
 10588 2ae9 00       		.byte	0
 10589 2aea 3C       		.uleb128 0x3c
 10590 2aeb 4C020000 		.4byte	.LVL351
 10591 2aef 334B0000 		.4byte	0x4b33
 10592 2af3 042B0000 		.4byte	0x2b04
 10593 2af7 32       		.uleb128 0x32
 10594 2af8 01       		.uleb128 0x1
 10595 2af9 50       		.byte	0x50
 10596 2afa 02       		.uleb128 0x2
 10597 2afb 75       		.byte	0x75
 10598 2afc 00       		.sleb128 0
 10599 2afd 32       		.uleb128 0x32
 10600 2afe 01       		.uleb128 0x1
 10601 2aff 51       		.byte	0x51
 10602 2b00 02       		.uleb128 0x2
 10603 2b01 76       		.byte	0x76
 10604 2b02 00       		.sleb128 0
 10605 2b03 00       		.byte	0
 10606 2b04 3B       		.uleb128 0x3b
 10607 2b05 72020000 		.4byte	.LVL352
 10608 2b09 334B0000 		.4byte	0x4b33
 10609 2b0d 32       		.uleb128 0x32
 10610 2b0e 01       		.uleb128 0x1
 10611 2b0f 50       		.byte	0x50
 10612 2b10 02       		.uleb128 0x2
 10613 2b11 75       		.byte	0x75
ARM GAS  /tmp/cczXzW7i.s 			page 188


 10614 2b12 00       		.sleb128 0
 10615 2b13 32       		.uleb128 0x32
 10616 2b14 01       		.uleb128 0x1
 10617 2b15 51       		.byte	0x51
 10618 2b16 02       		.uleb128 0x2
 10619 2b17 76       		.byte	0x76
 10620 2b18 00       		.sleb128 0
 10621 2b19 00       		.byte	0
 10622 2b1a 00       		.byte	0
 10623 2b1b 0B       		.uleb128 0xb
 10624 2b1c 04       		.byte	0x4
 10625 2b1d D2160000 		.4byte	0x16d2
 10626 2b21 30       		.uleb128 0x30
 10627 2b22 EA0E0000 		.4byte	.LASF622
 10628 2b26 01       		.byte	0x1
 10629 2b27 7102     		.2byte	0x271
 10630 2b29 00000000 		.4byte	.LFB255
 10631 2b2d 84040000 		.4byte	.LFE255-.LFB255
 10632 2b31 01       		.uleb128 0x1
 10633 2b32 9C       		.byte	0x9c
 10634 2b33 5C330000 		.4byte	0x335c
 10635 2b37 2F       		.uleb128 0x2f
 10636 2b38 F31F0000 		.4byte	.LASF578
 10637 2b3c 01       		.byte	0x1
 10638 2b3d 7102     		.2byte	0x271
 10639 2b3f 5C330000 		.4byte	0x335c
 10640 2b43 60010000 		.4byte	.LLST34
 10641 2b47 3E       		.uleb128 0x3e
 10642 2b48 696E6400 		.ascii	"ind\000"
 10643 2b4c 01       		.byte	0x1
 10644 2b4d 7202     		.2byte	0x272
 10645 2b4f DA000000 		.4byte	0xda
 10646 2b53 02       		.uleb128 0x2
 10647 2b54 91       		.byte	0x91
 10648 2b55 6C       		.sleb128 -20
 10649 2b56 39       		.uleb128 0x39
 10650 2b57 B8220000 		.4byte	0x22b8
 10651 2b5b 60040000 		.4byte	.LBB72
 10652 2b5f 50000000 		.4byte	.Ldebug_ranges0+0x50
 10653 2b63 01       		.byte	0x1
 10654 2b64 DF02     		.2byte	0x2df
 10655 2b66 8D2B0000 		.4byte	0x2b8d
 10656 2b6a 3A       		.uleb128 0x3a
 10657 2b6b D1220000 		.4byte	0x22d1
 10658 2b6f 8C010000 		.4byte	.LLST35
 10659 2b73 3A       		.uleb128 0x3a
 10660 2b74 C5220000 		.4byte	0x22c5
 10661 2b78 9F010000 		.4byte	.LLST36
 10662 2b7c 3B       		.uleb128 0x3b
 10663 2b7d 7C040000 		.4byte	.LVL316
 10664 2b81 574A0000 		.4byte	0x4a57
 10665 2b85 32       		.uleb128 0x32
 10666 2b86 01       		.uleb128 0x1
 10667 2b87 50       		.byte	0x50
 10668 2b88 02       		.uleb128 0x2
 10669 2b89 74       		.byte	0x74
 10670 2b8a 00       		.sleb128 0
ARM GAS  /tmp/cczXzW7i.s 			page 189


 10671 2b8b 00       		.byte	0
 10672 2b8c 00       		.byte	0
 10673 2b8d 3C       		.uleb128 0x3c
 10674 2b8e 30000000 		.4byte	.LVL236
 10675 2b92 334B0000 		.4byte	0x4b33
 10676 2b96 A72B0000 		.4byte	0x2ba7
 10677 2b9a 32       		.uleb128 0x32
 10678 2b9b 01       		.uleb128 0x1
 10679 2b9c 50       		.byte	0x50
 10680 2b9d 02       		.uleb128 0x2
 10681 2b9e 74       		.byte	0x74
 10682 2b9f 00       		.sleb128 0
 10683 2ba0 32       		.uleb128 0x32
 10684 2ba1 01       		.uleb128 0x1
 10685 2ba2 51       		.byte	0x51
 10686 2ba3 02       		.uleb128 0x2
 10687 2ba4 76       		.byte	0x76
 10688 2ba5 00       		.sleb128 0
 10689 2ba6 00       		.byte	0
 10690 2ba7 3C       		.uleb128 0x3c
 10691 2ba8 3C000000 		.4byte	.LVL237
 10692 2bac 334B0000 		.4byte	0x4b33
 10693 2bb0 C12B0000 		.4byte	0x2bc1
 10694 2bb4 32       		.uleb128 0x32
 10695 2bb5 01       		.uleb128 0x1
 10696 2bb6 50       		.byte	0x50
 10697 2bb7 02       		.uleb128 0x2
 10698 2bb8 74       		.byte	0x74
 10699 2bb9 00       		.sleb128 0
 10700 2bba 32       		.uleb128 0x32
 10701 2bbb 01       		.uleb128 0x1
 10702 2bbc 51       		.byte	0x51
 10703 2bbd 02       		.uleb128 0x2
 10704 2bbe 76       		.byte	0x76
 10705 2bbf 00       		.sleb128 0
 10706 2bc0 00       		.byte	0
 10707 2bc1 3C       		.uleb128 0x3c
 10708 2bc2 48000000 		.4byte	.LVL238
 10709 2bc6 334B0000 		.4byte	0x4b33
 10710 2bca DB2B0000 		.4byte	0x2bdb
 10711 2bce 32       		.uleb128 0x32
 10712 2bcf 01       		.uleb128 0x1
 10713 2bd0 50       		.byte	0x50
 10714 2bd1 02       		.uleb128 0x2
 10715 2bd2 74       		.byte	0x74
 10716 2bd3 00       		.sleb128 0
 10717 2bd4 32       		.uleb128 0x32
 10718 2bd5 01       		.uleb128 0x1
 10719 2bd6 51       		.byte	0x51
 10720 2bd7 02       		.uleb128 0x2
 10721 2bd8 76       		.byte	0x76
 10722 2bd9 00       		.sleb128 0
 10723 2bda 00       		.byte	0
 10724 2bdb 3C       		.uleb128 0x3c
 10725 2bdc 54000000 		.4byte	.LVL239
 10726 2be0 334B0000 		.4byte	0x4b33
 10727 2be4 F52B0000 		.4byte	0x2bf5
ARM GAS  /tmp/cczXzW7i.s 			page 190


 10728 2be8 32       		.uleb128 0x32
 10729 2be9 01       		.uleb128 0x1
 10730 2bea 50       		.byte	0x50
 10731 2beb 02       		.uleb128 0x2
 10732 2bec 74       		.byte	0x74
 10733 2bed 00       		.sleb128 0
 10734 2bee 32       		.uleb128 0x32
 10735 2bef 01       		.uleb128 0x1
 10736 2bf0 51       		.byte	0x51
 10737 2bf1 02       		.uleb128 0x2
 10738 2bf2 76       		.byte	0x76
 10739 2bf3 00       		.sleb128 0
 10740 2bf4 00       		.byte	0
 10741 2bf5 3C       		.uleb128 0x3c
 10742 2bf6 60000000 		.4byte	.LVL240
 10743 2bfa 334B0000 		.4byte	0x4b33
 10744 2bfe 0F2C0000 		.4byte	0x2c0f
 10745 2c02 32       		.uleb128 0x32
 10746 2c03 01       		.uleb128 0x1
 10747 2c04 50       		.byte	0x50
 10748 2c05 02       		.uleb128 0x2
 10749 2c06 74       		.byte	0x74
 10750 2c07 00       		.sleb128 0
 10751 2c08 32       		.uleb128 0x32
 10752 2c09 01       		.uleb128 0x1
 10753 2c0a 51       		.byte	0x51
 10754 2c0b 02       		.uleb128 0x2
 10755 2c0c 76       		.byte	0x76
 10756 2c0d 00       		.sleb128 0
 10757 2c0e 00       		.byte	0
 10758 2c0f 3C       		.uleb128 0x3c
 10759 2c10 6C000000 		.4byte	.LVL241
 10760 2c14 334B0000 		.4byte	0x4b33
 10761 2c18 292C0000 		.4byte	0x2c29
 10762 2c1c 32       		.uleb128 0x32
 10763 2c1d 01       		.uleb128 0x1
 10764 2c1e 50       		.byte	0x50
 10765 2c1f 02       		.uleb128 0x2
 10766 2c20 74       		.byte	0x74
 10767 2c21 00       		.sleb128 0
 10768 2c22 32       		.uleb128 0x32
 10769 2c23 01       		.uleb128 0x1
 10770 2c24 51       		.byte	0x51
 10771 2c25 02       		.uleb128 0x2
 10772 2c26 76       		.byte	0x76
 10773 2c27 00       		.sleb128 0
 10774 2c28 00       		.byte	0
 10775 2c29 3C       		.uleb128 0x3c
 10776 2c2a 78000000 		.4byte	.LVL242
 10777 2c2e 334B0000 		.4byte	0x4b33
 10778 2c32 432C0000 		.4byte	0x2c43
 10779 2c36 32       		.uleb128 0x32
 10780 2c37 01       		.uleb128 0x1
 10781 2c38 50       		.byte	0x50
 10782 2c39 02       		.uleb128 0x2
 10783 2c3a 74       		.byte	0x74
 10784 2c3b 00       		.sleb128 0
ARM GAS  /tmp/cczXzW7i.s 			page 191


 10785 2c3c 32       		.uleb128 0x32
 10786 2c3d 01       		.uleb128 0x1
 10787 2c3e 51       		.byte	0x51
 10788 2c3f 02       		.uleb128 0x2
 10789 2c40 76       		.byte	0x76
 10790 2c41 00       		.sleb128 0
 10791 2c42 00       		.byte	0
 10792 2c43 3C       		.uleb128 0x3c
 10793 2c44 84000000 		.4byte	.LVL243
 10794 2c48 334B0000 		.4byte	0x4b33
 10795 2c4c 5D2C0000 		.4byte	0x2c5d
 10796 2c50 32       		.uleb128 0x32
 10797 2c51 01       		.uleb128 0x1
 10798 2c52 50       		.byte	0x50
 10799 2c53 02       		.uleb128 0x2
 10800 2c54 74       		.byte	0x74
 10801 2c55 00       		.sleb128 0
 10802 2c56 32       		.uleb128 0x32
 10803 2c57 01       		.uleb128 0x1
 10804 2c58 51       		.byte	0x51
 10805 2c59 02       		.uleb128 0x2
 10806 2c5a 76       		.byte	0x76
 10807 2c5b 00       		.sleb128 0
 10808 2c5c 00       		.byte	0
 10809 2c5d 3C       		.uleb128 0x3c
 10810 2c5e 90000000 		.4byte	.LVL244
 10811 2c62 334B0000 		.4byte	0x4b33
 10812 2c66 772C0000 		.4byte	0x2c77
 10813 2c6a 32       		.uleb128 0x32
 10814 2c6b 01       		.uleb128 0x1
 10815 2c6c 50       		.byte	0x50
 10816 2c6d 02       		.uleb128 0x2
 10817 2c6e 74       		.byte	0x74
 10818 2c6f 00       		.sleb128 0
 10819 2c70 32       		.uleb128 0x32
 10820 2c71 01       		.uleb128 0x1
 10821 2c72 51       		.byte	0x51
 10822 2c73 02       		.uleb128 0x2
 10823 2c74 76       		.byte	0x76
 10824 2c75 00       		.sleb128 0
 10825 2c76 00       		.byte	0
 10826 2c77 3C       		.uleb128 0x3c
 10827 2c78 9C000000 		.4byte	.LVL245
 10828 2c7c 334B0000 		.4byte	0x4b33
 10829 2c80 912C0000 		.4byte	0x2c91
 10830 2c84 32       		.uleb128 0x32
 10831 2c85 01       		.uleb128 0x1
 10832 2c86 50       		.byte	0x50
 10833 2c87 02       		.uleb128 0x2
 10834 2c88 74       		.byte	0x74
 10835 2c89 00       		.sleb128 0
 10836 2c8a 32       		.uleb128 0x32
 10837 2c8b 01       		.uleb128 0x1
 10838 2c8c 51       		.byte	0x51
 10839 2c8d 02       		.uleb128 0x2
 10840 2c8e 76       		.byte	0x76
 10841 2c8f 00       		.sleb128 0
ARM GAS  /tmp/cczXzW7i.s 			page 192


 10842 2c90 00       		.byte	0
 10843 2c91 3C       		.uleb128 0x3c
 10844 2c92 A8000000 		.4byte	.LVL246
 10845 2c96 334B0000 		.4byte	0x4b33
 10846 2c9a AB2C0000 		.4byte	0x2cab
 10847 2c9e 32       		.uleb128 0x32
 10848 2c9f 01       		.uleb128 0x1
 10849 2ca0 50       		.byte	0x50
 10850 2ca1 02       		.uleb128 0x2
 10851 2ca2 74       		.byte	0x74
 10852 2ca3 00       		.sleb128 0
 10853 2ca4 32       		.uleb128 0x32
 10854 2ca5 01       		.uleb128 0x1
 10855 2ca6 51       		.byte	0x51
 10856 2ca7 02       		.uleb128 0x2
 10857 2ca8 76       		.byte	0x76
 10858 2ca9 00       		.sleb128 0
 10859 2caa 00       		.byte	0
 10860 2cab 3C       		.uleb128 0x3c
 10861 2cac B4000000 		.4byte	.LVL247
 10862 2cb0 334B0000 		.4byte	0x4b33
 10863 2cb4 C52C0000 		.4byte	0x2cc5
 10864 2cb8 32       		.uleb128 0x32
 10865 2cb9 01       		.uleb128 0x1
 10866 2cba 50       		.byte	0x50
 10867 2cbb 02       		.uleb128 0x2
 10868 2cbc 74       		.byte	0x74
 10869 2cbd 00       		.sleb128 0
 10870 2cbe 32       		.uleb128 0x32
 10871 2cbf 01       		.uleb128 0x1
 10872 2cc0 51       		.byte	0x51
 10873 2cc1 02       		.uleb128 0x2
 10874 2cc2 76       		.byte	0x76
 10875 2cc3 00       		.sleb128 0
 10876 2cc4 00       		.byte	0
 10877 2cc5 3C       		.uleb128 0x3c
 10878 2cc6 C0000000 		.4byte	.LVL248
 10879 2cca 334B0000 		.4byte	0x4b33
 10880 2cce DF2C0000 		.4byte	0x2cdf
 10881 2cd2 32       		.uleb128 0x32
 10882 2cd3 01       		.uleb128 0x1
 10883 2cd4 50       		.byte	0x50
 10884 2cd5 02       		.uleb128 0x2
 10885 2cd6 74       		.byte	0x74
 10886 2cd7 00       		.sleb128 0
 10887 2cd8 32       		.uleb128 0x32
 10888 2cd9 01       		.uleb128 0x1
 10889 2cda 51       		.byte	0x51
 10890 2cdb 02       		.uleb128 0x2
 10891 2cdc 76       		.byte	0x76
 10892 2cdd 00       		.sleb128 0
 10893 2cde 00       		.byte	0
 10894 2cdf 3C       		.uleb128 0x3c
 10895 2ce0 CC000000 		.4byte	.LVL249
 10896 2ce4 334B0000 		.4byte	0x4b33
 10897 2ce8 F92C0000 		.4byte	0x2cf9
 10898 2cec 32       		.uleb128 0x32
ARM GAS  /tmp/cczXzW7i.s 			page 193


 10899 2ced 01       		.uleb128 0x1
 10900 2cee 50       		.byte	0x50
 10901 2cef 02       		.uleb128 0x2
 10902 2cf0 74       		.byte	0x74
 10903 2cf1 00       		.sleb128 0
 10904 2cf2 32       		.uleb128 0x32
 10905 2cf3 01       		.uleb128 0x1
 10906 2cf4 51       		.byte	0x51
 10907 2cf5 02       		.uleb128 0x2
 10908 2cf6 76       		.byte	0x76
 10909 2cf7 00       		.sleb128 0
 10910 2cf8 00       		.byte	0
 10911 2cf9 3C       		.uleb128 0x3c
 10912 2cfa E4000000 		.4byte	.LVL250
 10913 2cfe 334B0000 		.4byte	0x4b33
 10914 2d02 132D0000 		.4byte	0x2d13
 10915 2d06 32       		.uleb128 0x32
 10916 2d07 01       		.uleb128 0x1
 10917 2d08 50       		.byte	0x50
 10918 2d09 02       		.uleb128 0x2
 10919 2d0a 74       		.byte	0x74
 10920 2d0b 00       		.sleb128 0
 10921 2d0c 32       		.uleb128 0x32
 10922 2d0d 01       		.uleb128 0x1
 10923 2d0e 51       		.byte	0x51
 10924 2d0f 02       		.uleb128 0x2
 10925 2d10 76       		.byte	0x76
 10926 2d11 00       		.sleb128 0
 10927 2d12 00       		.byte	0
 10928 2d13 3C       		.uleb128 0x3c
 10929 2d14 F0000000 		.4byte	.LVL251
 10930 2d18 334B0000 		.4byte	0x4b33
 10931 2d1c 2D2D0000 		.4byte	0x2d2d
 10932 2d20 32       		.uleb128 0x32
 10933 2d21 01       		.uleb128 0x1
 10934 2d22 50       		.byte	0x50
 10935 2d23 02       		.uleb128 0x2
 10936 2d24 74       		.byte	0x74
 10937 2d25 00       		.sleb128 0
 10938 2d26 32       		.uleb128 0x32
 10939 2d27 01       		.uleb128 0x1
 10940 2d28 51       		.byte	0x51
 10941 2d29 02       		.uleb128 0x2
 10942 2d2a 76       		.byte	0x76
 10943 2d2b 00       		.sleb128 0
 10944 2d2c 00       		.byte	0
 10945 2d2d 3C       		.uleb128 0x3c
 10946 2d2e FC000000 		.4byte	.LVL252
 10947 2d32 334B0000 		.4byte	0x4b33
 10948 2d36 472D0000 		.4byte	0x2d47
 10949 2d3a 32       		.uleb128 0x32
 10950 2d3b 01       		.uleb128 0x1
 10951 2d3c 50       		.byte	0x50
 10952 2d3d 02       		.uleb128 0x2
 10953 2d3e 74       		.byte	0x74
 10954 2d3f 00       		.sleb128 0
 10955 2d40 32       		.uleb128 0x32
ARM GAS  /tmp/cczXzW7i.s 			page 194


 10956 2d41 01       		.uleb128 0x1
 10957 2d42 51       		.byte	0x51
 10958 2d43 02       		.uleb128 0x2
 10959 2d44 76       		.byte	0x76
 10960 2d45 00       		.sleb128 0
 10961 2d46 00       		.byte	0
 10962 2d47 3C       		.uleb128 0x3c
 10963 2d48 08010000 		.4byte	.LVL253
 10964 2d4c 334B0000 		.4byte	0x4b33
 10965 2d50 612D0000 		.4byte	0x2d61
 10966 2d54 32       		.uleb128 0x32
 10967 2d55 01       		.uleb128 0x1
 10968 2d56 50       		.byte	0x50
 10969 2d57 02       		.uleb128 0x2
 10970 2d58 74       		.byte	0x74
 10971 2d59 00       		.sleb128 0
 10972 2d5a 32       		.uleb128 0x32
 10973 2d5b 01       		.uleb128 0x1
 10974 2d5c 51       		.byte	0x51
 10975 2d5d 02       		.uleb128 0x2
 10976 2d5e 76       		.byte	0x76
 10977 2d5f 00       		.sleb128 0
 10978 2d60 00       		.byte	0
 10979 2d61 3C       		.uleb128 0x3c
 10980 2d62 14010000 		.4byte	.LVL254
 10981 2d66 334B0000 		.4byte	0x4b33
 10982 2d6a 7B2D0000 		.4byte	0x2d7b
 10983 2d6e 32       		.uleb128 0x32
 10984 2d6f 01       		.uleb128 0x1
 10985 2d70 50       		.byte	0x50
 10986 2d71 02       		.uleb128 0x2
 10987 2d72 74       		.byte	0x74
 10988 2d73 00       		.sleb128 0
 10989 2d74 32       		.uleb128 0x32
 10990 2d75 01       		.uleb128 0x1
 10991 2d76 51       		.byte	0x51
 10992 2d77 02       		.uleb128 0x2
 10993 2d78 76       		.byte	0x76
 10994 2d79 00       		.sleb128 0
 10995 2d7a 00       		.byte	0
 10996 2d7b 3C       		.uleb128 0x3c
 10997 2d7c 20010000 		.4byte	.LVL255
 10998 2d80 334B0000 		.4byte	0x4b33
 10999 2d84 952D0000 		.4byte	0x2d95
 11000 2d88 32       		.uleb128 0x32
 11001 2d89 01       		.uleb128 0x1
 11002 2d8a 50       		.byte	0x50
 11003 2d8b 02       		.uleb128 0x2
 11004 2d8c 74       		.byte	0x74
 11005 2d8d 00       		.sleb128 0
 11006 2d8e 32       		.uleb128 0x32
 11007 2d8f 01       		.uleb128 0x1
 11008 2d90 51       		.byte	0x51
 11009 2d91 02       		.uleb128 0x2
 11010 2d92 76       		.byte	0x76
 11011 2d93 00       		.sleb128 0
 11012 2d94 00       		.byte	0
ARM GAS  /tmp/cczXzW7i.s 			page 195


 11013 2d95 3C       		.uleb128 0x3c
 11014 2d96 2C010000 		.4byte	.LVL256
 11015 2d9a 334B0000 		.4byte	0x4b33
 11016 2d9e AF2D0000 		.4byte	0x2daf
 11017 2da2 32       		.uleb128 0x32
 11018 2da3 01       		.uleb128 0x1
 11019 2da4 50       		.byte	0x50
 11020 2da5 02       		.uleb128 0x2
 11021 2da6 74       		.byte	0x74
 11022 2da7 00       		.sleb128 0
 11023 2da8 32       		.uleb128 0x32
 11024 2da9 01       		.uleb128 0x1
 11025 2daa 51       		.byte	0x51
 11026 2dab 02       		.uleb128 0x2
 11027 2dac 76       		.byte	0x76
 11028 2dad 00       		.sleb128 0
 11029 2dae 00       		.byte	0
 11030 2daf 3C       		.uleb128 0x3c
 11031 2db0 38010000 		.4byte	.LVL257
 11032 2db4 334B0000 		.4byte	0x4b33
 11033 2db8 C92D0000 		.4byte	0x2dc9
 11034 2dbc 32       		.uleb128 0x32
 11035 2dbd 01       		.uleb128 0x1
 11036 2dbe 50       		.byte	0x50
 11037 2dbf 02       		.uleb128 0x2
 11038 2dc0 74       		.byte	0x74
 11039 2dc1 00       		.sleb128 0
 11040 2dc2 32       		.uleb128 0x32
 11041 2dc3 01       		.uleb128 0x1
 11042 2dc4 51       		.byte	0x51
 11043 2dc5 02       		.uleb128 0x2
 11044 2dc6 76       		.byte	0x76
 11045 2dc7 00       		.sleb128 0
 11046 2dc8 00       		.byte	0
 11047 2dc9 3C       		.uleb128 0x3c
 11048 2dca 44010000 		.4byte	.LVL258
 11049 2dce 334B0000 		.4byte	0x4b33
 11050 2dd2 E32D0000 		.4byte	0x2de3
 11051 2dd6 32       		.uleb128 0x32
 11052 2dd7 01       		.uleb128 0x1
 11053 2dd8 50       		.byte	0x50
 11054 2dd9 02       		.uleb128 0x2
 11055 2dda 74       		.byte	0x74
 11056 2ddb 00       		.sleb128 0
 11057 2ddc 32       		.uleb128 0x32
 11058 2ddd 01       		.uleb128 0x1
 11059 2dde 51       		.byte	0x51
 11060 2ddf 02       		.uleb128 0x2
 11061 2de0 76       		.byte	0x76
 11062 2de1 00       		.sleb128 0
 11063 2de2 00       		.byte	0
 11064 2de3 3C       		.uleb128 0x3c
 11065 2de4 50010000 		.4byte	.LVL259
 11066 2de8 334B0000 		.4byte	0x4b33
 11067 2dec FD2D0000 		.4byte	0x2dfd
 11068 2df0 32       		.uleb128 0x32
 11069 2df1 01       		.uleb128 0x1
ARM GAS  /tmp/cczXzW7i.s 			page 196


 11070 2df2 50       		.byte	0x50
 11071 2df3 02       		.uleb128 0x2
 11072 2df4 74       		.byte	0x74
 11073 2df5 00       		.sleb128 0
 11074 2df6 32       		.uleb128 0x32
 11075 2df7 01       		.uleb128 0x1
 11076 2df8 51       		.byte	0x51
 11077 2df9 02       		.uleb128 0x2
 11078 2dfa 76       		.byte	0x76
 11079 2dfb 00       		.sleb128 0
 11080 2dfc 00       		.byte	0
 11081 2dfd 3C       		.uleb128 0x3c
 11082 2dfe 5C010000 		.4byte	.LVL260
 11083 2e02 334B0000 		.4byte	0x4b33
 11084 2e06 172E0000 		.4byte	0x2e17
 11085 2e0a 32       		.uleb128 0x32
 11086 2e0b 01       		.uleb128 0x1
 11087 2e0c 50       		.byte	0x50
 11088 2e0d 02       		.uleb128 0x2
 11089 2e0e 74       		.byte	0x74
 11090 2e0f 00       		.sleb128 0
 11091 2e10 32       		.uleb128 0x32
 11092 2e11 01       		.uleb128 0x1
 11093 2e12 51       		.byte	0x51
 11094 2e13 02       		.uleb128 0x2
 11095 2e14 76       		.byte	0x76
 11096 2e15 00       		.sleb128 0
 11097 2e16 00       		.byte	0
 11098 2e17 3C       		.uleb128 0x3c
 11099 2e18 68010000 		.4byte	.LVL261
 11100 2e1c 334B0000 		.4byte	0x4b33
 11101 2e20 312E0000 		.4byte	0x2e31
 11102 2e24 32       		.uleb128 0x32
 11103 2e25 01       		.uleb128 0x1
 11104 2e26 50       		.byte	0x50
 11105 2e27 02       		.uleb128 0x2
 11106 2e28 74       		.byte	0x74
 11107 2e29 00       		.sleb128 0
 11108 2e2a 32       		.uleb128 0x32
 11109 2e2b 01       		.uleb128 0x1
 11110 2e2c 51       		.byte	0x51
 11111 2e2d 02       		.uleb128 0x2
 11112 2e2e 76       		.byte	0x76
 11113 2e2f 00       		.sleb128 0
 11114 2e30 00       		.byte	0
 11115 2e31 3C       		.uleb128 0x3c
 11116 2e32 74010000 		.4byte	.LVL262
 11117 2e36 334B0000 		.4byte	0x4b33
 11118 2e3a 4B2E0000 		.4byte	0x2e4b
 11119 2e3e 32       		.uleb128 0x32
 11120 2e3f 01       		.uleb128 0x1
 11121 2e40 50       		.byte	0x50
 11122 2e41 02       		.uleb128 0x2
 11123 2e42 74       		.byte	0x74
 11124 2e43 00       		.sleb128 0
 11125 2e44 32       		.uleb128 0x32
 11126 2e45 01       		.uleb128 0x1
ARM GAS  /tmp/cczXzW7i.s 			page 197


 11127 2e46 51       		.byte	0x51
 11128 2e47 02       		.uleb128 0x2
 11129 2e48 76       		.byte	0x76
 11130 2e49 00       		.sleb128 0
 11131 2e4a 00       		.byte	0
 11132 2e4b 3C       		.uleb128 0x3c
 11133 2e4c 80010000 		.4byte	.LVL263
 11134 2e50 334B0000 		.4byte	0x4b33
 11135 2e54 652E0000 		.4byte	0x2e65
 11136 2e58 32       		.uleb128 0x32
 11137 2e59 01       		.uleb128 0x1
 11138 2e5a 50       		.byte	0x50
 11139 2e5b 02       		.uleb128 0x2
 11140 2e5c 74       		.byte	0x74
 11141 2e5d 00       		.sleb128 0
 11142 2e5e 32       		.uleb128 0x32
 11143 2e5f 01       		.uleb128 0x1
 11144 2e60 51       		.byte	0x51
 11145 2e61 02       		.uleb128 0x2
 11146 2e62 76       		.byte	0x76
 11147 2e63 00       		.sleb128 0
 11148 2e64 00       		.byte	0
 11149 2e65 3C       		.uleb128 0x3c
 11150 2e66 8C010000 		.4byte	.LVL264
 11151 2e6a 334B0000 		.4byte	0x4b33
 11152 2e6e 7F2E0000 		.4byte	0x2e7f
 11153 2e72 32       		.uleb128 0x32
 11154 2e73 01       		.uleb128 0x1
 11155 2e74 50       		.byte	0x50
 11156 2e75 02       		.uleb128 0x2
 11157 2e76 74       		.byte	0x74
 11158 2e77 00       		.sleb128 0
 11159 2e78 32       		.uleb128 0x32
 11160 2e79 01       		.uleb128 0x1
 11161 2e7a 51       		.byte	0x51
 11162 2e7b 02       		.uleb128 0x2
 11163 2e7c 76       		.byte	0x76
 11164 2e7d 00       		.sleb128 0
 11165 2e7e 00       		.byte	0
 11166 2e7f 3C       		.uleb128 0x3c
 11167 2e80 98010000 		.4byte	.LVL265
 11168 2e84 334B0000 		.4byte	0x4b33
 11169 2e88 992E0000 		.4byte	0x2e99
 11170 2e8c 32       		.uleb128 0x32
 11171 2e8d 01       		.uleb128 0x1
 11172 2e8e 50       		.byte	0x50
 11173 2e8f 02       		.uleb128 0x2
 11174 2e90 74       		.byte	0x74
 11175 2e91 00       		.sleb128 0
 11176 2e92 32       		.uleb128 0x32
 11177 2e93 01       		.uleb128 0x1
 11178 2e94 51       		.byte	0x51
 11179 2e95 02       		.uleb128 0x2
 11180 2e96 76       		.byte	0x76
 11181 2e97 00       		.sleb128 0
 11182 2e98 00       		.byte	0
 11183 2e99 3C       		.uleb128 0x3c
ARM GAS  /tmp/cczXzW7i.s 			page 198


 11184 2e9a B8010000 		.4byte	.LVL266
 11185 2e9e 334B0000 		.4byte	0x4b33
 11186 2ea2 B32E0000 		.4byte	0x2eb3
 11187 2ea6 32       		.uleb128 0x32
 11188 2ea7 01       		.uleb128 0x1
 11189 2ea8 50       		.byte	0x50
 11190 2ea9 02       		.uleb128 0x2
 11191 2eaa 74       		.byte	0x74
 11192 2eab 00       		.sleb128 0
 11193 2eac 32       		.uleb128 0x32
 11194 2ead 01       		.uleb128 0x1
 11195 2eae 51       		.byte	0x51
 11196 2eaf 02       		.uleb128 0x2
 11197 2eb0 76       		.byte	0x76
 11198 2eb1 00       		.sleb128 0
 11199 2eb2 00       		.byte	0
 11200 2eb3 3C       		.uleb128 0x3c
 11201 2eb4 C4010000 		.4byte	.LVL267
 11202 2eb8 334B0000 		.4byte	0x4b33
 11203 2ebc CD2E0000 		.4byte	0x2ecd
 11204 2ec0 32       		.uleb128 0x32
 11205 2ec1 01       		.uleb128 0x1
 11206 2ec2 50       		.byte	0x50
 11207 2ec3 02       		.uleb128 0x2
 11208 2ec4 74       		.byte	0x74
 11209 2ec5 00       		.sleb128 0
 11210 2ec6 32       		.uleb128 0x32
 11211 2ec7 01       		.uleb128 0x1
 11212 2ec8 51       		.byte	0x51
 11213 2ec9 02       		.uleb128 0x2
 11214 2eca 76       		.byte	0x76
 11215 2ecb 00       		.sleb128 0
 11216 2ecc 00       		.byte	0
 11217 2ecd 3C       		.uleb128 0x3c
 11218 2ece D0010000 		.4byte	.LVL268
 11219 2ed2 334B0000 		.4byte	0x4b33
 11220 2ed6 E72E0000 		.4byte	0x2ee7
 11221 2eda 32       		.uleb128 0x32
 11222 2edb 01       		.uleb128 0x1
 11223 2edc 50       		.byte	0x50
 11224 2edd 02       		.uleb128 0x2
 11225 2ede 74       		.byte	0x74
 11226 2edf 00       		.sleb128 0
 11227 2ee0 32       		.uleb128 0x32
 11228 2ee1 01       		.uleb128 0x1
 11229 2ee2 51       		.byte	0x51
 11230 2ee3 02       		.uleb128 0x2
 11231 2ee4 76       		.byte	0x76
 11232 2ee5 00       		.sleb128 0
 11233 2ee6 00       		.byte	0
 11234 2ee7 3C       		.uleb128 0x3c
 11235 2ee8 DC010000 		.4byte	.LVL269
 11236 2eec 334B0000 		.4byte	0x4b33
 11237 2ef0 012F0000 		.4byte	0x2f01
 11238 2ef4 32       		.uleb128 0x32
 11239 2ef5 01       		.uleb128 0x1
 11240 2ef6 50       		.byte	0x50
ARM GAS  /tmp/cczXzW7i.s 			page 199


 11241 2ef7 02       		.uleb128 0x2
 11242 2ef8 74       		.byte	0x74
 11243 2ef9 00       		.sleb128 0
 11244 2efa 32       		.uleb128 0x32
 11245 2efb 01       		.uleb128 0x1
 11246 2efc 51       		.byte	0x51
 11247 2efd 02       		.uleb128 0x2
 11248 2efe 76       		.byte	0x76
 11249 2eff 00       		.sleb128 0
 11250 2f00 00       		.byte	0
 11251 2f01 3C       		.uleb128 0x3c
 11252 2f02 E8010000 		.4byte	.LVL270
 11253 2f06 334B0000 		.4byte	0x4b33
 11254 2f0a 1B2F0000 		.4byte	0x2f1b
 11255 2f0e 32       		.uleb128 0x32
 11256 2f0f 01       		.uleb128 0x1
 11257 2f10 50       		.byte	0x50
 11258 2f11 02       		.uleb128 0x2
 11259 2f12 74       		.byte	0x74
 11260 2f13 00       		.sleb128 0
 11261 2f14 32       		.uleb128 0x32
 11262 2f15 01       		.uleb128 0x1
 11263 2f16 51       		.byte	0x51
 11264 2f17 02       		.uleb128 0x2
 11265 2f18 76       		.byte	0x76
 11266 2f19 00       		.sleb128 0
 11267 2f1a 00       		.byte	0
 11268 2f1b 3C       		.uleb128 0x3c
 11269 2f1c 00020000 		.4byte	.LVL271
 11270 2f20 334B0000 		.4byte	0x4b33
 11271 2f24 352F0000 		.4byte	0x2f35
 11272 2f28 32       		.uleb128 0x32
 11273 2f29 01       		.uleb128 0x1
 11274 2f2a 50       		.byte	0x50
 11275 2f2b 02       		.uleb128 0x2
 11276 2f2c 74       		.byte	0x74
 11277 2f2d 00       		.sleb128 0
 11278 2f2e 32       		.uleb128 0x32
 11279 2f2f 01       		.uleb128 0x1
 11280 2f30 51       		.byte	0x51
 11281 2f31 02       		.uleb128 0x2
 11282 2f32 76       		.byte	0x76
 11283 2f33 00       		.sleb128 0
 11284 2f34 00       		.byte	0
 11285 2f35 3C       		.uleb128 0x3c
 11286 2f36 0C020000 		.4byte	.LVL272
 11287 2f3a 334B0000 		.4byte	0x4b33
 11288 2f3e 4F2F0000 		.4byte	0x2f4f
 11289 2f42 32       		.uleb128 0x32
 11290 2f43 01       		.uleb128 0x1
 11291 2f44 50       		.byte	0x50
 11292 2f45 02       		.uleb128 0x2
 11293 2f46 74       		.byte	0x74
 11294 2f47 00       		.sleb128 0
 11295 2f48 32       		.uleb128 0x32
 11296 2f49 01       		.uleb128 0x1
 11297 2f4a 51       		.byte	0x51
ARM GAS  /tmp/cczXzW7i.s 			page 200


 11298 2f4b 02       		.uleb128 0x2
 11299 2f4c 76       		.byte	0x76
 11300 2f4d 00       		.sleb128 0
 11301 2f4e 00       		.byte	0
 11302 2f4f 3C       		.uleb128 0x3c
 11303 2f50 24020000 		.4byte	.LVL273
 11304 2f54 334B0000 		.4byte	0x4b33
 11305 2f58 692F0000 		.4byte	0x2f69
 11306 2f5c 32       		.uleb128 0x32
 11307 2f5d 01       		.uleb128 0x1
 11308 2f5e 50       		.byte	0x50
 11309 2f5f 02       		.uleb128 0x2
 11310 2f60 74       		.byte	0x74
 11311 2f61 00       		.sleb128 0
 11312 2f62 32       		.uleb128 0x32
 11313 2f63 01       		.uleb128 0x1
 11314 2f64 51       		.byte	0x51
 11315 2f65 02       		.uleb128 0x2
 11316 2f66 76       		.byte	0x76
 11317 2f67 00       		.sleb128 0
 11318 2f68 00       		.byte	0
 11319 2f69 3C       		.uleb128 0x3c
 11320 2f6a 30020000 		.4byte	.LVL274
 11321 2f6e 334B0000 		.4byte	0x4b33
 11322 2f72 832F0000 		.4byte	0x2f83
 11323 2f76 32       		.uleb128 0x32
 11324 2f77 01       		.uleb128 0x1
 11325 2f78 50       		.byte	0x50
 11326 2f79 02       		.uleb128 0x2
 11327 2f7a 74       		.byte	0x74
 11328 2f7b 00       		.sleb128 0
 11329 2f7c 32       		.uleb128 0x32
 11330 2f7d 01       		.uleb128 0x1
 11331 2f7e 51       		.byte	0x51
 11332 2f7f 02       		.uleb128 0x2
 11333 2f80 76       		.byte	0x76
 11334 2f81 00       		.sleb128 0
 11335 2f82 00       		.byte	0
 11336 2f83 3C       		.uleb128 0x3c
 11337 2f84 3C020000 		.4byte	.LVL275
 11338 2f88 334B0000 		.4byte	0x4b33
 11339 2f8c 9D2F0000 		.4byte	0x2f9d
 11340 2f90 32       		.uleb128 0x32
 11341 2f91 01       		.uleb128 0x1
 11342 2f92 50       		.byte	0x50
 11343 2f93 02       		.uleb128 0x2
 11344 2f94 74       		.byte	0x74
 11345 2f95 00       		.sleb128 0
 11346 2f96 32       		.uleb128 0x32
 11347 2f97 01       		.uleb128 0x1
 11348 2f98 51       		.byte	0x51
 11349 2f99 02       		.uleb128 0x2
 11350 2f9a 76       		.byte	0x76
 11351 2f9b 00       		.sleb128 0
 11352 2f9c 00       		.byte	0
 11353 2f9d 3C       		.uleb128 0x3c
 11354 2f9e 48020000 		.4byte	.LVL276
ARM GAS  /tmp/cczXzW7i.s 			page 201


 11355 2fa2 334B0000 		.4byte	0x4b33
 11356 2fa6 B72F0000 		.4byte	0x2fb7
 11357 2faa 32       		.uleb128 0x32
 11358 2fab 01       		.uleb128 0x1
 11359 2fac 50       		.byte	0x50
 11360 2fad 02       		.uleb128 0x2
 11361 2fae 74       		.byte	0x74
 11362 2faf 00       		.sleb128 0
 11363 2fb0 32       		.uleb128 0x32
 11364 2fb1 01       		.uleb128 0x1
 11365 2fb2 51       		.byte	0x51
 11366 2fb3 02       		.uleb128 0x2
 11367 2fb4 76       		.byte	0x76
 11368 2fb5 00       		.sleb128 0
 11369 2fb6 00       		.byte	0
 11370 2fb7 3C       		.uleb128 0x3c
 11371 2fb8 54020000 		.4byte	.LVL277
 11372 2fbc 334B0000 		.4byte	0x4b33
 11373 2fc0 D12F0000 		.4byte	0x2fd1
 11374 2fc4 32       		.uleb128 0x32
 11375 2fc5 01       		.uleb128 0x1
 11376 2fc6 50       		.byte	0x50
 11377 2fc7 02       		.uleb128 0x2
 11378 2fc8 74       		.byte	0x74
 11379 2fc9 00       		.sleb128 0
 11380 2fca 32       		.uleb128 0x32
 11381 2fcb 01       		.uleb128 0x1
 11382 2fcc 51       		.byte	0x51
 11383 2fcd 02       		.uleb128 0x2
 11384 2fce 76       		.byte	0x76
 11385 2fcf 00       		.sleb128 0
 11386 2fd0 00       		.byte	0
 11387 2fd1 3C       		.uleb128 0x3c
 11388 2fd2 60020000 		.4byte	.LVL278
 11389 2fd6 334B0000 		.4byte	0x4b33
 11390 2fda EB2F0000 		.4byte	0x2feb
 11391 2fde 32       		.uleb128 0x32
 11392 2fdf 01       		.uleb128 0x1
 11393 2fe0 50       		.byte	0x50
 11394 2fe1 02       		.uleb128 0x2
 11395 2fe2 74       		.byte	0x74
 11396 2fe3 00       		.sleb128 0
 11397 2fe4 32       		.uleb128 0x32
 11398 2fe5 01       		.uleb128 0x1
 11399 2fe6 51       		.byte	0x51
 11400 2fe7 02       		.uleb128 0x2
 11401 2fe8 76       		.byte	0x76
 11402 2fe9 00       		.sleb128 0
 11403 2fea 00       		.byte	0
 11404 2feb 3C       		.uleb128 0x3c
 11405 2fec 6C020000 		.4byte	.LVL279
 11406 2ff0 334B0000 		.4byte	0x4b33
 11407 2ff4 05300000 		.4byte	0x3005
 11408 2ff8 32       		.uleb128 0x32
 11409 2ff9 01       		.uleb128 0x1
 11410 2ffa 50       		.byte	0x50
 11411 2ffb 02       		.uleb128 0x2
ARM GAS  /tmp/cczXzW7i.s 			page 202


 11412 2ffc 74       		.byte	0x74
 11413 2ffd 00       		.sleb128 0
 11414 2ffe 32       		.uleb128 0x32
 11415 2fff 01       		.uleb128 0x1
 11416 3000 51       		.byte	0x51
 11417 3001 02       		.uleb128 0x2
 11418 3002 76       		.byte	0x76
 11419 3003 00       		.sleb128 0
 11420 3004 00       		.byte	0
 11421 3005 3C       		.uleb128 0x3c
 11422 3006 78020000 		.4byte	.LVL280
 11423 300a 334B0000 		.4byte	0x4b33
 11424 300e 1F300000 		.4byte	0x301f
 11425 3012 32       		.uleb128 0x32
 11426 3013 01       		.uleb128 0x1
 11427 3014 50       		.byte	0x50
 11428 3015 02       		.uleb128 0x2
 11429 3016 74       		.byte	0x74
 11430 3017 00       		.sleb128 0
 11431 3018 32       		.uleb128 0x32
 11432 3019 01       		.uleb128 0x1
 11433 301a 51       		.byte	0x51
 11434 301b 02       		.uleb128 0x2
 11435 301c 76       		.byte	0x76
 11436 301d 00       		.sleb128 0
 11437 301e 00       		.byte	0
 11438 301f 3C       		.uleb128 0x3c
 11439 3020 84020000 		.4byte	.LVL281
 11440 3024 334B0000 		.4byte	0x4b33
 11441 3028 39300000 		.4byte	0x3039
 11442 302c 32       		.uleb128 0x32
 11443 302d 01       		.uleb128 0x1
 11444 302e 50       		.byte	0x50
 11445 302f 02       		.uleb128 0x2
 11446 3030 74       		.byte	0x74
 11447 3031 00       		.sleb128 0
 11448 3032 32       		.uleb128 0x32
 11449 3033 01       		.uleb128 0x1
 11450 3034 51       		.byte	0x51
 11451 3035 02       		.uleb128 0x2
 11452 3036 76       		.byte	0x76
 11453 3037 00       		.sleb128 0
 11454 3038 00       		.byte	0
 11455 3039 3C       		.uleb128 0x3c
 11456 303a 90020000 		.4byte	.LVL282
 11457 303e 334B0000 		.4byte	0x4b33
 11458 3042 53300000 		.4byte	0x3053
 11459 3046 32       		.uleb128 0x32
 11460 3047 01       		.uleb128 0x1
 11461 3048 50       		.byte	0x50
 11462 3049 02       		.uleb128 0x2
 11463 304a 74       		.byte	0x74
 11464 304b 00       		.sleb128 0
 11465 304c 32       		.uleb128 0x32
 11466 304d 01       		.uleb128 0x1
 11467 304e 51       		.byte	0x51
 11468 304f 02       		.uleb128 0x2
ARM GAS  /tmp/cczXzW7i.s 			page 203


 11469 3050 76       		.byte	0x76
 11470 3051 00       		.sleb128 0
 11471 3052 00       		.byte	0
 11472 3053 3C       		.uleb128 0x3c
 11473 3054 9C020000 		.4byte	.LVL283
 11474 3058 334B0000 		.4byte	0x4b33
 11475 305c 6D300000 		.4byte	0x306d
 11476 3060 32       		.uleb128 0x32
 11477 3061 01       		.uleb128 0x1
 11478 3062 50       		.byte	0x50
 11479 3063 02       		.uleb128 0x2
 11480 3064 74       		.byte	0x74
 11481 3065 00       		.sleb128 0
 11482 3066 32       		.uleb128 0x32
 11483 3067 01       		.uleb128 0x1
 11484 3068 51       		.byte	0x51
 11485 3069 02       		.uleb128 0x2
 11486 306a 76       		.byte	0x76
 11487 306b 00       		.sleb128 0
 11488 306c 00       		.byte	0
 11489 306d 3C       		.uleb128 0x3c
 11490 306e A8020000 		.4byte	.LVL284
 11491 3072 334B0000 		.4byte	0x4b33
 11492 3076 87300000 		.4byte	0x3087
 11493 307a 32       		.uleb128 0x32
 11494 307b 01       		.uleb128 0x1
 11495 307c 50       		.byte	0x50
 11496 307d 02       		.uleb128 0x2
 11497 307e 74       		.byte	0x74
 11498 307f 00       		.sleb128 0
 11499 3080 32       		.uleb128 0x32
 11500 3081 01       		.uleb128 0x1
 11501 3082 51       		.byte	0x51
 11502 3083 02       		.uleb128 0x2
 11503 3084 76       		.byte	0x76
 11504 3085 00       		.sleb128 0
 11505 3086 00       		.byte	0
 11506 3087 3C       		.uleb128 0x3c
 11507 3088 B4020000 		.4byte	.LVL285
 11508 308c 334B0000 		.4byte	0x4b33
 11509 3090 A1300000 		.4byte	0x30a1
 11510 3094 32       		.uleb128 0x32
 11511 3095 01       		.uleb128 0x1
 11512 3096 50       		.byte	0x50
 11513 3097 02       		.uleb128 0x2
 11514 3098 74       		.byte	0x74
 11515 3099 00       		.sleb128 0
 11516 309a 32       		.uleb128 0x32
 11517 309b 01       		.uleb128 0x1
 11518 309c 51       		.byte	0x51
 11519 309d 02       		.uleb128 0x2
 11520 309e 76       		.byte	0x76
 11521 309f 00       		.sleb128 0
 11522 30a0 00       		.byte	0
 11523 30a1 3C       		.uleb128 0x3c
 11524 30a2 C0020000 		.4byte	.LVL286
 11525 30a6 334B0000 		.4byte	0x4b33
ARM GAS  /tmp/cczXzW7i.s 			page 204


 11526 30aa BB300000 		.4byte	0x30bb
 11527 30ae 32       		.uleb128 0x32
 11528 30af 01       		.uleb128 0x1
 11529 30b0 50       		.byte	0x50
 11530 30b1 02       		.uleb128 0x2
 11531 30b2 74       		.byte	0x74
 11532 30b3 00       		.sleb128 0
 11533 30b4 32       		.uleb128 0x32
 11534 30b5 01       		.uleb128 0x1
 11535 30b6 51       		.byte	0x51
 11536 30b7 02       		.uleb128 0x2
 11537 30b8 76       		.byte	0x76
 11538 30b9 00       		.sleb128 0
 11539 30ba 00       		.byte	0
 11540 30bb 3C       		.uleb128 0x3c
 11541 30bc E0020000 		.4byte	.LVL287
 11542 30c0 334B0000 		.4byte	0x4b33
 11543 30c4 D5300000 		.4byte	0x30d5
 11544 30c8 32       		.uleb128 0x32
 11545 30c9 01       		.uleb128 0x1
 11546 30ca 50       		.byte	0x50
 11547 30cb 02       		.uleb128 0x2
 11548 30cc 74       		.byte	0x74
 11549 30cd 00       		.sleb128 0
 11550 30ce 32       		.uleb128 0x32
 11551 30cf 01       		.uleb128 0x1
 11552 30d0 51       		.byte	0x51
 11553 30d1 02       		.uleb128 0x2
 11554 30d2 76       		.byte	0x76
 11555 30d3 00       		.sleb128 0
 11556 30d4 00       		.byte	0
 11557 30d5 3C       		.uleb128 0x3c
 11558 30d6 00030000 		.4byte	.LVL288
 11559 30da 334B0000 		.4byte	0x4b33
 11560 30de EF300000 		.4byte	0x30ef
 11561 30e2 32       		.uleb128 0x32
 11562 30e3 01       		.uleb128 0x1
 11563 30e4 50       		.byte	0x50
 11564 30e5 02       		.uleb128 0x2
 11565 30e6 74       		.byte	0x74
 11566 30e7 00       		.sleb128 0
 11567 30e8 32       		.uleb128 0x32
 11568 30e9 01       		.uleb128 0x1
 11569 30ea 51       		.byte	0x51
 11570 30eb 02       		.uleb128 0x2
 11571 30ec 76       		.byte	0x76
 11572 30ed 00       		.sleb128 0
 11573 30ee 00       		.byte	0
 11574 30ef 3C       		.uleb128 0x3c
 11575 30f0 18030000 		.4byte	.LVL289
 11576 30f4 334B0000 		.4byte	0x4b33
 11577 30f8 09310000 		.4byte	0x3109
 11578 30fc 32       		.uleb128 0x32
 11579 30fd 01       		.uleb128 0x1
 11580 30fe 50       		.byte	0x50
 11581 30ff 02       		.uleb128 0x2
 11582 3100 74       		.byte	0x74
ARM GAS  /tmp/cczXzW7i.s 			page 205


 11583 3101 00       		.sleb128 0
 11584 3102 32       		.uleb128 0x32
 11585 3103 01       		.uleb128 0x1
 11586 3104 51       		.byte	0x51
 11587 3105 02       		.uleb128 0x2
 11588 3106 76       		.byte	0x76
 11589 3107 00       		.sleb128 0
 11590 3108 00       		.byte	0
 11591 3109 3C       		.uleb128 0x3c
 11592 310a 24030000 		.4byte	.LVL290
 11593 310e 334B0000 		.4byte	0x4b33
 11594 3112 23310000 		.4byte	0x3123
 11595 3116 32       		.uleb128 0x32
 11596 3117 01       		.uleb128 0x1
 11597 3118 50       		.byte	0x50
 11598 3119 02       		.uleb128 0x2
 11599 311a 74       		.byte	0x74
 11600 311b 00       		.sleb128 0
 11601 311c 32       		.uleb128 0x32
 11602 311d 01       		.uleb128 0x1
 11603 311e 51       		.byte	0x51
 11604 311f 02       		.uleb128 0x2
 11605 3120 76       		.byte	0x76
 11606 3121 00       		.sleb128 0
 11607 3122 00       		.byte	0
 11608 3123 3C       		.uleb128 0x3c
 11609 3124 30030000 		.4byte	.LVL291
 11610 3128 334B0000 		.4byte	0x4b33
 11611 312c 3D310000 		.4byte	0x313d
 11612 3130 32       		.uleb128 0x32
 11613 3131 01       		.uleb128 0x1
 11614 3132 50       		.byte	0x50
 11615 3133 02       		.uleb128 0x2
 11616 3134 74       		.byte	0x74
 11617 3135 00       		.sleb128 0
 11618 3136 32       		.uleb128 0x32
 11619 3137 01       		.uleb128 0x1
 11620 3138 51       		.byte	0x51
 11621 3139 02       		.uleb128 0x2
 11622 313a 76       		.byte	0x76
 11623 313b 00       		.sleb128 0
 11624 313c 00       		.byte	0
 11625 313d 3C       		.uleb128 0x3c
 11626 313e 3C030000 		.4byte	.LVL292
 11627 3142 334B0000 		.4byte	0x4b33
 11628 3146 57310000 		.4byte	0x3157
 11629 314a 32       		.uleb128 0x32
 11630 314b 01       		.uleb128 0x1
 11631 314c 50       		.byte	0x50
 11632 314d 02       		.uleb128 0x2
 11633 314e 74       		.byte	0x74
 11634 314f 00       		.sleb128 0
 11635 3150 32       		.uleb128 0x32
 11636 3151 01       		.uleb128 0x1
 11637 3152 51       		.byte	0x51
 11638 3153 02       		.uleb128 0x2
 11639 3154 76       		.byte	0x76
ARM GAS  /tmp/cczXzW7i.s 			page 206


 11640 3155 00       		.sleb128 0
 11641 3156 00       		.byte	0
 11642 3157 3C       		.uleb128 0x3c
 11643 3158 48030000 		.4byte	.LVL293
 11644 315c 334B0000 		.4byte	0x4b33
 11645 3160 71310000 		.4byte	0x3171
 11646 3164 32       		.uleb128 0x32
 11647 3165 01       		.uleb128 0x1
 11648 3166 50       		.byte	0x50
 11649 3167 02       		.uleb128 0x2
 11650 3168 74       		.byte	0x74
 11651 3169 00       		.sleb128 0
 11652 316a 32       		.uleb128 0x32
 11653 316b 01       		.uleb128 0x1
 11654 316c 51       		.byte	0x51
 11655 316d 02       		.uleb128 0x2
 11656 316e 76       		.byte	0x76
 11657 316f 00       		.sleb128 0
 11658 3170 00       		.byte	0
 11659 3171 3C       		.uleb128 0x3c
 11660 3172 54030000 		.4byte	.LVL294
 11661 3176 334B0000 		.4byte	0x4b33
 11662 317a 8B310000 		.4byte	0x318b
 11663 317e 32       		.uleb128 0x32
 11664 317f 01       		.uleb128 0x1
 11665 3180 50       		.byte	0x50
 11666 3181 02       		.uleb128 0x2
 11667 3182 74       		.byte	0x74
 11668 3183 00       		.sleb128 0
 11669 3184 32       		.uleb128 0x32
 11670 3185 01       		.uleb128 0x1
 11671 3186 51       		.byte	0x51
 11672 3187 02       		.uleb128 0x2
 11673 3188 76       		.byte	0x76
 11674 3189 00       		.sleb128 0
 11675 318a 00       		.byte	0
 11676 318b 3C       		.uleb128 0x3c
 11677 318c 60030000 		.4byte	.LVL295
 11678 3190 334B0000 		.4byte	0x4b33
 11679 3194 A5310000 		.4byte	0x31a5
 11680 3198 32       		.uleb128 0x32
 11681 3199 01       		.uleb128 0x1
 11682 319a 50       		.byte	0x50
 11683 319b 02       		.uleb128 0x2
 11684 319c 74       		.byte	0x74
 11685 319d 00       		.sleb128 0
 11686 319e 32       		.uleb128 0x32
 11687 319f 01       		.uleb128 0x1
 11688 31a0 51       		.byte	0x51
 11689 31a1 02       		.uleb128 0x2
 11690 31a2 76       		.byte	0x76
 11691 31a3 00       		.sleb128 0
 11692 31a4 00       		.byte	0
 11693 31a5 3C       		.uleb128 0x3c
 11694 31a6 78030000 		.4byte	.LVL296
 11695 31aa 334B0000 		.4byte	0x4b33
 11696 31ae BF310000 		.4byte	0x31bf
ARM GAS  /tmp/cczXzW7i.s 			page 207


 11697 31b2 32       		.uleb128 0x32
 11698 31b3 01       		.uleb128 0x1
 11699 31b4 50       		.byte	0x50
 11700 31b5 02       		.uleb128 0x2
 11701 31b6 74       		.byte	0x74
 11702 31b7 00       		.sleb128 0
 11703 31b8 32       		.uleb128 0x32
 11704 31b9 01       		.uleb128 0x1
 11705 31ba 51       		.byte	0x51
 11706 31bb 02       		.uleb128 0x2
 11707 31bc 76       		.byte	0x76
 11708 31bd 00       		.sleb128 0
 11709 31be 00       		.byte	0
 11710 31bf 3C       		.uleb128 0x3c
 11711 31c0 84030000 		.4byte	.LVL297
 11712 31c4 334B0000 		.4byte	0x4b33
 11713 31c8 D9310000 		.4byte	0x31d9
 11714 31cc 32       		.uleb128 0x32
 11715 31cd 01       		.uleb128 0x1
 11716 31ce 50       		.byte	0x50
 11717 31cf 02       		.uleb128 0x2
 11718 31d0 74       		.byte	0x74
 11719 31d1 00       		.sleb128 0
 11720 31d2 32       		.uleb128 0x32
 11721 31d3 01       		.uleb128 0x1
 11722 31d4 51       		.byte	0x51
 11723 31d5 02       		.uleb128 0x2
 11724 31d6 76       		.byte	0x76
 11725 31d7 00       		.sleb128 0
 11726 31d8 00       		.byte	0
 11727 31d9 3C       		.uleb128 0x3c
 11728 31da 90030000 		.4byte	.LVL298
 11729 31de 334B0000 		.4byte	0x4b33
 11730 31e2 F3310000 		.4byte	0x31f3
 11731 31e6 32       		.uleb128 0x32
 11732 31e7 01       		.uleb128 0x1
 11733 31e8 50       		.byte	0x50
 11734 31e9 02       		.uleb128 0x2
 11735 31ea 74       		.byte	0x74
 11736 31eb 00       		.sleb128 0
 11737 31ec 32       		.uleb128 0x32
 11738 31ed 01       		.uleb128 0x1
 11739 31ee 51       		.byte	0x51
 11740 31ef 02       		.uleb128 0x2
 11741 31f0 76       		.byte	0x76
 11742 31f1 00       		.sleb128 0
 11743 31f2 00       		.byte	0
 11744 31f3 3C       		.uleb128 0x3c
 11745 31f4 9C030000 		.4byte	.LVL299
 11746 31f8 334B0000 		.4byte	0x4b33
 11747 31fc 0D320000 		.4byte	0x320d
 11748 3200 32       		.uleb128 0x32
 11749 3201 01       		.uleb128 0x1
 11750 3202 50       		.byte	0x50
 11751 3203 02       		.uleb128 0x2
 11752 3204 74       		.byte	0x74
 11753 3205 00       		.sleb128 0
ARM GAS  /tmp/cczXzW7i.s 			page 208


 11754 3206 32       		.uleb128 0x32
 11755 3207 01       		.uleb128 0x1
 11756 3208 51       		.byte	0x51
 11757 3209 02       		.uleb128 0x2
 11758 320a 76       		.byte	0x76
 11759 320b 00       		.sleb128 0
 11760 320c 00       		.byte	0
 11761 320d 3C       		.uleb128 0x3c
 11762 320e A8030000 		.4byte	.LVL300
 11763 3212 334B0000 		.4byte	0x4b33
 11764 3216 27320000 		.4byte	0x3227
 11765 321a 32       		.uleb128 0x32
 11766 321b 01       		.uleb128 0x1
 11767 321c 50       		.byte	0x50
 11768 321d 02       		.uleb128 0x2
 11769 321e 74       		.byte	0x74
 11770 321f 00       		.sleb128 0
 11771 3220 32       		.uleb128 0x32
 11772 3221 01       		.uleb128 0x1
 11773 3222 51       		.byte	0x51
 11774 3223 02       		.uleb128 0x2
 11775 3224 76       		.byte	0x76
 11776 3225 00       		.sleb128 0
 11777 3226 00       		.byte	0
 11778 3227 3C       		.uleb128 0x3c
 11779 3228 B4030000 		.4byte	.LVL301
 11780 322c 334B0000 		.4byte	0x4b33
 11781 3230 41320000 		.4byte	0x3241
 11782 3234 32       		.uleb128 0x32
 11783 3235 01       		.uleb128 0x1
 11784 3236 50       		.byte	0x50
 11785 3237 02       		.uleb128 0x2
 11786 3238 74       		.byte	0x74
 11787 3239 00       		.sleb128 0
 11788 323a 32       		.uleb128 0x32
 11789 323b 01       		.uleb128 0x1
 11790 323c 51       		.byte	0x51
 11791 323d 02       		.uleb128 0x2
 11792 323e 76       		.byte	0x76
 11793 323f 00       		.sleb128 0
 11794 3240 00       		.byte	0
 11795 3241 3C       		.uleb128 0x3c
 11796 3242 C0030000 		.4byte	.LVL302
 11797 3246 334B0000 		.4byte	0x4b33
 11798 324a 5B320000 		.4byte	0x325b
 11799 324e 32       		.uleb128 0x32
 11800 324f 01       		.uleb128 0x1
 11801 3250 50       		.byte	0x50
 11802 3251 02       		.uleb128 0x2
 11803 3252 74       		.byte	0x74
 11804 3253 00       		.sleb128 0
 11805 3254 32       		.uleb128 0x32
 11806 3255 01       		.uleb128 0x1
 11807 3256 51       		.byte	0x51
 11808 3257 02       		.uleb128 0x2
 11809 3258 76       		.byte	0x76
 11810 3259 00       		.sleb128 0
ARM GAS  /tmp/cczXzW7i.s 			page 209


 11811 325a 00       		.byte	0
 11812 325b 3C       		.uleb128 0x3c
 11813 325c CC030000 		.4byte	.LVL303
 11814 3260 334B0000 		.4byte	0x4b33
 11815 3264 75320000 		.4byte	0x3275
 11816 3268 32       		.uleb128 0x32
 11817 3269 01       		.uleb128 0x1
 11818 326a 50       		.byte	0x50
 11819 326b 02       		.uleb128 0x2
 11820 326c 74       		.byte	0x74
 11821 326d 00       		.sleb128 0
 11822 326e 32       		.uleb128 0x32
 11823 326f 01       		.uleb128 0x1
 11824 3270 51       		.byte	0x51
 11825 3271 02       		.uleb128 0x2
 11826 3272 76       		.byte	0x76
 11827 3273 00       		.sleb128 0
 11828 3274 00       		.byte	0
 11829 3275 3C       		.uleb128 0x3c
 11830 3276 E0030000 		.4byte	.LVL304
 11831 327a 334B0000 		.4byte	0x4b33
 11832 327e 8F320000 		.4byte	0x328f
 11833 3282 32       		.uleb128 0x32
 11834 3283 01       		.uleb128 0x1
 11835 3284 50       		.byte	0x50
 11836 3285 02       		.uleb128 0x2
 11837 3286 74       		.byte	0x74
 11838 3287 00       		.sleb128 0
 11839 3288 32       		.uleb128 0x32
 11840 3289 01       		.uleb128 0x1
 11841 328a 51       		.byte	0x51
 11842 328b 02       		.uleb128 0x2
 11843 328c 76       		.byte	0x76
 11844 328d 00       		.sleb128 0
 11845 328e 00       		.byte	0
 11846 328f 3C       		.uleb128 0x3c
 11847 3290 EC030000 		.4byte	.LVL305
 11848 3294 494B0000 		.4byte	0x4b49
 11849 3298 A9320000 		.4byte	0x32a9
 11850 329c 32       		.uleb128 0x32
 11851 329d 01       		.uleb128 0x1
 11852 329e 50       		.byte	0x50
 11853 329f 02       		.uleb128 0x2
 11854 32a0 74       		.byte	0x74
 11855 32a1 00       		.sleb128 0
 11856 32a2 32       		.uleb128 0x32
 11857 32a3 01       		.uleb128 0x1
 11858 32a4 52       		.byte	0x52
 11859 32a5 02       		.uleb128 0x2
 11860 32a6 76       		.byte	0x76
 11861 32a7 00       		.sleb128 0
 11862 32a8 00       		.byte	0
 11863 32a9 3C       		.uleb128 0x3c
 11864 32aa F8030000 		.4byte	.LVL306
 11865 32ae 334B0000 		.4byte	0x4b33
 11866 32b2 C3320000 		.4byte	0x32c3
 11867 32b6 32       		.uleb128 0x32
ARM GAS  /tmp/cczXzW7i.s 			page 210


 11868 32b7 01       		.uleb128 0x1
 11869 32b8 50       		.byte	0x50
 11870 32b9 02       		.uleb128 0x2
 11871 32ba 74       		.byte	0x74
 11872 32bb 00       		.sleb128 0
 11873 32bc 32       		.uleb128 0x32
 11874 32bd 01       		.uleb128 0x1
 11875 32be 51       		.byte	0x51
 11876 32bf 02       		.uleb128 0x2
 11877 32c0 76       		.byte	0x76
 11878 32c1 00       		.sleb128 0
 11879 32c2 00       		.byte	0
 11880 32c3 3C       		.uleb128 0x3c
 11881 32c4 04040000 		.4byte	.LVL307
 11882 32c8 334B0000 		.4byte	0x4b33
 11883 32cc DD320000 		.4byte	0x32dd
 11884 32d0 32       		.uleb128 0x32
 11885 32d1 01       		.uleb128 0x1
 11886 32d2 50       		.byte	0x50
 11887 32d3 02       		.uleb128 0x2
 11888 32d4 74       		.byte	0x74
 11889 32d5 00       		.sleb128 0
 11890 32d6 32       		.uleb128 0x32
 11891 32d7 01       		.uleb128 0x1
 11892 32d8 51       		.byte	0x51
 11893 32d9 02       		.uleb128 0x2
 11894 32da 76       		.byte	0x76
 11895 32db 00       		.sleb128 0
 11896 32dc 00       		.byte	0
 11897 32dd 3C       		.uleb128 0x3c
 11898 32de 10040000 		.4byte	.LVL308
 11899 32e2 284B0000 		.4byte	0x4b28
 11900 32e6 F7320000 		.4byte	0x32f7
 11901 32ea 32       		.uleb128 0x32
 11902 32eb 01       		.uleb128 0x1
 11903 32ec 50       		.byte	0x50
 11904 32ed 02       		.uleb128 0x2
 11905 32ee 74       		.byte	0x74
 11906 32ef 00       		.sleb128 0
 11907 32f0 32       		.uleb128 0x32
 11908 32f1 01       		.uleb128 0x1
 11909 32f2 52       		.byte	0x52
 11910 32f3 02       		.uleb128 0x2
 11911 32f4 76       		.byte	0x76
 11912 32f5 00       		.sleb128 0
 11913 32f6 00       		.byte	0
 11914 32f7 3C       		.uleb128 0x3c
 11915 32f8 3C040000 		.4byte	.LVL309
 11916 32fc 334B0000 		.4byte	0x4b33
 11917 3300 11330000 		.4byte	0x3311
 11918 3304 32       		.uleb128 0x32
 11919 3305 01       		.uleb128 0x1
 11920 3306 50       		.byte	0x50
 11921 3307 02       		.uleb128 0x2
 11922 3308 74       		.byte	0x74
 11923 3309 00       		.sleb128 0
 11924 330a 32       		.uleb128 0x32
ARM GAS  /tmp/cczXzW7i.s 			page 211


 11925 330b 01       		.uleb128 0x1
 11926 330c 51       		.byte	0x51
 11927 330d 02       		.uleb128 0x2
 11928 330e 76       		.byte	0x76
 11929 330f 00       		.sleb128 0
 11930 3310 00       		.byte	0
 11931 3311 3C       		.uleb128 0x3c
 11932 3312 48040000 		.4byte	.LVL310
 11933 3316 334B0000 		.4byte	0x4b33
 11934 331a 2B330000 		.4byte	0x332b
 11935 331e 32       		.uleb128 0x32
 11936 331f 01       		.uleb128 0x1
 11937 3320 50       		.byte	0x50
 11938 3321 02       		.uleb128 0x2
 11939 3322 74       		.byte	0x74
 11940 3323 00       		.sleb128 0
 11941 3324 32       		.uleb128 0x32
 11942 3325 01       		.uleb128 0x1
 11943 3326 51       		.byte	0x51
 11944 3327 02       		.uleb128 0x2
 11945 3328 76       		.byte	0x76
 11946 3329 00       		.sleb128 0
 11947 332a 00       		.byte	0
 11948 332b 3C       		.uleb128 0x3c
 11949 332c 54040000 		.4byte	.LVL311
 11950 3330 334B0000 		.4byte	0x4b33
 11951 3334 45330000 		.4byte	0x3345
 11952 3338 32       		.uleb128 0x32
 11953 3339 01       		.uleb128 0x1
 11954 333a 50       		.byte	0x50
 11955 333b 02       		.uleb128 0x2
 11956 333c 74       		.byte	0x74
 11957 333d 00       		.sleb128 0
 11958 333e 32       		.uleb128 0x32
 11959 333f 01       		.uleb128 0x1
 11960 3340 51       		.byte	0x51
 11961 3341 02       		.uleb128 0x2
 11962 3342 76       		.byte	0x76
 11963 3343 00       		.sleb128 0
 11964 3344 00       		.byte	0
 11965 3345 3B       		.uleb128 0x3b
 11966 3346 60040000 		.4byte	.LVL312
 11967 334a 334B0000 		.4byte	0x4b33
 11968 334e 32       		.uleb128 0x32
 11969 334f 01       		.uleb128 0x1
 11970 3350 50       		.byte	0x50
 11971 3351 02       		.uleb128 0x2
 11972 3352 74       		.byte	0x74
 11973 3353 00       		.sleb128 0
 11974 3354 32       		.uleb128 0x32
 11975 3355 01       		.uleb128 0x1
 11976 3356 51       		.byte	0x51
 11977 3357 02       		.uleb128 0x2
 11978 3358 76       		.byte	0x76
 11979 3359 00       		.sleb128 0
 11980 335a 00       		.byte	0
 11981 335b 00       		.byte	0
ARM GAS  /tmp/cczXzW7i.s 			page 212


 11982 335c 0B       		.uleb128 0xb
 11983 335d 04       		.byte	0x4
 11984 335e 60100000 		.4byte	0x1060
 11985 3362 30       		.uleb128 0x30
 11986 3363 02250000 		.4byte	.LASF623
 11987 3367 01       		.byte	0x1
 11988 3368 6A02     		.2byte	0x26a
 11989 336a 00000000 		.4byte	.LFB254
 11990 336e 40000000 		.4byte	.LFE254-.LFB254
 11991 3372 01       		.uleb128 0x1
 11992 3373 9C       		.byte	0x9c
 11993 3374 FB330000 		.4byte	0x33fb
 11994 3378 3F       		.uleb128 0x3f
 11995 3379 706F7300 		.ascii	"pos\000"
 11996 337d 01       		.byte	0x1
 11997 337e 6A02     		.2byte	0x26a
 11998 3380 25000000 		.4byte	0x25
 11999 3384 B7010000 		.4byte	.LLST31
 12000 3388 38       		.uleb128 0x38
 12001 3389 C9210000 		.4byte	.LASF609
 12002 338d 01       		.byte	0x1
 12003 338e 6B02     		.2byte	0x26b
 12004 3390 DA000000 		.4byte	0xda
 12005 3394 02       		.uleb128 0x2
 12006 3395 91       		.byte	0x91
 12007 3396 74       		.sleb128 -12
 12008 3397 39       		.uleb128 0x39
 12009 3398 B8220000 		.4byte	0x22b8
 12010 339c 1C000000 		.4byte	.LBB68
 12011 33a0 38000000 		.4byte	.Ldebug_ranges0+0x38
 12012 33a4 01       		.byte	0x1
 12013 33a5 6E02     		.2byte	0x26e
 12014 33a7 CE330000 		.4byte	0x33ce
 12015 33ab 3A       		.uleb128 0x3a
 12016 33ac D1220000 		.4byte	0x22d1
 12017 33b0 DB010000 		.4byte	.LLST32
 12018 33b4 3A       		.uleb128 0x3a
 12019 33b5 C5220000 		.4byte	0x22c5
 12020 33b9 EF010000 		.4byte	.LLST33
 12021 33bd 3B       		.uleb128 0x3b
 12022 33be 2E000000 		.4byte	.LVL233
 12023 33c2 574A0000 		.4byte	0x4a57
 12024 33c6 32       		.uleb128 0x32
 12025 33c7 01       		.uleb128 0x1
 12026 33c8 50       		.byte	0x50
 12027 33c9 02       		.uleb128 0x2
 12028 33ca 74       		.byte	0x74
 12029 33cb 00       		.sleb128 0
 12030 33cc 00       		.byte	0
 12031 33cd 00       		.byte	0
 12032 33ce 3B       		.uleb128 0x3b
 12033 33cf 1C000000 		.4byte	.LVL231
 12034 33d3 544B0000 		.4byte	0x4b54
 12035 33d7 32       		.uleb128 0x32
 12036 33d8 01       		.uleb128 0x1
 12037 33d9 50       		.byte	0x50
 12038 33da 02       		.uleb128 0x2
ARM GAS  /tmp/cczXzW7i.s 			page 213


 12039 33db 74       		.byte	0x74
 12040 33dc 00       		.sleb128 0
 12041 33dd 32       		.uleb128 0x32
 12042 33de 02       		.uleb128 0x2
 12043 33df 90       		.byte	0x90
 12044 33e0 40       		.uleb128 0x40
 12045 33e1 05       		.uleb128 0x5
 12046 33e2 F3       		.byte	0xf3
 12047 33e3 03       		.uleb128 0x3
 12048 33e4 F5       		.byte	0xf5
 12049 33e5 40       		.uleb128 0x40
 12050 33e6 25       		.uleb128 0x25
 12051 33e7 32       		.uleb128 0x32
 12052 33e8 02       		.uleb128 0x2
 12053 33e9 90       		.byte	0x90
 12054 33ea 41       		.uleb128 0x41
 12055 33eb 07       		.uleb128 0x7
 12056 33ec F4       		.byte	0xf4
 12057 33ed 25       		.uleb128 0x25
 12058 33ee 04       		.byte	0x4
 12059 33ef 00007A44 		.4byte	0x447a0000
 12060 33f3 32       		.uleb128 0x32
 12061 33f4 01       		.uleb128 0x1
 12062 33f5 51       		.byte	0x51
 12063 33f6 02       		.uleb128 0x2
 12064 33f7 91       		.byte	0x91
 12065 33f8 74       		.sleb128 -12
 12066 33f9 00       		.byte	0
 12067 33fa 00       		.byte	0
 12068 33fb 30       		.uleb128 0x30
 12069 33fc 29050000 		.4byte	.LASF624
 12070 3400 01       		.byte	0x1
 12071 3401 6302     		.2byte	0x263
 12072 3403 00000000 		.4byte	.LFB253
 12073 3407 40000000 		.4byte	.LFE253-.LFB253
 12074 340b 01       		.uleb128 0x1
 12075 340c 9C       		.byte	0x9c
 12076 340d 94340000 		.4byte	0x3494
 12077 3411 2F       		.uleb128 0x2f
 12078 3412 6B150000 		.4byte	.LASF612
 12079 3416 01       		.byte	0x1
 12080 3417 6302     		.2byte	0x263
 12081 3419 25000000 		.4byte	0x25
 12082 341d 07020000 		.4byte	.LLST28
 12083 3421 38       		.uleb128 0x38
 12084 3422 C9210000 		.4byte	.LASF609
 12085 3426 01       		.byte	0x1
 12086 3427 6402     		.2byte	0x264
 12087 3429 DA000000 		.4byte	0xda
 12088 342d 02       		.uleb128 0x2
 12089 342e 91       		.byte	0x91
 12090 342f 74       		.sleb128 -12
 12091 3430 39       		.uleb128 0x39
 12092 3431 B8220000 		.4byte	0x22b8
 12093 3435 1C000000 		.4byte	.LBB64
 12094 3439 20000000 		.4byte	.Ldebug_ranges0+0x20
 12095 343d 01       		.byte	0x1
ARM GAS  /tmp/cczXzW7i.s 			page 214


 12096 343e 6702     		.2byte	0x267
 12097 3440 67340000 		.4byte	0x3467
 12098 3444 3A       		.uleb128 0x3a
 12099 3445 D1220000 		.4byte	0x22d1
 12100 3449 2B020000 		.4byte	.LLST29
 12101 344d 3A       		.uleb128 0x3a
 12102 344e C5220000 		.4byte	0x22c5
 12103 3452 3F020000 		.4byte	.LLST30
 12104 3456 3B       		.uleb128 0x3b
 12105 3457 2E000000 		.4byte	.LVL229
 12106 345b 574A0000 		.4byte	0x4a57
 12107 345f 32       		.uleb128 0x32
 12108 3460 01       		.uleb128 0x1
 12109 3461 50       		.byte	0x50
 12110 3462 02       		.uleb128 0x2
 12111 3463 74       		.byte	0x74
 12112 3464 00       		.sleb128 0
 12113 3465 00       		.byte	0
 12114 3466 00       		.byte	0
 12115 3467 3B       		.uleb128 0x3b
 12116 3468 1C000000 		.4byte	.LVL227
 12117 346c 1D4B0000 		.4byte	0x4b1d
 12118 3470 32       		.uleb128 0x32
 12119 3471 01       		.uleb128 0x1
 12120 3472 50       		.byte	0x50
 12121 3473 02       		.uleb128 0x2
 12122 3474 74       		.byte	0x74
 12123 3475 00       		.sleb128 0
 12124 3476 32       		.uleb128 0x32
 12125 3477 02       		.uleb128 0x2
 12126 3478 90       		.byte	0x90
 12127 3479 40       		.uleb128 0x40
 12128 347a 05       		.uleb128 0x5
 12129 347b F3       		.byte	0xf3
 12130 347c 03       		.uleb128 0x3
 12131 347d F5       		.byte	0xf5
 12132 347e 40       		.uleb128 0x40
 12133 347f 25       		.uleb128 0x25
 12134 3480 32       		.uleb128 0x32
 12135 3481 02       		.uleb128 0x2
 12136 3482 90       		.byte	0x90
 12137 3483 41       		.uleb128 0x41
 12138 3484 07       		.uleb128 0x7
 12139 3485 F4       		.byte	0xf4
 12140 3486 25       		.uleb128 0x25
 12141 3487 04       		.byte	0x4
 12142 3488 00007A44 		.4byte	0x447a0000
 12143 348c 32       		.uleb128 0x32
 12144 348d 01       		.uleb128 0x1
 12145 348e 51       		.byte	0x51
 12146 348f 02       		.uleb128 0x2
 12147 3490 91       		.byte	0x91
 12148 3491 74       		.sleb128 -12
 12149 3492 00       		.byte	0
 12150 3493 00       		.byte	0
 12151 3494 30       		.uleb128 0x30
 12152 3495 5A100000 		.4byte	.LASF625
ARM GAS  /tmp/cczXzW7i.s 			page 215


 12153 3499 01       		.byte	0x1
 12154 349a 5802     		.2byte	0x258
 12155 349c 00000000 		.4byte	.LFB252
 12156 34a0 4C000000 		.4byte	.LFE252-.LFB252
 12157 34a4 01       		.uleb128 0x1
 12158 34a5 9C       		.byte	0x9c
 12159 34a6 3C350000 		.4byte	0x353c
 12160 34aa 3F       		.uleb128 0x3f
 12161 34ab 706F7300 		.ascii	"pos\000"
 12162 34af 01       		.byte	0x1
 12163 34b0 5802     		.2byte	0x258
 12164 34b2 25000000 		.4byte	0x25
 12165 34b6 57020000 		.4byte	.LLST25
 12166 34ba 38       		.uleb128 0x38
 12167 34bb C9210000 		.4byte	.LASF609
 12168 34bf 01       		.byte	0x1
 12169 34c0 5D02     		.2byte	0x25d
 12170 34c2 DA000000 		.4byte	0xda
 12171 34c6 02       		.uleb128 0x2
 12172 34c7 91       		.byte	0x91
 12173 34c8 74       		.sleb128 -12
 12174 34c9 40       		.uleb128 0x40
 12175 34ca B8220000 		.4byte	0x22b8
 12176 34ce 2A000000 		.4byte	.LBB62
 12177 34d2 22000000 		.4byte	.LBE62-.LBB62
 12178 34d6 01       		.byte	0x1
 12179 34d7 6002     		.2byte	0x260
 12180 34d9 00350000 		.4byte	0x3500
 12181 34dd 3A       		.uleb128 0x3a
 12182 34de D1220000 		.4byte	0x22d1
 12183 34e2 97020000 		.4byte	.LLST26
 12184 34e6 3A       		.uleb128 0x3a
 12185 34e7 C5220000 		.4byte	0x22c5
 12186 34eb AB020000 		.4byte	.LLST27
 12187 34ef 3B       		.uleb128 0x3b
 12188 34f0 3A000000 		.4byte	.LVL225
 12189 34f4 574A0000 		.4byte	0x4a57
 12190 34f8 32       		.uleb128 0x32
 12191 34f9 01       		.uleb128 0x1
 12192 34fa 50       		.byte	0x50
 12193 34fb 02       		.uleb128 0x2
 12194 34fc 74       		.byte	0x74
 12195 34fd 00       		.sleb128 0
 12196 34fe 00       		.byte	0
 12197 34ff 00       		.byte	0
 12198 3500 41       		.uleb128 0x41
 12199 3501 0E000000 		.4byte	.LVL222
 12200 3505 19350000 		.4byte	0x3519
 12201 3509 32       		.uleb128 0x32
 12202 350a 01       		.uleb128 0x1
 12203 350b 50       		.byte	0x50
 12204 350c 01       		.uleb128 0x1
 12205 350d 34       		.byte	0x34
 12206 350e 32       		.uleb128 0x32
 12207 350f 02       		.uleb128 0x2
 12208 3510 90       		.byte	0x90
 12209 3511 40       		.uleb128 0x40
ARM GAS  /tmp/cczXzW7i.s 			page 216


 12210 3512 05       		.uleb128 0x5
 12211 3513 F3       		.byte	0xf3
 12212 3514 03       		.uleb128 0x3
 12213 3515 F5       		.byte	0xf5
 12214 3516 40       		.uleb128 0x40
 12215 3517 25       		.uleb128 0x25
 12216 3518 00       		.byte	0
 12217 3519 3B       		.uleb128 0x3b
 12218 351a 2A000000 		.4byte	.LVL224
 12219 351e 1D4B0000 		.4byte	0x4b1d
 12220 3522 32       		.uleb128 0x32
 12221 3523 01       		.uleb128 0x1
 12222 3524 50       		.byte	0x50
 12223 3525 02       		.uleb128 0x2
 12224 3526 74       		.byte	0x74
 12225 3527 00       		.sleb128 0
 12226 3528 32       		.uleb128 0x32
 12227 3529 02       		.uleb128 0x2
 12228 352a 90       		.byte	0x90
 12229 352b 41       		.uleb128 0x41
 12230 352c 07       		.uleb128 0x7
 12231 352d F4       		.byte	0xf4
 12232 352e 25       		.uleb128 0x25
 12233 352f 04       		.byte	0x4
 12234 3530 00247449 		.4byte	0x49742400
 12235 3534 32       		.uleb128 0x32
 12236 3535 01       		.uleb128 0x1
 12237 3536 51       		.byte	0x51
 12238 3537 02       		.uleb128 0x2
 12239 3538 91       		.byte	0x91
 12240 3539 74       		.sleb128 -12
 12241 353a 00       		.byte	0
 12242 353b 00       		.byte	0
 12243 353c 30       		.uleb128 0x30
 12244 353d 39180000 		.4byte	.LASF626
 12245 3541 01       		.byte	0x1
 12246 3542 4D02     		.2byte	0x24d
 12247 3544 00000000 		.4byte	.LFB251
 12248 3548 50000000 		.4byte	.LFE251-.LFB251
 12249 354c 01       		.uleb128 0x1
 12250 354d 9C       		.byte	0x9c
 12251 354e E1350000 		.4byte	0x35e1
 12252 3552 3F       		.uleb128 0x3f
 12253 3553 72706D00 		.ascii	"rpm\000"
 12254 3557 01       		.byte	0x1
 12255 3558 4D02     		.2byte	0x24d
 12256 355a 2C000000 		.4byte	0x2c
 12257 355e C3020000 		.4byte	.LLST22
 12258 3562 38       		.uleb128 0x38
 12259 3563 C9210000 		.4byte	.LASF609
 12260 3567 01       		.byte	0x1
 12261 3568 5202     		.2byte	0x252
 12262 356a DA000000 		.4byte	0xda
 12263 356e 02       		.uleb128 0x2
 12264 356f 91       		.byte	0x91
 12265 3570 74       		.sleb128 -12
 12266 3571 40       		.uleb128 0x40
ARM GAS  /tmp/cczXzW7i.s 			page 217


 12267 3572 B8220000 		.4byte	0x22b8
 12268 3576 32000000 		.4byte	.LBB60
 12269 357a 1E000000 		.4byte	.LBE60-.LBB60
 12270 357e 01       		.byte	0x1
 12271 357f 5502     		.2byte	0x255
 12272 3581 A8350000 		.4byte	0x35a8
 12273 3585 3A       		.uleb128 0x3a
 12274 3586 D1220000 		.4byte	0x22d1
 12275 358a 09030000 		.4byte	.LLST23
 12276 358e 3A       		.uleb128 0x3a
 12277 358f C5220000 		.4byte	0x22c5
 12278 3593 1D030000 		.4byte	.LLST24
 12279 3597 3B       		.uleb128 0x3b
 12280 3598 42000000 		.4byte	.LVL220
 12281 359c 574A0000 		.4byte	0x4a57
 12282 35a0 32       		.uleb128 0x32
 12283 35a1 01       		.uleb128 0x1
 12284 35a2 50       		.byte	0x50
 12285 35a3 02       		.uleb128 0x2
 12286 35a4 74       		.byte	0x74
 12287 35a5 00       		.sleb128 0
 12288 35a6 00       		.byte	0
 12289 35a7 00       		.byte	0
 12290 35a8 41       		.uleb128 0x41
 12291 35a9 16000000 		.4byte	.LVL216
 12292 35ad C3350000 		.4byte	0x35c3
 12293 35b1 32       		.uleb128 0x32
 12294 35b2 01       		.uleb128 0x1
 12295 35b3 50       		.byte	0x50
 12296 35b4 01       		.uleb128 0x1
 12297 35b5 33       		.byte	0x33
 12298 35b6 32       		.uleb128 0x32
 12299 35b7 02       		.uleb128 0x2
 12300 35b8 90       		.byte	0x90
 12301 35b9 40       		.uleb128 0x40
 12302 35ba 07       		.uleb128 0x7
 12303 35bb F3       		.byte	0xf3
 12304 35bc 01       		.uleb128 0x1
 12305 35bd 50       		.byte	0x50
 12306 35be F7       		.byte	0xf7
 12307 35bf 2C       		.uleb128 0x2c
 12308 35c0 F7       		.byte	0xf7
 12309 35c1 25       		.uleb128 0x25
 12310 35c2 00       		.byte	0
 12311 35c3 3B       		.uleb128 0x3b
 12312 35c4 32000000 		.4byte	.LVL219
 12313 35c8 494B0000 		.4byte	0x4b49
 12314 35cc 32       		.uleb128 0x32
 12315 35cd 01       		.uleb128 0x1
 12316 35ce 50       		.byte	0x50
 12317 35cf 02       		.uleb128 0x2
 12318 35d0 74       		.byte	0x74
 12319 35d1 00       		.sleb128 0
 12320 35d2 32       		.uleb128 0x32
 12321 35d3 01       		.uleb128 0x1
 12322 35d4 51       		.byte	0x51
 12323 35d5 03       		.uleb128 0x3
ARM GAS  /tmp/cczXzW7i.s 			page 218


 12324 35d6 F3       		.byte	0xf3
 12325 35d7 01       		.uleb128 0x1
 12326 35d8 50       		.byte	0x50
 12327 35d9 32       		.uleb128 0x32
 12328 35da 01       		.uleb128 0x1
 12329 35db 52       		.byte	0x52
 12330 35dc 02       		.uleb128 0x2
 12331 35dd 91       		.byte	0x91
 12332 35de 74       		.sleb128 -12
 12333 35df 00       		.byte	0
 12334 35e0 00       		.byte	0
 12335 35e1 30       		.uleb128 0x30
 12336 35e2 E8040000 		.4byte	.LASF627
 12337 35e6 01       		.byte	0x1
 12338 35e7 4202     		.2byte	0x242
 12339 35e9 00000000 		.4byte	.LFB250
 12340 35ed 4C000000 		.4byte	.LFE250-.LFB250
 12341 35f1 01       		.uleb128 0x1
 12342 35f2 9C       		.byte	0x9c
 12343 35f3 89360000 		.4byte	0x3689
 12344 35f7 2F       		.uleb128 0x2f
 12345 35f8 6B150000 		.4byte	.LASF612
 12346 35fc 01       		.byte	0x1
 12347 35fd 4202     		.2byte	0x242
 12348 35ff 25000000 		.4byte	0x25
 12349 3603 35030000 		.4byte	.LLST19
 12350 3607 38       		.uleb128 0x38
 12351 3608 C9210000 		.4byte	.LASF609
 12352 360c 01       		.byte	0x1
 12353 360d 4702     		.2byte	0x247
 12354 360f DA000000 		.4byte	0xda
 12355 3613 02       		.uleb128 0x2
 12356 3614 91       		.byte	0x91
 12357 3615 74       		.sleb128 -12
 12358 3616 40       		.uleb128 0x40
 12359 3617 B8220000 		.4byte	0x22b8
 12360 361b 2A000000 		.4byte	.LBB58
 12361 361f 22000000 		.4byte	.LBE58-.LBB58
 12362 3623 01       		.byte	0x1
 12363 3624 4A02     		.2byte	0x24a
 12364 3626 4D360000 		.4byte	0x364d
 12365 362a 3A       		.uleb128 0x3a
 12366 362b D1220000 		.4byte	0x22d1
 12367 362f 75030000 		.4byte	.LLST20
 12368 3633 3A       		.uleb128 0x3a
 12369 3634 C5220000 		.4byte	0x22c5
 12370 3638 89030000 		.4byte	.LLST21
 12371 363c 3B       		.uleb128 0x3b
 12372 363d 3A000000 		.4byte	.LVL213
 12373 3641 574A0000 		.4byte	0x4a57
 12374 3645 32       		.uleb128 0x32
 12375 3646 01       		.uleb128 0x1
 12376 3647 50       		.byte	0x50
 12377 3648 02       		.uleb128 0x2
 12378 3649 74       		.byte	0x74
 12379 364a 00       		.sleb128 0
 12380 364b 00       		.byte	0
ARM GAS  /tmp/cczXzW7i.s 			page 219


 12381 364c 00       		.byte	0
 12382 364d 41       		.uleb128 0x41
 12383 364e 0E000000 		.4byte	.LVL210
 12384 3652 66360000 		.4byte	0x3666
 12385 3656 32       		.uleb128 0x32
 12386 3657 01       		.uleb128 0x1
 12387 3658 50       		.byte	0x50
 12388 3659 01       		.uleb128 0x1
 12389 365a 32       		.byte	0x32
 12390 365b 32       		.uleb128 0x32
 12391 365c 02       		.uleb128 0x2
 12392 365d 90       		.byte	0x90
 12393 365e 40       		.uleb128 0x40
 12394 365f 05       		.uleb128 0x5
 12395 3660 F3       		.byte	0xf3
 12396 3661 03       		.uleb128 0x3
 12397 3662 F5       		.byte	0xf5
 12398 3663 40       		.uleb128 0x40
 12399 3664 25       		.uleb128 0x25
 12400 3665 00       		.byte	0
 12401 3666 3B       		.uleb128 0x3b
 12402 3667 2A000000 		.4byte	.LVL212
 12403 366b 1D4B0000 		.4byte	0x4b1d
 12404 366f 32       		.uleb128 0x32
 12405 3670 01       		.uleb128 0x1
 12406 3671 50       		.byte	0x50
 12407 3672 02       		.uleb128 0x2
 12408 3673 74       		.byte	0x74
 12409 3674 00       		.sleb128 0
 12410 3675 32       		.uleb128 0x32
 12411 3676 02       		.uleb128 0x2
 12412 3677 90       		.byte	0x90
 12413 3678 41       		.uleb128 0x41
 12414 3679 07       		.uleb128 0x7
 12415 367a F4       		.byte	0xf4
 12416 367b 25       		.uleb128 0x25
 12417 367c 04       		.byte	0x4
 12418 367d 00007A44 		.4byte	0x447a0000
 12419 3681 32       		.uleb128 0x32
 12420 3682 01       		.uleb128 0x1
 12421 3683 51       		.byte	0x51
 12422 3684 02       		.uleb128 0x2
 12423 3685 91       		.byte	0x91
 12424 3686 74       		.sleb128 -12
 12425 3687 00       		.byte	0
 12426 3688 00       		.byte	0
 12427 3689 30       		.uleb128 0x30
 12428 368a 26070000 		.4byte	.LASF628
 12429 368e 01       		.byte	0x1
 12430 368f 3702     		.2byte	0x237
 12431 3691 00000000 		.4byte	.LFB249
 12432 3695 4C000000 		.4byte	.LFE249-.LFB249
 12433 3699 01       		.uleb128 0x1
 12434 369a 9C       		.byte	0x9c
 12435 369b 31370000 		.4byte	0x3731
 12436 369f 2F       		.uleb128 0x2f
 12437 36a0 6B150000 		.4byte	.LASF612
ARM GAS  /tmp/cczXzW7i.s 			page 220


 12438 36a4 01       		.byte	0x1
 12439 36a5 3702     		.2byte	0x237
 12440 36a7 25000000 		.4byte	0x25
 12441 36ab A1030000 		.4byte	.LLST16
 12442 36af 38       		.uleb128 0x38
 12443 36b0 C9210000 		.4byte	.LASF609
 12444 36b4 01       		.byte	0x1
 12445 36b5 3C02     		.2byte	0x23c
 12446 36b7 DA000000 		.4byte	0xda
 12447 36bb 02       		.uleb128 0x2
 12448 36bc 91       		.byte	0x91
 12449 36bd 74       		.sleb128 -12
 12450 36be 40       		.uleb128 0x40
 12451 36bf B8220000 		.4byte	0x22b8
 12452 36c3 2A000000 		.4byte	.LBB56
 12453 36c7 22000000 		.4byte	.LBE56-.LBB56
 12454 36cb 01       		.byte	0x1
 12455 36cc 3F02     		.2byte	0x23f
 12456 36ce F5360000 		.4byte	0x36f5
 12457 36d2 3A       		.uleb128 0x3a
 12458 36d3 D1220000 		.4byte	0x22d1
 12459 36d7 E1030000 		.4byte	.LLST17
 12460 36db 3A       		.uleb128 0x3a
 12461 36dc C5220000 		.4byte	0x22c5
 12462 36e0 F5030000 		.4byte	.LLST18
 12463 36e4 3B       		.uleb128 0x3b
 12464 36e5 3A000000 		.4byte	.LVL208
 12465 36e9 574A0000 		.4byte	0x4a57
 12466 36ed 32       		.uleb128 0x32
 12467 36ee 01       		.uleb128 0x1
 12468 36ef 50       		.byte	0x50
 12469 36f0 02       		.uleb128 0x2
 12470 36f1 74       		.byte	0x74
 12471 36f2 00       		.sleb128 0
 12472 36f3 00       		.byte	0
 12473 36f4 00       		.byte	0
 12474 36f5 41       		.uleb128 0x41
 12475 36f6 0E000000 		.4byte	.LVL205
 12476 36fa 0E370000 		.4byte	0x370e
 12477 36fe 32       		.uleb128 0x32
 12478 36ff 01       		.uleb128 0x1
 12479 3700 50       		.byte	0x50
 12480 3701 01       		.uleb128 0x1
 12481 3702 31       		.byte	0x31
 12482 3703 32       		.uleb128 0x32
 12483 3704 02       		.uleb128 0x2
 12484 3705 90       		.byte	0x90
 12485 3706 40       		.uleb128 0x40
 12486 3707 05       		.uleb128 0x5
 12487 3708 F3       		.byte	0xf3
 12488 3709 03       		.uleb128 0x3
 12489 370a F5       		.byte	0xf5
 12490 370b 40       		.uleb128 0x40
 12491 370c 25       		.uleb128 0x25
 12492 370d 00       		.byte	0
 12493 370e 3B       		.uleb128 0x3b
 12494 370f 2A000000 		.4byte	.LVL207
ARM GAS  /tmp/cczXzW7i.s 			page 221


 12495 3713 1D4B0000 		.4byte	0x4b1d
 12496 3717 32       		.uleb128 0x32
 12497 3718 01       		.uleb128 0x1
 12498 3719 50       		.byte	0x50
 12499 371a 02       		.uleb128 0x2
 12500 371b 74       		.byte	0x74
 12501 371c 00       		.sleb128 0
 12502 371d 32       		.uleb128 0x32
 12503 371e 02       		.uleb128 0x2
 12504 371f 90       		.byte	0x90
 12505 3720 41       		.uleb128 0x41
 12506 3721 07       		.uleb128 0x7
 12507 3722 F4       		.byte	0xf4
 12508 3723 25       		.uleb128 0x25
 12509 3724 04       		.byte	0x4
 12510 3725 00007A44 		.4byte	0x447a0000
 12511 3729 32       		.uleb128 0x32
 12512 372a 01       		.uleb128 0x1
 12513 372b 51       		.byte	0x51
 12514 372c 02       		.uleb128 0x2
 12515 372d 91       		.byte	0x91
 12516 372e 74       		.sleb128 -12
 12517 372f 00       		.byte	0
 12518 3730 00       		.byte	0
 12519 3731 30       		.uleb128 0x30
 12520 3732 DD0A0000 		.4byte	.LASF629
 12521 3736 01       		.byte	0x1
 12522 3737 2C02     		.2byte	0x22c
 12523 3739 00000000 		.4byte	.LFB248
 12524 373d 4C000000 		.4byte	.LFE248-.LFB248
 12525 3741 01       		.uleb128 0x1
 12526 3742 9C       		.byte	0x9c
 12527 3743 D9370000 		.4byte	0x37d9
 12528 3747 2F       		.uleb128 0x2f
 12529 3748 78120000 		.4byte	.LASF630
 12530 374c 01       		.byte	0x1
 12531 374d 2C02     		.2byte	0x22c
 12532 374f 25000000 		.4byte	0x25
 12533 3753 0D040000 		.4byte	.LLST13
 12534 3757 38       		.uleb128 0x38
 12535 3758 C9210000 		.4byte	.LASF609
 12536 375c 01       		.byte	0x1
 12537 375d 3102     		.2byte	0x231
 12538 375f DA000000 		.4byte	0xda
 12539 3763 02       		.uleb128 0x2
 12540 3764 91       		.byte	0x91
 12541 3765 74       		.sleb128 -12
 12542 3766 40       		.uleb128 0x40
 12543 3767 B8220000 		.4byte	0x22b8
 12544 376b 2A000000 		.4byte	.LBB54
 12545 376f 22000000 		.4byte	.LBE54-.LBB54
 12546 3773 01       		.byte	0x1
 12547 3774 3402     		.2byte	0x234
 12548 3776 9D370000 		.4byte	0x379d
 12549 377a 3A       		.uleb128 0x3a
 12550 377b D1220000 		.4byte	0x22d1
 12551 377f 4D040000 		.4byte	.LLST14
ARM GAS  /tmp/cczXzW7i.s 			page 222


 12552 3783 3A       		.uleb128 0x3a
 12553 3784 C5220000 		.4byte	0x22c5
 12554 3788 61040000 		.4byte	.LLST15
 12555 378c 3B       		.uleb128 0x3b
 12556 378d 3A000000 		.4byte	.LVL203
 12557 3791 574A0000 		.4byte	0x4a57
 12558 3795 32       		.uleb128 0x32
 12559 3796 01       		.uleb128 0x1
 12560 3797 50       		.byte	0x50
 12561 3798 02       		.uleb128 0x2
 12562 3799 74       		.byte	0x74
 12563 379a 00       		.sleb128 0
 12564 379b 00       		.byte	0
 12565 379c 00       		.byte	0
 12566 379d 41       		.uleb128 0x41
 12567 379e 0E000000 		.4byte	.LVL200
 12568 37a2 B6370000 		.4byte	0x37b6
 12569 37a6 32       		.uleb128 0x32
 12570 37a7 01       		.uleb128 0x1
 12571 37a8 50       		.byte	0x50
 12572 37a9 01       		.uleb128 0x1
 12573 37aa 30       		.byte	0x30
 12574 37ab 32       		.uleb128 0x32
 12575 37ac 02       		.uleb128 0x2
 12576 37ad 90       		.byte	0x90
 12577 37ae 40       		.uleb128 0x40
 12578 37af 05       		.uleb128 0x5
 12579 37b0 F3       		.byte	0xf3
 12580 37b1 03       		.uleb128 0x3
 12581 37b2 F5       		.byte	0xf5
 12582 37b3 40       		.uleb128 0x40
 12583 37b4 25       		.uleb128 0x25
 12584 37b5 00       		.byte	0
 12585 37b6 3B       		.uleb128 0x3b
 12586 37b7 2A000000 		.4byte	.LVL202
 12587 37bb 1D4B0000 		.4byte	0x4b1d
 12588 37bf 32       		.uleb128 0x32
 12589 37c0 01       		.uleb128 0x1
 12590 37c1 50       		.byte	0x50
 12591 37c2 02       		.uleb128 0x2
 12592 37c3 74       		.byte	0x74
 12593 37c4 00       		.sleb128 0
 12594 37c5 32       		.uleb128 0x32
 12595 37c6 02       		.uleb128 0x2
 12596 37c7 90       		.byte	0x90
 12597 37c8 41       		.uleb128 0x41
 12598 37c9 07       		.uleb128 0x7
 12599 37ca F4       		.byte	0xf4
 12600 37cb 25       		.uleb128 0x25
 12601 37cc 04       		.byte	0x4
 12602 37cd 0050C347 		.4byte	0x47c35000
 12603 37d1 32       		.uleb128 0x32
 12604 37d2 01       		.uleb128 0x1
 12605 37d3 51       		.byte	0x51
 12606 37d4 02       		.uleb128 0x2
 12607 37d5 91       		.byte	0x91
 12608 37d6 74       		.sleb128 -12
ARM GAS  /tmp/cczXzW7i.s 			page 223


 12609 37d7 00       		.byte	0
 12610 37d8 00       		.byte	0
 12611 37d9 30       		.uleb128 0x30
 12612 37da 8D030000 		.4byte	.LASF631
 12613 37de 01       		.byte	0x1
 12614 37df 2502     		.2byte	0x225
 12615 37e1 00000000 		.4byte	.LFB247
 12616 37e5 38000000 		.4byte	.LFE247-.LFB247
 12617 37e9 01       		.uleb128 0x1
 12618 37ea 9C       		.byte	0x9c
 12619 37eb 7D380000 		.4byte	0x387d
 12620 37ef 3F       		.uleb128 0x3f
 12621 37f0 636D6400 		.ascii	"cmd\000"
 12622 37f4 01       		.byte	0x1
 12623 37f5 2502     		.2byte	0x225
 12624 37f7 68180000 		.4byte	0x1868
 12625 37fb 79040000 		.4byte	.LLST10
 12626 37ff 42       		.uleb128 0x42
 12627 3800 6C656E00 		.ascii	"len\000"
 12628 3804 01       		.byte	0x1
 12629 3805 2602     		.2byte	0x226
 12630 3807 2C000000 		.4byte	0x2c
 12631 380b A5040000 		.4byte	.LLST11
 12632 380f 39       		.uleb128 0x39
 12633 3810 B8220000 		.4byte	0x22b8
 12634 3814 1C000000 		.4byte	.LBB48
 12635 3818 00000000 		.4byte	.Ldebug_ranges0+0
 12636 381c 01       		.byte	0x1
 12637 381d 2902     		.2byte	0x229
 12638 381f 4C380000 		.4byte	0x384c
 12639 3823 3A       		.uleb128 0x3a
 12640 3824 D1220000 		.4byte	0x22d1
 12641 3828 D0040000 		.4byte	.LLST12
 12642 382c 36       		.uleb128 0x36
 12643 382d C5220000 		.4byte	0x22c5
 12644 3831 06       		.uleb128 0x6
 12645 3832 03       		.byte	0x3
 12646 3833 00000000 		.4byte	send_buffer
 12647 3837 9F       		.byte	0x9f
 12648 3838 37       		.uleb128 0x37
 12649 3839 30000000 		.4byte	.LVL198
 12650 383d 574A0000 		.4byte	0x4a57
 12651 3841 32       		.uleb128 0x32
 12652 3842 01       		.uleb128 0x1
 12653 3843 50       		.byte	0x50
 12654 3844 05       		.uleb128 0x5
 12655 3845 03       		.byte	0x3
 12656 3846 00000000 		.4byte	.LANCHOR22
 12657 384a 00       		.byte	0
 12658 384b 00       		.byte	0
 12659 384c 3C       		.uleb128 0x3c
 12660 384d 08000000 		.4byte	.LVL192
 12661 3851 5F4B0000 		.4byte	0x4b5f
 12662 3855 60380000 		.4byte	0x3860
 12663 3859 32       		.uleb128 0x32
 12664 385a 01       		.uleb128 0x1
 12665 385b 50       		.byte	0x50
ARM GAS  /tmp/cczXzW7i.s 			page 224


 12666 385c 02       		.uleb128 0x2
 12667 385d 76       		.byte	0x76
 12668 385e 00       		.sleb128 0
 12669 385f 00       		.byte	0
 12670 3860 3B       		.uleb128 0x3b
 12671 3861 1C000000 		.4byte	.LVL195
 12672 3865 6A4B0000 		.4byte	0x4b6a
 12673 3869 32       		.uleb128 0x32
 12674 386a 01       		.uleb128 0x1
 12675 386b 50       		.byte	0x50
 12676 386c 02       		.uleb128 0x2
 12677 386d 74       		.byte	0x74
 12678 386e 01       		.sleb128 1
 12679 386f 32       		.uleb128 0x32
 12680 3870 01       		.uleb128 0x1
 12681 3871 51       		.byte	0x51
 12682 3872 02       		.uleb128 0x2
 12683 3873 76       		.byte	0x76
 12684 3874 00       		.sleb128 0
 12685 3875 32       		.uleb128 0x32
 12686 3876 01       		.uleb128 0x1
 12687 3877 52       		.byte	0x52
 12688 3878 02       		.uleb128 0x2
 12689 3879 75       		.byte	0x75
 12690 387a 00       		.sleb128 0
 12691 387b 00       		.byte	0
 12692 387c 00       		.byte	0
 12693 387d 30       		.uleb128 0x30
 12694 387e 6B250000 		.4byte	.LASF632
 12695 3882 01       		.byte	0x1
 12696 3883 2002     		.2byte	0x220
 12697 3885 00000000 		.4byte	.LFB246
 12698 3889 0C000000 		.4byte	.LFE246-.LFB246
 12699 388d 01       		.uleb128 0x1
 12700 388e 9C       		.byte	0x9c
 12701 388f A2380000 		.4byte	0x38a2
 12702 3893 43       		.uleb128 0x43
 12703 3894 02170000 		.4byte	.LASF633
 12704 3898 01       		.byte	0x1
 12705 3899 2002     		.2byte	0x220
 12706 389b FF190000 		.4byte	0x19ff
 12707 389f 01       		.uleb128 0x1
 12708 38a0 50       		.byte	0x50
 12709 38a1 00       		.byte	0
 12710 38a2 30       		.uleb128 0x30
 12711 38a3 89240000 		.4byte	.LASF634
 12712 38a7 01       		.byte	0x1
 12713 38a8 1C02     		.2byte	0x21c
 12714 38aa 00000000 		.4byte	.LFB245
 12715 38ae 0C000000 		.4byte	.LFE245-.LFB245
 12716 38b2 01       		.uleb128 0x1
 12717 38b3 9C       		.byte	0x9c
 12718 38b4 C7380000 		.4byte	0x38c7
 12719 38b8 43       		.uleb128 0x43
 12720 38b9 02170000 		.4byte	.LASF633
 12721 38bd 01       		.byte	0x1
 12722 38be 1C02     		.2byte	0x21c
ARM GAS  /tmp/cczXzW7i.s 			page 225


 12723 38c0 A1220000 		.4byte	0x22a1
 12724 38c4 01       		.uleb128 0x1
 12725 38c5 50       		.byte	0x50
 12726 38c6 00       		.byte	0
 12727 38c7 30       		.uleb128 0x30
 12728 38c8 F71A0000 		.4byte	.LASF635
 12729 38cc 01       		.byte	0x1
 12730 38cd 1802     		.2byte	0x218
 12731 38cf 00000000 		.4byte	.LFB244
 12732 38d3 0C000000 		.4byte	.LFE244-.LFB244
 12733 38d7 01       		.uleb128 0x1
 12734 38d8 9C       		.byte	0x9c
 12735 38d9 EC380000 		.4byte	0x38ec
 12736 38dd 43       		.uleb128 0x43
 12737 38de 02170000 		.4byte	.LASF633
 12738 38e2 01       		.byte	0x1
 12739 38e3 1802     		.2byte	0x218
 12740 38e5 FF190000 		.4byte	0x19ff
 12741 38e9 01       		.uleb128 0x1
 12742 38ea 50       		.byte	0x50
 12743 38eb 00       		.byte	0
 12744 38ec 30       		.uleb128 0x30
 12745 38ed 14260000 		.4byte	.LASF636
 12746 38f1 01       		.byte	0x1
 12747 38f2 1402     		.2byte	0x214
 12748 38f4 00000000 		.4byte	.LFB243
 12749 38f8 0C000000 		.4byte	.LFE243-.LFB243
 12750 38fc 01       		.uleb128 0x1
 12751 38fd 9C       		.byte	0x9c
 12752 38fe 11390000 		.4byte	0x3911
 12753 3902 43       		.uleb128 0x43
 12754 3903 02170000 		.4byte	.LASF633
 12755 3907 01       		.byte	0x1
 12756 3908 1402     		.2byte	0x214
 12757 390a FF190000 		.4byte	0x19ff
 12758 390e 01       		.uleb128 0x1
 12759 390f 50       		.byte	0x50
 12760 3910 00       		.byte	0
 12761 3911 30       		.uleb128 0x30
 12762 3912 F8060000 		.4byte	.LASF637
 12763 3916 01       		.byte	0x1
 12764 3917 1002     		.2byte	0x210
 12765 3919 00000000 		.4byte	.LFB242
 12766 391d 0C000000 		.4byte	.LFE242-.LFB242
 12767 3921 01       		.uleb128 0x1
 12768 3922 9C       		.byte	0x9c
 12769 3923 36390000 		.4byte	0x3936
 12770 3927 43       		.uleb128 0x43
 12771 3928 02170000 		.4byte	.LASF633
 12772 392c 01       		.byte	0x1
 12773 392d 1002     		.2byte	0x210
 12774 392f 88210000 		.4byte	0x2188
 12775 3933 01       		.uleb128 0x1
 12776 3934 50       		.byte	0x50
 12777 3935 00       		.byte	0
 12778 3936 30       		.uleb128 0x30
 12779 3937 E81B0000 		.4byte	.LASF638
ARM GAS  /tmp/cczXzW7i.s 			page 226


 12780 393b 01       		.byte	0x1
 12781 393c 0C02     		.2byte	0x20c
 12782 393e 00000000 		.4byte	.LFB241
 12783 3942 0C000000 		.4byte	.LFE241-.LFB241
 12784 3946 01       		.uleb128 0x1
 12785 3947 9C       		.byte	0x9c
 12786 3948 5B390000 		.4byte	0x395b
 12787 394c 43       		.uleb128 0x43
 12788 394d 02170000 		.4byte	.LASF633
 12789 3951 01       		.byte	0x1
 12790 3952 0C02     		.2byte	0x20c
 12791 3954 36220000 		.4byte	0x2236
 12792 3958 01       		.uleb128 0x1
 12793 3959 50       		.byte	0x50
 12794 395a 00       		.byte	0
 12795 395b 30       		.uleb128 0x30
 12796 395c 26030000 		.4byte	.LASF639
 12797 3960 01       		.byte	0x1
 12798 3961 0802     		.2byte	0x208
 12799 3963 00000000 		.4byte	.LFB240
 12800 3967 0C000000 		.4byte	.LFE240-.LFB240
 12801 396b 01       		.uleb128 0x1
 12802 396c 9C       		.byte	0x9c
 12803 396d 80390000 		.4byte	0x3980
 12804 3971 43       		.uleb128 0x43
 12805 3972 02170000 		.4byte	.LASF633
 12806 3976 01       		.byte	0x1
 12807 3977 0802     		.2byte	0x208
 12808 3979 36220000 		.4byte	0x2236
 12809 397d 01       		.uleb128 0x1
 12810 397e 50       		.byte	0x50
 12811 397f 00       		.byte	0
 12812 3980 30       		.uleb128 0x30
 12813 3981 611E0000 		.4byte	.LASF640
 12814 3985 01       		.byte	0x1
 12815 3986 0302     		.2byte	0x203
 12816 3988 00000000 		.4byte	.LFB239
 12817 398c 0C000000 		.4byte	.LFE239-.LFB239
 12818 3990 01       		.uleb128 0x1
 12819 3991 9C       		.byte	0x9c
 12820 3992 A5390000 		.4byte	0x39a5
 12821 3996 43       		.uleb128 0x43
 12822 3997 02170000 		.4byte	.LASF633
 12823 399b 01       		.byte	0x1
 12824 399c 0302     		.2byte	0x203
 12825 399e 0F220000 		.4byte	0x220f
 12826 39a2 01       		.uleb128 0x1
 12827 39a3 50       		.byte	0x50
 12828 39a4 00       		.byte	0
 12829 39a5 30       		.uleb128 0x30
 12830 39a6 28020000 		.4byte	.LASF641
 12831 39aa 01       		.byte	0x1
 12832 39ab FF01     		.2byte	0x1ff
 12833 39ad 00000000 		.4byte	.LFB238
 12834 39b1 0C000000 		.4byte	.LFE238-.LFB238
 12835 39b5 01       		.uleb128 0x1
 12836 39b6 9C       		.byte	0x9c
ARM GAS  /tmp/cczXzW7i.s 			page 227


 12837 39b7 CA390000 		.4byte	0x39ca
 12838 39bb 43       		.uleb128 0x43
 12839 39bc 02170000 		.4byte	.LASF633
 12840 39c0 01       		.byte	0x1
 12841 39c1 FF01     		.2byte	0x1ff
 12842 39c3 D8210000 		.4byte	0x21d8
 12843 39c7 01       		.uleb128 0x1
 12844 39c8 50       		.byte	0x50
 12845 39c9 00       		.byte	0
 12846 39ca 30       		.uleb128 0x30
 12847 39cb 38150000 		.4byte	.LASF642
 12848 39cf 01       		.byte	0x1
 12849 39d0 FB01     		.2byte	0x1fb
 12850 39d2 00000000 		.4byte	.LFB237
 12851 39d6 0C000000 		.4byte	.LFE237-.LFB237
 12852 39da 01       		.uleb128 0x1
 12853 39db 9C       		.byte	0x9c
 12854 39dc EF390000 		.4byte	0x39ef
 12855 39e0 43       		.uleb128 0x43
 12856 39e1 02170000 		.4byte	.LASF633
 12857 39e5 01       		.byte	0x1
 12858 39e6 FB01     		.2byte	0x1fb
 12859 39e8 B0210000 		.4byte	0x21b0
 12860 39ec 01       		.uleb128 0x1
 12861 39ed 50       		.byte	0x50
 12862 39ee 00       		.byte	0
 12863 39ef 30       		.uleb128 0x30
 12864 39f0 67190000 		.4byte	.LASF643
 12865 39f4 01       		.byte	0x1
 12866 39f5 F701     		.2byte	0x1f7
 12867 39f7 00000000 		.4byte	.LFB236
 12868 39fb 0C000000 		.4byte	.LFE236-.LFB236
 12869 39ff 01       		.uleb128 0x1
 12870 3a00 9C       		.byte	0x9c
 12871 3a01 143A0000 		.4byte	0x3a14
 12872 3a05 43       		.uleb128 0x43
 12873 3a06 02170000 		.4byte	.LASF633
 12874 3a0a 01       		.byte	0x1
 12875 3a0b F701     		.2byte	0x1f7
 12876 3a0d 88210000 		.4byte	0x2188
 12877 3a11 01       		.uleb128 0x1
 12878 3a12 50       		.byte	0x50
 12879 3a13 00       		.byte	0
 12880 3a14 30       		.uleb128 0x30
 12881 3a15 6B050000 		.4byte	.LASF644
 12882 3a19 01       		.byte	0x1
 12883 3a1a F301     		.2byte	0x1f3
 12884 3a1c 00000000 		.4byte	.LFB235
 12885 3a20 02000000 		.4byte	.LFE235-.LFB235
 12886 3a24 01       		.uleb128 0x1
 12887 3a25 9C       		.byte	0x9c
 12888 3a26 393A0000 		.4byte	0x3a39
 12889 3a2a 43       		.uleb128 0x43
 12890 3a2b 02170000 		.4byte	.LASF633
 12891 3a2f 01       		.byte	0x1
 12892 3a30 F301     		.2byte	0x1f3
 12893 3a32 66210000 		.4byte	0x2166
ARM GAS  /tmp/cczXzW7i.s 			page 228


 12894 3a36 01       		.uleb128 0x1
 12895 3a37 50       		.byte	0x50
 12896 3a38 00       		.byte	0
 12897 3a39 30       		.uleb128 0x30
 12898 3a3a 53210000 		.4byte	.LASF645
 12899 3a3e 01       		.byte	0x1
 12900 3a3f EF01     		.2byte	0x1ef
 12901 3a41 00000000 		.4byte	.LFB234
 12902 3a45 0C000000 		.4byte	.LFE234-.LFB234
 12903 3a49 01       		.uleb128 0x1
 12904 3a4a 9C       		.byte	0x9c
 12905 3a4b 5E3A0000 		.4byte	0x3a5e
 12906 3a4f 43       		.uleb128 0x43
 12907 3a50 02170000 		.4byte	.LASF633
 12908 3a54 01       		.byte	0x1
 12909 3a55 EF01     		.2byte	0x1ef
 12910 3a57 45210000 		.4byte	0x2145
 12911 3a5b 01       		.uleb128 0x1
 12912 3a5c 50       		.byte	0x50
 12913 3a5d 00       		.byte	0
 12914 3a5e 30       		.uleb128 0x30
 12915 3a5f 33270000 		.4byte	.LASF646
 12916 3a63 01       		.byte	0x1
 12917 3a64 EB01     		.2byte	0x1eb
 12918 3a66 00000000 		.4byte	.LFB233
 12919 3a6a 0C000000 		.4byte	.LFE233-.LFB233
 12920 3a6e 01       		.uleb128 0x1
 12921 3a6f 9C       		.byte	0x9c
 12922 3a70 833A0000 		.4byte	0x3a83
 12923 3a74 43       		.uleb128 0x43
 12924 3a75 02170000 		.4byte	.LASF633
 12925 3a79 01       		.byte	0x1
 12926 3a7a EB01     		.2byte	0x1eb
 12927 3a7c 23210000 		.4byte	0x2123
 12928 3a80 01       		.uleb128 0x1
 12929 3a81 50       		.byte	0x50
 12930 3a82 00       		.byte	0
 12931 3a83 44       		.uleb128 0x44
 12932 3a84 591A0000 		.4byte	.LASF647
 12933 3a88 01       		.byte	0x1
 12934 3a89 6B       		.byte	0x6b
 12935 3a8a 00000000 		.4byte	.LFB232
 12936 3a8e 340B0000 		.4byte	.LFE232-.LFB232
 12937 3a92 01       		.uleb128 0x1
 12938 3a93 9C       		.byte	0x9c
 12939 3a94 EE490000 		.4byte	0x49ee
 12940 3a98 45       		.uleb128 0x45
 12941 3a99 8E1F0000 		.4byte	.LASF605
 12942 3a9d 01       		.byte	0x1
 12943 3a9e 6B       		.byte	0x6b
 12944 3a9f 2B1A0000 		.4byte	0x1a2b
 12945 3aa3 F0040000 		.4byte	.LLST6
 12946 3aa7 46       		.uleb128 0x46
 12947 3aa8 6C656E00 		.ascii	"len\000"
 12948 3aac 01       		.byte	0x1
 12949 3aad 6B       		.byte	0x6b
 12950 3aae B2000000 		.4byte	0xb2
ARM GAS  /tmp/cczXzW7i.s 			page 229


 12951 3ab2 5D050000 		.4byte	.LLST7
 12952 3ab6 47       		.uleb128 0x47
 12953 3ab7 696E6400 		.ascii	"ind\000"
 12954 3abb 01       		.byte	0x1
 12955 3abc 75       		.byte	0x75
 12956 3abd DA000000 		.4byte	0xda
 12957 3ac1 02       		.uleb128 0x2
 12958 3ac2 91       		.byte	0x91
 12959 3ac3 64       		.sleb128 -28
 12960 3ac4 48       		.uleb128 0x48
 12961 3ac5 6900     		.ascii	"i\000"
 12962 3ac7 01       		.byte	0x1
 12963 3ac8 76       		.byte	0x76
 12964 3ac9 2C000000 		.4byte	0x2c
 12965 3acd C6060000 		.4byte	.LLST8
 12966 3ad1 48       		.uleb128 0x48
 12967 3ad2 696400   		.ascii	"id\000"
 12968 3ad5 01       		.byte	0x1
 12969 3ad6 77       		.byte	0x77
 12970 3ad7 55000000 		.4byte	0x55
 12971 3adb E6060000 		.4byte	.LLST9
 12972 3adf 49       		.uleb128 0x49
 12973 3ae0 0E000000 		.4byte	.LVL7
 12974 3ae4 02       		.uleb128 0x2
 12975 3ae5 74       		.byte	0x74
 12976 3ae6 00       		.sleb128 0
 12977 3ae7 FA3A0000 		.4byte	0x3afa
 12978 3aeb 32       		.uleb128 0x32
 12979 3aec 01       		.uleb128 0x1
 12980 3aed 50       		.byte	0x50
 12981 3aee 03       		.uleb128 0x3
 12982 3aef F3       		.byte	0xf3
 12983 3af0 01       		.uleb128 0x1
 12984 3af1 50       		.byte	0x50
 12985 3af2 32       		.uleb128 0x32
 12986 3af3 01       		.uleb128 0x1
 12987 3af4 51       		.byte	0x51
 12988 3af5 03       		.uleb128 0x3
 12989 3af6 F3       		.byte	0xf3
 12990 3af7 01       		.uleb128 0x1
 12991 3af8 51       		.byte	0x51
 12992 3af9 00       		.byte	0
 12993 3afa 3C       		.uleb128 0x3c
 12994 3afb B2000000 		.4byte	.LVL13
 12995 3aff 794B0000 		.4byte	0x4b79
 12996 3b03 203B0000 		.4byte	0x3b20
 12997 3b07 32       		.uleb128 0x32
 12998 3b08 01       		.uleb128 0x1
 12999 3b09 50       		.byte	0x50
 13000 3b0a 02       		.uleb128 0x2
 13001 3b0b 74       		.byte	0x74
 13002 3b0c 00       		.sleb128 0
 13003 3b0d 32       		.uleb128 0x32
 13004 3b0e 02       		.uleb128 0x2
 13005 3b0f 90       		.byte	0x90
 13006 3b10 40       		.uleb128 0x40
 13007 3b11 07       		.uleb128 0x7
ARM GAS  /tmp/cczXzW7i.s 			page 230


 13008 3b12 F4       		.byte	0xf4
 13009 3b13 25       		.uleb128 0x25
 13010 3b14 04       		.byte	0x4
 13011 3b15 00247449 		.4byte	0x49742400
 13012 3b19 32       		.uleb128 0x32
 13013 3b1a 01       		.uleb128 0x1
 13014 3b1b 51       		.byte	0x51
 13015 3b1c 02       		.uleb128 0x2
 13016 3b1d 91       		.byte	0x91
 13017 3b1e 64       		.sleb128 -28
 13018 3b1f 00       		.byte	0
 13019 3b20 3C       		.uleb128 0x3c
 13020 3b21 C2000000 		.4byte	.LVL14
 13021 3b25 794B0000 		.4byte	0x4b79
 13022 3b29 463B0000 		.4byte	0x3b46
 13023 3b2d 32       		.uleb128 0x32
 13024 3b2e 01       		.uleb128 0x1
 13025 3b2f 50       		.byte	0x50
 13026 3b30 02       		.uleb128 0x2
 13027 3b31 74       		.byte	0x74
 13028 3b32 00       		.sleb128 0
 13029 3b33 32       		.uleb128 0x32
 13030 3b34 02       		.uleb128 0x2
 13031 3b35 90       		.byte	0x90
 13032 3b36 40       		.uleb128 0x40
 13033 3b37 07       		.uleb128 0x7
 13034 3b38 F4       		.byte	0xf4
 13035 3b39 25       		.uleb128 0x25
 13036 3b3a 04       		.byte	0x4
 13037 3b3b 00247449 		.4byte	0x49742400
 13038 3b3f 32       		.uleb128 0x32
 13039 3b40 01       		.uleb128 0x1
 13040 3b41 51       		.byte	0x51
 13041 3b42 02       		.uleb128 0x2
 13042 3b43 91       		.byte	0x91
 13043 3b44 64       		.sleb128 -28
 13044 3b45 00       		.byte	0
 13045 3b46 3C       		.uleb128 0x3c
 13046 3b47 E2000000 		.4byte	.LVL17
 13047 3b4b 794B0000 		.4byte	0x4b79
 13048 3b4f 6C3B0000 		.4byte	0x3b6c
 13049 3b53 32       		.uleb128 0x32
 13050 3b54 01       		.uleb128 0x1
 13051 3b55 50       		.byte	0x50
 13052 3b56 02       		.uleb128 0x2
 13053 3b57 74       		.byte	0x74
 13054 3b58 00       		.sleb128 0
 13055 3b59 32       		.uleb128 0x32
 13056 3b5a 02       		.uleb128 0x2
 13057 3b5b 90       		.byte	0x90
 13058 3b5c 40       		.uleb128 0x40
 13059 3b5d 07       		.uleb128 0x7
 13060 3b5e F4       		.byte	0xf4
 13061 3b5f 25       		.uleb128 0x25
 13062 3b60 04       		.byte	0x4
 13063 3b61 0050C347 		.4byte	0x47c35000
 13064 3b65 32       		.uleb128 0x32
ARM GAS  /tmp/cczXzW7i.s 			page 231


 13065 3b66 01       		.uleb128 0x1
 13066 3b67 51       		.byte	0x51
 13067 3b68 02       		.uleb128 0x2
 13068 3b69 91       		.byte	0x91
 13069 3b6a 64       		.sleb128 -28
 13070 3b6b 00       		.byte	0
 13071 3b6c 41       		.uleb128 0x41
 13072 3b6d FE000000 		.4byte	.LVL21
 13073 3b71 7C3B0000 		.4byte	0x3b7c
 13074 3b75 32       		.uleb128 0x32
 13075 3b76 01       		.uleb128 0x1
 13076 3b77 50       		.byte	0x50
 13077 3b78 02       		.uleb128 0x2
 13078 3b79 74       		.byte	0x74
 13079 3b7a 00       		.sleb128 0
 13080 3b7b 00       		.byte	0
 13081 3b7c 3C       		.uleb128 0x3c
 13082 3b7d 0C010000 		.4byte	.LVL23
 13083 3b81 794B0000 		.4byte	0x4b79
 13084 3b85 A23B0000 		.4byte	0x3ba2
 13085 3b89 32       		.uleb128 0x32
 13086 3b8a 01       		.uleb128 0x1
 13087 3b8b 50       		.byte	0x50
 13088 3b8c 02       		.uleb128 0x2
 13089 3b8d 74       		.byte	0x74
 13090 3b8e 00       		.sleb128 0
 13091 3b8f 32       		.uleb128 0x32
 13092 3b90 02       		.uleb128 0x2
 13093 3b91 90       		.byte	0x90
 13094 3b92 40       		.uleb128 0x40
 13095 3b93 07       		.uleb128 0x7
 13096 3b94 F4       		.byte	0xf4
 13097 3b95 25       		.uleb128 0x25
 13098 3b96 04       		.byte	0x4
 13099 3b97 00247449 		.4byte	0x49742400
 13100 3b9b 32       		.uleb128 0x32
 13101 3b9c 01       		.uleb128 0x1
 13102 3b9d 51       		.byte	0x51
 13103 3b9e 02       		.uleb128 0x2
 13104 3b9f 91       		.byte	0x91
 13105 3ba0 64       		.sleb128 -28
 13106 3ba1 00       		.byte	0
 13107 3ba2 3C       		.uleb128 0x3c
 13108 3ba3 4E010000 		.4byte	.LVL28
 13109 3ba7 844B0000 		.4byte	0x4b84
 13110 3bab BC3B0000 		.4byte	0x3bbc
 13111 3baf 32       		.uleb128 0x32
 13112 3bb0 01       		.uleb128 0x1
 13113 3bb1 50       		.byte	0x50
 13114 3bb2 02       		.uleb128 0x2
 13115 3bb3 74       		.byte	0x74
 13116 3bb4 00       		.sleb128 0
 13117 3bb5 32       		.uleb128 0x32
 13118 3bb6 01       		.uleb128 0x1
 13119 3bb7 51       		.byte	0x51
 13120 3bb8 02       		.uleb128 0x2
 13121 3bb9 76       		.byte	0x76
ARM GAS  /tmp/cczXzW7i.s 			page 232


 13122 3bba 00       		.sleb128 0
 13123 3bbb 00       		.byte	0
 13124 3bbc 3C       		.uleb128 0x3c
 13125 3bbd 58010000 		.4byte	.LVL29
 13126 3bc1 8F4B0000 		.4byte	0x4b8f
 13127 3bc5 D63B0000 		.4byte	0x3bd6
 13128 3bc9 32       		.uleb128 0x32
 13129 3bca 01       		.uleb128 0x1
 13130 3bcb 50       		.byte	0x50
 13131 3bcc 02       		.uleb128 0x2
 13132 3bcd 74       		.byte	0x74
 13133 3bce 00       		.sleb128 0
 13134 3bcf 32       		.uleb128 0x32
 13135 3bd0 01       		.uleb128 0x1
 13136 3bd1 51       		.byte	0x51
 13137 3bd2 02       		.uleb128 0x2
 13138 3bd3 76       		.byte	0x76
 13139 3bd4 00       		.sleb128 0
 13140 3bd5 00       		.byte	0
 13141 3bd6 3C       		.uleb128 0x3c
 13142 3bd7 74010000 		.4byte	.LVL30
 13143 3bdb 9A4B0000 		.4byte	0x4b9a
 13144 3bdf F03B0000 		.4byte	0x3bf0
 13145 3be3 32       		.uleb128 0x32
 13146 3be4 01       		.uleb128 0x1
 13147 3be5 50       		.byte	0x50
 13148 3be6 02       		.uleb128 0x2
 13149 3be7 74       		.byte	0x74
 13150 3be8 00       		.sleb128 0
 13151 3be9 32       		.uleb128 0x32
 13152 3bea 01       		.uleb128 0x1
 13153 3beb 51       		.byte	0x51
 13154 3bec 02       		.uleb128 0x2
 13155 3bed 76       		.byte	0x76
 13156 3bee 00       		.sleb128 0
 13157 3bef 00       		.byte	0
 13158 3bf0 3C       		.uleb128 0x3c
 13159 3bf1 92010000 		.4byte	.LVL31
 13160 3bf5 8F4B0000 		.4byte	0x4b8f
 13161 3bf9 0A3C0000 		.4byte	0x3c0a
 13162 3bfd 32       		.uleb128 0x32
 13163 3bfe 01       		.uleb128 0x1
 13164 3bff 50       		.byte	0x50
 13165 3c00 02       		.uleb128 0x2
 13166 3c01 74       		.byte	0x74
 13167 3c02 00       		.sleb128 0
 13168 3c03 32       		.uleb128 0x32
 13169 3c04 01       		.uleb128 0x1
 13170 3c05 51       		.byte	0x51
 13171 3c06 02       		.uleb128 0x2
 13172 3c07 76       		.byte	0x76
 13173 3c08 00       		.sleb128 0
 13174 3c09 00       		.byte	0
 13175 3c0a 3C       		.uleb128 0x3c
 13176 3c0b 9E010000 		.4byte	.LVL32
 13177 3c0f 8F4B0000 		.4byte	0x4b8f
 13178 3c13 243C0000 		.4byte	0x3c24
ARM GAS  /tmp/cczXzW7i.s 			page 233


 13179 3c17 32       		.uleb128 0x32
 13180 3c18 01       		.uleb128 0x1
 13181 3c19 50       		.byte	0x50
 13182 3c1a 02       		.uleb128 0x2
 13183 3c1b 74       		.byte	0x74
 13184 3c1c 00       		.sleb128 0
 13185 3c1d 32       		.uleb128 0x32
 13186 3c1e 01       		.uleb128 0x1
 13187 3c1f 51       		.byte	0x51
 13188 3c20 02       		.uleb128 0x2
 13189 3c21 76       		.byte	0x76
 13190 3c22 00       		.sleb128 0
 13191 3c23 00       		.byte	0
 13192 3c24 3C       		.uleb128 0x3c
 13193 3c25 AA010000 		.4byte	.LVL33
 13194 3c29 8F4B0000 		.4byte	0x4b8f
 13195 3c2d 3E3C0000 		.4byte	0x3c3e
 13196 3c31 32       		.uleb128 0x32
 13197 3c32 01       		.uleb128 0x1
 13198 3c33 50       		.byte	0x50
 13199 3c34 02       		.uleb128 0x2
 13200 3c35 74       		.byte	0x74
 13201 3c36 00       		.sleb128 0
 13202 3c37 32       		.uleb128 0x32
 13203 3c38 01       		.uleb128 0x1
 13204 3c39 51       		.byte	0x51
 13205 3c3a 02       		.uleb128 0x2
 13206 3c3b 76       		.byte	0x76
 13207 3c3c 00       		.sleb128 0
 13208 3c3d 00       		.byte	0
 13209 3c3e 3C       		.uleb128 0x3c
 13210 3c3f B6010000 		.4byte	.LVL34
 13211 3c43 8F4B0000 		.4byte	0x4b8f
 13212 3c47 583C0000 		.4byte	0x3c58
 13213 3c4b 32       		.uleb128 0x32
 13214 3c4c 01       		.uleb128 0x1
 13215 3c4d 50       		.byte	0x50
 13216 3c4e 02       		.uleb128 0x2
 13217 3c4f 74       		.byte	0x74
 13218 3c50 00       		.sleb128 0
 13219 3c51 32       		.uleb128 0x32
 13220 3c52 01       		.uleb128 0x1
 13221 3c53 51       		.byte	0x51
 13222 3c54 02       		.uleb128 0x2
 13223 3c55 76       		.byte	0x76
 13224 3c56 00       		.sleb128 0
 13225 3c57 00       		.byte	0
 13226 3c58 3C       		.uleb128 0x3c
 13227 3c59 C2010000 		.4byte	.LVL35
 13228 3c5d 8F4B0000 		.4byte	0x4b8f
 13229 3c61 723C0000 		.4byte	0x3c72
 13230 3c65 32       		.uleb128 0x32
 13231 3c66 01       		.uleb128 0x1
 13232 3c67 50       		.byte	0x50
 13233 3c68 02       		.uleb128 0x2
 13234 3c69 74       		.byte	0x74
 13235 3c6a 00       		.sleb128 0
ARM GAS  /tmp/cczXzW7i.s 			page 234


 13236 3c6b 32       		.uleb128 0x32
 13237 3c6c 01       		.uleb128 0x1
 13238 3c6d 51       		.byte	0x51
 13239 3c6e 02       		.uleb128 0x2
 13240 3c6f 76       		.byte	0x76
 13241 3c70 00       		.sleb128 0
 13242 3c71 00       		.byte	0
 13243 3c72 3C       		.uleb128 0x3c
 13244 3c73 F0010000 		.4byte	.LVL36
 13245 3c77 8F4B0000 		.4byte	0x4b8f
 13246 3c7b 8C3C0000 		.4byte	0x3c8c
 13247 3c7f 32       		.uleb128 0x32
 13248 3c80 01       		.uleb128 0x1
 13249 3c81 50       		.byte	0x50
 13250 3c82 02       		.uleb128 0x2
 13251 3c83 74       		.byte	0x74
 13252 3c84 00       		.sleb128 0
 13253 3c85 32       		.uleb128 0x32
 13254 3c86 01       		.uleb128 0x1
 13255 3c87 51       		.byte	0x51
 13256 3c88 02       		.uleb128 0x2
 13257 3c89 76       		.byte	0x76
 13258 3c8a 00       		.sleb128 0
 13259 3c8b 00       		.byte	0
 13260 3c8c 3C       		.uleb128 0x3c
 13261 3c8d FC010000 		.4byte	.LVL37
 13262 3c91 8F4B0000 		.4byte	0x4b8f
 13263 3c95 A63C0000 		.4byte	0x3ca6
 13264 3c99 32       		.uleb128 0x32
 13265 3c9a 01       		.uleb128 0x1
 13266 3c9b 50       		.byte	0x50
 13267 3c9c 02       		.uleb128 0x2
 13268 3c9d 74       		.byte	0x74
 13269 3c9e 00       		.sleb128 0
 13270 3c9f 32       		.uleb128 0x32
 13271 3ca0 01       		.uleb128 0x1
 13272 3ca1 51       		.byte	0x51
 13273 3ca2 02       		.uleb128 0x2
 13274 3ca3 76       		.byte	0x76
 13275 3ca4 00       		.sleb128 0
 13276 3ca5 00       		.byte	0
 13277 3ca6 3C       		.uleb128 0x3c
 13278 3ca7 14020000 		.4byte	.LVL38
 13279 3cab 8F4B0000 		.4byte	0x4b8f
 13280 3caf C03C0000 		.4byte	0x3cc0
 13281 3cb3 32       		.uleb128 0x32
 13282 3cb4 01       		.uleb128 0x1
 13283 3cb5 50       		.byte	0x50
 13284 3cb6 02       		.uleb128 0x2
 13285 3cb7 74       		.byte	0x74
 13286 3cb8 00       		.sleb128 0
 13287 3cb9 32       		.uleb128 0x32
 13288 3cba 01       		.uleb128 0x1
 13289 3cbb 51       		.byte	0x51
 13290 3cbc 02       		.uleb128 0x2
 13291 3cbd 76       		.byte	0x76
 13292 3cbe 00       		.sleb128 0
ARM GAS  /tmp/cczXzW7i.s 			page 235


 13293 3cbf 00       		.byte	0
 13294 3cc0 3C       		.uleb128 0x3c
 13295 3cc1 20020000 		.4byte	.LVL39
 13296 3cc5 8F4B0000 		.4byte	0x4b8f
 13297 3cc9 DA3C0000 		.4byte	0x3cda
 13298 3ccd 32       		.uleb128 0x32
 13299 3cce 01       		.uleb128 0x1
 13300 3ccf 50       		.byte	0x50
 13301 3cd0 02       		.uleb128 0x2
 13302 3cd1 74       		.byte	0x74
 13303 3cd2 00       		.sleb128 0
 13304 3cd3 32       		.uleb128 0x32
 13305 3cd4 01       		.uleb128 0x1
 13306 3cd5 51       		.byte	0x51
 13307 3cd6 02       		.uleb128 0x2
 13308 3cd7 76       		.byte	0x76
 13309 3cd8 00       		.sleb128 0
 13310 3cd9 00       		.byte	0
 13311 3cda 3C       		.uleb128 0x3c
 13312 3cdb 4E020000 		.4byte	.LVL40
 13313 3cdf 8F4B0000 		.4byte	0x4b8f
 13314 3ce3 F43C0000 		.4byte	0x3cf4
 13315 3ce7 32       		.uleb128 0x32
 13316 3ce8 01       		.uleb128 0x1
 13317 3ce9 50       		.byte	0x50
 13318 3cea 02       		.uleb128 0x2
 13319 3ceb 74       		.byte	0x74
 13320 3cec 00       		.sleb128 0
 13321 3ced 32       		.uleb128 0x32
 13322 3cee 01       		.uleb128 0x1
 13323 3cef 51       		.byte	0x51
 13324 3cf0 02       		.uleb128 0x2
 13325 3cf1 76       		.byte	0x76
 13326 3cf2 00       		.sleb128 0
 13327 3cf3 00       		.byte	0
 13328 3cf4 3C       		.uleb128 0x3c
 13329 3cf5 66020000 		.4byte	.LVL41
 13330 3cf9 8F4B0000 		.4byte	0x4b8f
 13331 3cfd 0E3D0000 		.4byte	0x3d0e
 13332 3d01 32       		.uleb128 0x32
 13333 3d02 01       		.uleb128 0x1
 13334 3d03 50       		.byte	0x50
 13335 3d04 02       		.uleb128 0x2
 13336 3d05 74       		.byte	0x74
 13337 3d06 00       		.sleb128 0
 13338 3d07 32       		.uleb128 0x32
 13339 3d08 01       		.uleb128 0x1
 13340 3d09 51       		.byte	0x51
 13341 3d0a 02       		.uleb128 0x2
 13342 3d0b 76       		.byte	0x76
 13343 3d0c 00       		.sleb128 0
 13344 3d0d 00       		.byte	0
 13345 3d0e 3C       		.uleb128 0x3c
 13346 3d0f 72020000 		.4byte	.LVL42
 13347 3d13 8F4B0000 		.4byte	0x4b8f
 13348 3d17 283D0000 		.4byte	0x3d28
 13349 3d1b 32       		.uleb128 0x32
ARM GAS  /tmp/cczXzW7i.s 			page 236


 13350 3d1c 01       		.uleb128 0x1
 13351 3d1d 50       		.byte	0x50
 13352 3d1e 02       		.uleb128 0x2
 13353 3d1f 74       		.byte	0x74
 13354 3d20 00       		.sleb128 0
 13355 3d21 32       		.uleb128 0x32
 13356 3d22 01       		.uleb128 0x1
 13357 3d23 51       		.byte	0x51
 13358 3d24 02       		.uleb128 0x2
 13359 3d25 76       		.byte	0x76
 13360 3d26 00       		.sleb128 0
 13361 3d27 00       		.byte	0
 13362 3d28 3C       		.uleb128 0x3c
 13363 3d29 7E020000 		.4byte	.LVL43
 13364 3d2d 8F4B0000 		.4byte	0x4b8f
 13365 3d31 423D0000 		.4byte	0x3d42
 13366 3d35 32       		.uleb128 0x32
 13367 3d36 01       		.uleb128 0x1
 13368 3d37 50       		.byte	0x50
 13369 3d38 02       		.uleb128 0x2
 13370 3d39 74       		.byte	0x74
 13371 3d3a 00       		.sleb128 0
 13372 3d3b 32       		.uleb128 0x32
 13373 3d3c 01       		.uleb128 0x1
 13374 3d3d 51       		.byte	0x51
 13375 3d3e 02       		.uleb128 0x2
 13376 3d3f 76       		.byte	0x76
 13377 3d40 00       		.sleb128 0
 13378 3d41 00       		.byte	0
 13379 3d42 3C       		.uleb128 0x3c
 13380 3d43 8A020000 		.4byte	.LVL44
 13381 3d47 8F4B0000 		.4byte	0x4b8f
 13382 3d4b 5C3D0000 		.4byte	0x3d5c
 13383 3d4f 32       		.uleb128 0x32
 13384 3d50 01       		.uleb128 0x1
 13385 3d51 50       		.byte	0x50
 13386 3d52 02       		.uleb128 0x2
 13387 3d53 74       		.byte	0x74
 13388 3d54 00       		.sleb128 0
 13389 3d55 32       		.uleb128 0x32
 13390 3d56 01       		.uleb128 0x1
 13391 3d57 51       		.byte	0x51
 13392 3d58 02       		.uleb128 0x2
 13393 3d59 76       		.byte	0x76
 13394 3d5a 00       		.sleb128 0
 13395 3d5b 00       		.byte	0
 13396 3d5c 3C       		.uleb128 0x3c
 13397 3d5d 96020000 		.4byte	.LVL45
 13398 3d61 8F4B0000 		.4byte	0x4b8f
 13399 3d65 763D0000 		.4byte	0x3d76
 13400 3d69 32       		.uleb128 0x32
 13401 3d6a 01       		.uleb128 0x1
 13402 3d6b 50       		.byte	0x50
 13403 3d6c 02       		.uleb128 0x2
 13404 3d6d 74       		.byte	0x74
 13405 3d6e 00       		.sleb128 0
 13406 3d6f 32       		.uleb128 0x32
ARM GAS  /tmp/cczXzW7i.s 			page 237


 13407 3d70 01       		.uleb128 0x1
 13408 3d71 51       		.byte	0x51
 13409 3d72 02       		.uleb128 0x2
 13410 3d73 76       		.byte	0x76
 13411 3d74 00       		.sleb128 0
 13412 3d75 00       		.byte	0
 13413 3d76 3C       		.uleb128 0x3c
 13414 3d77 A2020000 		.4byte	.LVL46
 13415 3d7b 8F4B0000 		.4byte	0x4b8f
 13416 3d7f 903D0000 		.4byte	0x3d90
 13417 3d83 32       		.uleb128 0x32
 13418 3d84 01       		.uleb128 0x1
 13419 3d85 50       		.byte	0x50
 13420 3d86 02       		.uleb128 0x2
 13421 3d87 74       		.byte	0x74
 13422 3d88 00       		.sleb128 0
 13423 3d89 32       		.uleb128 0x32
 13424 3d8a 01       		.uleb128 0x1
 13425 3d8b 51       		.byte	0x51
 13426 3d8c 02       		.uleb128 0x2
 13427 3d8d 76       		.byte	0x76
 13428 3d8e 00       		.sleb128 0
 13429 3d8f 00       		.byte	0
 13430 3d90 3C       		.uleb128 0x3c
 13431 3d91 00030000 		.4byte	.LVL47
 13432 3d95 8F4B0000 		.4byte	0x4b8f
 13433 3d99 AA3D0000 		.4byte	0x3daa
 13434 3d9d 32       		.uleb128 0x32
 13435 3d9e 01       		.uleb128 0x1
 13436 3d9f 50       		.byte	0x50
 13437 3da0 02       		.uleb128 0x2
 13438 3da1 74       		.byte	0x74
 13439 3da2 00       		.sleb128 0
 13440 3da3 32       		.uleb128 0x32
 13441 3da4 01       		.uleb128 0x1
 13442 3da5 51       		.byte	0x51
 13443 3da6 02       		.uleb128 0x2
 13444 3da7 76       		.byte	0x76
 13445 3da8 00       		.sleb128 0
 13446 3da9 00       		.byte	0
 13447 3daa 3C       		.uleb128 0x3c
 13448 3dab 0C030000 		.4byte	.LVL48
 13449 3daf 8F4B0000 		.4byte	0x4b8f
 13450 3db3 C43D0000 		.4byte	0x3dc4
 13451 3db7 32       		.uleb128 0x32
 13452 3db8 01       		.uleb128 0x1
 13453 3db9 50       		.byte	0x50
 13454 3dba 02       		.uleb128 0x2
 13455 3dbb 74       		.byte	0x74
 13456 3dbc 00       		.sleb128 0
 13457 3dbd 32       		.uleb128 0x32
 13458 3dbe 01       		.uleb128 0x1
 13459 3dbf 51       		.byte	0x51
 13460 3dc0 02       		.uleb128 0x2
 13461 3dc1 76       		.byte	0x76
 13462 3dc2 00       		.sleb128 0
 13463 3dc3 00       		.byte	0
ARM GAS  /tmp/cczXzW7i.s 			page 238


 13464 3dc4 3C       		.uleb128 0x3c
 13465 3dc5 24030000 		.4byte	.LVL49
 13466 3dc9 8F4B0000 		.4byte	0x4b8f
 13467 3dcd DE3D0000 		.4byte	0x3dde
 13468 3dd1 32       		.uleb128 0x32
 13469 3dd2 01       		.uleb128 0x1
 13470 3dd3 50       		.byte	0x50
 13471 3dd4 02       		.uleb128 0x2
 13472 3dd5 74       		.byte	0x74
 13473 3dd6 00       		.sleb128 0
 13474 3dd7 32       		.uleb128 0x32
 13475 3dd8 01       		.uleb128 0x1
 13476 3dd9 51       		.byte	0x51
 13477 3dda 02       		.uleb128 0x2
 13478 3ddb 76       		.byte	0x76
 13479 3ddc 00       		.sleb128 0
 13480 3ddd 00       		.byte	0
 13481 3dde 3C       		.uleb128 0x3c
 13482 3ddf 30030000 		.4byte	.LVL50
 13483 3de3 8F4B0000 		.4byte	0x4b8f
 13484 3de7 F83D0000 		.4byte	0x3df8
 13485 3deb 32       		.uleb128 0x32
 13486 3dec 01       		.uleb128 0x1
 13487 3ded 50       		.byte	0x50
 13488 3dee 02       		.uleb128 0x2
 13489 3def 74       		.byte	0x74
 13490 3df0 00       		.sleb128 0
 13491 3df1 32       		.uleb128 0x32
 13492 3df2 01       		.uleb128 0x1
 13493 3df3 51       		.byte	0x51
 13494 3df4 02       		.uleb128 0x2
 13495 3df5 76       		.byte	0x76
 13496 3df6 00       		.sleb128 0
 13497 3df7 00       		.byte	0
 13498 3df8 3C       		.uleb128 0x3c
 13499 3df9 5E030000 		.4byte	.LVL51
 13500 3dfd 8F4B0000 		.4byte	0x4b8f
 13501 3e01 123E0000 		.4byte	0x3e12
 13502 3e05 32       		.uleb128 0x32
 13503 3e06 01       		.uleb128 0x1
 13504 3e07 50       		.byte	0x50
 13505 3e08 02       		.uleb128 0x2
 13506 3e09 74       		.byte	0x74
 13507 3e0a 00       		.sleb128 0
 13508 3e0b 32       		.uleb128 0x32
 13509 3e0c 01       		.uleb128 0x1
 13510 3e0d 51       		.byte	0x51
 13511 3e0e 02       		.uleb128 0x2
 13512 3e0f 76       		.byte	0x76
 13513 3e10 00       		.sleb128 0
 13514 3e11 00       		.byte	0
 13515 3e12 3C       		.uleb128 0x3c
 13516 3e13 6A030000 		.4byte	.LVL52
 13517 3e17 9A4B0000 		.4byte	0x4b9a
 13518 3e1b 2C3E0000 		.4byte	0x3e2c
 13519 3e1f 32       		.uleb128 0x32
 13520 3e20 01       		.uleb128 0x1
ARM GAS  /tmp/cczXzW7i.s 			page 239


 13521 3e21 50       		.byte	0x50
 13522 3e22 02       		.uleb128 0x2
 13523 3e23 74       		.byte	0x74
 13524 3e24 00       		.sleb128 0
 13525 3e25 32       		.uleb128 0x32
 13526 3e26 01       		.uleb128 0x1
 13527 3e27 51       		.byte	0x51
 13528 3e28 02       		.uleb128 0x2
 13529 3e29 76       		.byte	0x76
 13530 3e2a 00       		.sleb128 0
 13531 3e2b 00       		.byte	0
 13532 3e2c 3C       		.uleb128 0x3c
 13533 3e2d 76030000 		.4byte	.LVL53
 13534 3e31 844B0000 		.4byte	0x4b84
 13535 3e35 463E0000 		.4byte	0x3e46
 13536 3e39 32       		.uleb128 0x32
 13537 3e3a 01       		.uleb128 0x1
 13538 3e3b 50       		.byte	0x50
 13539 3e3c 02       		.uleb128 0x2
 13540 3e3d 74       		.byte	0x74
 13541 3e3e 00       		.sleb128 0
 13542 3e3f 32       		.uleb128 0x32
 13543 3e40 01       		.uleb128 0x1
 13544 3e41 51       		.byte	0x51
 13545 3e42 02       		.uleb128 0x2
 13546 3e43 76       		.byte	0x76
 13547 3e44 00       		.sleb128 0
 13548 3e45 00       		.byte	0
 13549 3e46 3C       		.uleb128 0x3c
 13550 3e47 8E030000 		.4byte	.LVL54
 13551 3e4b 8F4B0000 		.4byte	0x4b8f
 13552 3e4f 603E0000 		.4byte	0x3e60
 13553 3e53 32       		.uleb128 0x32
 13554 3e54 01       		.uleb128 0x1
 13555 3e55 50       		.byte	0x50
 13556 3e56 02       		.uleb128 0x2
 13557 3e57 74       		.byte	0x74
 13558 3e58 00       		.sleb128 0
 13559 3e59 32       		.uleb128 0x32
 13560 3e5a 01       		.uleb128 0x1
 13561 3e5b 51       		.byte	0x51
 13562 3e5c 02       		.uleb128 0x2
 13563 3e5d 76       		.byte	0x76
 13564 3e5e 00       		.sleb128 0
 13565 3e5f 00       		.byte	0
 13566 3e60 3C       		.uleb128 0x3c
 13567 3e61 9A030000 		.4byte	.LVL55
 13568 3e65 8F4B0000 		.4byte	0x4b8f
 13569 3e69 7A3E0000 		.4byte	0x3e7a
 13570 3e6d 32       		.uleb128 0x32
 13571 3e6e 01       		.uleb128 0x1
 13572 3e6f 50       		.byte	0x50
 13573 3e70 02       		.uleb128 0x2
 13574 3e71 74       		.byte	0x74
 13575 3e72 00       		.sleb128 0
 13576 3e73 32       		.uleb128 0x32
 13577 3e74 01       		.uleb128 0x1
ARM GAS  /tmp/cczXzW7i.s 			page 240


 13578 3e75 51       		.byte	0x51
 13579 3e76 02       		.uleb128 0x2
 13580 3e77 76       		.byte	0x76
 13581 3e78 00       		.sleb128 0
 13582 3e79 00       		.byte	0
 13583 3e7a 3C       		.uleb128 0x3c
 13584 3e7b A6030000 		.4byte	.LVL56
 13585 3e7f 8F4B0000 		.4byte	0x4b8f
 13586 3e83 943E0000 		.4byte	0x3e94
 13587 3e87 32       		.uleb128 0x32
 13588 3e88 01       		.uleb128 0x1
 13589 3e89 50       		.byte	0x50
 13590 3e8a 02       		.uleb128 0x2
 13591 3e8b 74       		.byte	0x74
 13592 3e8c 00       		.sleb128 0
 13593 3e8d 32       		.uleb128 0x32
 13594 3e8e 01       		.uleb128 0x1
 13595 3e8f 51       		.byte	0x51
 13596 3e90 02       		.uleb128 0x2
 13597 3e91 76       		.byte	0x76
 13598 3e92 00       		.sleb128 0
 13599 3e93 00       		.byte	0
 13600 3e94 3C       		.uleb128 0x3c
 13601 3e95 B2030000 		.4byte	.LVL57
 13602 3e99 8F4B0000 		.4byte	0x4b8f
 13603 3e9d AE3E0000 		.4byte	0x3eae
 13604 3ea1 32       		.uleb128 0x32
 13605 3ea2 01       		.uleb128 0x1
 13606 3ea3 50       		.byte	0x50
 13607 3ea4 02       		.uleb128 0x2
 13608 3ea5 74       		.byte	0x74
 13609 3ea6 00       		.sleb128 0
 13610 3ea7 32       		.uleb128 0x32
 13611 3ea8 01       		.uleb128 0x1
 13612 3ea9 51       		.byte	0x51
 13613 3eaa 02       		.uleb128 0x2
 13614 3eab 76       		.byte	0x76
 13615 3eac 00       		.sleb128 0
 13616 3ead 00       		.byte	0
 13617 3eae 3C       		.uleb128 0x3c
 13618 3eaf BE030000 		.4byte	.LVL58
 13619 3eb3 8F4B0000 		.4byte	0x4b8f
 13620 3eb7 C83E0000 		.4byte	0x3ec8
 13621 3ebb 32       		.uleb128 0x32
 13622 3ebc 01       		.uleb128 0x1
 13623 3ebd 50       		.byte	0x50
 13624 3ebe 02       		.uleb128 0x2
 13625 3ebf 74       		.byte	0x74
 13626 3ec0 00       		.sleb128 0
 13627 3ec1 32       		.uleb128 0x32
 13628 3ec2 01       		.uleb128 0x1
 13629 3ec3 51       		.byte	0x51
 13630 3ec4 02       		.uleb128 0x2
 13631 3ec5 76       		.byte	0x76
 13632 3ec6 00       		.sleb128 0
 13633 3ec7 00       		.byte	0
 13634 3ec8 3C       		.uleb128 0x3c
ARM GAS  /tmp/cczXzW7i.s 			page 241


 13635 3ec9 CA030000 		.4byte	.LVL59
 13636 3ecd 8F4B0000 		.4byte	0x4b8f
 13637 3ed1 E23E0000 		.4byte	0x3ee2
 13638 3ed5 32       		.uleb128 0x32
 13639 3ed6 01       		.uleb128 0x1
 13640 3ed7 50       		.byte	0x50
 13641 3ed8 02       		.uleb128 0x2
 13642 3ed9 74       		.byte	0x74
 13643 3eda 00       		.sleb128 0
 13644 3edb 32       		.uleb128 0x32
 13645 3edc 01       		.uleb128 0x1
 13646 3edd 51       		.byte	0x51
 13647 3ede 02       		.uleb128 0x2
 13648 3edf 76       		.byte	0x76
 13649 3ee0 00       		.sleb128 0
 13650 3ee1 00       		.byte	0
 13651 3ee2 3C       		.uleb128 0x3c
 13652 3ee3 FC030000 		.4byte	.LVL60
 13653 3ee7 8F4B0000 		.4byte	0x4b8f
 13654 3eeb FC3E0000 		.4byte	0x3efc
 13655 3eef 32       		.uleb128 0x32
 13656 3ef0 01       		.uleb128 0x1
 13657 3ef1 50       		.byte	0x50
 13658 3ef2 02       		.uleb128 0x2
 13659 3ef3 74       		.byte	0x74
 13660 3ef4 00       		.sleb128 0
 13661 3ef5 32       		.uleb128 0x32
 13662 3ef6 01       		.uleb128 0x1
 13663 3ef7 51       		.byte	0x51
 13664 3ef8 02       		.uleb128 0x2
 13665 3ef9 76       		.byte	0x76
 13666 3efa 00       		.sleb128 0
 13667 3efb 00       		.byte	0
 13668 3efc 41       		.uleb128 0x41
 13669 3efd 58040000 		.4byte	.LVL62
 13670 3f01 0C3F0000 		.4byte	0x3f0c
 13671 3f05 32       		.uleb128 0x32
 13672 3f06 01       		.uleb128 0x1
 13673 3f07 50       		.byte	0x50
 13674 3f08 02       		.uleb128 0x2
 13675 3f09 75       		.byte	0x75
 13676 3f0a 00       		.sleb128 0
 13677 3f0b 00       		.byte	0
 13678 3f0c 3C       		.uleb128 0x3c
 13679 3f0d 96040000 		.4byte	.LVL69
 13680 3f11 8F4B0000 		.4byte	0x4b8f
 13681 3f15 263F0000 		.4byte	0x3f26
 13682 3f19 32       		.uleb128 0x32
 13683 3f1a 01       		.uleb128 0x1
 13684 3f1b 50       		.byte	0x50
 13685 3f1c 02       		.uleb128 0x2
 13686 3f1d 74       		.byte	0x74
 13687 3f1e 00       		.sleb128 0
 13688 3f1f 32       		.uleb128 0x32
 13689 3f20 01       		.uleb128 0x1
 13690 3f21 51       		.byte	0x51
 13691 3f22 02       		.uleb128 0x2
ARM GAS  /tmp/cczXzW7i.s 			page 242


 13692 3f23 76       		.byte	0x76
 13693 3f24 00       		.sleb128 0
 13694 3f25 00       		.byte	0
 13695 3f26 3C       		.uleb128 0x3c
 13696 3f27 A2040000 		.4byte	.LVL70
 13697 3f2b 8F4B0000 		.4byte	0x4b8f
 13698 3f2f 403F0000 		.4byte	0x3f40
 13699 3f33 32       		.uleb128 0x32
 13700 3f34 01       		.uleb128 0x1
 13701 3f35 50       		.byte	0x50
 13702 3f36 02       		.uleb128 0x2
 13703 3f37 74       		.byte	0x74
 13704 3f38 00       		.sleb128 0
 13705 3f39 32       		.uleb128 0x32
 13706 3f3a 01       		.uleb128 0x1
 13707 3f3b 51       		.byte	0x51
 13708 3f3c 02       		.uleb128 0x2
 13709 3f3d 76       		.byte	0x76
 13710 3f3e 00       		.sleb128 0
 13711 3f3f 00       		.byte	0
 13712 3f40 3C       		.uleb128 0x3c
 13713 3f41 AE040000 		.4byte	.LVL71
 13714 3f45 8F4B0000 		.4byte	0x4b8f
 13715 3f49 5A3F0000 		.4byte	0x3f5a
 13716 3f4d 32       		.uleb128 0x32
 13717 3f4e 01       		.uleb128 0x1
 13718 3f4f 50       		.byte	0x50
 13719 3f50 02       		.uleb128 0x2
 13720 3f51 74       		.byte	0x74
 13721 3f52 00       		.sleb128 0
 13722 3f53 32       		.uleb128 0x32
 13723 3f54 01       		.uleb128 0x1
 13724 3f55 51       		.byte	0x51
 13725 3f56 02       		.uleb128 0x2
 13726 3f57 76       		.byte	0x76
 13727 3f58 00       		.sleb128 0
 13728 3f59 00       		.byte	0
 13729 3f5a 3C       		.uleb128 0x3c
 13730 3f5b BA040000 		.4byte	.LVL72
 13731 3f5f 8F4B0000 		.4byte	0x4b8f
 13732 3f63 743F0000 		.4byte	0x3f74
 13733 3f67 32       		.uleb128 0x32
 13734 3f68 01       		.uleb128 0x1
 13735 3f69 50       		.byte	0x50
 13736 3f6a 02       		.uleb128 0x2
 13737 3f6b 74       		.byte	0x74
 13738 3f6c 00       		.sleb128 0
 13739 3f6d 32       		.uleb128 0x32
 13740 3f6e 01       		.uleb128 0x1
 13741 3f6f 51       		.byte	0x51
 13742 3f70 02       		.uleb128 0x2
 13743 3f71 76       		.byte	0x76
 13744 3f72 00       		.sleb128 0
 13745 3f73 00       		.byte	0
 13746 3f74 3C       		.uleb128 0x3c
 13747 3f75 C6040000 		.4byte	.LVL73
 13748 3f79 8F4B0000 		.4byte	0x4b8f
ARM GAS  /tmp/cczXzW7i.s 			page 243


 13749 3f7d 8E3F0000 		.4byte	0x3f8e
 13750 3f81 32       		.uleb128 0x32
 13751 3f82 01       		.uleb128 0x1
 13752 3f83 50       		.byte	0x50
 13753 3f84 02       		.uleb128 0x2
 13754 3f85 74       		.byte	0x74
 13755 3f86 00       		.sleb128 0
 13756 3f87 32       		.uleb128 0x32
 13757 3f88 01       		.uleb128 0x1
 13758 3f89 51       		.byte	0x51
 13759 3f8a 02       		.uleb128 0x2
 13760 3f8b 76       		.byte	0x76
 13761 3f8c 00       		.sleb128 0
 13762 3f8d 00       		.byte	0
 13763 3f8e 3C       		.uleb128 0x3c
 13764 3f8f D2040000 		.4byte	.LVL74
 13765 3f93 8F4B0000 		.4byte	0x4b8f
 13766 3f97 A83F0000 		.4byte	0x3fa8
 13767 3f9b 32       		.uleb128 0x32
 13768 3f9c 01       		.uleb128 0x1
 13769 3f9d 50       		.byte	0x50
 13770 3f9e 02       		.uleb128 0x2
 13771 3f9f 74       		.byte	0x74
 13772 3fa0 00       		.sleb128 0
 13773 3fa1 32       		.uleb128 0x32
 13774 3fa2 01       		.uleb128 0x1
 13775 3fa3 51       		.byte	0x51
 13776 3fa4 02       		.uleb128 0x2
 13777 3fa5 76       		.byte	0x76
 13778 3fa6 00       		.sleb128 0
 13779 3fa7 00       		.byte	0
 13780 3fa8 3C       		.uleb128 0x3c
 13781 3fa9 DE040000 		.4byte	.LVL75
 13782 3fad 8F4B0000 		.4byte	0x4b8f
 13783 3fb1 C23F0000 		.4byte	0x3fc2
 13784 3fb5 32       		.uleb128 0x32
 13785 3fb6 01       		.uleb128 0x1
 13786 3fb7 50       		.byte	0x50
 13787 3fb8 02       		.uleb128 0x2
 13788 3fb9 74       		.byte	0x74
 13789 3fba 00       		.sleb128 0
 13790 3fbb 32       		.uleb128 0x32
 13791 3fbc 01       		.uleb128 0x1
 13792 3fbd 51       		.byte	0x51
 13793 3fbe 02       		.uleb128 0x2
 13794 3fbf 76       		.byte	0x76
 13795 3fc0 00       		.sleb128 0
 13796 3fc1 00       		.byte	0
 13797 3fc2 3C       		.uleb128 0x3c
 13798 3fc3 EA040000 		.4byte	.LVL76
 13799 3fc7 8F4B0000 		.4byte	0x4b8f
 13800 3fcb DC3F0000 		.4byte	0x3fdc
 13801 3fcf 32       		.uleb128 0x32
 13802 3fd0 01       		.uleb128 0x1
 13803 3fd1 50       		.byte	0x50
 13804 3fd2 02       		.uleb128 0x2
 13805 3fd3 74       		.byte	0x74
ARM GAS  /tmp/cczXzW7i.s 			page 244


 13806 3fd4 00       		.sleb128 0
 13807 3fd5 32       		.uleb128 0x32
 13808 3fd6 01       		.uleb128 0x1
 13809 3fd7 51       		.byte	0x51
 13810 3fd8 02       		.uleb128 0x2
 13811 3fd9 76       		.byte	0x76
 13812 3fda 00       		.sleb128 0
 13813 3fdb 00       		.byte	0
 13814 3fdc 3C       		.uleb128 0x3c
 13815 3fdd F6040000 		.4byte	.LVL77
 13816 3fe1 8F4B0000 		.4byte	0x4b8f
 13817 3fe5 F63F0000 		.4byte	0x3ff6
 13818 3fe9 32       		.uleb128 0x32
 13819 3fea 01       		.uleb128 0x1
 13820 3feb 50       		.byte	0x50
 13821 3fec 02       		.uleb128 0x2
 13822 3fed 74       		.byte	0x74
 13823 3fee 00       		.sleb128 0
 13824 3fef 32       		.uleb128 0x32
 13825 3ff0 01       		.uleb128 0x1
 13826 3ff1 51       		.byte	0x51
 13827 3ff2 02       		.uleb128 0x2
 13828 3ff3 76       		.byte	0x76
 13829 3ff4 00       		.sleb128 0
 13830 3ff5 00       		.byte	0
 13831 3ff6 3C       		.uleb128 0x3c
 13832 3ff7 02050000 		.4byte	.LVL78
 13833 3ffb 8F4B0000 		.4byte	0x4b8f
 13834 3fff 10400000 		.4byte	0x4010
 13835 4003 32       		.uleb128 0x32
 13836 4004 01       		.uleb128 0x1
 13837 4005 50       		.byte	0x50
 13838 4006 02       		.uleb128 0x2
 13839 4007 74       		.byte	0x74
 13840 4008 00       		.sleb128 0
 13841 4009 32       		.uleb128 0x32
 13842 400a 01       		.uleb128 0x1
 13843 400b 51       		.byte	0x51
 13844 400c 02       		.uleb128 0x2
 13845 400d 76       		.byte	0x76
 13846 400e 00       		.sleb128 0
 13847 400f 00       		.byte	0
 13848 4010 3C       		.uleb128 0x3c
 13849 4011 0E050000 		.4byte	.LVL79
 13850 4015 8F4B0000 		.4byte	0x4b8f
 13851 4019 2A400000 		.4byte	0x402a
 13852 401d 32       		.uleb128 0x32
 13853 401e 01       		.uleb128 0x1
 13854 401f 50       		.byte	0x50
 13855 4020 02       		.uleb128 0x2
 13856 4021 74       		.byte	0x74
 13857 4022 00       		.sleb128 0
 13858 4023 32       		.uleb128 0x32
 13859 4024 01       		.uleb128 0x1
 13860 4025 51       		.byte	0x51
 13861 4026 02       		.uleb128 0x2
 13862 4027 76       		.byte	0x76
ARM GAS  /tmp/cczXzW7i.s 			page 245


 13863 4028 00       		.sleb128 0
 13864 4029 00       		.byte	0
 13865 402a 3C       		.uleb128 0x3c
 13866 402b 1A050000 		.4byte	.LVL80
 13867 402f 8F4B0000 		.4byte	0x4b8f
 13868 4033 44400000 		.4byte	0x4044
 13869 4037 32       		.uleb128 0x32
 13870 4038 01       		.uleb128 0x1
 13871 4039 50       		.byte	0x50
 13872 403a 02       		.uleb128 0x2
 13873 403b 74       		.byte	0x74
 13874 403c 00       		.sleb128 0
 13875 403d 32       		.uleb128 0x32
 13876 403e 01       		.uleb128 0x1
 13877 403f 51       		.byte	0x51
 13878 4040 02       		.uleb128 0x2
 13879 4041 76       		.byte	0x76
 13880 4042 00       		.sleb128 0
 13881 4043 00       		.byte	0
 13882 4044 3C       		.uleb128 0x3c
 13883 4045 26050000 		.4byte	.LVL81
 13884 4049 8F4B0000 		.4byte	0x4b8f
 13885 404d 5E400000 		.4byte	0x405e
 13886 4051 32       		.uleb128 0x32
 13887 4052 01       		.uleb128 0x1
 13888 4053 50       		.byte	0x50
 13889 4054 02       		.uleb128 0x2
 13890 4055 74       		.byte	0x74
 13891 4056 00       		.sleb128 0
 13892 4057 32       		.uleb128 0x32
 13893 4058 01       		.uleb128 0x1
 13894 4059 51       		.byte	0x51
 13895 405a 02       		.uleb128 0x2
 13896 405b 76       		.byte	0x76
 13897 405c 00       		.sleb128 0
 13898 405d 00       		.byte	0
 13899 405e 3C       		.uleb128 0x3c
 13900 405f 32050000 		.4byte	.LVL82
 13901 4063 8F4B0000 		.4byte	0x4b8f
 13902 4067 78400000 		.4byte	0x4078
 13903 406b 32       		.uleb128 0x32
 13904 406c 01       		.uleb128 0x1
 13905 406d 50       		.byte	0x50
 13906 406e 02       		.uleb128 0x2
 13907 406f 74       		.byte	0x74
 13908 4070 00       		.sleb128 0
 13909 4071 32       		.uleb128 0x32
 13910 4072 01       		.uleb128 0x1
 13911 4073 51       		.byte	0x51
 13912 4074 02       		.uleb128 0x2
 13913 4075 76       		.byte	0x76
 13914 4076 00       		.sleb128 0
 13915 4077 00       		.byte	0
 13916 4078 3C       		.uleb128 0x3c
 13917 4079 50050000 		.4byte	.LVL83
 13918 407d 8F4B0000 		.4byte	0x4b8f
 13919 4081 92400000 		.4byte	0x4092
ARM GAS  /tmp/cczXzW7i.s 			page 246


 13920 4085 32       		.uleb128 0x32
 13921 4086 01       		.uleb128 0x1
 13922 4087 50       		.byte	0x50
 13923 4088 02       		.uleb128 0x2
 13924 4089 74       		.byte	0x74
 13925 408a 00       		.sleb128 0
 13926 408b 32       		.uleb128 0x32
 13927 408c 01       		.uleb128 0x1
 13928 408d 51       		.byte	0x51
 13929 408e 02       		.uleb128 0x2
 13930 408f 76       		.byte	0x76
 13931 4090 00       		.sleb128 0
 13932 4091 00       		.byte	0
 13933 4092 3C       		.uleb128 0x3c
 13934 4093 5C050000 		.4byte	.LVL84
 13935 4097 8F4B0000 		.4byte	0x4b8f
 13936 409b AC400000 		.4byte	0x40ac
 13937 409f 32       		.uleb128 0x32
 13938 40a0 01       		.uleb128 0x1
 13939 40a1 50       		.byte	0x50
 13940 40a2 02       		.uleb128 0x2
 13941 40a3 74       		.byte	0x74
 13942 40a4 00       		.sleb128 0
 13943 40a5 32       		.uleb128 0x32
 13944 40a6 01       		.uleb128 0x1
 13945 40a7 51       		.byte	0x51
 13946 40a8 02       		.uleb128 0x2
 13947 40a9 76       		.byte	0x76
 13948 40aa 00       		.sleb128 0
 13949 40ab 00       		.byte	0
 13950 40ac 3C       		.uleb128 0x3c
 13951 40ad 68050000 		.4byte	.LVL85
 13952 40b1 8F4B0000 		.4byte	0x4b8f
 13953 40b5 C6400000 		.4byte	0x40c6
 13954 40b9 32       		.uleb128 0x32
 13955 40ba 01       		.uleb128 0x1
 13956 40bb 50       		.byte	0x50
 13957 40bc 02       		.uleb128 0x2
 13958 40bd 74       		.byte	0x74
 13959 40be 00       		.sleb128 0
 13960 40bf 32       		.uleb128 0x32
 13961 40c0 01       		.uleb128 0x1
 13962 40c1 51       		.byte	0x51
 13963 40c2 02       		.uleb128 0x2
 13964 40c3 76       		.byte	0x76
 13965 40c4 00       		.sleb128 0
 13966 40c5 00       		.byte	0
 13967 40c6 3C       		.uleb128 0x3c
 13968 40c7 74050000 		.4byte	.LVL86
 13969 40cb 8F4B0000 		.4byte	0x4b8f
 13970 40cf E0400000 		.4byte	0x40e0
 13971 40d3 32       		.uleb128 0x32
 13972 40d4 01       		.uleb128 0x1
 13973 40d5 50       		.byte	0x50
 13974 40d6 02       		.uleb128 0x2
 13975 40d7 74       		.byte	0x74
 13976 40d8 00       		.sleb128 0
ARM GAS  /tmp/cczXzW7i.s 			page 247


 13977 40d9 32       		.uleb128 0x32
 13978 40da 01       		.uleb128 0x1
 13979 40db 51       		.byte	0x51
 13980 40dc 02       		.uleb128 0x2
 13981 40dd 76       		.byte	0x76
 13982 40de 00       		.sleb128 0
 13983 40df 00       		.byte	0
 13984 40e0 3C       		.uleb128 0x3c
 13985 40e1 80050000 		.4byte	.LVL87
 13986 40e5 8F4B0000 		.4byte	0x4b8f
 13987 40e9 FA400000 		.4byte	0x40fa
 13988 40ed 32       		.uleb128 0x32
 13989 40ee 01       		.uleb128 0x1
 13990 40ef 50       		.byte	0x50
 13991 40f0 02       		.uleb128 0x2
 13992 40f1 74       		.byte	0x74
 13993 40f2 00       		.sleb128 0
 13994 40f3 32       		.uleb128 0x32
 13995 40f4 01       		.uleb128 0x1
 13996 40f5 51       		.byte	0x51
 13997 40f6 02       		.uleb128 0x2
 13998 40f7 76       		.byte	0x76
 13999 40f8 00       		.sleb128 0
 14000 40f9 00       		.byte	0
 14001 40fa 3C       		.uleb128 0x3c
 14002 40fb 8C050000 		.4byte	.LVL88
 14003 40ff 8F4B0000 		.4byte	0x4b8f
 14004 4103 14410000 		.4byte	0x4114
 14005 4107 32       		.uleb128 0x32
 14006 4108 01       		.uleb128 0x1
 14007 4109 50       		.byte	0x50
 14008 410a 02       		.uleb128 0x2
 14009 410b 74       		.byte	0x74
 14010 410c 00       		.sleb128 0
 14011 410d 32       		.uleb128 0x32
 14012 410e 01       		.uleb128 0x1
 14013 410f 51       		.byte	0x51
 14014 4110 02       		.uleb128 0x2
 14015 4111 76       		.byte	0x76
 14016 4112 00       		.sleb128 0
 14017 4113 00       		.byte	0
 14018 4114 3C       		.uleb128 0x3c
 14019 4115 98050000 		.4byte	.LVL89
 14020 4119 8F4B0000 		.4byte	0x4b8f
 14021 411d 2E410000 		.4byte	0x412e
 14022 4121 32       		.uleb128 0x32
 14023 4122 01       		.uleb128 0x1
 14024 4123 50       		.byte	0x50
 14025 4124 02       		.uleb128 0x2
 14026 4125 74       		.byte	0x74
 14027 4126 00       		.sleb128 0
 14028 4127 32       		.uleb128 0x32
 14029 4128 01       		.uleb128 0x1
 14030 4129 51       		.byte	0x51
 14031 412a 02       		.uleb128 0x2
 14032 412b 76       		.byte	0x76
 14033 412c 00       		.sleb128 0
ARM GAS  /tmp/cczXzW7i.s 			page 248


 14034 412d 00       		.byte	0
 14035 412e 3C       		.uleb128 0x3c
 14036 412f A4050000 		.4byte	.LVL90
 14037 4133 8F4B0000 		.4byte	0x4b8f
 14038 4137 48410000 		.4byte	0x4148
 14039 413b 32       		.uleb128 0x32
 14040 413c 01       		.uleb128 0x1
 14041 413d 50       		.byte	0x50
 14042 413e 02       		.uleb128 0x2
 14043 413f 74       		.byte	0x74
 14044 4140 00       		.sleb128 0
 14045 4141 32       		.uleb128 0x32
 14046 4142 01       		.uleb128 0x1
 14047 4143 51       		.byte	0x51
 14048 4144 02       		.uleb128 0x2
 14049 4145 76       		.byte	0x76
 14050 4146 00       		.sleb128 0
 14051 4147 00       		.byte	0
 14052 4148 3C       		.uleb128 0x3c
 14053 4149 B0050000 		.4byte	.LVL91
 14054 414d 8F4B0000 		.4byte	0x4b8f
 14055 4151 62410000 		.4byte	0x4162
 14056 4155 32       		.uleb128 0x32
 14057 4156 01       		.uleb128 0x1
 14058 4157 50       		.byte	0x50
 14059 4158 02       		.uleb128 0x2
 14060 4159 74       		.byte	0x74
 14061 415a 00       		.sleb128 0
 14062 415b 32       		.uleb128 0x32
 14063 415c 01       		.uleb128 0x1
 14064 415d 51       		.byte	0x51
 14065 415e 02       		.uleb128 0x2
 14066 415f 76       		.byte	0x76
 14067 4160 00       		.sleb128 0
 14068 4161 00       		.byte	0
 14069 4162 3C       		.uleb128 0x3c
 14070 4163 D0050000 		.4byte	.LVL92
 14071 4167 8F4B0000 		.4byte	0x4b8f
 14072 416b 7C410000 		.4byte	0x417c
 14073 416f 32       		.uleb128 0x32
 14074 4170 01       		.uleb128 0x1
 14075 4171 50       		.byte	0x50
 14076 4172 02       		.uleb128 0x2
 14077 4173 74       		.byte	0x74
 14078 4174 00       		.sleb128 0
 14079 4175 32       		.uleb128 0x32
 14080 4176 01       		.uleb128 0x1
 14081 4177 51       		.byte	0x51
 14082 4178 02       		.uleb128 0x2
 14083 4179 76       		.byte	0x76
 14084 417a 00       		.sleb128 0
 14085 417b 00       		.byte	0
 14086 417c 3C       		.uleb128 0x3c
 14087 417d DC050000 		.4byte	.LVL93
 14088 4181 8F4B0000 		.4byte	0x4b8f
 14089 4185 96410000 		.4byte	0x4196
 14090 4189 32       		.uleb128 0x32
ARM GAS  /tmp/cczXzW7i.s 			page 249


 14091 418a 01       		.uleb128 0x1
 14092 418b 50       		.byte	0x50
 14093 418c 02       		.uleb128 0x2
 14094 418d 74       		.byte	0x74
 14095 418e 00       		.sleb128 0
 14096 418f 32       		.uleb128 0x32
 14097 4190 01       		.uleb128 0x1
 14098 4191 51       		.byte	0x51
 14099 4192 02       		.uleb128 0x2
 14100 4193 76       		.byte	0x76
 14101 4194 00       		.sleb128 0
 14102 4195 00       		.byte	0
 14103 4196 3C       		.uleb128 0x3c
 14104 4197 E8050000 		.4byte	.LVL94
 14105 419b 8F4B0000 		.4byte	0x4b8f
 14106 419f B0410000 		.4byte	0x41b0
 14107 41a3 32       		.uleb128 0x32
 14108 41a4 01       		.uleb128 0x1
 14109 41a5 50       		.byte	0x50
 14110 41a6 02       		.uleb128 0x2
 14111 41a7 74       		.byte	0x74
 14112 41a8 00       		.sleb128 0
 14113 41a9 32       		.uleb128 0x32
 14114 41aa 01       		.uleb128 0x1
 14115 41ab 51       		.byte	0x51
 14116 41ac 02       		.uleb128 0x2
 14117 41ad 76       		.byte	0x76
 14118 41ae 00       		.sleb128 0
 14119 41af 00       		.byte	0
 14120 41b0 3C       		.uleb128 0x3c
 14121 41b1 F4050000 		.4byte	.LVL95
 14122 41b5 8F4B0000 		.4byte	0x4b8f
 14123 41b9 CA410000 		.4byte	0x41ca
 14124 41bd 32       		.uleb128 0x32
 14125 41be 01       		.uleb128 0x1
 14126 41bf 50       		.byte	0x50
 14127 41c0 02       		.uleb128 0x2
 14128 41c1 74       		.byte	0x74
 14129 41c2 00       		.sleb128 0
 14130 41c3 32       		.uleb128 0x32
 14131 41c4 01       		.uleb128 0x1
 14132 41c5 51       		.byte	0x51
 14133 41c6 02       		.uleb128 0x2
 14134 41c7 76       		.byte	0x76
 14135 41c8 00       		.sleb128 0
 14136 41c9 00       		.byte	0
 14137 41ca 3C       		.uleb128 0x3c
 14138 41cb 00060000 		.4byte	.LVL96
 14139 41cf 8F4B0000 		.4byte	0x4b8f
 14140 41d3 E4410000 		.4byte	0x41e4
 14141 41d7 32       		.uleb128 0x32
 14142 41d8 01       		.uleb128 0x1
 14143 41d9 50       		.byte	0x50
 14144 41da 02       		.uleb128 0x2
 14145 41db 74       		.byte	0x74
 14146 41dc 00       		.sleb128 0
 14147 41dd 32       		.uleb128 0x32
ARM GAS  /tmp/cczXzW7i.s 			page 250


 14148 41de 01       		.uleb128 0x1
 14149 41df 51       		.byte	0x51
 14150 41e0 02       		.uleb128 0x2
 14151 41e1 76       		.byte	0x76
 14152 41e2 00       		.sleb128 0
 14153 41e3 00       		.byte	0
 14154 41e4 3C       		.uleb128 0x3c
 14155 41e5 0C060000 		.4byte	.LVL97
 14156 41e9 8F4B0000 		.4byte	0x4b8f
 14157 41ed FE410000 		.4byte	0x41fe
 14158 41f1 32       		.uleb128 0x32
 14159 41f2 01       		.uleb128 0x1
 14160 41f3 50       		.byte	0x50
 14161 41f4 02       		.uleb128 0x2
 14162 41f5 74       		.byte	0x74
 14163 41f6 00       		.sleb128 0
 14164 41f7 32       		.uleb128 0x32
 14165 41f8 01       		.uleb128 0x1
 14166 41f9 51       		.byte	0x51
 14167 41fa 02       		.uleb128 0x2
 14168 41fb 76       		.byte	0x76
 14169 41fc 00       		.sleb128 0
 14170 41fd 00       		.byte	0
 14171 41fe 3C       		.uleb128 0x3c
 14172 41ff 18060000 		.4byte	.LVL98
 14173 4203 8F4B0000 		.4byte	0x4b8f
 14174 4207 18420000 		.4byte	0x4218
 14175 420b 32       		.uleb128 0x32
 14176 420c 01       		.uleb128 0x1
 14177 420d 50       		.byte	0x50
 14178 420e 02       		.uleb128 0x2
 14179 420f 74       		.byte	0x74
 14180 4210 00       		.sleb128 0
 14181 4211 32       		.uleb128 0x32
 14182 4212 01       		.uleb128 0x1
 14183 4213 51       		.byte	0x51
 14184 4214 02       		.uleb128 0x2
 14185 4215 76       		.byte	0x76
 14186 4216 00       		.sleb128 0
 14187 4217 00       		.byte	0
 14188 4218 3C       		.uleb128 0x3c
 14189 4219 36060000 		.4byte	.LVL99
 14190 421d 8F4B0000 		.4byte	0x4b8f
 14191 4221 32420000 		.4byte	0x4232
 14192 4225 32       		.uleb128 0x32
 14193 4226 01       		.uleb128 0x1
 14194 4227 50       		.byte	0x50
 14195 4228 02       		.uleb128 0x2
 14196 4229 74       		.byte	0x74
 14197 422a 00       		.sleb128 0
 14198 422b 32       		.uleb128 0x32
 14199 422c 01       		.uleb128 0x1
 14200 422d 51       		.byte	0x51
 14201 422e 02       		.uleb128 0x2
 14202 422f 76       		.byte	0x76
 14203 4230 00       		.sleb128 0
 14204 4231 00       		.byte	0
ARM GAS  /tmp/cczXzW7i.s 			page 251


 14205 4232 3C       		.uleb128 0x3c
 14206 4233 42060000 		.4byte	.LVL100
 14207 4237 8F4B0000 		.4byte	0x4b8f
 14208 423b 4C420000 		.4byte	0x424c
 14209 423f 32       		.uleb128 0x32
 14210 4240 01       		.uleb128 0x1
 14211 4241 50       		.byte	0x50
 14212 4242 02       		.uleb128 0x2
 14213 4243 74       		.byte	0x74
 14214 4244 00       		.sleb128 0
 14215 4245 32       		.uleb128 0x32
 14216 4246 01       		.uleb128 0x1
 14217 4247 51       		.byte	0x51
 14218 4248 02       		.uleb128 0x2
 14219 4249 76       		.byte	0x76
 14220 424a 00       		.sleb128 0
 14221 424b 00       		.byte	0
 14222 424c 3C       		.uleb128 0x3c
 14223 424d 4E060000 		.4byte	.LVL101
 14224 4251 8F4B0000 		.4byte	0x4b8f
 14225 4255 66420000 		.4byte	0x4266
 14226 4259 32       		.uleb128 0x32
 14227 425a 01       		.uleb128 0x1
 14228 425b 50       		.byte	0x50
 14229 425c 02       		.uleb128 0x2
 14230 425d 74       		.byte	0x74
 14231 425e 00       		.sleb128 0
 14232 425f 32       		.uleb128 0x32
 14233 4260 01       		.uleb128 0x1
 14234 4261 51       		.byte	0x51
 14235 4262 02       		.uleb128 0x2
 14236 4263 76       		.byte	0x76
 14237 4264 00       		.sleb128 0
 14238 4265 00       		.byte	0
 14239 4266 3C       		.uleb128 0x3c
 14240 4267 5A060000 		.4byte	.LVL102
 14241 426b 8F4B0000 		.4byte	0x4b8f
 14242 426f 80420000 		.4byte	0x4280
 14243 4273 32       		.uleb128 0x32
 14244 4274 01       		.uleb128 0x1
 14245 4275 50       		.byte	0x50
 14246 4276 02       		.uleb128 0x2
 14247 4277 74       		.byte	0x74
 14248 4278 00       		.sleb128 0
 14249 4279 32       		.uleb128 0x32
 14250 427a 01       		.uleb128 0x1
 14251 427b 51       		.byte	0x51
 14252 427c 02       		.uleb128 0x2
 14253 427d 76       		.byte	0x76
 14254 427e 00       		.sleb128 0
 14255 427f 00       		.byte	0
 14256 4280 3C       		.uleb128 0x3c
 14257 4281 66060000 		.4byte	.LVL103
 14258 4285 8F4B0000 		.4byte	0x4b8f
 14259 4289 9A420000 		.4byte	0x429a
 14260 428d 32       		.uleb128 0x32
 14261 428e 01       		.uleb128 0x1
ARM GAS  /tmp/cczXzW7i.s 			page 252


 14262 428f 50       		.byte	0x50
 14263 4290 02       		.uleb128 0x2
 14264 4291 74       		.byte	0x74
 14265 4292 00       		.sleb128 0
 14266 4293 32       		.uleb128 0x32
 14267 4294 01       		.uleb128 0x1
 14268 4295 51       		.byte	0x51
 14269 4296 02       		.uleb128 0x2
 14270 4297 76       		.byte	0x76
 14271 4298 00       		.sleb128 0
 14272 4299 00       		.byte	0
 14273 429a 3C       		.uleb128 0x3c
 14274 429b 84060000 		.4byte	.LVL104
 14275 429f 8F4B0000 		.4byte	0x4b8f
 14276 42a3 B4420000 		.4byte	0x42b4
 14277 42a7 32       		.uleb128 0x32
 14278 42a8 01       		.uleb128 0x1
 14279 42a9 50       		.byte	0x50
 14280 42aa 02       		.uleb128 0x2
 14281 42ab 74       		.byte	0x74
 14282 42ac 00       		.sleb128 0
 14283 42ad 32       		.uleb128 0x32
 14284 42ae 01       		.uleb128 0x1
 14285 42af 51       		.byte	0x51
 14286 42b0 02       		.uleb128 0x2
 14287 42b1 76       		.byte	0x76
 14288 42b2 00       		.sleb128 0
 14289 42b3 00       		.byte	0
 14290 42b4 3C       		.uleb128 0x3c
 14291 42b5 90060000 		.4byte	.LVL105
 14292 42b9 8F4B0000 		.4byte	0x4b8f
 14293 42bd CE420000 		.4byte	0x42ce
 14294 42c1 32       		.uleb128 0x32
 14295 42c2 01       		.uleb128 0x1
 14296 42c3 50       		.byte	0x50
 14297 42c4 02       		.uleb128 0x2
 14298 42c5 74       		.byte	0x74
 14299 42c6 00       		.sleb128 0
 14300 42c7 32       		.uleb128 0x32
 14301 42c8 01       		.uleb128 0x1
 14302 42c9 51       		.byte	0x51
 14303 42ca 02       		.uleb128 0x2
 14304 42cb 76       		.byte	0x76
 14305 42cc 00       		.sleb128 0
 14306 42cd 00       		.byte	0
 14307 42ce 3C       		.uleb128 0x3c
 14308 42cf A8060000 		.4byte	.LVL106
 14309 42d3 8F4B0000 		.4byte	0x4b8f
 14310 42d7 E8420000 		.4byte	0x42e8
 14311 42db 32       		.uleb128 0x32
 14312 42dc 01       		.uleb128 0x1
 14313 42dd 50       		.byte	0x50
 14314 42de 02       		.uleb128 0x2
 14315 42df 74       		.byte	0x74
 14316 42e0 00       		.sleb128 0
 14317 42e1 32       		.uleb128 0x32
 14318 42e2 01       		.uleb128 0x1
ARM GAS  /tmp/cczXzW7i.s 			page 253


 14319 42e3 51       		.byte	0x51
 14320 42e4 02       		.uleb128 0x2
 14321 42e5 76       		.byte	0x76
 14322 42e6 00       		.sleb128 0
 14323 42e7 00       		.byte	0
 14324 42e8 3C       		.uleb128 0x3c
 14325 42e9 B4060000 		.4byte	.LVL107
 14326 42ed 8F4B0000 		.4byte	0x4b8f
 14327 42f1 02430000 		.4byte	0x4302
 14328 42f5 32       		.uleb128 0x32
 14329 42f6 01       		.uleb128 0x1
 14330 42f7 50       		.byte	0x50
 14331 42f8 02       		.uleb128 0x2
 14332 42f9 74       		.byte	0x74
 14333 42fa 00       		.sleb128 0
 14334 42fb 32       		.uleb128 0x32
 14335 42fc 01       		.uleb128 0x1
 14336 42fd 51       		.byte	0x51
 14337 42fe 02       		.uleb128 0x2
 14338 42ff 76       		.byte	0x76
 14339 4300 00       		.sleb128 0
 14340 4301 00       		.byte	0
 14341 4302 3C       		.uleb128 0x3c
 14342 4303 C0060000 		.4byte	.LVL108
 14343 4307 8F4B0000 		.4byte	0x4b8f
 14344 430b 1C430000 		.4byte	0x431c
 14345 430f 32       		.uleb128 0x32
 14346 4310 01       		.uleb128 0x1
 14347 4311 50       		.byte	0x50
 14348 4312 02       		.uleb128 0x2
 14349 4313 74       		.byte	0x74
 14350 4314 00       		.sleb128 0
 14351 4315 32       		.uleb128 0x32
 14352 4316 01       		.uleb128 0x1
 14353 4317 51       		.byte	0x51
 14354 4318 02       		.uleb128 0x2
 14355 4319 76       		.byte	0x76
 14356 431a 00       		.sleb128 0
 14357 431b 00       		.byte	0
 14358 431c 3C       		.uleb128 0x3c
 14359 431d CC060000 		.4byte	.LVL109
 14360 4321 8F4B0000 		.4byte	0x4b8f
 14361 4325 36430000 		.4byte	0x4336
 14362 4329 32       		.uleb128 0x32
 14363 432a 01       		.uleb128 0x1
 14364 432b 50       		.byte	0x50
 14365 432c 02       		.uleb128 0x2
 14366 432d 74       		.byte	0x74
 14367 432e 00       		.sleb128 0
 14368 432f 32       		.uleb128 0x32
 14369 4330 01       		.uleb128 0x1
 14370 4331 51       		.byte	0x51
 14371 4332 02       		.uleb128 0x2
 14372 4333 76       		.byte	0x76
 14373 4334 00       		.sleb128 0
 14374 4335 00       		.byte	0
 14375 4336 3C       		.uleb128 0x3c
ARM GAS  /tmp/cczXzW7i.s 			page 254


 14376 4337 D8060000 		.4byte	.LVL110
 14377 433b 8F4B0000 		.4byte	0x4b8f
 14378 433f 50430000 		.4byte	0x4350
 14379 4343 32       		.uleb128 0x32
 14380 4344 01       		.uleb128 0x1
 14381 4345 50       		.byte	0x50
 14382 4346 02       		.uleb128 0x2
 14383 4347 74       		.byte	0x74
 14384 4348 00       		.sleb128 0
 14385 4349 32       		.uleb128 0x32
 14386 434a 01       		.uleb128 0x1
 14387 434b 51       		.byte	0x51
 14388 434c 02       		.uleb128 0x2
 14389 434d 76       		.byte	0x76
 14390 434e 00       		.sleb128 0
 14391 434f 00       		.byte	0
 14392 4350 3C       		.uleb128 0x3c
 14393 4351 E4060000 		.4byte	.LVL111
 14394 4355 8F4B0000 		.4byte	0x4b8f
 14395 4359 6A430000 		.4byte	0x436a
 14396 435d 32       		.uleb128 0x32
 14397 435e 01       		.uleb128 0x1
 14398 435f 50       		.byte	0x50
 14399 4360 02       		.uleb128 0x2
 14400 4361 74       		.byte	0x74
 14401 4362 00       		.sleb128 0
 14402 4363 32       		.uleb128 0x32
 14403 4364 01       		.uleb128 0x1
 14404 4365 51       		.byte	0x51
 14405 4366 02       		.uleb128 0x2
 14406 4367 76       		.byte	0x76
 14407 4368 00       		.sleb128 0
 14408 4369 00       		.byte	0
 14409 436a 3C       		.uleb128 0x3c
 14410 436b F0060000 		.4byte	.LVL112
 14411 436f 8F4B0000 		.4byte	0x4b8f
 14412 4373 84430000 		.4byte	0x4384
 14413 4377 32       		.uleb128 0x32
 14414 4378 01       		.uleb128 0x1
 14415 4379 50       		.byte	0x50
 14416 437a 02       		.uleb128 0x2
 14417 437b 74       		.byte	0x74
 14418 437c 00       		.sleb128 0
 14419 437d 32       		.uleb128 0x32
 14420 437e 01       		.uleb128 0x1
 14421 437f 51       		.byte	0x51
 14422 4380 02       		.uleb128 0x2
 14423 4381 76       		.byte	0x76
 14424 4382 00       		.sleb128 0
 14425 4383 00       		.byte	0
 14426 4384 3C       		.uleb128 0x3c
 14427 4385 FC060000 		.4byte	.LVL113
 14428 4389 8F4B0000 		.4byte	0x4b8f
 14429 438d 9E430000 		.4byte	0x439e
 14430 4391 32       		.uleb128 0x32
 14431 4392 01       		.uleb128 0x1
 14432 4393 50       		.byte	0x50
ARM GAS  /tmp/cczXzW7i.s 			page 255


 14433 4394 02       		.uleb128 0x2
 14434 4395 74       		.byte	0x74
 14435 4396 00       		.sleb128 0
 14436 4397 32       		.uleb128 0x32
 14437 4398 01       		.uleb128 0x1
 14438 4399 51       		.byte	0x51
 14439 439a 02       		.uleb128 0x2
 14440 439b 76       		.byte	0x76
 14441 439c 00       		.sleb128 0
 14442 439d 00       		.byte	0
 14443 439e 3C       		.uleb128 0x3c
 14444 439f 08070000 		.4byte	.LVL114
 14445 43a3 8F4B0000 		.4byte	0x4b8f
 14446 43a7 B8430000 		.4byte	0x43b8
 14447 43ab 32       		.uleb128 0x32
 14448 43ac 01       		.uleb128 0x1
 14449 43ad 50       		.byte	0x50
 14450 43ae 02       		.uleb128 0x2
 14451 43af 74       		.byte	0x74
 14452 43b0 00       		.sleb128 0
 14453 43b1 32       		.uleb128 0x32
 14454 43b2 01       		.uleb128 0x1
 14455 43b3 51       		.byte	0x51
 14456 43b4 02       		.uleb128 0x2
 14457 43b5 76       		.byte	0x76
 14458 43b6 00       		.sleb128 0
 14459 43b7 00       		.byte	0
 14460 43b8 3C       		.uleb128 0x3c
 14461 43b9 14070000 		.4byte	.LVL115
 14462 43bd 8F4B0000 		.4byte	0x4b8f
 14463 43c1 D2430000 		.4byte	0x43d2
 14464 43c5 32       		.uleb128 0x32
 14465 43c6 01       		.uleb128 0x1
 14466 43c7 50       		.byte	0x50
 14467 43c8 02       		.uleb128 0x2
 14468 43c9 74       		.byte	0x74
 14469 43ca 00       		.sleb128 0
 14470 43cb 32       		.uleb128 0x32
 14471 43cc 01       		.uleb128 0x1
 14472 43cd 51       		.byte	0x51
 14473 43ce 02       		.uleb128 0x2
 14474 43cf 76       		.byte	0x76
 14475 43d0 00       		.sleb128 0
 14476 43d1 00       		.byte	0
 14477 43d2 3C       		.uleb128 0x3c
 14478 43d3 20070000 		.4byte	.LVL116
 14479 43d7 8F4B0000 		.4byte	0x4b8f
 14480 43db EC430000 		.4byte	0x43ec
 14481 43df 32       		.uleb128 0x32
 14482 43e0 01       		.uleb128 0x1
 14483 43e1 50       		.byte	0x50
 14484 43e2 02       		.uleb128 0x2
 14485 43e3 74       		.byte	0x74
 14486 43e4 00       		.sleb128 0
 14487 43e5 32       		.uleb128 0x32
 14488 43e6 01       		.uleb128 0x1
 14489 43e7 51       		.byte	0x51
ARM GAS  /tmp/cczXzW7i.s 			page 256


 14490 43e8 02       		.uleb128 0x2
 14491 43e9 76       		.byte	0x76
 14492 43ea 00       		.sleb128 0
 14493 43eb 00       		.byte	0
 14494 43ec 3C       		.uleb128 0x3c
 14495 43ed 2C070000 		.4byte	.LVL117
 14496 43f1 8F4B0000 		.4byte	0x4b8f
 14497 43f5 06440000 		.4byte	0x4406
 14498 43f9 32       		.uleb128 0x32
 14499 43fa 01       		.uleb128 0x1
 14500 43fb 50       		.byte	0x50
 14501 43fc 02       		.uleb128 0x2
 14502 43fd 74       		.byte	0x74
 14503 43fe 00       		.sleb128 0
 14504 43ff 32       		.uleb128 0x32
 14505 4400 01       		.uleb128 0x1
 14506 4401 51       		.byte	0x51
 14507 4402 02       		.uleb128 0x2
 14508 4403 76       		.byte	0x76
 14509 4404 00       		.sleb128 0
 14510 4405 00       		.byte	0
 14511 4406 3C       		.uleb128 0x3c
 14512 4407 38070000 		.4byte	.LVL118
 14513 440b 8F4B0000 		.4byte	0x4b8f
 14514 440f 20440000 		.4byte	0x4420
 14515 4413 32       		.uleb128 0x32
 14516 4414 01       		.uleb128 0x1
 14517 4415 50       		.byte	0x50
 14518 4416 02       		.uleb128 0x2
 14519 4417 74       		.byte	0x74
 14520 4418 00       		.sleb128 0
 14521 4419 32       		.uleb128 0x32
 14522 441a 01       		.uleb128 0x1
 14523 441b 51       		.byte	0x51
 14524 441c 02       		.uleb128 0x2
 14525 441d 76       		.byte	0x76
 14526 441e 00       		.sleb128 0
 14527 441f 00       		.byte	0
 14528 4420 3C       		.uleb128 0x3c
 14529 4421 44070000 		.4byte	.LVL119
 14530 4425 8F4B0000 		.4byte	0x4b8f
 14531 4429 3A440000 		.4byte	0x443a
 14532 442d 32       		.uleb128 0x32
 14533 442e 01       		.uleb128 0x1
 14534 442f 50       		.byte	0x50
 14535 4430 02       		.uleb128 0x2
 14536 4431 74       		.byte	0x74
 14537 4432 00       		.sleb128 0
 14538 4433 32       		.uleb128 0x32
 14539 4434 01       		.uleb128 0x1
 14540 4435 51       		.byte	0x51
 14541 4436 02       		.uleb128 0x2
 14542 4437 76       		.byte	0x76
 14543 4438 00       		.sleb128 0
 14544 4439 00       		.byte	0
 14545 443a 3C       		.uleb128 0x3c
 14546 443b 64070000 		.4byte	.LVL120
ARM GAS  /tmp/cczXzW7i.s 			page 257


 14547 443f 8F4B0000 		.4byte	0x4b8f
 14548 4443 54440000 		.4byte	0x4454
 14549 4447 32       		.uleb128 0x32
 14550 4448 01       		.uleb128 0x1
 14551 4449 50       		.byte	0x50
 14552 444a 02       		.uleb128 0x2
 14553 444b 74       		.byte	0x74
 14554 444c 00       		.sleb128 0
 14555 444d 32       		.uleb128 0x32
 14556 444e 01       		.uleb128 0x1
 14557 444f 51       		.byte	0x51
 14558 4450 02       		.uleb128 0x2
 14559 4451 76       		.byte	0x76
 14560 4452 00       		.sleb128 0
 14561 4453 00       		.byte	0
 14562 4454 3C       		.uleb128 0x3c
 14563 4455 92070000 		.4byte	.LVL121
 14564 4459 8F4B0000 		.4byte	0x4b8f
 14565 445d 6E440000 		.4byte	0x446e
 14566 4461 32       		.uleb128 0x32
 14567 4462 01       		.uleb128 0x1
 14568 4463 50       		.byte	0x50
 14569 4464 02       		.uleb128 0x2
 14570 4465 74       		.byte	0x74
 14571 4466 00       		.sleb128 0
 14572 4467 32       		.uleb128 0x32
 14573 4468 01       		.uleb128 0x1
 14574 4469 51       		.byte	0x51
 14575 446a 02       		.uleb128 0x2
 14576 446b 76       		.byte	0x76
 14577 446c 00       		.sleb128 0
 14578 446d 00       		.byte	0
 14579 446e 3C       		.uleb128 0x3c
 14580 446f B0070000 		.4byte	.LVL122
 14581 4473 8F4B0000 		.4byte	0x4b8f
 14582 4477 88440000 		.4byte	0x4488
 14583 447b 32       		.uleb128 0x32
 14584 447c 01       		.uleb128 0x1
 14585 447d 50       		.byte	0x50
 14586 447e 02       		.uleb128 0x2
 14587 447f 74       		.byte	0x74
 14588 4480 00       		.sleb128 0
 14589 4481 32       		.uleb128 0x32
 14590 4482 01       		.uleb128 0x1
 14591 4483 51       		.byte	0x51
 14592 4484 02       		.uleb128 0x2
 14593 4485 76       		.byte	0x76
 14594 4486 00       		.sleb128 0
 14595 4487 00       		.byte	0
 14596 4488 3C       		.uleb128 0x3c
 14597 4489 BC070000 		.4byte	.LVL123
 14598 448d 8F4B0000 		.4byte	0x4b8f
 14599 4491 A2440000 		.4byte	0x44a2
 14600 4495 32       		.uleb128 0x32
 14601 4496 01       		.uleb128 0x1
 14602 4497 50       		.byte	0x50
 14603 4498 02       		.uleb128 0x2
ARM GAS  /tmp/cczXzW7i.s 			page 258


 14604 4499 74       		.byte	0x74
 14605 449a 00       		.sleb128 0
 14606 449b 32       		.uleb128 0x32
 14607 449c 01       		.uleb128 0x1
 14608 449d 51       		.byte	0x51
 14609 449e 02       		.uleb128 0x2
 14610 449f 76       		.byte	0x76
 14611 44a0 00       		.sleb128 0
 14612 44a1 00       		.byte	0
 14613 44a2 3C       		.uleb128 0x3c
 14614 44a3 C8070000 		.4byte	.LVL124
 14615 44a7 8F4B0000 		.4byte	0x4b8f
 14616 44ab BC440000 		.4byte	0x44bc
 14617 44af 32       		.uleb128 0x32
 14618 44b0 01       		.uleb128 0x1
 14619 44b1 50       		.byte	0x50
 14620 44b2 02       		.uleb128 0x2
 14621 44b3 74       		.byte	0x74
 14622 44b4 00       		.sleb128 0
 14623 44b5 32       		.uleb128 0x32
 14624 44b6 01       		.uleb128 0x1
 14625 44b7 51       		.byte	0x51
 14626 44b8 02       		.uleb128 0x2
 14627 44b9 76       		.byte	0x76
 14628 44ba 00       		.sleb128 0
 14629 44bb 00       		.byte	0
 14630 44bc 3C       		.uleb128 0x3c
 14631 44bd D4070000 		.4byte	.LVL125
 14632 44c1 8F4B0000 		.4byte	0x4b8f
 14633 44c5 D6440000 		.4byte	0x44d6
 14634 44c9 32       		.uleb128 0x32
 14635 44ca 01       		.uleb128 0x1
 14636 44cb 50       		.byte	0x50
 14637 44cc 02       		.uleb128 0x2
 14638 44cd 74       		.byte	0x74
 14639 44ce 00       		.sleb128 0
 14640 44cf 32       		.uleb128 0x32
 14641 44d0 01       		.uleb128 0x1
 14642 44d1 51       		.byte	0x51
 14643 44d2 02       		.uleb128 0x2
 14644 44d3 76       		.byte	0x76
 14645 44d4 00       		.sleb128 0
 14646 44d5 00       		.byte	0
 14647 44d6 3C       		.uleb128 0x3c
 14648 44d7 E0070000 		.4byte	.LVL126
 14649 44db 8F4B0000 		.4byte	0x4b8f
 14650 44df F0440000 		.4byte	0x44f0
 14651 44e3 32       		.uleb128 0x32
 14652 44e4 01       		.uleb128 0x1
 14653 44e5 50       		.byte	0x50
 14654 44e6 02       		.uleb128 0x2
 14655 44e7 74       		.byte	0x74
 14656 44e8 00       		.sleb128 0
 14657 44e9 32       		.uleb128 0x32
 14658 44ea 01       		.uleb128 0x1
 14659 44eb 51       		.byte	0x51
 14660 44ec 02       		.uleb128 0x2
ARM GAS  /tmp/cczXzW7i.s 			page 259


 14661 44ed 76       		.byte	0x76
 14662 44ee 00       		.sleb128 0
 14663 44ef 00       		.byte	0
 14664 44f0 3C       		.uleb128 0x3c
 14665 44f1 EC070000 		.4byte	.LVL127
 14666 44f5 8F4B0000 		.4byte	0x4b8f
 14667 44f9 0A450000 		.4byte	0x450a
 14668 44fd 32       		.uleb128 0x32
 14669 44fe 01       		.uleb128 0x1
 14670 44ff 50       		.byte	0x50
 14671 4500 02       		.uleb128 0x2
 14672 4501 74       		.byte	0x74
 14673 4502 00       		.sleb128 0
 14674 4503 32       		.uleb128 0x32
 14675 4504 01       		.uleb128 0x1
 14676 4505 51       		.byte	0x51
 14677 4506 02       		.uleb128 0x2
 14678 4507 76       		.byte	0x76
 14679 4508 00       		.sleb128 0
 14680 4509 00       		.byte	0
 14681 450a 3C       		.uleb128 0x3c
 14682 450b F8070000 		.4byte	.LVL128
 14683 450f 8F4B0000 		.4byte	0x4b8f
 14684 4513 24450000 		.4byte	0x4524
 14685 4517 32       		.uleb128 0x32
 14686 4518 01       		.uleb128 0x1
 14687 4519 50       		.byte	0x50
 14688 451a 02       		.uleb128 0x2
 14689 451b 74       		.byte	0x74
 14690 451c 00       		.sleb128 0
 14691 451d 32       		.uleb128 0x32
 14692 451e 01       		.uleb128 0x1
 14693 451f 51       		.byte	0x51
 14694 4520 02       		.uleb128 0x2
 14695 4521 76       		.byte	0x76
 14696 4522 00       		.sleb128 0
 14697 4523 00       		.byte	0
 14698 4524 3C       		.uleb128 0x3c
 14699 4525 1E080000 		.4byte	.LVL129
 14700 4529 8F4B0000 		.4byte	0x4b8f
 14701 452d 3E450000 		.4byte	0x453e
 14702 4531 32       		.uleb128 0x32
 14703 4532 01       		.uleb128 0x1
 14704 4533 50       		.byte	0x50
 14705 4534 02       		.uleb128 0x2
 14706 4535 74       		.byte	0x74
 14707 4536 00       		.sleb128 0
 14708 4537 32       		.uleb128 0x32
 14709 4538 01       		.uleb128 0x1
 14710 4539 51       		.byte	0x51
 14711 453a 02       		.uleb128 0x2
 14712 453b 76       		.byte	0x76
 14713 453c 00       		.sleb128 0
 14714 453d 00       		.byte	0
 14715 453e 3C       		.uleb128 0x3c
 14716 453f 2A080000 		.4byte	.LVL130
 14717 4543 8F4B0000 		.4byte	0x4b8f
ARM GAS  /tmp/cczXzW7i.s 			page 260


 14718 4547 58450000 		.4byte	0x4558
 14719 454b 32       		.uleb128 0x32
 14720 454c 01       		.uleb128 0x1
 14721 454d 50       		.byte	0x50
 14722 454e 02       		.uleb128 0x2
 14723 454f 74       		.byte	0x74
 14724 4550 00       		.sleb128 0
 14725 4551 32       		.uleb128 0x32
 14726 4552 01       		.uleb128 0x1
 14727 4553 51       		.byte	0x51
 14728 4554 02       		.uleb128 0x2
 14729 4555 76       		.byte	0x76
 14730 4556 00       		.sleb128 0
 14731 4557 00       		.byte	0
 14732 4558 3C       		.uleb128 0x3c
 14733 4559 36080000 		.4byte	.LVL131
 14734 455d 8F4B0000 		.4byte	0x4b8f
 14735 4561 72450000 		.4byte	0x4572
 14736 4565 32       		.uleb128 0x32
 14737 4566 01       		.uleb128 0x1
 14738 4567 50       		.byte	0x50
 14739 4568 02       		.uleb128 0x2
 14740 4569 74       		.byte	0x74
 14741 456a 00       		.sleb128 0
 14742 456b 32       		.uleb128 0x32
 14743 456c 01       		.uleb128 0x1
 14744 456d 51       		.byte	0x51
 14745 456e 02       		.uleb128 0x2
 14746 456f 76       		.byte	0x76
 14747 4570 00       		.sleb128 0
 14748 4571 00       		.byte	0
 14749 4572 3C       		.uleb128 0x3c
 14750 4573 42080000 		.4byte	.LVL132
 14751 4577 8F4B0000 		.4byte	0x4b8f
 14752 457b 8C450000 		.4byte	0x458c
 14753 457f 32       		.uleb128 0x32
 14754 4580 01       		.uleb128 0x1
 14755 4581 50       		.byte	0x50
 14756 4582 02       		.uleb128 0x2
 14757 4583 74       		.byte	0x74
 14758 4584 00       		.sleb128 0
 14759 4585 32       		.uleb128 0x32
 14760 4586 01       		.uleb128 0x1
 14761 4587 51       		.byte	0x51
 14762 4588 02       		.uleb128 0x2
 14763 4589 76       		.byte	0x76
 14764 458a 00       		.sleb128 0
 14765 458b 00       		.byte	0
 14766 458c 3C       		.uleb128 0x3c
 14767 458d 4E080000 		.4byte	.LVL133
 14768 4591 8F4B0000 		.4byte	0x4b8f
 14769 4595 A6450000 		.4byte	0x45a6
 14770 4599 32       		.uleb128 0x32
 14771 459a 01       		.uleb128 0x1
 14772 459b 50       		.byte	0x50
 14773 459c 02       		.uleb128 0x2
 14774 459d 74       		.byte	0x74
ARM GAS  /tmp/cczXzW7i.s 			page 261


 14775 459e 00       		.sleb128 0
 14776 459f 32       		.uleb128 0x32
 14777 45a0 01       		.uleb128 0x1
 14778 45a1 51       		.byte	0x51
 14779 45a2 02       		.uleb128 0x2
 14780 45a3 76       		.byte	0x76
 14781 45a4 00       		.sleb128 0
 14782 45a5 00       		.byte	0
 14783 45a6 3C       		.uleb128 0x3c
 14784 45a7 5A080000 		.4byte	.LVL134
 14785 45ab 8F4B0000 		.4byte	0x4b8f
 14786 45af C0450000 		.4byte	0x45c0
 14787 45b3 32       		.uleb128 0x32
 14788 45b4 01       		.uleb128 0x1
 14789 45b5 50       		.byte	0x50
 14790 45b6 02       		.uleb128 0x2
 14791 45b7 74       		.byte	0x74
 14792 45b8 00       		.sleb128 0
 14793 45b9 32       		.uleb128 0x32
 14794 45ba 01       		.uleb128 0x1
 14795 45bb 51       		.byte	0x51
 14796 45bc 02       		.uleb128 0x2
 14797 45bd 76       		.byte	0x76
 14798 45be 00       		.sleb128 0
 14799 45bf 00       		.byte	0
 14800 45c0 3C       		.uleb128 0x3c
 14801 45c1 66080000 		.4byte	.LVL135
 14802 45c5 8F4B0000 		.4byte	0x4b8f
 14803 45c9 DA450000 		.4byte	0x45da
 14804 45cd 32       		.uleb128 0x32
 14805 45ce 01       		.uleb128 0x1
 14806 45cf 50       		.byte	0x50
 14807 45d0 02       		.uleb128 0x2
 14808 45d1 74       		.byte	0x74
 14809 45d2 00       		.sleb128 0
 14810 45d3 32       		.uleb128 0x32
 14811 45d4 01       		.uleb128 0x1
 14812 45d5 51       		.byte	0x51
 14813 45d6 02       		.uleb128 0x2
 14814 45d7 76       		.byte	0x76
 14815 45d8 00       		.sleb128 0
 14816 45d9 00       		.byte	0
 14817 45da 3C       		.uleb128 0x3c
 14818 45db 72080000 		.4byte	.LVL136
 14819 45df 8F4B0000 		.4byte	0x4b8f
 14820 45e3 F4450000 		.4byte	0x45f4
 14821 45e7 32       		.uleb128 0x32
 14822 45e8 01       		.uleb128 0x1
 14823 45e9 50       		.byte	0x50
 14824 45ea 02       		.uleb128 0x2
 14825 45eb 74       		.byte	0x74
 14826 45ec 00       		.sleb128 0
 14827 45ed 32       		.uleb128 0x32
 14828 45ee 01       		.uleb128 0x1
 14829 45ef 51       		.byte	0x51
 14830 45f0 02       		.uleb128 0x2
 14831 45f1 76       		.byte	0x76
ARM GAS  /tmp/cczXzW7i.s 			page 262


 14832 45f2 00       		.sleb128 0
 14833 45f3 00       		.byte	0
 14834 45f4 3C       		.uleb128 0x3c
 14835 45f5 7E080000 		.4byte	.LVL137
 14836 45f9 8F4B0000 		.4byte	0x4b8f
 14837 45fd 0E460000 		.4byte	0x460e
 14838 4601 32       		.uleb128 0x32
 14839 4602 01       		.uleb128 0x1
 14840 4603 50       		.byte	0x50
 14841 4604 02       		.uleb128 0x2
 14842 4605 74       		.byte	0x74
 14843 4606 00       		.sleb128 0
 14844 4607 32       		.uleb128 0x32
 14845 4608 01       		.uleb128 0x1
 14846 4609 51       		.byte	0x51
 14847 460a 02       		.uleb128 0x2
 14848 460b 76       		.byte	0x76
 14849 460c 00       		.sleb128 0
 14850 460d 00       		.byte	0
 14851 460e 3C       		.uleb128 0x3c
 14852 460f 8A080000 		.4byte	.LVL138
 14853 4613 A54B0000 		.4byte	0x4ba5
 14854 4617 28460000 		.4byte	0x4628
 14855 461b 32       		.uleb128 0x32
 14856 461c 01       		.uleb128 0x1
 14857 461d 50       		.byte	0x50
 14858 461e 02       		.uleb128 0x2
 14859 461f 74       		.byte	0x74
 14860 4620 00       		.sleb128 0
 14861 4621 32       		.uleb128 0x32
 14862 4622 01       		.uleb128 0x1
 14863 4623 51       		.byte	0x51
 14864 4624 02       		.uleb128 0x2
 14865 4625 76       		.byte	0x76
 14866 4626 00       		.sleb128 0
 14867 4627 00       		.byte	0
 14868 4628 3C       		.uleb128 0x3c
 14869 4629 96080000 		.4byte	.LVL139
 14870 462d 8F4B0000 		.4byte	0x4b8f
 14871 4631 42460000 		.4byte	0x4642
 14872 4635 32       		.uleb128 0x32
 14873 4636 01       		.uleb128 0x1
 14874 4637 50       		.byte	0x50
 14875 4638 02       		.uleb128 0x2
 14876 4639 74       		.byte	0x74
 14877 463a 00       		.sleb128 0
 14878 463b 32       		.uleb128 0x32
 14879 463c 01       		.uleb128 0x1
 14880 463d 51       		.byte	0x51
 14881 463e 02       		.uleb128 0x2
 14882 463f 76       		.byte	0x76
 14883 4640 00       		.sleb128 0
 14884 4641 00       		.byte	0
 14885 4642 3C       		.uleb128 0x3c
 14886 4643 A2080000 		.4byte	.LVL140
 14887 4647 8F4B0000 		.4byte	0x4b8f
 14888 464b 5C460000 		.4byte	0x465c
ARM GAS  /tmp/cczXzW7i.s 			page 263


 14889 464f 32       		.uleb128 0x32
 14890 4650 01       		.uleb128 0x1
 14891 4651 50       		.byte	0x50
 14892 4652 02       		.uleb128 0x2
 14893 4653 74       		.byte	0x74
 14894 4654 00       		.sleb128 0
 14895 4655 32       		.uleb128 0x32
 14896 4656 01       		.uleb128 0x1
 14897 4657 51       		.byte	0x51
 14898 4658 02       		.uleb128 0x2
 14899 4659 76       		.byte	0x76
 14900 465a 00       		.sleb128 0
 14901 465b 00       		.byte	0
 14902 465c 3C       		.uleb128 0x3c
 14903 465d AE080000 		.4byte	.LVL141
 14904 4661 844B0000 		.4byte	0x4b84
 14905 4665 76460000 		.4byte	0x4676
 14906 4669 32       		.uleb128 0x32
 14907 466a 01       		.uleb128 0x1
 14908 466b 50       		.byte	0x50
 14909 466c 02       		.uleb128 0x2
 14910 466d 74       		.byte	0x74
 14911 466e 00       		.sleb128 0
 14912 466f 32       		.uleb128 0x32
 14913 4670 01       		.uleb128 0x1
 14914 4671 51       		.byte	0x51
 14915 4672 02       		.uleb128 0x2
 14916 4673 76       		.byte	0x76
 14917 4674 00       		.sleb128 0
 14918 4675 00       		.byte	0
 14919 4676 3C       		.uleb128 0x3c
 14920 4677 E0080000 		.4byte	.LVL142
 14921 467b 8F4B0000 		.4byte	0x4b8f
 14922 467f 90460000 		.4byte	0x4690
 14923 4683 32       		.uleb128 0x32
 14924 4684 01       		.uleb128 0x1
 14925 4685 50       		.byte	0x50
 14926 4686 02       		.uleb128 0x2
 14927 4687 74       		.byte	0x74
 14928 4688 00       		.sleb128 0
 14929 4689 32       		.uleb128 0x32
 14930 468a 01       		.uleb128 0x1
 14931 468b 51       		.byte	0x51
 14932 468c 02       		.uleb128 0x2
 14933 468d 76       		.byte	0x76
 14934 468e 00       		.sleb128 0
 14935 468f 00       		.byte	0
 14936 4690 3C       		.uleb128 0x3c
 14937 4691 EC080000 		.4byte	.LVL143
 14938 4695 8F4B0000 		.4byte	0x4b8f
 14939 4699 AA460000 		.4byte	0x46aa
 14940 469d 32       		.uleb128 0x32
 14941 469e 01       		.uleb128 0x1
 14942 469f 50       		.byte	0x50
 14943 46a0 02       		.uleb128 0x2
 14944 46a1 74       		.byte	0x74
 14945 46a2 00       		.sleb128 0
ARM GAS  /tmp/cczXzW7i.s 			page 264


 14946 46a3 32       		.uleb128 0x32
 14947 46a4 01       		.uleb128 0x1
 14948 46a5 51       		.byte	0x51
 14949 46a6 02       		.uleb128 0x2
 14950 46a7 76       		.byte	0x76
 14951 46a8 00       		.sleb128 0
 14952 46a9 00       		.byte	0
 14953 46aa 3C       		.uleb128 0x3c
 14954 46ab F8080000 		.4byte	.LVL144
 14955 46af 8F4B0000 		.4byte	0x4b8f
 14956 46b3 C4460000 		.4byte	0x46c4
 14957 46b7 32       		.uleb128 0x32
 14958 46b8 01       		.uleb128 0x1
 14959 46b9 50       		.byte	0x50
 14960 46ba 02       		.uleb128 0x2
 14961 46bb 74       		.byte	0x74
 14962 46bc 00       		.sleb128 0
 14963 46bd 32       		.uleb128 0x32
 14964 46be 01       		.uleb128 0x1
 14965 46bf 51       		.byte	0x51
 14966 46c0 02       		.uleb128 0x2
 14967 46c1 76       		.byte	0x76
 14968 46c2 00       		.sleb128 0
 14969 46c3 00       		.byte	0
 14970 46c4 3C       		.uleb128 0x3c
 14971 46c5 04090000 		.4byte	.LVL145
 14972 46c9 8F4B0000 		.4byte	0x4b8f
 14973 46cd DE460000 		.4byte	0x46de
 14974 46d1 32       		.uleb128 0x32
 14975 46d2 01       		.uleb128 0x1
 14976 46d3 50       		.byte	0x50
 14977 46d4 02       		.uleb128 0x2
 14978 46d5 74       		.byte	0x74
 14979 46d6 00       		.sleb128 0
 14980 46d7 32       		.uleb128 0x32
 14981 46d8 01       		.uleb128 0x1
 14982 46d9 51       		.byte	0x51
 14983 46da 02       		.uleb128 0x2
 14984 46db 76       		.byte	0x76
 14985 46dc 00       		.sleb128 0
 14986 46dd 00       		.byte	0
 14987 46de 41       		.uleb128 0x41
 14988 46df 22090000 		.4byte	.LVL146
 14989 46e3 EE460000 		.4byte	0x46ee
 14990 46e7 32       		.uleb128 0x32
 14991 46e8 01       		.uleb128 0x1
 14992 46e9 50       		.byte	0x50
 14993 46ea 02       		.uleb128 0x2
 14994 46eb 75       		.byte	0x75
 14995 46ec 00       		.sleb128 0
 14996 46ed 00       		.byte	0
 14997 46ee 3C       		.uleb128 0x3c
 14998 46ef 42090000 		.4byte	.LVL150
 14999 46f3 B04B0000 		.4byte	0x4bb0
 15000 46f7 14470000 		.4byte	0x4714
 15001 46fb 32       		.uleb128 0x32
 15002 46fc 01       		.uleb128 0x1
ARM GAS  /tmp/cczXzW7i.s 			page 265


 15003 46fd 50       		.byte	0x50
 15004 46fe 02       		.uleb128 0x2
 15005 46ff 74       		.byte	0x74
 15006 4700 00       		.sleb128 0
 15007 4701 32       		.uleb128 0x32
 15008 4702 02       		.uleb128 0x2
 15009 4703 90       		.byte	0x90
 15010 4704 40       		.uleb128 0x40
 15011 4705 07       		.uleb128 0x7
 15012 4706 F4       		.byte	0xf4
 15013 4707 25       		.uleb128 0x25
 15014 4708 04       		.byte	0x4
 15015 4709 00002041 		.4byte	0x41200000
 15016 470d 32       		.uleb128 0x32
 15017 470e 01       		.uleb128 0x1
 15018 470f 51       		.byte	0x51
 15019 4710 02       		.uleb128 0x2
 15020 4711 91       		.byte	0x91
 15021 4712 64       		.sleb128 -28
 15022 4713 00       		.byte	0
 15023 4714 3C       		.uleb128 0x3c
 15024 4715 54090000 		.4byte	.LVL151
 15025 4719 B04B0000 		.4byte	0x4bb0
 15026 471d 3A470000 		.4byte	0x473a
 15027 4721 32       		.uleb128 0x32
 15028 4722 01       		.uleb128 0x1
 15029 4723 50       		.byte	0x50
 15030 4724 02       		.uleb128 0x2
 15031 4725 74       		.byte	0x74
 15032 4726 00       		.sleb128 0
 15033 4727 32       		.uleb128 0x32
 15034 4728 02       		.uleb128 0x2
 15035 4729 90       		.byte	0x90
 15036 472a 40       		.uleb128 0x40
 15037 472b 07       		.uleb128 0x7
 15038 472c F4       		.byte	0xf4
 15039 472d 25       		.uleb128 0x25
 15040 472e 04       		.byte	0x4
 15041 472f 00002041 		.4byte	0x41200000
 15042 4733 32       		.uleb128 0x32
 15043 4734 01       		.uleb128 0x1
 15044 4735 51       		.byte	0x51
 15045 4736 02       		.uleb128 0x2
 15046 4737 91       		.byte	0x91
 15047 4738 64       		.sleb128 -28
 15048 4739 00       		.byte	0
 15049 473a 3C       		.uleb128 0x3c
 15050 473b 64090000 		.4byte	.LVL152
 15051 473f 794B0000 		.4byte	0x4b79
 15052 4743 60470000 		.4byte	0x4760
 15053 4747 32       		.uleb128 0x32
 15054 4748 01       		.uleb128 0x1
 15055 4749 50       		.byte	0x50
 15056 474a 02       		.uleb128 0x2
 15057 474b 74       		.byte	0x74
 15058 474c 00       		.sleb128 0
 15059 474d 32       		.uleb128 0x32
ARM GAS  /tmp/cczXzW7i.s 			page 266


 15060 474e 02       		.uleb128 0x2
 15061 474f 90       		.byte	0x90
 15062 4750 40       		.uleb128 0x40
 15063 4751 07       		.uleb128 0x7
 15064 4752 F4       		.byte	0xf4
 15065 4753 25       		.uleb128 0x25
 15066 4754 04       		.byte	0x4
 15067 4755 0000C842 		.4byte	0x42c80000
 15068 4759 32       		.uleb128 0x32
 15069 475a 01       		.uleb128 0x1
 15070 475b 51       		.byte	0x51
 15071 475c 02       		.uleb128 0x2
 15072 475d 91       		.byte	0x91
 15073 475e 64       		.sleb128 -28
 15074 475f 00       		.byte	0
 15075 4760 3C       		.uleb128 0x3c
 15076 4761 74090000 		.4byte	.LVL153
 15077 4765 794B0000 		.4byte	0x4b79
 15078 4769 86470000 		.4byte	0x4786
 15079 476d 32       		.uleb128 0x32
 15080 476e 01       		.uleb128 0x1
 15081 476f 50       		.byte	0x50
 15082 4770 02       		.uleb128 0x2
 15083 4771 74       		.byte	0x74
 15084 4772 00       		.sleb128 0
 15085 4773 32       		.uleb128 0x32
 15086 4774 02       		.uleb128 0x2
 15087 4775 90       		.byte	0x90
 15088 4776 40       		.uleb128 0x40
 15089 4777 07       		.uleb128 0x7
 15090 4778 F4       		.byte	0xf4
 15091 4779 25       		.uleb128 0x25
 15092 477a 04       		.byte	0x4
 15093 477b 0000C842 		.4byte	0x42c80000
 15094 477f 32       		.uleb128 0x32
 15095 4780 01       		.uleb128 0x1
 15096 4781 51       		.byte	0x51
 15097 4782 02       		.uleb128 0x2
 15098 4783 91       		.byte	0x91
 15099 4784 64       		.sleb128 -28
 15100 4785 00       		.byte	0
 15101 4786 3C       		.uleb128 0x3c
 15102 4787 84090000 		.4byte	.LVL154
 15103 478b 794B0000 		.4byte	0x4b79
 15104 478f AC470000 		.4byte	0x47ac
 15105 4793 32       		.uleb128 0x32
 15106 4794 01       		.uleb128 0x1
 15107 4795 50       		.byte	0x50
 15108 4796 02       		.uleb128 0x2
 15109 4797 74       		.byte	0x74
 15110 4798 00       		.sleb128 0
 15111 4799 32       		.uleb128 0x32
 15112 479a 02       		.uleb128 0x2
 15113 479b 90       		.byte	0x90
 15114 479c 40       		.uleb128 0x40
 15115 479d 07       		.uleb128 0x7
 15116 479e F4       		.byte	0xf4
ARM GAS  /tmp/cczXzW7i.s 			page 267


 15117 479f 25       		.uleb128 0x25
 15118 47a0 04       		.byte	0x4
 15119 47a1 0000C842 		.4byte	0x42c80000
 15120 47a5 32       		.uleb128 0x32
 15121 47a6 01       		.uleb128 0x1
 15122 47a7 51       		.byte	0x51
 15123 47a8 02       		.uleb128 0x2
 15124 47a9 91       		.byte	0x91
 15125 47aa 64       		.sleb128 -28
 15126 47ab 00       		.byte	0
 15127 47ac 3C       		.uleb128 0x3c
 15128 47ad 94090000 		.4byte	.LVL155
 15129 47b1 794B0000 		.4byte	0x4b79
 15130 47b5 D2470000 		.4byte	0x47d2
 15131 47b9 32       		.uleb128 0x32
 15132 47ba 01       		.uleb128 0x1
 15133 47bb 50       		.byte	0x50
 15134 47bc 02       		.uleb128 0x2
 15135 47bd 74       		.byte	0x74
 15136 47be 00       		.sleb128 0
 15137 47bf 32       		.uleb128 0x32
 15138 47c0 02       		.uleb128 0x2
 15139 47c1 90       		.byte	0x90
 15140 47c2 40       		.uleb128 0x40
 15141 47c3 07       		.uleb128 0x7
 15142 47c4 F4       		.byte	0xf4
 15143 47c5 25       		.uleb128 0x25
 15144 47c6 04       		.byte	0x4
 15145 47c7 0000C842 		.4byte	0x42c80000
 15146 47cb 32       		.uleb128 0x32
 15147 47cc 01       		.uleb128 0x1
 15148 47cd 51       		.byte	0x51
 15149 47ce 02       		.uleb128 0x2
 15150 47cf 91       		.byte	0x91
 15151 47d0 64       		.sleb128 -28
 15152 47d1 00       		.byte	0
 15153 47d2 3C       		.uleb128 0x3c
 15154 47d3 A4090000 		.4byte	.LVL156
 15155 47d7 B04B0000 		.4byte	0x4bb0
 15156 47db F8470000 		.4byte	0x47f8
 15157 47df 32       		.uleb128 0x32
 15158 47e0 01       		.uleb128 0x1
 15159 47e1 50       		.byte	0x50
 15160 47e2 02       		.uleb128 0x2
 15161 47e3 74       		.byte	0x74
 15162 47e4 00       		.sleb128 0
 15163 47e5 32       		.uleb128 0x32
 15164 47e6 02       		.uleb128 0x2
 15165 47e7 90       		.byte	0x90
 15166 47e8 40       		.uleb128 0x40
 15167 47e9 07       		.uleb128 0x7
 15168 47ea F4       		.byte	0xf4
 15169 47eb 25       		.uleb128 0x25
 15170 47ec 04       		.byte	0x4
 15171 47ed 00007A44 		.4byte	0x447a0000
 15172 47f1 32       		.uleb128 0x32
 15173 47f2 01       		.uleb128 0x1
ARM GAS  /tmp/cczXzW7i.s 			page 268


 15174 47f3 51       		.byte	0x51
 15175 47f4 02       		.uleb128 0x2
 15176 47f5 91       		.byte	0x91
 15177 47f6 64       		.sleb128 -28
 15178 47f7 00       		.byte	0
 15179 47f8 3C       		.uleb128 0x3c
 15180 47f9 B4090000 		.4byte	.LVL157
 15181 47fd 794B0000 		.4byte	0x4b79
 15182 4801 1E480000 		.4byte	0x481e
 15183 4805 32       		.uleb128 0x32
 15184 4806 01       		.uleb128 0x1
 15185 4807 50       		.byte	0x50
 15186 4808 02       		.uleb128 0x2
 15187 4809 74       		.byte	0x74
 15188 480a 00       		.sleb128 0
 15189 480b 32       		.uleb128 0x32
 15190 480c 02       		.uleb128 0x2
 15191 480d 90       		.byte	0x90
 15192 480e 40       		.uleb128 0x40
 15193 480f 07       		.uleb128 0x7
 15194 4810 F4       		.byte	0xf4
 15195 4811 25       		.uleb128 0x25
 15196 4812 04       		.byte	0x4
 15197 4813 0000803F 		.4byte	0x3f800000
 15198 4817 32       		.uleb128 0x32
 15199 4818 01       		.uleb128 0x1
 15200 4819 51       		.byte	0x51
 15201 481a 02       		.uleb128 0x2
 15202 481b 91       		.byte	0x91
 15203 481c 64       		.sleb128 -28
 15204 481d 00       		.byte	0
 15205 481e 3C       		.uleb128 0x3c
 15206 481f C4090000 		.4byte	.LVL158
 15207 4823 B04B0000 		.4byte	0x4bb0
 15208 4827 44480000 		.4byte	0x4844
 15209 482b 32       		.uleb128 0x32
 15210 482c 01       		.uleb128 0x1
 15211 482d 50       		.byte	0x50
 15212 482e 02       		.uleb128 0x2
 15213 482f 74       		.byte	0x74
 15214 4830 00       		.sleb128 0
 15215 4831 32       		.uleb128 0x32
 15216 4832 02       		.uleb128 0x2
 15217 4833 90       		.byte	0x90
 15218 4834 40       		.uleb128 0x40
 15219 4835 07       		.uleb128 0x7
 15220 4836 F4       		.byte	0xf4
 15221 4837 25       		.uleb128 0x25
 15222 4838 04       		.byte	0x4
 15223 4839 00002041 		.4byte	0x41200000
 15224 483d 32       		.uleb128 0x32
 15225 483e 01       		.uleb128 0x1
 15226 483f 51       		.byte	0x51
 15227 4840 02       		.uleb128 0x2
 15228 4841 91       		.byte	0x91
 15229 4842 64       		.sleb128 -28
 15230 4843 00       		.byte	0
ARM GAS  /tmp/cczXzW7i.s 			page 269


 15231 4844 3C       		.uleb128 0x3c
 15232 4845 D4090000 		.4byte	.LVL159
 15233 4849 794B0000 		.4byte	0x4b79
 15234 484d 6A480000 		.4byte	0x486a
 15235 4851 32       		.uleb128 0x32
 15236 4852 01       		.uleb128 0x1
 15237 4853 50       		.byte	0x50
 15238 4854 02       		.uleb128 0x2
 15239 4855 74       		.byte	0x74
 15240 4856 00       		.sleb128 0
 15241 4857 32       		.uleb128 0x32
 15242 4858 02       		.uleb128 0x2
 15243 4859 90       		.byte	0x90
 15244 485a 40       		.uleb128 0x40
 15245 485b 07       		.uleb128 0x7
 15246 485c F4       		.byte	0xf4
 15247 485d 25       		.uleb128 0x25
 15248 485e 04       		.byte	0x4
 15249 485f 00401C46 		.4byte	0x461c4000
 15250 4863 32       		.uleb128 0x32
 15251 4864 01       		.uleb128 0x1
 15252 4865 51       		.byte	0x51
 15253 4866 02       		.uleb128 0x2
 15254 4867 91       		.byte	0x91
 15255 4868 64       		.sleb128 -28
 15256 4869 00       		.byte	0
 15257 486a 3C       		.uleb128 0x3c
 15258 486b E4090000 		.4byte	.LVL160
 15259 486f 794B0000 		.4byte	0x4b79
 15260 4873 90480000 		.4byte	0x4890
 15261 4877 32       		.uleb128 0x32
 15262 4878 01       		.uleb128 0x1
 15263 4879 50       		.byte	0x50
 15264 487a 02       		.uleb128 0x2
 15265 487b 74       		.byte	0x74
 15266 487c 00       		.sleb128 0
 15267 487d 32       		.uleb128 0x32
 15268 487e 02       		.uleb128 0x2
 15269 487f 90       		.byte	0x90
 15270 4880 40       		.uleb128 0x40
 15271 4881 07       		.uleb128 0x7
 15272 4882 F4       		.byte	0xf4
 15273 4883 25       		.uleb128 0x25
 15274 4884 04       		.byte	0x4
 15275 4885 00401C46 		.4byte	0x461c4000
 15276 4889 32       		.uleb128 0x32
 15277 488a 01       		.uleb128 0x1
 15278 488b 51       		.byte	0x51
 15279 488c 02       		.uleb128 0x2
 15280 488d 91       		.byte	0x91
 15281 488e 64       		.sleb128 -28
 15282 488f 00       		.byte	0
 15283 4890 3C       		.uleb128 0x3c
 15284 4891 F4090000 		.4byte	.LVL161
 15285 4895 794B0000 		.4byte	0x4b79
 15286 4899 B6480000 		.4byte	0x48b6
 15287 489d 32       		.uleb128 0x32
ARM GAS  /tmp/cczXzW7i.s 			page 270


 15288 489e 01       		.uleb128 0x1
 15289 489f 50       		.byte	0x50
 15290 48a0 02       		.uleb128 0x2
 15291 48a1 74       		.byte	0x74
 15292 48a2 00       		.sleb128 0
 15293 48a3 32       		.uleb128 0x32
 15294 48a4 02       		.uleb128 0x2
 15295 48a5 90       		.byte	0x90
 15296 48a6 40       		.uleb128 0x40
 15297 48a7 07       		.uleb128 0x7
 15298 48a8 F4       		.byte	0xf4
 15299 48a9 25       		.uleb128 0x25
 15300 48aa 04       		.byte	0x4
 15301 48ab 00401C46 		.4byte	0x461c4000
 15302 48af 32       		.uleb128 0x32
 15303 48b0 01       		.uleb128 0x1
 15304 48b1 51       		.byte	0x51
 15305 48b2 02       		.uleb128 0x2
 15306 48b3 91       		.byte	0x91
 15307 48b4 64       		.sleb128 -28
 15308 48b5 00       		.byte	0
 15309 48b6 3C       		.uleb128 0x3c
 15310 48b7 040A0000 		.4byte	.LVL162
 15311 48bb 794B0000 		.4byte	0x4b79
 15312 48bf DC480000 		.4byte	0x48dc
 15313 48c3 32       		.uleb128 0x32
 15314 48c4 01       		.uleb128 0x1
 15315 48c5 50       		.byte	0x50
 15316 48c6 02       		.uleb128 0x2
 15317 48c7 74       		.byte	0x74
 15318 48c8 00       		.sleb128 0
 15319 48c9 32       		.uleb128 0x32
 15320 48ca 02       		.uleb128 0x2
 15321 48cb 90       		.byte	0x90
 15322 48cc 40       		.uleb128 0x40
 15323 48cd 07       		.uleb128 0x7
 15324 48ce F4       		.byte	0xf4
 15325 48cf 25       		.uleb128 0x25
 15326 48d0 04       		.byte	0x4
 15327 48d1 00401C46 		.4byte	0x461c4000
 15328 48d5 32       		.uleb128 0x32
 15329 48d6 01       		.uleb128 0x1
 15330 48d7 51       		.byte	0x51
 15331 48d8 02       		.uleb128 0x2
 15332 48d9 91       		.byte	0x91
 15333 48da 64       		.sleb128 -28
 15334 48db 00       		.byte	0
 15335 48dc 3C       		.uleb128 0x3c
 15336 48dd 100A0000 		.4byte	.LVL163
 15337 48e1 A54B0000 		.4byte	0x4ba5
 15338 48e5 F6480000 		.4byte	0x48f6
 15339 48e9 32       		.uleb128 0x32
 15340 48ea 01       		.uleb128 0x1
 15341 48eb 50       		.byte	0x50
 15342 48ec 02       		.uleb128 0x2
 15343 48ed 74       		.byte	0x74
 15344 48ee 00       		.sleb128 0
ARM GAS  /tmp/cczXzW7i.s 			page 271


 15345 48ef 32       		.uleb128 0x32
 15346 48f0 01       		.uleb128 0x1
 15347 48f1 51       		.byte	0x51
 15348 48f2 02       		.uleb128 0x2
 15349 48f3 91       		.byte	0x91
 15350 48f4 64       		.sleb128 -28
 15351 48f5 00       		.byte	0
 15352 48f6 3C       		.uleb128 0x3c
 15353 48f7 1A0A0000 		.4byte	.LVL164
 15354 48fb A54B0000 		.4byte	0x4ba5
 15355 48ff 10490000 		.4byte	0x4910
 15356 4903 32       		.uleb128 0x32
 15357 4904 01       		.uleb128 0x1
 15358 4905 50       		.byte	0x50
 15359 4906 02       		.uleb128 0x2
 15360 4907 74       		.byte	0x74
 15361 4908 00       		.sleb128 0
 15362 4909 32       		.uleb128 0x32
 15363 490a 01       		.uleb128 0x1
 15364 490b 51       		.byte	0x51
 15365 490c 02       		.uleb128 0x2
 15366 490d 91       		.byte	0x91
 15367 490e 64       		.sleb128 -28
 15368 490f 00       		.byte	0
 15369 4910 41       		.uleb128 0x41
 15370 4911 480A0000 		.4byte	.LVL165
 15371 4915 20490000 		.4byte	0x4920
 15372 4919 32       		.uleb128 0x32
 15373 491a 01       		.uleb128 0x1
 15374 491b 50       		.byte	0x50
 15375 491c 02       		.uleb128 0x2
 15376 491d 75       		.byte	0x75
 15377 491e 00       		.sleb128 0
 15378 491f 00       		.byte	0
 15379 4920 3C       		.uleb128 0x3c
 15380 4921 5A0A0000 		.4byte	.LVL167
 15381 4925 794B0000 		.4byte	0x4b79
 15382 4929 46490000 		.4byte	0x4946
 15383 492d 32       		.uleb128 0x32
 15384 492e 01       		.uleb128 0x1
 15385 492f 50       		.byte	0x50
 15386 4930 02       		.uleb128 0x2
 15387 4931 74       		.byte	0x74
 15388 4932 00       		.sleb128 0
 15389 4933 32       		.uleb128 0x32
 15390 4934 02       		.uleb128 0x2
 15391 4935 90       		.byte	0x90
 15392 4936 40       		.uleb128 0x40
 15393 4937 07       		.uleb128 0x7
 15394 4938 F4       		.byte	0xf4
 15395 4939 25       		.uleb128 0x25
 15396 493a 04       		.byte	0x4
 15397 493b 00007A44 		.4byte	0x447a0000
 15398 493f 32       		.uleb128 0x32
 15399 4940 01       		.uleb128 0x1
 15400 4941 51       		.byte	0x51
 15401 4942 02       		.uleb128 0x2
ARM GAS  /tmp/cczXzW7i.s 			page 272


 15402 4943 91       		.byte	0x91
 15403 4944 64       		.sleb128 -28
 15404 4945 00       		.byte	0
 15405 4946 3C       		.uleb128 0x3c
 15406 4947 6C0A0000 		.4byte	.LVL168
 15407 494b 794B0000 		.4byte	0x4b79
 15408 494f 6C490000 		.4byte	0x496c
 15409 4953 32       		.uleb128 0x32
 15410 4954 01       		.uleb128 0x1
 15411 4955 50       		.byte	0x50
 15412 4956 02       		.uleb128 0x2
 15413 4957 74       		.byte	0x74
 15414 4958 00       		.sleb128 0
 15415 4959 32       		.uleb128 0x32
 15416 495a 02       		.uleb128 0x2
 15417 495b 90       		.byte	0x90
 15418 495c 40       		.uleb128 0x40
 15419 495d 07       		.uleb128 0x7
 15420 495e F4       		.byte	0xf4
 15421 495f 25       		.uleb128 0x25
 15422 4960 04       		.byte	0x4
 15423 4961 00007A44 		.4byte	0x447a0000
 15424 4965 32       		.uleb128 0x32
 15425 4966 01       		.uleb128 0x1
 15426 4967 51       		.byte	0x51
 15427 4968 02       		.uleb128 0x2
 15428 4969 91       		.byte	0x91
 15429 496a 64       		.sleb128 -28
 15430 496b 00       		.byte	0
 15431 496c 41       		.uleb128 0x41
 15432 496d A40A0000 		.4byte	.LVL171
 15433 4971 7F490000 		.4byte	0x497f
 15434 4975 32       		.uleb128 0x32
 15435 4976 01       		.uleb128 0x1
 15436 4977 50       		.byte	0x50
 15437 4978 05       		.uleb128 0x5
 15438 4979 03       		.byte	0x3
 15439 497a 00000000 		.4byte	.LANCHOR11
 15440 497e 00       		.byte	0
 15441 497f 3C       		.uleb128 0x3c
 15442 4980 B60A0000 		.4byte	.LVL173
 15443 4984 794B0000 		.4byte	0x4b79
 15444 4988 A5490000 		.4byte	0x49a5
 15445 498c 32       		.uleb128 0x32
 15446 498d 01       		.uleb128 0x1
 15447 498e 50       		.byte	0x50
 15448 498f 02       		.uleb128 0x2
 15449 4990 74       		.byte	0x74
 15450 4991 00       		.sleb128 0
 15451 4992 32       		.uleb128 0x32
 15452 4993 02       		.uleb128 0x2
 15453 4994 90       		.byte	0x90
 15454 4995 40       		.uleb128 0x40
 15455 4996 07       		.uleb128 0x7
 15456 4997 F4       		.byte	0xf4
 15457 4998 25       		.uleb128 0x25
 15458 4999 04       		.byte	0x4
ARM GAS  /tmp/cczXzW7i.s 			page 273


 15459 499a 00247449 		.4byte	0x49742400
 15460 499e 32       		.uleb128 0x32
 15461 499f 01       		.uleb128 0x1
 15462 49a0 51       		.byte	0x51
 15463 49a1 02       		.uleb128 0x2
 15464 49a2 91       		.byte	0x91
 15465 49a3 64       		.sleb128 -28
 15466 49a4 00       		.byte	0
 15467 49a5 3C       		.uleb128 0x3c
 15468 49a6 C60A0000 		.4byte	.LVL174
 15469 49aa 794B0000 		.4byte	0x4b79
 15470 49ae CB490000 		.4byte	0x49cb
 15471 49b2 32       		.uleb128 0x32
 15472 49b3 01       		.uleb128 0x1
 15473 49b4 50       		.byte	0x50
 15474 49b5 02       		.uleb128 0x2
 15475 49b6 74       		.byte	0x74
 15476 49b7 00       		.sleb128 0
 15477 49b8 32       		.uleb128 0x32
 15478 49b9 02       		.uleb128 0x2
 15479 49ba 90       		.byte	0x90
 15480 49bb 40       		.uleb128 0x40
 15481 49bc 07       		.uleb128 0x7
 15482 49bd F4       		.byte	0xf4
 15483 49be 25       		.uleb128 0x25
 15484 49bf 04       		.byte	0x4
 15485 49c0 00247449 		.4byte	0x49742400
 15486 49c4 32       		.uleb128 0x32
 15487 49c5 01       		.uleb128 0x1
 15488 49c6 51       		.byte	0x51
 15489 49c7 02       		.uleb128 0x2
 15490 49c8 91       		.byte	0x91
 15491 49c9 64       		.sleb128 -28
 15492 49ca 00       		.byte	0
 15493 49cb 3B       		.uleb128 0x3b
 15494 49cc E40A0000 		.4byte	.LVL176
 15495 49d0 794B0000 		.4byte	0x4b79
 15496 49d4 32       		.uleb128 0x32
 15497 49d5 01       		.uleb128 0x1
 15498 49d6 50       		.byte	0x50
 15499 49d7 02       		.uleb128 0x2
 15500 49d8 74       		.byte	0x74
 15501 49d9 00       		.sleb128 0
 15502 49da 32       		.uleb128 0x32
 15503 49db 02       		.uleb128 0x2
 15504 49dc 90       		.byte	0x90
 15505 49dd 40       		.uleb128 0x40
 15506 49de 07       		.uleb128 0x7
 15507 49df F4       		.byte	0xf4
 15508 49e0 25       		.uleb128 0x25
 15509 49e1 04       		.byte	0x4
 15510 49e2 00247449 		.4byte	0x49742400
 15511 49e6 32       		.uleb128 0x32
 15512 49e7 01       		.uleb128 0x1
 15513 49e8 51       		.byte	0x51
 15514 49e9 02       		.uleb128 0x2
 15515 49ea 91       		.byte	0x91
ARM GAS  /tmp/cczXzW7i.s 			page 274


 15516 49eb 64       		.sleb128 -28
 15517 49ec 00       		.byte	0
 15518 49ed 00       		.byte	0
 15519 49ee 4A       		.uleb128 0x4a
 15520 49ef 96140000 		.4byte	.LASF649
 15521 49f3 01       		.byte	0x1
 15522 49f4 5C       		.byte	0x5c
 15523 49f5 01       		.byte	0x1
 15524 49f6 114A0000 		.4byte	0x4a11
 15525 49fa 4B       		.uleb128 0x4b
 15526 49fb 8E1F0000 		.4byte	.LASF605
 15527 49ff 01       		.byte	0x1
 15528 4a00 5C       		.byte	0x5c
 15529 4a01 2B1A0000 		.4byte	0x1a2b
 15530 4a05 4C       		.uleb128 0x4c
 15531 4a06 6C656E00 		.ascii	"len\000"
 15532 4a0a 01       		.byte	0x1
 15533 4a0b 5C       		.byte	0x5c
 15534 4a0c B2000000 		.4byte	0xb2
 15535 4a10 00       		.byte	0
 15536 4a11 4D       		.uleb128 0x4d
 15537 4a12 22000000 		.4byte	.LASF650
 15538 4a16 01       		.byte	0x1
 15539 4a17 4F       		.byte	0x4f
 15540 4a18 00000000 		.4byte	.LFB230
 15541 4a1c 0C000000 		.4byte	.LFE230-.LFB230
 15542 4a20 01       		.uleb128 0x1
 15543 4a21 9C       		.byte	0x9c
 15544 4a22 344A0000 		.4byte	0x4a34
 15545 4a26 4E       		.uleb128 0x4e
 15546 4a27 02170000 		.4byte	.LASF633
 15547 4a2b 01       		.byte	0x1
 15548 4a2c 4F       		.byte	0x4f
 15549 4a2d EA200000 		.4byte	0x20ea
 15550 4a31 01       		.uleb128 0x1
 15551 4a32 50       		.byte	0x50
 15552 4a33 00       		.byte	0
 15553 4a34 4D       		.uleb128 0x4d
 15554 4a35 E10F0000 		.4byte	.LASF651
 15555 4a39 01       		.byte	0x1
 15556 4a3a 4B       		.byte	0x4b
 15557 4a3b 00000000 		.4byte	.LFB229
 15558 4a3f 0C000000 		.4byte	.LFE229-.LFB229
 15559 4a43 01       		.uleb128 0x1
 15560 4a44 9C       		.byte	0x9c
 15561 4a45 574A0000 		.4byte	0x4a57
 15562 4a49 4E       		.uleb128 0x4e
 15563 4a4a 02170000 		.4byte	.LASF633
 15564 4a4e 01       		.byte	0x1
 15565 4a4f 4B       		.byte	0x4b
 15566 4a50 EA200000 		.4byte	0x20ea
 15567 4a54 01       		.uleb128 0x1
 15568 4a55 50       		.byte	0x50
 15569 4a56 00       		.byte	0
 15570 4a57 4F       		.uleb128 0x4f
 15571 4a58 B8220000 		.4byte	0x22b8
 15572 4a5c 00000000 		.4byte	.LFB270
ARM GAS  /tmp/cczXzW7i.s 			page 275


 15573 4a60 10000000 		.4byte	.LFE270-.LFB270
 15574 4a64 01       		.uleb128 0x1
 15575 4a65 9C       		.byte	0x9c
 15576 4a66 B44A0000 		.4byte	0x4ab4
 15577 4a6a 3A       		.uleb128 0x3a
 15578 4a6b C5220000 		.4byte	0x22c5
 15579 4a6f A2070000 		.4byte	.LLST0
 15580 4a73 3A       		.uleb128 0x3a
 15581 4a74 D1220000 		.4byte	0x22d1
 15582 4a78 CE070000 		.4byte	.LLST1
 15583 4a7c 50       		.uleb128 0x50
 15584 4a7d EE490000 		.4byte	0x49ee
 15585 4a81 00000000 		.4byte	.LBB46
 15586 4a85 08000000 		.4byte	.LBE46-.LBB46
 15587 4a89 01       		.byte	0x1
 15588 4a8a 8D03     		.2byte	0x38d
 15589 4a8c 3A       		.uleb128 0x3a
 15590 4a8d 054A0000 		.4byte	0x4a05
 15591 4a91 FA070000 		.4byte	.LLST2
 15592 4a95 3A       		.uleb128 0x3a
 15593 4a96 FA490000 		.4byte	0x49fa
 15594 4a9a 26080000 		.4byte	.LLST3
 15595 4a9e 31       		.uleb128 0x31
 15596 4a9f 08000000 		.4byte	.LVL1
 15597 4aa3 32       		.uleb128 0x32
 15598 4aa4 01       		.uleb128 0x1
 15599 4aa5 50       		.byte	0x50
 15600 4aa6 03       		.uleb128 0x3
 15601 4aa7 F3       		.byte	0xf3
 15602 4aa8 01       		.uleb128 0x1
 15603 4aa9 50       		.byte	0x50
 15604 4aaa 32       		.uleb128 0x32
 15605 4aab 01       		.uleb128 0x1
 15606 4aac 51       		.byte	0x51
 15607 4aad 03       		.uleb128 0x3
 15608 4aae F3       		.byte	0xf3
 15609 4aaf 01       		.uleb128 0x1
 15610 4ab0 51       		.byte	0x51
 15611 4ab1 00       		.byte	0
 15612 4ab2 00       		.byte	0
 15613 4ab3 00       		.byte	0
 15614 4ab4 4F       		.uleb128 0x4f
 15615 4ab5 EE490000 		.4byte	0x49ee
 15616 4ab9 00000000 		.4byte	.LFB231
 15617 4abd 10000000 		.4byte	.LFE231-.LFB231
 15618 4ac1 01       		.uleb128 0x1
 15619 4ac2 9C       		.byte	0x9c
 15620 4ac3 EE4A0000 		.4byte	0x4aee
 15621 4ac7 3A       		.uleb128 0x3a
 15622 4ac8 FA490000 		.4byte	0x49fa
 15623 4acc 52080000 		.4byte	.LLST4
 15624 4ad0 3A       		.uleb128 0x3a
 15625 4ad1 054A0000 		.4byte	0x4a05
 15626 4ad5 7E080000 		.4byte	.LLST5
 15627 4ad9 31       		.uleb128 0x31
 15628 4ada 08000000 		.4byte	.LVL5
 15629 4ade 32       		.uleb128 0x32
ARM GAS  /tmp/cczXzW7i.s 			page 276


 15630 4adf 01       		.uleb128 0x1
 15631 4ae0 50       		.byte	0x50
 15632 4ae1 03       		.uleb128 0x3
 15633 4ae2 F3       		.byte	0xf3
 15634 4ae3 01       		.uleb128 0x1
 15635 4ae4 50       		.byte	0x50
 15636 4ae5 32       		.uleb128 0x32
 15637 4ae6 01       		.uleb128 0x1
 15638 4ae7 51       		.byte	0x51
 15639 4ae8 03       		.uleb128 0x3
 15640 4ae9 F3       		.byte	0xf3
 15641 4aea 01       		.uleb128 0x1
 15642 4aeb 51       		.byte	0x51
 15643 4aec 00       		.byte	0
 15644 4aed 00       		.byte	0
 15645 4aee 4F       		.uleb128 0x4f
 15646 4aef B8220000 		.4byte	0x22b8
 15647 4af3 00000000 		.4byte	.LFB269
 15648 4af7 10000000 		.4byte	.LFE269-.LFB269
 15649 4afb 01       		.uleb128 0x1
 15650 4afc 9C       		.byte	0x9c
 15651 4afd 1D4B0000 		.4byte	0x4b1d
 15652 4b01 3A       		.uleb128 0x3a
 15653 4b02 C5220000 		.4byte	0x22c5
 15654 4b06 AA080000 		.4byte	.LLST47
 15655 4b0a 3A       		.uleb128 0x3a
 15656 4b0b D1220000 		.4byte	0x22d1
 15657 4b0f CB080000 		.4byte	.LLST48
 15658 4b13 51       		.uleb128 0x51
 15659 4b14 0C000000 		.4byte	.LVL399
 15660 4b18 574A0000 		.4byte	0x4a57
 15661 4b1c 00       		.byte	0
 15662 4b1d 52       		.uleb128 0x52
 15663 4b1e 50110000 		.4byte	.LASF652
 15664 4b22 50110000 		.4byte	.LASF652
 15665 4b26 14       		.byte	0x14
 15666 4b27 1E       		.byte	0x1e
 15667 4b28 52       		.uleb128 0x52
 15668 4b29 E6100000 		.4byte	.LASF653
 15669 4b2d E6100000 		.4byte	.LASF653
 15670 4b31 14       		.byte	0x14
 15671 4b32 1A       		.byte	0x1a
 15672 4b33 52       		.uleb128 0x52
 15673 4b34 1A200000 		.4byte	.LASF654
 15674 4b38 1A200000 		.4byte	.LASF654
 15675 4b3c 14       		.byte	0x14
 15676 4b3d 20       		.byte	0x20
 15677 4b3e 52       		.uleb128 0x52
 15678 4b3f 040F0000 		.4byte	.LASF655
 15679 4b43 040F0000 		.4byte	.LASF655
 15680 4b47 14       		.byte	0x14
 15681 4b48 18       		.byte	0x18
 15682 4b49 52       		.uleb128 0x52
 15683 4b4a B21B0000 		.4byte	.LASF656
 15684 4b4e B21B0000 		.4byte	.LASF656
 15685 4b52 14       		.byte	0x14
 15686 4b53 19       		.byte	0x19
ARM GAS  /tmp/cczXzW7i.s 			page 277


 15687 4b54 52       		.uleb128 0x52
 15688 4b55 89150000 		.4byte	.LASF657
 15689 4b59 89150000 		.4byte	.LASF657
 15690 4b5d 14       		.byte	0x14
 15691 4b5e 1D       		.byte	0x1d
 15692 4b5f 52       		.uleb128 0x52
 15693 4b60 C61B0000 		.4byte	.LASF658
 15694 4b64 C61B0000 		.4byte	.LASF658
 15695 4b68 15       		.byte	0x15
 15696 4b69 29       		.byte	0x29
 15697 4b6a 53       		.uleb128 0x53
 15698 4b6b 64060000 		.4byte	.LASF670
 15699 4b6f CA1E0000 		.4byte	.LASF671
 15700 4b73 16       		.byte	0x16
 15701 4b74 00       		.byte	0
 15702 4b75 64060000 		.4byte	.LASF670
 15703 4b79 52       		.uleb128 0x52
 15704 4b7a 881B0000 		.4byte	.LASF659
 15705 4b7e 881B0000 		.4byte	.LASF659
 15706 4b82 14       		.byte	0x14
 15707 4b83 28       		.byte	0x28
 15708 4b84 52       		.uleb128 0x52
 15709 4b85 931F0000 		.4byte	.LASF660
 15710 4b89 931F0000 		.4byte	.LASF660
 15711 4b8d 14       		.byte	0x14
 15712 4b8e 24       		.byte	0x24
 15713 4b8f 52       		.uleb128 0x52
 15714 4b90 0E120000 		.4byte	.LASF661
 15715 4b94 0E120000 		.4byte	.LASF661
 15716 4b98 14       		.byte	0x14
 15717 4b99 2A       		.byte	0x2a
 15718 4b9a 52       		.uleb128 0x52
 15719 4b9b F11D0000 		.4byte	.LASF662
 15720 4b9f F11D0000 		.4byte	.LASF662
 15721 4ba3 14       		.byte	0x14
 15722 4ba4 22       		.byte	0x22
 15723 4ba5 52       		.uleb128 0x52
 15724 4ba6 9F150000 		.4byte	.LASF663
 15725 4baa 9F150000 		.4byte	.LASF663
 15726 4bae 14       		.byte	0x14
 15727 4baf 23       		.byte	0x23
 15728 4bb0 52       		.uleb128 0x52
 15729 4bb1 B1240000 		.4byte	.LASF664
 15730 4bb5 B1240000 		.4byte	.LASF664
 15731 4bb9 14       		.byte	0x14
 15732 4bba 27       		.byte	0x27
 15733 4bbb 00       		.byte	0
 15734              		.section	.debug_abbrev,"",%progbits
 15735              	.Ldebug_abbrev0:
 15736 0000 01       		.uleb128 0x1
 15737 0001 11       		.uleb128 0x11
 15738 0002 01       		.byte	0x1
 15739 0003 25       		.uleb128 0x25
 15740 0004 0E       		.uleb128 0xe
 15741 0005 13       		.uleb128 0x13
 15742 0006 0B       		.uleb128 0xb
 15743 0007 03       		.uleb128 0x3
ARM GAS  /tmp/cczXzW7i.s 			page 278


 15744 0008 0E       		.uleb128 0xe
 15745 0009 1B       		.uleb128 0x1b
 15746 000a 0E       		.uleb128 0xe
 15747 000b 55       		.uleb128 0x55
 15748 000c 17       		.uleb128 0x17
 15749 000d 11       		.uleb128 0x11
 15750 000e 01       		.uleb128 0x1
 15751 000f 10       		.uleb128 0x10
 15752 0010 17       		.uleb128 0x17
 15753 0011 00       		.byte	0
 15754 0012 00       		.byte	0
 15755 0013 02       		.uleb128 0x2
 15756 0014 24       		.uleb128 0x24
 15757 0015 00       		.byte	0
 15758 0016 0B       		.uleb128 0xb
 15759 0017 0B       		.uleb128 0xb
 15760 0018 3E       		.uleb128 0x3e
 15761 0019 0B       		.uleb128 0xb
 15762 001a 03       		.uleb128 0x3
 15763 001b 0E       		.uleb128 0xe
 15764 001c 00       		.byte	0
 15765 001d 00       		.byte	0
 15766 001e 03       		.uleb128 0x3
 15767 001f 24       		.uleb128 0x24
 15768 0020 00       		.byte	0
 15769 0021 0B       		.uleb128 0xb
 15770 0022 0B       		.uleb128 0xb
 15771 0023 3E       		.uleb128 0x3e
 15772 0024 0B       		.uleb128 0xb
 15773 0025 03       		.uleb128 0x3
 15774 0026 08       		.uleb128 0x8
 15775 0027 00       		.byte	0
 15776 0028 00       		.byte	0
 15777 0029 04       		.uleb128 0x4
 15778 002a 16       		.uleb128 0x16
 15779 002b 00       		.byte	0
 15780 002c 03       		.uleb128 0x3
 15781 002d 0E       		.uleb128 0xe
 15782 002e 3A       		.uleb128 0x3a
 15783 002f 0B       		.uleb128 0xb
 15784 0030 3B       		.uleb128 0x3b
 15785 0031 0B       		.uleb128 0xb
 15786 0032 49       		.uleb128 0x49
 15787 0033 13       		.uleb128 0x13
 15788 0034 00       		.byte	0
 15789 0035 00       		.byte	0
 15790 0036 05       		.uleb128 0x5
 15791 0037 26       		.uleb128 0x26
 15792 0038 00       		.byte	0
 15793 0039 49       		.uleb128 0x49
 15794 003a 13       		.uleb128 0x13
 15795 003b 00       		.byte	0
 15796 003c 00       		.byte	0
 15797 003d 06       		.uleb128 0x6
 15798 003e 35       		.uleb128 0x35
 15799 003f 00       		.byte	0
 15800 0040 49       		.uleb128 0x49
ARM GAS  /tmp/cczXzW7i.s 			page 279


 15801 0041 13       		.uleb128 0x13
 15802 0042 00       		.byte	0
 15803 0043 00       		.byte	0
 15804 0044 07       		.uleb128 0x7
 15805 0045 13       		.uleb128 0x13
 15806 0046 01       		.byte	0x1
 15807 0047 03       		.uleb128 0x3
 15808 0048 0E       		.uleb128 0xe
 15809 0049 0B       		.uleb128 0xb
 15810 004a 0B       		.uleb128 0xb
 15811 004b 3A       		.uleb128 0x3a
 15812 004c 0B       		.uleb128 0xb
 15813 004d 3B       		.uleb128 0x3b
 15814 004e 0B       		.uleb128 0xb
 15815 004f 01       		.uleb128 0x1
 15816 0050 13       		.uleb128 0x13
 15817 0051 00       		.byte	0
 15818 0052 00       		.byte	0
 15819 0053 08       		.uleb128 0x8
 15820 0054 0D       		.uleb128 0xd
 15821 0055 00       		.byte	0
 15822 0056 03       		.uleb128 0x3
 15823 0057 0E       		.uleb128 0xe
 15824 0058 3A       		.uleb128 0x3a
 15825 0059 0B       		.uleb128 0xb
 15826 005a 3B       		.uleb128 0x3b
 15827 005b 0B       		.uleb128 0xb
 15828 005c 49       		.uleb128 0x49
 15829 005d 13       		.uleb128 0x13
 15830 005e 38       		.uleb128 0x38
 15831 005f 0B       		.uleb128 0xb
 15832 0060 00       		.byte	0
 15833 0061 00       		.byte	0
 15834 0062 09       		.uleb128 0x9
 15835 0063 0D       		.uleb128 0xd
 15836 0064 00       		.byte	0
 15837 0065 03       		.uleb128 0x3
 15838 0066 08       		.uleb128 0x8
 15839 0067 3A       		.uleb128 0x3a
 15840 0068 0B       		.uleb128 0xb
 15841 0069 3B       		.uleb128 0x3b
 15842 006a 05       		.uleb128 0x5
 15843 006b 49       		.uleb128 0x49
 15844 006c 13       		.uleb128 0x13
 15845 006d 38       		.uleb128 0x38
 15846 006e 0B       		.uleb128 0xb
 15847 006f 00       		.byte	0
 15848 0070 00       		.byte	0
 15849 0071 0A       		.uleb128 0xa
 15850 0072 0D       		.uleb128 0xd
 15851 0073 00       		.byte	0
 15852 0074 03       		.uleb128 0x3
 15853 0075 0E       		.uleb128 0xe
 15854 0076 3A       		.uleb128 0x3a
 15855 0077 0B       		.uleb128 0xb
 15856 0078 3B       		.uleb128 0x3b
 15857 0079 05       		.uleb128 0x5
ARM GAS  /tmp/cczXzW7i.s 			page 280


 15858 007a 49       		.uleb128 0x49
 15859 007b 13       		.uleb128 0x13
 15860 007c 38       		.uleb128 0x38
 15861 007d 0B       		.uleb128 0xb
 15862 007e 00       		.byte	0
 15863 007f 00       		.byte	0
 15864 0080 0B       		.uleb128 0xb
 15865 0081 0F       		.uleb128 0xf
 15866 0082 00       		.byte	0
 15867 0083 0B       		.uleb128 0xb
 15868 0084 0B       		.uleb128 0xb
 15869 0085 49       		.uleb128 0x49
 15870 0086 13       		.uleb128 0x13
 15871 0087 00       		.byte	0
 15872 0088 00       		.byte	0
 15873 0089 0C       		.uleb128 0xc
 15874 008a 13       		.uleb128 0x13
 15875 008b 01       		.byte	0x1
 15876 008c 03       		.uleb128 0x3
 15877 008d 0E       		.uleb128 0xe
 15878 008e 0B       		.uleb128 0xb
 15879 008f 0B       		.uleb128 0xb
 15880 0090 3A       		.uleb128 0x3a
 15881 0091 0B       		.uleb128 0xb
 15882 0092 3B       		.uleb128 0x3b
 15883 0093 05       		.uleb128 0x5
 15884 0094 01       		.uleb128 0x1
 15885 0095 13       		.uleb128 0x13
 15886 0096 00       		.byte	0
 15887 0097 00       		.byte	0
 15888 0098 0D       		.uleb128 0xd
 15889 0099 15       		.uleb128 0x15
 15890 009a 01       		.byte	0x1
 15891 009b 27       		.uleb128 0x27
 15892 009c 19       		.uleb128 0x19
 15893 009d 01       		.uleb128 0x1
 15894 009e 13       		.uleb128 0x13
 15895 009f 00       		.byte	0
 15896 00a0 00       		.byte	0
 15897 00a1 0E       		.uleb128 0xe
 15898 00a2 05       		.uleb128 0x5
 15899 00a3 00       		.byte	0
 15900 00a4 49       		.uleb128 0x49
 15901 00a5 13       		.uleb128 0x13
 15902 00a6 00       		.byte	0
 15903 00a7 00       		.byte	0
 15904 00a8 0F       		.uleb128 0xf
 15905 00a9 0F       		.uleb128 0xf
 15906 00aa 00       		.byte	0
 15907 00ab 0B       		.uleb128 0xb
 15908 00ac 0B       		.uleb128 0xb
 15909 00ad 00       		.byte	0
 15910 00ae 00       		.byte	0
 15911 00af 10       		.uleb128 0x10
 15912 00b0 13       		.uleb128 0x13
 15913 00b1 01       		.byte	0x1
 15914 00b2 03       		.uleb128 0x3
ARM GAS  /tmp/cczXzW7i.s 			page 281


 15915 00b3 0E       		.uleb128 0xe
 15916 00b4 0B       		.uleb128 0xb
 15917 00b5 05       		.uleb128 0x5
 15918 00b6 3A       		.uleb128 0x3a
 15919 00b7 0B       		.uleb128 0xb
 15920 00b8 3B       		.uleb128 0x3b
 15921 00b9 05       		.uleb128 0x5
 15922 00ba 01       		.uleb128 0x1
 15923 00bb 13       		.uleb128 0x13
 15924 00bc 00       		.byte	0
 15925 00bd 00       		.byte	0
 15926 00be 11       		.uleb128 0x11
 15927 00bf 34       		.uleb128 0x34
 15928 00c0 00       		.byte	0
 15929 00c1 03       		.uleb128 0x3
 15930 00c2 0E       		.uleb128 0xe
 15931 00c3 3A       		.uleb128 0x3a
 15932 00c4 0B       		.uleb128 0xb
 15933 00c5 3B       		.uleb128 0x3b
 15934 00c6 05       		.uleb128 0x5
 15935 00c7 49       		.uleb128 0x49
 15936 00c8 13       		.uleb128 0x13
 15937 00c9 3F       		.uleb128 0x3f
 15938 00ca 19       		.uleb128 0x19
 15939 00cb 3C       		.uleb128 0x3c
 15940 00cc 19       		.uleb128 0x19
 15941 00cd 00       		.byte	0
 15942 00ce 00       		.byte	0
 15943 00cf 12       		.uleb128 0x12
 15944 00d0 34       		.uleb128 0x34
 15945 00d1 00       		.byte	0
 15946 00d2 03       		.uleb128 0x3
 15947 00d3 0E       		.uleb128 0xe
 15948 00d4 3A       		.uleb128 0x3a
 15949 00d5 0B       		.uleb128 0xb
 15950 00d6 3B       		.uleb128 0x3b
 15951 00d7 0B       		.uleb128 0xb
 15952 00d8 49       		.uleb128 0x49
 15953 00d9 13       		.uleb128 0x13
 15954 00da 3F       		.uleb128 0x3f
 15955 00db 19       		.uleb128 0x19
 15956 00dc 3C       		.uleb128 0x3c
 15957 00dd 19       		.uleb128 0x19
 15958 00de 00       		.byte	0
 15959 00df 00       		.byte	0
 15960 00e0 13       		.uleb128 0x13
 15961 00e1 0D       		.uleb128 0xd
 15962 00e2 00       		.byte	0
 15963 00e3 03       		.uleb128 0x3
 15964 00e4 08       		.uleb128 0x8
 15965 00e5 3A       		.uleb128 0x3a
 15966 00e6 0B       		.uleb128 0xb
 15967 00e7 3B       		.uleb128 0x3b
 15968 00e8 0B       		.uleb128 0xb
 15969 00e9 49       		.uleb128 0x49
 15970 00ea 13       		.uleb128 0x13
 15971 00eb 38       		.uleb128 0x38
ARM GAS  /tmp/cczXzW7i.s 			page 282


 15972 00ec 0B       		.uleb128 0xb
 15973 00ed 00       		.byte	0
 15974 00ee 00       		.byte	0
 15975 00ef 14       		.uleb128 0x14
 15976 00f0 13       		.uleb128 0x13
 15977 00f1 01       		.byte	0x1
 15978 00f2 0B       		.uleb128 0xb
 15979 00f3 0B       		.uleb128 0xb
 15980 00f4 3A       		.uleb128 0x3a
 15981 00f5 0B       		.uleb128 0xb
 15982 00f6 3B       		.uleb128 0x3b
 15983 00f7 0B       		.uleb128 0xb
 15984 00f8 01       		.uleb128 0x1
 15985 00f9 13       		.uleb128 0x13
 15986 00fa 00       		.byte	0
 15987 00fb 00       		.byte	0
 15988 00fc 15       		.uleb128 0x15
 15989 00fd 17       		.uleb128 0x17
 15990 00fe 01       		.byte	0x1
 15991 00ff 0B       		.uleb128 0xb
 15992 0100 0B       		.uleb128 0xb
 15993 0101 3A       		.uleb128 0x3a
 15994 0102 0B       		.uleb128 0xb
 15995 0103 3B       		.uleb128 0x3b
 15996 0104 0B       		.uleb128 0xb
 15997 0105 01       		.uleb128 0x1
 15998 0106 13       		.uleb128 0x13
 15999 0107 00       		.byte	0
 16000 0108 00       		.byte	0
 16001 0109 16       		.uleb128 0x16
 16002 010a 0D       		.uleb128 0xd
 16003 010b 00       		.byte	0
 16004 010c 03       		.uleb128 0x3
 16005 010d 0E       		.uleb128 0xe
 16006 010e 3A       		.uleb128 0x3a
 16007 010f 0B       		.uleb128 0xb
 16008 0110 3B       		.uleb128 0x3b
 16009 0111 05       		.uleb128 0x5
 16010 0112 49       		.uleb128 0x49
 16011 0113 13       		.uleb128 0x13
 16012 0114 00       		.byte	0
 16013 0115 00       		.byte	0
 16014 0116 17       		.uleb128 0x17
 16015 0117 01       		.uleb128 0x1
 16016 0118 01       		.byte	0x1
 16017 0119 49       		.uleb128 0x49
 16018 011a 13       		.uleb128 0x13
 16019 011b 01       		.uleb128 0x1
 16020 011c 13       		.uleb128 0x13
 16021 011d 00       		.byte	0
 16022 011e 00       		.byte	0
 16023 011f 18       		.uleb128 0x18
 16024 0120 21       		.uleb128 0x21
 16025 0121 00       		.byte	0
 16026 0122 49       		.uleb128 0x49
 16027 0123 13       		.uleb128 0x13
 16028 0124 2F       		.uleb128 0x2f
ARM GAS  /tmp/cczXzW7i.s 			page 283


 16029 0125 0B       		.uleb128 0xb
 16030 0126 00       		.byte	0
 16031 0127 00       		.byte	0
 16032 0128 19       		.uleb128 0x19
 16033 0129 34       		.uleb128 0x34
 16034 012a 00       		.byte	0
 16035 012b 03       		.uleb128 0x3
 16036 012c 08       		.uleb128 0x8
 16037 012d 3A       		.uleb128 0x3a
 16038 012e 0B       		.uleb128 0xb
 16039 012f 3B       		.uleb128 0x3b
 16040 0130 05       		.uleb128 0x5
 16041 0131 49       		.uleb128 0x49
 16042 0132 13       		.uleb128 0x13
 16043 0133 3F       		.uleb128 0x3f
 16044 0134 19       		.uleb128 0x19
 16045 0135 3C       		.uleb128 0x3c
 16046 0136 19       		.uleb128 0x19
 16047 0137 00       		.byte	0
 16048 0138 00       		.byte	0
 16049 0139 1A       		.uleb128 0x1a
 16050 013a 04       		.uleb128 0x4
 16051 013b 01       		.byte	0x1
 16052 013c 3E       		.uleb128 0x3e
 16053 013d 0B       		.uleb128 0xb
 16054 013e 0B       		.uleb128 0xb
 16055 013f 0B       		.uleb128 0xb
 16056 0140 49       		.uleb128 0x49
 16057 0141 13       		.uleb128 0x13
 16058 0142 3A       		.uleb128 0x3a
 16059 0143 0B       		.uleb128 0xb
 16060 0144 3B       		.uleb128 0x3b
 16061 0145 0B       		.uleb128 0xb
 16062 0146 01       		.uleb128 0x1
 16063 0147 13       		.uleb128 0x13
 16064 0148 00       		.byte	0
 16065 0149 00       		.byte	0
 16066 014a 1B       		.uleb128 0x1b
 16067 014b 28       		.uleb128 0x28
 16068 014c 00       		.byte	0
 16069 014d 03       		.uleb128 0x3
 16070 014e 0E       		.uleb128 0xe
 16071 014f 1C       		.uleb128 0x1c
 16072 0150 0B       		.uleb128 0xb
 16073 0151 00       		.byte	0
 16074 0152 00       		.byte	0
 16075 0153 1C       		.uleb128 0x1c
 16076 0154 13       		.uleb128 0x13
 16077 0155 01       		.byte	0x1
 16078 0156 0B       		.uleb128 0xb
 16079 0157 05       		.uleb128 0x5
 16080 0158 3A       		.uleb128 0x3a
 16081 0159 0B       		.uleb128 0xb
 16082 015a 3B       		.uleb128 0x3b
 16083 015b 0B       		.uleb128 0xb
 16084 015c 01       		.uleb128 0x1
 16085 015d 13       		.uleb128 0x13
ARM GAS  /tmp/cczXzW7i.s 			page 284


 16086 015e 00       		.byte	0
 16087 015f 00       		.byte	0
 16088 0160 1D       		.uleb128 0x1d
 16089 0161 0D       		.uleb128 0xd
 16090 0162 00       		.byte	0
 16091 0163 03       		.uleb128 0x3
 16092 0164 0E       		.uleb128 0xe
 16093 0165 3A       		.uleb128 0x3a
 16094 0166 0B       		.uleb128 0xb
 16095 0167 3B       		.uleb128 0x3b
 16096 0168 0B       		.uleb128 0xb
 16097 0169 49       		.uleb128 0x49
 16098 016a 13       		.uleb128 0x13
 16099 016b 38       		.uleb128 0x38
 16100 016c 05       		.uleb128 0x5
 16101 016d 00       		.byte	0
 16102 016e 00       		.byte	0
 16103 016f 1E       		.uleb128 0x1e
 16104 0170 04       		.uleb128 0x4
 16105 0171 01       		.byte	0x1
 16106 0172 3E       		.uleb128 0x3e
 16107 0173 0B       		.uleb128 0xb
 16108 0174 0B       		.uleb128 0xb
 16109 0175 0B       		.uleb128 0xb
 16110 0176 49       		.uleb128 0x49
 16111 0177 13       		.uleb128 0x13
 16112 0178 3A       		.uleb128 0x3a
 16113 0179 0B       		.uleb128 0xb
 16114 017a 3B       		.uleb128 0x3b
 16115 017b 05       		.uleb128 0x5
 16116 017c 01       		.uleb128 0x1
 16117 017d 13       		.uleb128 0x13
 16118 017e 00       		.byte	0
 16119 017f 00       		.byte	0
 16120 0180 1F       		.uleb128 0x1f
 16121 0181 16       		.uleb128 0x16
 16122 0182 00       		.byte	0
 16123 0183 03       		.uleb128 0x3
 16124 0184 0E       		.uleb128 0xe
 16125 0185 3A       		.uleb128 0x3a
 16126 0186 0B       		.uleb128 0xb
 16127 0187 3B       		.uleb128 0x3b
 16128 0188 05       		.uleb128 0x5
 16129 0189 49       		.uleb128 0x49
 16130 018a 13       		.uleb128 0x13
 16131 018b 00       		.byte	0
 16132 018c 00       		.byte	0
 16133 018d 20       		.uleb128 0x20
 16134 018e 13       		.uleb128 0x13
 16135 018f 01       		.byte	0x1
 16136 0190 0B       		.uleb128 0xb
 16137 0191 0B       		.uleb128 0xb
 16138 0192 3A       		.uleb128 0x3a
 16139 0193 0B       		.uleb128 0xb
 16140 0194 3B       		.uleb128 0x3b
 16141 0195 05       		.uleb128 0x5
 16142 0196 01       		.uleb128 0x1
ARM GAS  /tmp/cczXzW7i.s 			page 285


 16143 0197 13       		.uleb128 0x13
 16144 0198 00       		.byte	0
 16145 0199 00       		.byte	0
 16146 019a 21       		.uleb128 0x21
 16147 019b 13       		.uleb128 0x13
 16148 019c 00       		.byte	0
 16149 019d 03       		.uleb128 0x3
 16150 019e 0E       		.uleb128 0xe
 16151 019f 3C       		.uleb128 0x3c
 16152 01a0 19       		.uleb128 0x19
 16153 01a1 00       		.byte	0
 16154 01a2 00       		.byte	0
 16155 01a3 22       		.uleb128 0x22
 16156 01a4 0D       		.uleb128 0xd
 16157 01a5 00       		.byte	0
 16158 01a6 03       		.uleb128 0x3
 16159 01a7 0E       		.uleb128 0xe
 16160 01a8 3A       		.uleb128 0x3a
 16161 01a9 0B       		.uleb128 0xb
 16162 01aa 3B       		.uleb128 0x3b
 16163 01ab 0B       		.uleb128 0xb
 16164 01ac 49       		.uleb128 0x49
 16165 01ad 13       		.uleb128 0x13
 16166 01ae 00       		.byte	0
 16167 01af 00       		.byte	0
 16168 01b0 23       		.uleb128 0x23
 16169 01b1 13       		.uleb128 0x13
 16170 01b2 01       		.byte	0x1
 16171 01b3 03       		.uleb128 0x3
 16172 01b4 0E       		.uleb128 0xe
 16173 01b5 0B       		.uleb128 0xb
 16174 01b6 05       		.uleb128 0x5
 16175 01b7 3A       		.uleb128 0x3a
 16176 01b8 0B       		.uleb128 0xb
 16177 01b9 3B       		.uleb128 0x3b
 16178 01ba 0B       		.uleb128 0xb
 16179 01bb 01       		.uleb128 0x1
 16180 01bc 13       		.uleb128 0x13
 16181 01bd 00       		.byte	0
 16182 01be 00       		.byte	0
 16183 01bf 24       		.uleb128 0x24
 16184 01c0 15       		.uleb128 0x15
 16185 01c1 00       		.byte	0
 16186 01c2 27       		.uleb128 0x27
 16187 01c3 19       		.uleb128 0x19
 16188 01c4 00       		.byte	0
 16189 01c5 00       		.byte	0
 16190 01c6 25       		.uleb128 0x25
 16191 01c7 15       		.uleb128 0x15
 16192 01c8 01       		.byte	0x1
 16193 01c9 27       		.uleb128 0x27
 16194 01ca 19       		.uleb128 0x19
 16195 01cb 49       		.uleb128 0x49
 16196 01cc 13       		.uleb128 0x13
 16197 01cd 01       		.uleb128 0x1
 16198 01ce 13       		.uleb128 0x13
 16199 01cf 00       		.byte	0
ARM GAS  /tmp/cczXzW7i.s 			page 286


 16200 01d0 00       		.byte	0
 16201 01d1 26       		.uleb128 0x26
 16202 01d2 0D       		.uleb128 0xd
 16203 01d3 00       		.byte	0
 16204 01d4 03       		.uleb128 0x3
 16205 01d5 0E       		.uleb128 0xe
 16206 01d6 3A       		.uleb128 0x3a
 16207 01d7 0B       		.uleb128 0xb
 16208 01d8 3B       		.uleb128 0x3b
 16209 01d9 05       		.uleb128 0x5
 16210 01da 49       		.uleb128 0x49
 16211 01db 13       		.uleb128 0x13
 16212 01dc 38       		.uleb128 0x38
 16213 01dd 05       		.uleb128 0x5
 16214 01de 00       		.byte	0
 16215 01df 00       		.byte	0
 16216 01e0 27       		.uleb128 0x27
 16217 01e1 17       		.uleb128 0x17
 16218 01e2 01       		.byte	0x1
 16219 01e3 0B       		.uleb128 0xb
 16220 01e4 0B       		.uleb128 0xb
 16221 01e5 3A       		.uleb128 0x3a
 16222 01e6 0B       		.uleb128 0xb
 16223 01e7 3B       		.uleb128 0x3b
 16224 01e8 05       		.uleb128 0x5
 16225 01e9 01       		.uleb128 0x1
 16226 01ea 13       		.uleb128 0x13
 16227 01eb 00       		.byte	0
 16228 01ec 00       		.byte	0
 16229 01ed 28       		.uleb128 0x28
 16230 01ee 21       		.uleb128 0x21
 16231 01ef 00       		.byte	0
 16232 01f0 49       		.uleb128 0x49
 16233 01f1 13       		.uleb128 0x13
 16234 01f2 2F       		.uleb128 0x2f
 16235 01f3 05       		.uleb128 0x5
 16236 01f4 00       		.byte	0
 16237 01f5 00       		.byte	0
 16238 01f6 29       		.uleb128 0x29
 16239 01f7 34       		.uleb128 0x34
 16240 01f8 00       		.byte	0
 16241 01f9 03       		.uleb128 0x3
 16242 01fa 0E       		.uleb128 0xe
 16243 01fb 3A       		.uleb128 0x3a
 16244 01fc 0B       		.uleb128 0xb
 16245 01fd 3B       		.uleb128 0x3b
 16246 01fe 0B       		.uleb128 0xb
 16247 01ff 49       		.uleb128 0x49
 16248 0200 13       		.uleb128 0x13
 16249 0201 02       		.uleb128 0x2
 16250 0202 18       		.uleb128 0x18
 16251 0203 00       		.byte	0
 16252 0204 00       		.byte	0
 16253 0205 2A       		.uleb128 0x2a
 16254 0206 34       		.uleb128 0x34
 16255 0207 00       		.byte	0
 16256 0208 03       		.uleb128 0x3
ARM GAS  /tmp/cczXzW7i.s 			page 287


 16257 0209 0E       		.uleb128 0xe
 16258 020a 3A       		.uleb128 0x3a
 16259 020b 0B       		.uleb128 0xb
 16260 020c 3B       		.uleb128 0x3b
 16261 020d 0B       		.uleb128 0xb
 16262 020e 49       		.uleb128 0x49
 16263 020f 13       		.uleb128 0x13
 16264 0210 00       		.byte	0
 16265 0211 00       		.byte	0
 16266 0212 2B       		.uleb128 0x2b
 16267 0213 2E       		.uleb128 0x2e
 16268 0214 01       		.byte	0x1
 16269 0215 3F       		.uleb128 0x3f
 16270 0216 19       		.uleb128 0x19
 16271 0217 03       		.uleb128 0x3
 16272 0218 0E       		.uleb128 0xe
 16273 0219 3A       		.uleb128 0x3a
 16274 021a 0B       		.uleb128 0xb
 16275 021b 3B       		.uleb128 0x3b
 16276 021c 05       		.uleb128 0x5
 16277 021d 27       		.uleb128 0x27
 16278 021e 19       		.uleb128 0x19
 16279 021f 20       		.uleb128 0x20
 16280 0220 0B       		.uleb128 0xb
 16281 0221 01       		.uleb128 0x1
 16282 0222 13       		.uleb128 0x13
 16283 0223 00       		.byte	0
 16284 0224 00       		.byte	0
 16285 0225 2C       		.uleb128 0x2c
 16286 0226 05       		.uleb128 0x5
 16287 0227 00       		.byte	0
 16288 0228 03       		.uleb128 0x3
 16289 0229 0E       		.uleb128 0xe
 16290 022a 3A       		.uleb128 0x3a
 16291 022b 0B       		.uleb128 0xb
 16292 022c 3B       		.uleb128 0x3b
 16293 022d 05       		.uleb128 0x5
 16294 022e 49       		.uleb128 0x49
 16295 022f 13       		.uleb128 0x13
 16296 0230 00       		.byte	0
 16297 0231 00       		.byte	0
 16298 0232 2D       		.uleb128 0x2d
 16299 0233 05       		.uleb128 0x5
 16300 0234 00       		.byte	0
 16301 0235 03       		.uleb128 0x3
 16302 0236 08       		.uleb128 0x8
 16303 0237 3A       		.uleb128 0x3a
 16304 0238 0B       		.uleb128 0xb
 16305 0239 3B       		.uleb128 0x3b
 16306 023a 05       		.uleb128 0x5
 16307 023b 49       		.uleb128 0x49
 16308 023c 13       		.uleb128 0x13
 16309 023d 00       		.byte	0
 16310 023e 00       		.byte	0
 16311 023f 2E       		.uleb128 0x2e
 16312 0240 2E       		.uleb128 0x2e
 16313 0241 01       		.byte	0x1
ARM GAS  /tmp/cczXzW7i.s 			page 288


 16314 0242 3F       		.uleb128 0x3f
 16315 0243 19       		.uleb128 0x19
 16316 0244 03       		.uleb128 0x3
 16317 0245 0E       		.uleb128 0xe
 16318 0246 3A       		.uleb128 0x3a
 16319 0247 0B       		.uleb128 0xb
 16320 0248 3B       		.uleb128 0x3b
 16321 0249 05       		.uleb128 0x5
 16322 024a 27       		.uleb128 0x27
 16323 024b 19       		.uleb128 0x19
 16324 024c 49       		.uleb128 0x49
 16325 024d 13       		.uleb128 0x13
 16326 024e 11       		.uleb128 0x11
 16327 024f 01       		.uleb128 0x1
 16328 0250 12       		.uleb128 0x12
 16329 0251 06       		.uleb128 0x6
 16330 0252 40       		.uleb128 0x40
 16331 0253 18       		.uleb128 0x18
 16332 0254 9742     		.uleb128 0x2117
 16333 0256 19       		.uleb128 0x19
 16334 0257 01       		.uleb128 0x1
 16335 0258 13       		.uleb128 0x13
 16336 0259 00       		.byte	0
 16337 025a 00       		.byte	0
 16338 025b 2F       		.uleb128 0x2f
 16339 025c 05       		.uleb128 0x5
 16340 025d 00       		.byte	0
 16341 025e 03       		.uleb128 0x3
 16342 025f 0E       		.uleb128 0xe
 16343 0260 3A       		.uleb128 0x3a
 16344 0261 0B       		.uleb128 0xb
 16345 0262 3B       		.uleb128 0x3b
 16346 0263 05       		.uleb128 0x5
 16347 0264 49       		.uleb128 0x49
 16348 0265 13       		.uleb128 0x13
 16349 0266 02       		.uleb128 0x2
 16350 0267 17       		.uleb128 0x17
 16351 0268 00       		.byte	0
 16352 0269 00       		.byte	0
 16353 026a 30       		.uleb128 0x30
 16354 026b 2E       		.uleb128 0x2e
 16355 026c 01       		.byte	0x1
 16356 026d 3F       		.uleb128 0x3f
 16357 026e 19       		.uleb128 0x19
 16358 026f 03       		.uleb128 0x3
 16359 0270 0E       		.uleb128 0xe
 16360 0271 3A       		.uleb128 0x3a
 16361 0272 0B       		.uleb128 0xb
 16362 0273 3B       		.uleb128 0x3b
 16363 0274 05       		.uleb128 0x5
 16364 0275 27       		.uleb128 0x27
 16365 0276 19       		.uleb128 0x19
 16366 0277 11       		.uleb128 0x11
 16367 0278 01       		.uleb128 0x1
 16368 0279 12       		.uleb128 0x12
 16369 027a 06       		.uleb128 0x6
 16370 027b 40       		.uleb128 0x40
ARM GAS  /tmp/cczXzW7i.s 			page 289


 16371 027c 18       		.uleb128 0x18
 16372 027d 9742     		.uleb128 0x2117
 16373 027f 19       		.uleb128 0x19
 16374 0280 01       		.uleb128 0x1
 16375 0281 13       		.uleb128 0x13
 16376 0282 00       		.byte	0
 16377 0283 00       		.byte	0
 16378 0284 31       		.uleb128 0x31
 16379 0285 898201   		.uleb128 0x4109
 16380 0288 01       		.byte	0x1
 16381 0289 11       		.uleb128 0x11
 16382 028a 01       		.uleb128 0x1
 16383 028b 9542     		.uleb128 0x2115
 16384 028d 19       		.uleb128 0x19
 16385 028e 00       		.byte	0
 16386 028f 00       		.byte	0
 16387 0290 32       		.uleb128 0x32
 16388 0291 8A8201   		.uleb128 0x410a
 16389 0294 00       		.byte	0
 16390 0295 02       		.uleb128 0x2
 16391 0296 18       		.uleb128 0x18
 16392 0297 9142     		.uleb128 0x2111
 16393 0299 18       		.uleb128 0x18
 16394 029a 00       		.byte	0
 16395 029b 00       		.byte	0
 16396 029c 33       		.uleb128 0x33
 16397 029d 34       		.uleb128 0x34
 16398 029e 00       		.byte	0
 16399 029f 03       		.uleb128 0x3
 16400 02a0 0E       		.uleb128 0xe
 16401 02a1 3A       		.uleb128 0x3a
 16402 02a2 0B       		.uleb128 0xb
 16403 02a3 3B       		.uleb128 0x3b
 16404 02a4 05       		.uleb128 0x5
 16405 02a5 49       		.uleb128 0x49
 16406 02a6 13       		.uleb128 0x13
 16407 02a7 1C       		.uleb128 0x1c
 16408 02a8 0B       		.uleb128 0xb
 16409 02a9 00       		.byte	0
 16410 02aa 00       		.byte	0
 16411 02ab 34       		.uleb128 0x34
 16412 02ac 1D       		.uleb128 0x1d
 16413 02ad 01       		.byte	0x1
 16414 02ae 31       		.uleb128 0x31
 16415 02af 13       		.uleb128 0x13
 16416 02b0 52       		.uleb128 0x52
 16417 02b1 01       		.uleb128 0x1
 16418 02b2 55       		.uleb128 0x55
 16419 02b3 17       		.uleb128 0x17
 16420 02b4 58       		.uleb128 0x58
 16421 02b5 0B       		.uleb128 0xb
 16422 02b6 59       		.uleb128 0x59
 16423 02b7 05       		.uleb128 0x5
 16424 02b8 00       		.byte	0
 16425 02b9 00       		.byte	0
 16426 02ba 35       		.uleb128 0x35
 16427 02bb 05       		.uleb128 0x5
ARM GAS  /tmp/cczXzW7i.s 			page 290


 16428 02bc 00       		.byte	0
 16429 02bd 31       		.uleb128 0x31
 16430 02be 13       		.uleb128 0x13
 16431 02bf 1C       		.uleb128 0x1c
 16432 02c0 0B       		.uleb128 0xb
 16433 02c1 00       		.byte	0
 16434 02c2 00       		.byte	0
 16435 02c3 36       		.uleb128 0x36
 16436 02c4 05       		.uleb128 0x5
 16437 02c5 00       		.byte	0
 16438 02c6 31       		.uleb128 0x31
 16439 02c7 13       		.uleb128 0x13
 16440 02c8 02       		.uleb128 0x2
 16441 02c9 18       		.uleb128 0x18
 16442 02ca 00       		.byte	0
 16443 02cb 00       		.byte	0
 16444 02cc 37       		.uleb128 0x37
 16445 02cd 898201   		.uleb128 0x4109
 16446 02d0 01       		.byte	0x1
 16447 02d1 11       		.uleb128 0x11
 16448 02d2 01       		.uleb128 0x1
 16449 02d3 9542     		.uleb128 0x2115
 16450 02d5 19       		.uleb128 0x19
 16451 02d6 31       		.uleb128 0x31
 16452 02d7 13       		.uleb128 0x13
 16453 02d8 00       		.byte	0
 16454 02d9 00       		.byte	0
 16455 02da 38       		.uleb128 0x38
 16456 02db 34       		.uleb128 0x34
 16457 02dc 00       		.byte	0
 16458 02dd 03       		.uleb128 0x3
 16459 02de 0E       		.uleb128 0xe
 16460 02df 3A       		.uleb128 0x3a
 16461 02e0 0B       		.uleb128 0xb
 16462 02e1 3B       		.uleb128 0x3b
 16463 02e2 05       		.uleb128 0x5
 16464 02e3 49       		.uleb128 0x49
 16465 02e4 13       		.uleb128 0x13
 16466 02e5 02       		.uleb128 0x2
 16467 02e6 18       		.uleb128 0x18
 16468 02e7 00       		.byte	0
 16469 02e8 00       		.byte	0
 16470 02e9 39       		.uleb128 0x39
 16471 02ea 1D       		.uleb128 0x1d
 16472 02eb 01       		.byte	0x1
 16473 02ec 31       		.uleb128 0x31
 16474 02ed 13       		.uleb128 0x13
 16475 02ee 52       		.uleb128 0x52
 16476 02ef 01       		.uleb128 0x1
 16477 02f0 55       		.uleb128 0x55
 16478 02f1 17       		.uleb128 0x17
 16479 02f2 58       		.uleb128 0x58
 16480 02f3 0B       		.uleb128 0xb
 16481 02f4 59       		.uleb128 0x59
 16482 02f5 05       		.uleb128 0x5
 16483 02f6 01       		.uleb128 0x1
 16484 02f7 13       		.uleb128 0x13
ARM GAS  /tmp/cczXzW7i.s 			page 291


 16485 02f8 00       		.byte	0
 16486 02f9 00       		.byte	0
 16487 02fa 3A       		.uleb128 0x3a
 16488 02fb 05       		.uleb128 0x5
 16489 02fc 00       		.byte	0
 16490 02fd 31       		.uleb128 0x31
 16491 02fe 13       		.uleb128 0x13
 16492 02ff 02       		.uleb128 0x2
 16493 0300 17       		.uleb128 0x17
 16494 0301 00       		.byte	0
 16495 0302 00       		.byte	0
 16496 0303 3B       		.uleb128 0x3b
 16497 0304 898201   		.uleb128 0x4109
 16498 0307 01       		.byte	0x1
 16499 0308 11       		.uleb128 0x11
 16500 0309 01       		.uleb128 0x1
 16501 030a 31       		.uleb128 0x31
 16502 030b 13       		.uleb128 0x13
 16503 030c 00       		.byte	0
 16504 030d 00       		.byte	0
 16505 030e 3C       		.uleb128 0x3c
 16506 030f 898201   		.uleb128 0x4109
 16507 0312 01       		.byte	0x1
 16508 0313 11       		.uleb128 0x11
 16509 0314 01       		.uleb128 0x1
 16510 0315 31       		.uleb128 0x31
 16511 0316 13       		.uleb128 0x13
 16512 0317 01       		.uleb128 0x1
 16513 0318 13       		.uleb128 0x13
 16514 0319 00       		.byte	0
 16515 031a 00       		.byte	0
 16516 031b 3D       		.uleb128 0x3d
 16517 031c 2E       		.uleb128 0x2e
 16518 031d 01       		.byte	0x1
 16519 031e 3F       		.uleb128 0x3f
 16520 031f 19       		.uleb128 0x19
 16521 0320 03       		.uleb128 0x3
 16522 0321 0E       		.uleb128 0xe
 16523 0322 3A       		.uleb128 0x3a
 16524 0323 0B       		.uleb128 0xb
 16525 0324 3B       		.uleb128 0x3b
 16526 0325 05       		.uleb128 0x5
 16527 0326 27       		.uleb128 0x27
 16528 0327 19       		.uleb128 0x19
 16529 0328 11       		.uleb128 0x11
 16530 0329 01       		.uleb128 0x1
 16531 032a 12       		.uleb128 0x12
 16532 032b 06       		.uleb128 0x6
 16533 032c 40       		.uleb128 0x40
 16534 032d 18       		.uleb128 0x18
 16535 032e 01       		.uleb128 0x1
 16536 032f 13       		.uleb128 0x13
 16537 0330 00       		.byte	0
 16538 0331 00       		.byte	0
 16539 0332 3E       		.uleb128 0x3e
 16540 0333 34       		.uleb128 0x34
 16541 0334 00       		.byte	0
ARM GAS  /tmp/cczXzW7i.s 			page 292


 16542 0335 03       		.uleb128 0x3
 16543 0336 08       		.uleb128 0x8
 16544 0337 3A       		.uleb128 0x3a
 16545 0338 0B       		.uleb128 0xb
 16546 0339 3B       		.uleb128 0x3b
 16547 033a 05       		.uleb128 0x5
 16548 033b 49       		.uleb128 0x49
 16549 033c 13       		.uleb128 0x13
 16550 033d 02       		.uleb128 0x2
 16551 033e 18       		.uleb128 0x18
 16552 033f 00       		.byte	0
 16553 0340 00       		.byte	0
 16554 0341 3F       		.uleb128 0x3f
 16555 0342 05       		.uleb128 0x5
 16556 0343 00       		.byte	0
 16557 0344 03       		.uleb128 0x3
 16558 0345 08       		.uleb128 0x8
 16559 0346 3A       		.uleb128 0x3a
 16560 0347 0B       		.uleb128 0xb
 16561 0348 3B       		.uleb128 0x3b
 16562 0349 05       		.uleb128 0x5
 16563 034a 49       		.uleb128 0x49
 16564 034b 13       		.uleb128 0x13
 16565 034c 02       		.uleb128 0x2
 16566 034d 17       		.uleb128 0x17
 16567 034e 00       		.byte	0
 16568 034f 00       		.byte	0
 16569 0350 40       		.uleb128 0x40
 16570 0351 1D       		.uleb128 0x1d
 16571 0352 01       		.byte	0x1
 16572 0353 31       		.uleb128 0x31
 16573 0354 13       		.uleb128 0x13
 16574 0355 11       		.uleb128 0x11
 16575 0356 01       		.uleb128 0x1
 16576 0357 12       		.uleb128 0x12
 16577 0358 06       		.uleb128 0x6
 16578 0359 58       		.uleb128 0x58
 16579 035a 0B       		.uleb128 0xb
 16580 035b 59       		.uleb128 0x59
 16581 035c 05       		.uleb128 0x5
 16582 035d 01       		.uleb128 0x1
 16583 035e 13       		.uleb128 0x13
 16584 035f 00       		.byte	0
 16585 0360 00       		.byte	0
 16586 0361 41       		.uleb128 0x41
 16587 0362 898201   		.uleb128 0x4109
 16588 0365 01       		.byte	0x1
 16589 0366 11       		.uleb128 0x11
 16590 0367 01       		.uleb128 0x1
 16591 0368 01       		.uleb128 0x1
 16592 0369 13       		.uleb128 0x13
 16593 036a 00       		.byte	0
 16594 036b 00       		.byte	0
 16595 036c 42       		.uleb128 0x42
 16596 036d 34       		.uleb128 0x34
 16597 036e 00       		.byte	0
 16598 036f 03       		.uleb128 0x3
ARM GAS  /tmp/cczXzW7i.s 			page 293


 16599 0370 08       		.uleb128 0x8
 16600 0371 3A       		.uleb128 0x3a
 16601 0372 0B       		.uleb128 0xb
 16602 0373 3B       		.uleb128 0x3b
 16603 0374 05       		.uleb128 0x5
 16604 0375 49       		.uleb128 0x49
 16605 0376 13       		.uleb128 0x13
 16606 0377 02       		.uleb128 0x2
 16607 0378 17       		.uleb128 0x17
 16608 0379 00       		.byte	0
 16609 037a 00       		.byte	0
 16610 037b 43       		.uleb128 0x43
 16611 037c 05       		.uleb128 0x5
 16612 037d 00       		.byte	0
 16613 037e 03       		.uleb128 0x3
 16614 037f 0E       		.uleb128 0xe
 16615 0380 3A       		.uleb128 0x3a
 16616 0381 0B       		.uleb128 0xb
 16617 0382 3B       		.uleb128 0x3b
 16618 0383 05       		.uleb128 0x5
 16619 0384 49       		.uleb128 0x49
 16620 0385 13       		.uleb128 0x13
 16621 0386 02       		.uleb128 0x2
 16622 0387 18       		.uleb128 0x18
 16623 0388 00       		.byte	0
 16624 0389 00       		.byte	0
 16625 038a 44       		.uleb128 0x44
 16626 038b 2E       		.uleb128 0x2e
 16627 038c 01       		.byte	0x1
 16628 038d 3F       		.uleb128 0x3f
 16629 038e 19       		.uleb128 0x19
 16630 038f 03       		.uleb128 0x3
 16631 0390 0E       		.uleb128 0xe
 16632 0391 3A       		.uleb128 0x3a
 16633 0392 0B       		.uleb128 0xb
 16634 0393 3B       		.uleb128 0x3b
 16635 0394 0B       		.uleb128 0xb
 16636 0395 27       		.uleb128 0x27
 16637 0396 19       		.uleb128 0x19
 16638 0397 11       		.uleb128 0x11
 16639 0398 01       		.uleb128 0x1
 16640 0399 12       		.uleb128 0x12
 16641 039a 06       		.uleb128 0x6
 16642 039b 40       		.uleb128 0x40
 16643 039c 18       		.uleb128 0x18
 16644 039d 9642     		.uleb128 0x2116
 16645 039f 19       		.uleb128 0x19
 16646 03a0 01       		.uleb128 0x1
 16647 03a1 13       		.uleb128 0x13
 16648 03a2 00       		.byte	0
 16649 03a3 00       		.byte	0
 16650 03a4 45       		.uleb128 0x45
 16651 03a5 05       		.uleb128 0x5
 16652 03a6 00       		.byte	0
 16653 03a7 03       		.uleb128 0x3
 16654 03a8 0E       		.uleb128 0xe
 16655 03a9 3A       		.uleb128 0x3a
ARM GAS  /tmp/cczXzW7i.s 			page 294


 16656 03aa 0B       		.uleb128 0xb
 16657 03ab 3B       		.uleb128 0x3b
 16658 03ac 0B       		.uleb128 0xb
 16659 03ad 49       		.uleb128 0x49
 16660 03ae 13       		.uleb128 0x13
 16661 03af 02       		.uleb128 0x2
 16662 03b0 17       		.uleb128 0x17
 16663 03b1 00       		.byte	0
 16664 03b2 00       		.byte	0
 16665 03b3 46       		.uleb128 0x46
 16666 03b4 05       		.uleb128 0x5
 16667 03b5 00       		.byte	0
 16668 03b6 03       		.uleb128 0x3
 16669 03b7 08       		.uleb128 0x8
 16670 03b8 3A       		.uleb128 0x3a
 16671 03b9 0B       		.uleb128 0xb
 16672 03ba 3B       		.uleb128 0x3b
 16673 03bb 0B       		.uleb128 0xb
 16674 03bc 49       		.uleb128 0x49
 16675 03bd 13       		.uleb128 0x13
 16676 03be 02       		.uleb128 0x2
 16677 03bf 17       		.uleb128 0x17
 16678 03c0 00       		.byte	0
 16679 03c1 00       		.byte	0
 16680 03c2 47       		.uleb128 0x47
 16681 03c3 34       		.uleb128 0x34
 16682 03c4 00       		.byte	0
 16683 03c5 03       		.uleb128 0x3
 16684 03c6 08       		.uleb128 0x8
 16685 03c7 3A       		.uleb128 0x3a
 16686 03c8 0B       		.uleb128 0xb
 16687 03c9 3B       		.uleb128 0x3b
 16688 03ca 0B       		.uleb128 0xb
 16689 03cb 49       		.uleb128 0x49
 16690 03cc 13       		.uleb128 0x13
 16691 03cd 02       		.uleb128 0x2
 16692 03ce 18       		.uleb128 0x18
 16693 03cf 00       		.byte	0
 16694 03d0 00       		.byte	0
 16695 03d1 48       		.uleb128 0x48
 16696 03d2 34       		.uleb128 0x34
 16697 03d3 00       		.byte	0
 16698 03d4 03       		.uleb128 0x3
 16699 03d5 08       		.uleb128 0x8
 16700 03d6 3A       		.uleb128 0x3a
 16701 03d7 0B       		.uleb128 0xb
 16702 03d8 3B       		.uleb128 0x3b
 16703 03d9 0B       		.uleb128 0xb
 16704 03da 49       		.uleb128 0x49
 16705 03db 13       		.uleb128 0x13
 16706 03dc 02       		.uleb128 0x2
 16707 03dd 17       		.uleb128 0x17
 16708 03de 00       		.byte	0
 16709 03df 00       		.byte	0
 16710 03e0 49       		.uleb128 0x49
 16711 03e1 898201   		.uleb128 0x4109
 16712 03e4 01       		.byte	0x1
ARM GAS  /tmp/cczXzW7i.s 			page 295


 16713 03e5 11       		.uleb128 0x11
 16714 03e6 01       		.uleb128 0x1
 16715 03e7 9342     		.uleb128 0x2113
 16716 03e9 18       		.uleb128 0x18
 16717 03ea 01       		.uleb128 0x1
 16718 03eb 13       		.uleb128 0x13
 16719 03ec 00       		.byte	0
 16720 03ed 00       		.byte	0
 16721 03ee 4A       		.uleb128 0x4a
 16722 03ef 2E       		.uleb128 0x2e
 16723 03f0 01       		.byte	0x1
 16724 03f1 3F       		.uleb128 0x3f
 16725 03f2 19       		.uleb128 0x19
 16726 03f3 03       		.uleb128 0x3
 16727 03f4 0E       		.uleb128 0xe
 16728 03f5 3A       		.uleb128 0x3a
 16729 03f6 0B       		.uleb128 0xb
 16730 03f7 3B       		.uleb128 0x3b
 16731 03f8 0B       		.uleb128 0xb
 16732 03f9 27       		.uleb128 0x27
 16733 03fa 19       		.uleb128 0x19
 16734 03fb 20       		.uleb128 0x20
 16735 03fc 0B       		.uleb128 0xb
 16736 03fd 01       		.uleb128 0x1
 16737 03fe 13       		.uleb128 0x13
 16738 03ff 00       		.byte	0
 16739 0400 00       		.byte	0
 16740 0401 4B       		.uleb128 0x4b
 16741 0402 05       		.uleb128 0x5
 16742 0403 00       		.byte	0
 16743 0404 03       		.uleb128 0x3
 16744 0405 0E       		.uleb128 0xe
 16745 0406 3A       		.uleb128 0x3a
 16746 0407 0B       		.uleb128 0xb
 16747 0408 3B       		.uleb128 0x3b
 16748 0409 0B       		.uleb128 0xb
 16749 040a 49       		.uleb128 0x49
 16750 040b 13       		.uleb128 0x13
 16751 040c 00       		.byte	0
 16752 040d 00       		.byte	0
 16753 040e 4C       		.uleb128 0x4c
 16754 040f 05       		.uleb128 0x5
 16755 0410 00       		.byte	0
 16756 0411 03       		.uleb128 0x3
 16757 0412 08       		.uleb128 0x8
 16758 0413 3A       		.uleb128 0x3a
 16759 0414 0B       		.uleb128 0xb
 16760 0415 3B       		.uleb128 0x3b
 16761 0416 0B       		.uleb128 0xb
 16762 0417 49       		.uleb128 0x49
 16763 0418 13       		.uleb128 0x13
 16764 0419 00       		.byte	0
 16765 041a 00       		.byte	0
 16766 041b 4D       		.uleb128 0x4d
 16767 041c 2E       		.uleb128 0x2e
 16768 041d 01       		.byte	0x1
 16769 041e 3F       		.uleb128 0x3f
ARM GAS  /tmp/cczXzW7i.s 			page 296


 16770 041f 19       		.uleb128 0x19
 16771 0420 03       		.uleb128 0x3
 16772 0421 0E       		.uleb128 0xe
 16773 0422 3A       		.uleb128 0x3a
 16774 0423 0B       		.uleb128 0xb
 16775 0424 3B       		.uleb128 0x3b
 16776 0425 0B       		.uleb128 0xb
 16777 0426 27       		.uleb128 0x27
 16778 0427 19       		.uleb128 0x19
 16779 0428 11       		.uleb128 0x11
 16780 0429 01       		.uleb128 0x1
 16781 042a 12       		.uleb128 0x12
 16782 042b 06       		.uleb128 0x6
 16783 042c 40       		.uleb128 0x40
 16784 042d 18       		.uleb128 0x18
 16785 042e 9742     		.uleb128 0x2117
 16786 0430 19       		.uleb128 0x19
 16787 0431 01       		.uleb128 0x1
 16788 0432 13       		.uleb128 0x13
 16789 0433 00       		.byte	0
 16790 0434 00       		.byte	0
 16791 0435 4E       		.uleb128 0x4e
 16792 0436 05       		.uleb128 0x5
 16793 0437 00       		.byte	0
 16794 0438 03       		.uleb128 0x3
 16795 0439 0E       		.uleb128 0xe
 16796 043a 3A       		.uleb128 0x3a
 16797 043b 0B       		.uleb128 0xb
 16798 043c 3B       		.uleb128 0x3b
 16799 043d 0B       		.uleb128 0xb
 16800 043e 49       		.uleb128 0x49
 16801 043f 13       		.uleb128 0x13
 16802 0440 02       		.uleb128 0x2
 16803 0441 18       		.uleb128 0x18
 16804 0442 00       		.byte	0
 16805 0443 00       		.byte	0
 16806 0444 4F       		.uleb128 0x4f
 16807 0445 2E       		.uleb128 0x2e
 16808 0446 01       		.byte	0x1
 16809 0447 31       		.uleb128 0x31
 16810 0448 13       		.uleb128 0x13
 16811 0449 11       		.uleb128 0x11
 16812 044a 01       		.uleb128 0x1
 16813 044b 12       		.uleb128 0x12
 16814 044c 06       		.uleb128 0x6
 16815 044d 40       		.uleb128 0x40
 16816 044e 18       		.uleb128 0x18
 16817 044f 9742     		.uleb128 0x2117
 16818 0451 19       		.uleb128 0x19
 16819 0452 01       		.uleb128 0x1
 16820 0453 13       		.uleb128 0x13
 16821 0454 00       		.byte	0
 16822 0455 00       		.byte	0
 16823 0456 50       		.uleb128 0x50
 16824 0457 1D       		.uleb128 0x1d
 16825 0458 01       		.byte	0x1
 16826 0459 31       		.uleb128 0x31
ARM GAS  /tmp/cczXzW7i.s 			page 297


 16827 045a 13       		.uleb128 0x13
 16828 045b 11       		.uleb128 0x11
 16829 045c 01       		.uleb128 0x1
 16830 045d 12       		.uleb128 0x12
 16831 045e 06       		.uleb128 0x6
 16832 045f 58       		.uleb128 0x58
 16833 0460 0B       		.uleb128 0xb
 16834 0461 59       		.uleb128 0x59
 16835 0462 05       		.uleb128 0x5
 16836 0463 00       		.byte	0
 16837 0464 00       		.byte	0
 16838 0465 51       		.uleb128 0x51
 16839 0466 898201   		.uleb128 0x4109
 16840 0469 00       		.byte	0
 16841 046a 11       		.uleb128 0x11
 16842 046b 01       		.uleb128 0x1
 16843 046c 9542     		.uleb128 0x2115
 16844 046e 19       		.uleb128 0x19
 16845 046f 31       		.uleb128 0x31
 16846 0470 13       		.uleb128 0x13
 16847 0471 00       		.byte	0
 16848 0472 00       		.byte	0
 16849 0473 52       		.uleb128 0x52
 16850 0474 2E       		.uleb128 0x2e
 16851 0475 00       		.byte	0
 16852 0476 3F       		.uleb128 0x3f
 16853 0477 19       		.uleb128 0x19
 16854 0478 3C       		.uleb128 0x3c
 16855 0479 19       		.uleb128 0x19
 16856 047a 6E       		.uleb128 0x6e
 16857 047b 0E       		.uleb128 0xe
 16858 047c 03       		.uleb128 0x3
 16859 047d 0E       		.uleb128 0xe
 16860 047e 3A       		.uleb128 0x3a
 16861 047f 0B       		.uleb128 0xb
 16862 0480 3B       		.uleb128 0x3b
 16863 0481 0B       		.uleb128 0xb
 16864 0482 00       		.byte	0
 16865 0483 00       		.byte	0
 16866 0484 53       		.uleb128 0x53
 16867 0485 2E       		.uleb128 0x2e
 16868 0486 00       		.byte	0
 16869 0487 3F       		.uleb128 0x3f
 16870 0488 19       		.uleb128 0x19
 16871 0489 3C       		.uleb128 0x3c
 16872 048a 19       		.uleb128 0x19
 16873 048b 6E       		.uleb128 0x6e
 16874 048c 0E       		.uleb128 0xe
 16875 048d 03       		.uleb128 0x3
 16876 048e 0E       		.uleb128 0xe
 16877 048f 3A       		.uleb128 0x3a
 16878 0490 0B       		.uleb128 0xb
 16879 0491 3B       		.uleb128 0x3b
 16880 0492 0B       		.uleb128 0xb
 16881 0493 6E       		.uleb128 0x6e
 16882 0494 0E       		.uleb128 0xe
 16883 0495 00       		.byte	0
ARM GAS  /tmp/cczXzW7i.s 			page 298


 16884 0496 00       		.byte	0
 16885 0497 00       		.byte	0
 16886              		.section	.debug_loc,"",%progbits
 16887              	.Ldebug_loc0:
 16888              	.LLST46:
 16889 0000 00000000 		.4byte	.LVL396
 16890 0004 0A000000 		.4byte	.LVL397
 16891 0008 0100     		.2byte	0x1
 16892 000a 50       		.byte	0x50
 16893 000b 0A000000 		.4byte	.LVL397
 16894 000f 18000000 		.4byte	.LFE268
 16895 0013 0400     		.2byte	0x4
 16896 0015 F3       		.byte	0xf3
 16897 0016 01       		.uleb128 0x1
 16898 0017 50       		.byte	0x50
 16899 0018 9F       		.byte	0x9f
 16900 0019 00000000 		.4byte	0
 16901 001d 00000000 		.4byte	0
 16902              	.LLST45:
 16903 0021 00000000 		.4byte	.LVL394
 16904 0025 07000000 		.4byte	.LVL395-1
 16905 0029 0100     		.2byte	0x1
 16906 002b 50       		.byte	0x50
 16907 002c 07000000 		.4byte	.LVL395-1
 16908 0030 08000000 		.4byte	.LVL395
 16909 0034 0400     		.2byte	0x4
 16910 0036 F3       		.byte	0xf3
 16911 0037 01       		.uleb128 0x1
 16912 0038 50       		.byte	0x50
 16913 0039 9F       		.byte	0x9f
 16914 003a 08000000 		.4byte	.LVL395
 16915 003e 10000000 		.4byte	.LFE267
 16916 0042 0100     		.2byte	0x1
 16917 0044 50       		.byte	0x50
 16918 0045 00000000 		.4byte	0
 16919 0049 00000000 		.4byte	0
 16920              	.LLST40:
 16921 004d 00000000 		.4byte	.LVL379
 16922 0051 29000000 		.4byte	.LVL381-1
 16923 0055 0200     		.2byte	0x2
 16924 0057 90       		.byte	0x90
 16925 0058 40       		.uleb128 0x40
 16926 0059 29000000 		.4byte	.LVL381-1
 16927 005d 74000000 		.4byte	.LFE264
 16928 0061 0600     		.2byte	0x6
 16929 0063 F3       		.byte	0xf3
 16930 0064 03       		.uleb128 0x3
 16931 0065 F5       		.byte	0xf5
 16932 0066 40       		.uleb128 0x40
 16933 0067 25       		.uleb128 0x25
 16934 0068 9F       		.byte	0x9f
 16935 0069 00000000 		.4byte	0
 16936 006d 00000000 		.4byte	0
 16937              	.LLST41:
 16938 0071 00000000 		.4byte	.LVL379
 16939 0075 20000000 		.4byte	.LVL380
 16940 0079 0200     		.2byte	0x2
ARM GAS  /tmp/cczXzW7i.s 			page 299


 16941 007b 90       		.byte	0x90
 16942 007c 41       		.uleb128 0x41
 16943 007d 20000000 		.4byte	.LVL380
 16944 0081 74000000 		.4byte	.LFE264
 16945 0085 0200     		.2byte	0x2
 16946 0087 90       		.byte	0x90
 16947 0088 51       		.uleb128 0x51
 16948 0089 00000000 		.4byte	0
 16949 008d 00000000 		.4byte	0
 16950              	.LLST42:
 16951 0091 00000000 		.4byte	.LVL379
 16952 0095 29000000 		.4byte	.LVL381-1
 16953 0099 0200     		.2byte	0x2
 16954 009b 90       		.byte	0x90
 16955 009c 42       		.uleb128 0x42
 16956 009d 29000000 		.4byte	.LVL381-1
 16957 00a1 56000000 		.4byte	.LVL384
 16958 00a5 0200     		.2byte	0x2
 16959 00a7 90       		.byte	0x90
 16960 00a8 50       		.uleb128 0x50
 16961 00a9 56000000 		.4byte	.LVL384
 16962 00ad 58000000 		.4byte	.LVL385
 16963 00b1 0600     		.2byte	0x6
 16964 00b3 F3       		.byte	0xf3
 16965 00b4 03       		.uleb128 0x3
 16966 00b5 F5       		.byte	0xf5
 16967 00b6 42       		.uleb128 0x42
 16968 00b7 25       		.uleb128 0x25
 16969 00b8 9F       		.byte	0x9f
 16970 00b9 58000000 		.4byte	.LVL385
 16971 00bd 66000000 		.4byte	.LVL387
 16972 00c1 0200     		.2byte	0x2
 16973 00c3 90       		.byte	0x90
 16974 00c4 50       		.uleb128 0x50
 16975 00c5 66000000 		.4byte	.LVL387
 16976 00c9 74000000 		.4byte	.LFE264
 16977 00cd 0600     		.2byte	0x6
 16978 00cf F3       		.byte	0xf3
 16979 00d0 03       		.uleb128 0x3
 16980 00d1 F5       		.byte	0xf5
 16981 00d2 42       		.uleb128 0x42
 16982 00d3 25       		.uleb128 0x25
 16983 00d4 9F       		.byte	0x9f
 16984 00d5 00000000 		.4byte	0
 16985 00d9 00000000 		.4byte	0
 16986              	.LLST43:
 16987 00dd 4A000000 		.4byte	.LVL383
 16988 00e1 5F000000 		.4byte	.LVL386-1
 16989 00e5 0200     		.2byte	0x2
 16990 00e7 91       		.byte	0x91
 16991 00e8 64       		.sleb128 -28
 16992 00e9 00000000 		.4byte	0
 16993 00ed 00000000 		.4byte	0
 16994              	.LLST44:
 16995 00f1 4A000000 		.4byte	.LVL383
 16996 00f5 60000000 		.4byte	.LVL386
 16997 00f9 0600     		.2byte	0x6
ARM GAS  /tmp/cczXzW7i.s 			page 300


 16998 00fb 03       		.byte	0x3
 16999 00fc 00000000 		.4byte	send_buffer
 17000 0100 9F       		.byte	0x9f
 17001 0101 00000000 		.4byte	0
 17002 0105 00000000 		.4byte	0
 17003              	.LLST37:
 17004 0109 00000000 		.4byte	.LVL318
 17005 010d 20000000 		.4byte	.LVL319
 17006 0111 0100     		.2byte	0x1
 17007 0113 50       		.byte	0x50
 17008 0114 20000000 		.4byte	.LVL319
 17009 0118 C8020000 		.4byte	.LVL357
 17010 011c 0100     		.2byte	0x1
 17011 011e 54       		.byte	0x54
 17012 011f C8020000 		.4byte	.LVL357
 17013 0123 D0020000 		.4byte	.LFE256
 17014 0127 0400     		.2byte	0x4
 17015 0129 F3       		.byte	0xf3
 17016 012a 01       		.uleb128 0x1
 17017 012b 50       		.byte	0x50
 17018 012c 9F       		.byte	0x9f
 17019 012d 00000000 		.4byte	0
 17020 0131 00000000 		.4byte	0
 17021              	.LLST38:
 17022 0135 B6020000 		.4byte	.LVL354
 17023 0139 C3020000 		.4byte	.LVL356-1
 17024 013d 0100     		.2byte	0x1
 17025 013f 51       		.byte	0x51
 17026 0140 00000000 		.4byte	0
 17027 0144 00000000 		.4byte	0
 17028              	.LLST39:
 17029 0148 B4020000 		.4byte	.LVL353
 17030 014c C4020000 		.4byte	.LVL356
 17031 0150 0600     		.2byte	0x6
 17032 0152 03       		.byte	0x3
 17033 0153 00000000 		.4byte	send_buffer
 17034 0157 9F       		.byte	0x9f
 17035 0158 00000000 		.4byte	0
 17036 015c 00000000 		.4byte	0
 17037              	.LLST34:
 17038 0160 00000000 		.4byte	.LVL234
 17039 0164 2C000000 		.4byte	.LVL235
 17040 0168 0100     		.2byte	0x1
 17041 016a 50       		.byte	0x50
 17042 016b 2C000000 		.4byte	.LVL235
 17043 016f 80040000 		.4byte	.LVL317
 17044 0173 0100     		.2byte	0x1
 17045 0175 55       		.byte	0x55
 17046 0176 80040000 		.4byte	.LVL317
 17047 017a 84040000 		.4byte	.LFE255
 17048 017e 0400     		.2byte	0x4
 17049 0180 F3       		.byte	0xf3
 17050 0181 01       		.uleb128 0x1
 17051 0182 50       		.byte	0x50
 17052 0183 9F       		.byte	0x9f
 17053 0184 00000000 		.4byte	0
 17054 0188 00000000 		.4byte	0
ARM GAS  /tmp/cczXzW7i.s 			page 301


 17055              	.LLST35:
 17056 018c 6E040000 		.4byte	.LVL314
 17057 0190 7B040000 		.4byte	.LVL316-1
 17058 0194 0100     		.2byte	0x1
 17059 0196 51       		.byte	0x51
 17060 0197 00000000 		.4byte	0
 17061 019b 00000000 		.4byte	0
 17062              	.LLST36:
 17063 019f 6C040000 		.4byte	.LVL313
 17064 01a3 7C040000 		.4byte	.LVL316
 17065 01a7 0600     		.2byte	0x6
 17066 01a9 03       		.byte	0x3
 17067 01aa 00000000 		.4byte	send_buffer
 17068 01ae 9F       		.byte	0x9f
 17069 01af 00000000 		.4byte	0
 17070 01b3 00000000 		.4byte	0
 17071              	.LLST31:
 17072 01b7 00000000 		.4byte	.LVL230
 17073 01bb 1B000000 		.4byte	.LVL231-1
 17074 01bf 0200     		.2byte	0x2
 17075 01c1 90       		.byte	0x90
 17076 01c2 40       		.uleb128 0x40
 17077 01c3 1B000000 		.4byte	.LVL231-1
 17078 01c7 40000000 		.4byte	.LFE254
 17079 01cb 0600     		.2byte	0x6
 17080 01cd F3       		.byte	0xf3
 17081 01ce 03       		.uleb128 0x3
 17082 01cf F5       		.byte	0xf5
 17083 01d0 40       		.uleb128 0x40
 17084 01d1 25       		.uleb128 0x25
 17085 01d2 9F       		.byte	0x9f
 17086 01d3 00000000 		.4byte	0
 17087 01d7 00000000 		.4byte	0
 17088              	.LLST32:
 17089 01db 1C000000 		.4byte	.LVL231
 17090 01df 2D000000 		.4byte	.LVL233-1
 17091 01e3 0200     		.2byte	0x2
 17092 01e5 91       		.byte	0x91
 17093 01e6 74       		.sleb128 -12
 17094 01e7 00000000 		.4byte	0
 17095 01eb 00000000 		.4byte	0
 17096              	.LLST33:
 17097 01ef 1C000000 		.4byte	.LVL231
 17098 01f3 2E000000 		.4byte	.LVL233
 17099 01f7 0600     		.2byte	0x6
 17100 01f9 03       		.byte	0x3
 17101 01fa 00000000 		.4byte	send_buffer
 17102 01fe 9F       		.byte	0x9f
 17103 01ff 00000000 		.4byte	0
 17104 0203 00000000 		.4byte	0
 17105              	.LLST28:
 17106 0207 00000000 		.4byte	.LVL226
 17107 020b 1B000000 		.4byte	.LVL227-1
 17108 020f 0200     		.2byte	0x2
 17109 0211 90       		.byte	0x90
 17110 0212 40       		.uleb128 0x40
 17111 0213 1B000000 		.4byte	.LVL227-1
ARM GAS  /tmp/cczXzW7i.s 			page 302


 17112 0217 40000000 		.4byte	.LFE253
 17113 021b 0600     		.2byte	0x6
 17114 021d F3       		.byte	0xf3
 17115 021e 03       		.uleb128 0x3
 17116 021f F5       		.byte	0xf5
 17117 0220 40       		.uleb128 0x40
 17118 0221 25       		.uleb128 0x25
 17119 0222 9F       		.byte	0x9f
 17120 0223 00000000 		.4byte	0
 17121 0227 00000000 		.4byte	0
 17122              	.LLST29:
 17123 022b 1C000000 		.4byte	.LVL227
 17124 022f 2D000000 		.4byte	.LVL229-1
 17125 0233 0200     		.2byte	0x2
 17126 0235 91       		.byte	0x91
 17127 0236 74       		.sleb128 -12
 17128 0237 00000000 		.4byte	0
 17129 023b 00000000 		.4byte	0
 17130              	.LLST30:
 17131 023f 1C000000 		.4byte	.LVL227
 17132 0243 2E000000 		.4byte	.LVL229
 17133 0247 0600     		.2byte	0x6
 17134 0249 03       		.byte	0x3
 17135 024a 00000000 		.4byte	send_buffer
 17136 024e 9F       		.byte	0x9f
 17137 024f 00000000 		.4byte	0
 17138 0253 00000000 		.4byte	0
 17139              	.LLST25:
 17140 0257 00000000 		.4byte	.LVL221
 17141 025b 0D000000 		.4byte	.LVL222-1
 17142 025f 0200     		.2byte	0x2
 17143 0261 90       		.byte	0x90
 17144 0262 40       		.uleb128 0x40
 17145 0263 0D000000 		.4byte	.LVL222-1
 17146 0267 12000000 		.4byte	.LVL223
 17147 026b 0600     		.2byte	0x6
 17148 026d F3       		.byte	0xf3
 17149 026e 03       		.uleb128 0x3
 17150 026f F5       		.byte	0xf5
 17151 0270 40       		.uleb128 0x40
 17152 0271 25       		.uleb128 0x25
 17153 0272 9F       		.byte	0x9f
 17154 0273 12000000 		.4byte	.LVL223
 17155 0277 29000000 		.4byte	.LVL224-1
 17156 027b 0200     		.2byte	0x2
 17157 027d 90       		.byte	0x90
 17158 027e 40       		.uleb128 0x40
 17159 027f 29000000 		.4byte	.LVL224-1
 17160 0283 4C000000 		.4byte	.LFE252
 17161 0287 0600     		.2byte	0x6
 17162 0289 F3       		.byte	0xf3
 17163 028a 03       		.uleb128 0x3
 17164 028b F5       		.byte	0xf5
 17165 028c 40       		.uleb128 0x40
 17166 028d 25       		.uleb128 0x25
 17167 028e 9F       		.byte	0x9f
 17168 028f 00000000 		.4byte	0
ARM GAS  /tmp/cczXzW7i.s 			page 303


 17169 0293 00000000 		.4byte	0
 17170              	.LLST26:
 17171 0297 2A000000 		.4byte	.LVL224
 17172 029b 39000000 		.4byte	.LVL225-1
 17173 029f 0200     		.2byte	0x2
 17174 02a1 91       		.byte	0x91
 17175 02a2 74       		.sleb128 -12
 17176 02a3 00000000 		.4byte	0
 17177 02a7 00000000 		.4byte	0
 17178              	.LLST27:
 17179 02ab 2A000000 		.4byte	.LVL224
 17180 02af 3A000000 		.4byte	.LVL225
 17181 02b3 0600     		.2byte	0x6
 17182 02b5 03       		.byte	0x3
 17183 02b6 00000000 		.4byte	send_buffer
 17184 02ba 9F       		.byte	0x9f
 17185 02bb 00000000 		.4byte	0
 17186 02bf 00000000 		.4byte	0
 17187              	.LLST22:
 17188 02c3 00000000 		.4byte	.LVL214
 17189 02c7 14000000 		.4byte	.LVL215
 17190 02cb 0100     		.2byte	0x1
 17191 02cd 50       		.byte	0x50
 17192 02ce 14000000 		.4byte	.LVL215
 17193 02d2 1A000000 		.4byte	.LVL217
 17194 02d6 0400     		.2byte	0x4
 17195 02d8 F3       		.byte	0xf3
 17196 02d9 01       		.uleb128 0x1
 17197 02da 50       		.byte	0x50
 17198 02db 9F       		.byte	0x9f
 17199 02dc 1A000000 		.4byte	.LVL217
 17200 02e0 26000000 		.4byte	.LVL218
 17201 02e4 0100     		.2byte	0x1
 17202 02e6 50       		.byte	0x50
 17203 02e7 26000000 		.4byte	.LVL218
 17204 02eb 31000000 		.4byte	.LVL219-1
 17205 02ef 0200     		.2byte	0x2
 17206 02f1 90       		.byte	0x90
 17207 02f2 40       		.uleb128 0x40
 17208 02f3 31000000 		.4byte	.LVL219-1
 17209 02f7 50000000 		.4byte	.LFE251
 17210 02fb 0400     		.2byte	0x4
 17211 02fd F3       		.byte	0xf3
 17212 02fe 01       		.uleb128 0x1
 17213 02ff 50       		.byte	0x50
 17214 0300 9F       		.byte	0x9f
 17215 0301 00000000 		.4byte	0
 17216 0305 00000000 		.4byte	0
 17217              	.LLST23:
 17218 0309 32000000 		.4byte	.LVL219
 17219 030d 41000000 		.4byte	.LVL220-1
 17220 0311 0200     		.2byte	0x2
 17221 0313 91       		.byte	0x91
 17222 0314 74       		.sleb128 -12
 17223 0315 00000000 		.4byte	0
 17224 0319 00000000 		.4byte	0
 17225              	.LLST24:
ARM GAS  /tmp/cczXzW7i.s 			page 304


 17226 031d 32000000 		.4byte	.LVL219
 17227 0321 42000000 		.4byte	.LVL220
 17228 0325 0600     		.2byte	0x6
 17229 0327 03       		.byte	0x3
 17230 0328 00000000 		.4byte	send_buffer
 17231 032c 9F       		.byte	0x9f
 17232 032d 00000000 		.4byte	0
 17233 0331 00000000 		.4byte	0
 17234              	.LLST19:
 17235 0335 00000000 		.4byte	.LVL209
 17236 0339 0D000000 		.4byte	.LVL210-1
 17237 033d 0200     		.2byte	0x2
 17238 033f 90       		.byte	0x90
 17239 0340 40       		.uleb128 0x40
 17240 0341 0D000000 		.4byte	.LVL210-1
 17241 0345 12000000 		.4byte	.LVL211
 17242 0349 0600     		.2byte	0x6
 17243 034b F3       		.byte	0xf3
 17244 034c 03       		.uleb128 0x3
 17245 034d F5       		.byte	0xf5
 17246 034e 40       		.uleb128 0x40
 17247 034f 25       		.uleb128 0x25
 17248 0350 9F       		.byte	0x9f
 17249 0351 12000000 		.4byte	.LVL211
 17250 0355 29000000 		.4byte	.LVL212-1
 17251 0359 0200     		.2byte	0x2
 17252 035b 90       		.byte	0x90
 17253 035c 40       		.uleb128 0x40
 17254 035d 29000000 		.4byte	.LVL212-1
 17255 0361 4C000000 		.4byte	.LFE250
 17256 0365 0600     		.2byte	0x6
 17257 0367 F3       		.byte	0xf3
 17258 0368 03       		.uleb128 0x3
 17259 0369 F5       		.byte	0xf5
 17260 036a 40       		.uleb128 0x40
 17261 036b 25       		.uleb128 0x25
 17262 036c 9F       		.byte	0x9f
 17263 036d 00000000 		.4byte	0
 17264 0371 00000000 		.4byte	0
 17265              	.LLST20:
 17266 0375 2A000000 		.4byte	.LVL212
 17267 0379 39000000 		.4byte	.LVL213-1
 17268 037d 0200     		.2byte	0x2
 17269 037f 91       		.byte	0x91
 17270 0380 74       		.sleb128 -12
 17271 0381 00000000 		.4byte	0
 17272 0385 00000000 		.4byte	0
 17273              	.LLST21:
 17274 0389 2A000000 		.4byte	.LVL212
 17275 038d 3A000000 		.4byte	.LVL213
 17276 0391 0600     		.2byte	0x6
 17277 0393 03       		.byte	0x3
 17278 0394 00000000 		.4byte	send_buffer
 17279 0398 9F       		.byte	0x9f
 17280 0399 00000000 		.4byte	0
 17281 039d 00000000 		.4byte	0
 17282              	.LLST16:
ARM GAS  /tmp/cczXzW7i.s 			page 305


 17283 03a1 00000000 		.4byte	.LVL204
 17284 03a5 0D000000 		.4byte	.LVL205-1
 17285 03a9 0200     		.2byte	0x2
 17286 03ab 90       		.byte	0x90
 17287 03ac 40       		.uleb128 0x40
 17288 03ad 0D000000 		.4byte	.LVL205-1
 17289 03b1 12000000 		.4byte	.LVL206
 17290 03b5 0600     		.2byte	0x6
 17291 03b7 F3       		.byte	0xf3
 17292 03b8 03       		.uleb128 0x3
 17293 03b9 F5       		.byte	0xf5
 17294 03ba 40       		.uleb128 0x40
 17295 03bb 25       		.uleb128 0x25
 17296 03bc 9F       		.byte	0x9f
 17297 03bd 12000000 		.4byte	.LVL206
 17298 03c1 29000000 		.4byte	.LVL207-1
 17299 03c5 0200     		.2byte	0x2
 17300 03c7 90       		.byte	0x90
 17301 03c8 40       		.uleb128 0x40
 17302 03c9 29000000 		.4byte	.LVL207-1
 17303 03cd 4C000000 		.4byte	.LFE249
 17304 03d1 0600     		.2byte	0x6
 17305 03d3 F3       		.byte	0xf3
 17306 03d4 03       		.uleb128 0x3
 17307 03d5 F5       		.byte	0xf5
 17308 03d6 40       		.uleb128 0x40
 17309 03d7 25       		.uleb128 0x25
 17310 03d8 9F       		.byte	0x9f
 17311 03d9 00000000 		.4byte	0
 17312 03dd 00000000 		.4byte	0
 17313              	.LLST17:
 17314 03e1 2A000000 		.4byte	.LVL207
 17315 03e5 39000000 		.4byte	.LVL208-1
 17316 03e9 0200     		.2byte	0x2
 17317 03eb 91       		.byte	0x91
 17318 03ec 74       		.sleb128 -12
 17319 03ed 00000000 		.4byte	0
 17320 03f1 00000000 		.4byte	0
 17321              	.LLST18:
 17322 03f5 2A000000 		.4byte	.LVL207
 17323 03f9 3A000000 		.4byte	.LVL208
 17324 03fd 0600     		.2byte	0x6
 17325 03ff 03       		.byte	0x3
 17326 0400 00000000 		.4byte	send_buffer
 17327 0404 9F       		.byte	0x9f
 17328 0405 00000000 		.4byte	0
 17329 0409 00000000 		.4byte	0
 17330              	.LLST13:
 17331 040d 00000000 		.4byte	.LVL199
 17332 0411 0D000000 		.4byte	.LVL200-1
 17333 0415 0200     		.2byte	0x2
 17334 0417 90       		.byte	0x90
 17335 0418 40       		.uleb128 0x40
 17336 0419 0D000000 		.4byte	.LVL200-1
 17337 041d 12000000 		.4byte	.LVL201
 17338 0421 0600     		.2byte	0x6
 17339 0423 F3       		.byte	0xf3
ARM GAS  /tmp/cczXzW7i.s 			page 306


 17340 0424 03       		.uleb128 0x3
 17341 0425 F5       		.byte	0xf5
 17342 0426 40       		.uleb128 0x40
 17343 0427 25       		.uleb128 0x25
 17344 0428 9F       		.byte	0x9f
 17345 0429 12000000 		.4byte	.LVL201
 17346 042d 29000000 		.4byte	.LVL202-1
 17347 0431 0200     		.2byte	0x2
 17348 0433 90       		.byte	0x90
 17349 0434 40       		.uleb128 0x40
 17350 0435 29000000 		.4byte	.LVL202-1
 17351 0439 4C000000 		.4byte	.LFE248
 17352 043d 0600     		.2byte	0x6
 17353 043f F3       		.byte	0xf3
 17354 0440 03       		.uleb128 0x3
 17355 0441 F5       		.byte	0xf5
 17356 0442 40       		.uleb128 0x40
 17357 0443 25       		.uleb128 0x25
 17358 0444 9F       		.byte	0x9f
 17359 0445 00000000 		.4byte	0
 17360 0449 00000000 		.4byte	0
 17361              	.LLST14:
 17362 044d 2A000000 		.4byte	.LVL202
 17363 0451 39000000 		.4byte	.LVL203-1
 17364 0455 0200     		.2byte	0x2
 17365 0457 91       		.byte	0x91
 17366 0458 74       		.sleb128 -12
 17367 0459 00000000 		.4byte	0
 17368 045d 00000000 		.4byte	0
 17369              	.LLST15:
 17370 0461 2A000000 		.4byte	.LVL202
 17371 0465 3A000000 		.4byte	.LVL203
 17372 0469 0600     		.2byte	0x6
 17373 046b 03       		.byte	0x3
 17374 046c 00000000 		.4byte	send_buffer
 17375 0470 9F       		.byte	0x9f
 17376 0471 00000000 		.4byte	0
 17377 0475 00000000 		.4byte	0
 17378              	.LLST10:
 17379 0479 00000000 		.4byte	.LVL191
 17380 047d 07000000 		.4byte	.LVL192-1
 17381 0481 0100     		.2byte	0x1
 17382 0483 50       		.byte	0x50
 17383 0484 07000000 		.4byte	.LVL192-1
 17384 0488 2C000000 		.4byte	.LVL197
 17385 048c 0100     		.2byte	0x1
 17386 048e 56       		.byte	0x56
 17387 048f 2C000000 		.4byte	.LVL197
 17388 0493 38000000 		.4byte	.LFE247
 17389 0497 0400     		.2byte	0x4
 17390 0499 F3       		.byte	0xf3
 17391 049a 01       		.uleb128 0x1
 17392 049b 50       		.byte	0x50
 17393 049c 9F       		.byte	0x9f
 17394 049d 00000000 		.4byte	0
 17395 04a1 00000000 		.4byte	0
 17396              	.LLST11:
ARM GAS  /tmp/cczXzW7i.s 			page 307


 17397 04a5 0C000000 		.4byte	.LVL193
 17398 04a9 0E000000 		.4byte	.LVL194
 17399 04ad 0100     		.2byte	0x1
 17400 04af 50       		.byte	0x50
 17401 04b0 0E000000 		.4byte	.LVL194
 17402 04b4 2C000000 		.4byte	.LVL197
 17403 04b8 0100     		.2byte	0x1
 17404 04ba 55       		.byte	0x55
 17405 04bb 2C000000 		.4byte	.LVL197
 17406 04bf 2F000000 		.4byte	.LVL198-1
 17407 04c3 0300     		.2byte	0x3
 17408 04c5 71       		.byte	0x71
 17409 04c6 7F       		.sleb128 -1
 17410 04c7 9F       		.byte	0x9f
 17411 04c8 00000000 		.4byte	0
 17412 04cc 00000000 		.4byte	0
 17413              	.LLST12:
 17414 04d0 1C000000 		.4byte	.LVL195
 17415 04d4 2C000000 		.4byte	.LVL197
 17416 04d8 0300     		.2byte	0x3
 17417 04da 75       		.byte	0x75
 17418 04db 01       		.sleb128 1
 17419 04dc 9F       		.byte	0x9f
 17420 04dd 2C000000 		.4byte	.LVL197
 17421 04e1 2F000000 		.4byte	.LVL198-1
 17422 04e5 0100     		.2byte	0x1
 17423 04e7 51       		.byte	0x51
 17424 04e8 00000000 		.4byte	0
 17425 04ec 00000000 		.4byte	0
 17426              	.LLST6:
 17427 04f0 00000000 		.4byte	.LVL6
 17428 04f4 0D000000 		.4byte	.LVL7-1
 17429 04f8 0100     		.2byte	0x1
 17430 04fa 50       		.byte	0x50
 17431 04fb 0D000000 		.4byte	.LVL7-1
 17432 04ff 0E000000 		.4byte	.LVL7
 17433 0503 0400     		.2byte	0x4
 17434 0505 F3       		.byte	0xf3
 17435 0506 01       		.uleb128 0x1
 17436 0507 50       		.byte	0x50
 17437 0508 9F       		.byte	0x9f
 17438 0509 12000000 		.4byte	.LVL8
 17439 050d 20000000 		.4byte	.LVL11
 17440 0511 0100     		.2byte	0x1
 17441 0513 50       		.byte	0x50
 17442 0514 20000000 		.4byte	.LVL11
 17443 0518 0A040000 		.4byte	.LVL61
 17444 051c 0100     		.2byte	0x1
 17445 051e 54       		.byte	0x54
 17446 051f 0A040000 		.4byte	.LVL61
 17447 0523 5A040000 		.4byte	.LVL63
 17448 0527 0600     		.2byte	0x6
 17449 0529 F3       		.byte	0xf3
 17450 052a 01       		.uleb128 0x1
 17451 052b 50       		.byte	0x50
 17452 052c 23       		.byte	0x23
 17453 052d 01       		.uleb128 0x1
ARM GAS  /tmp/cczXzW7i.s 			page 308


 17454 052e 9F       		.byte	0x9f
 17455 052f 5A040000 		.4byte	.LVL63
 17456 0533 8C0A0000 		.4byte	.LVL170
 17457 0537 0100     		.2byte	0x1
 17458 0539 54       		.byte	0x54
 17459 053a 8C0A0000 		.4byte	.LVL170
 17460 053e A80A0000 		.4byte	.LVL172
 17461 0542 0600     		.2byte	0x6
 17462 0544 91       		.byte	0x91
 17463 0545 5C       		.sleb128 -36
 17464 0546 06       		.byte	0x6
 17465 0547 23       		.byte	0x23
 17466 0548 01       		.uleb128 0x1
 17467 0549 9F       		.byte	0x9f
 17468 054a A80A0000 		.4byte	.LVL172
 17469 054e 340B0000 		.4byte	.LFE232
 17470 0552 0100     		.2byte	0x1
 17471 0554 54       		.byte	0x54
 17472 0555 00000000 		.4byte	0
 17473 0559 00000000 		.4byte	0
 17474              	.LLST7:
 17475 055d 00000000 		.4byte	.LVL6
 17476 0561 0D000000 		.4byte	.LVL7-1
 17477 0565 0100     		.2byte	0x1
 17478 0567 51       		.byte	0x51
 17479 0568 0D000000 		.4byte	.LVL7-1
 17480 056c 0E000000 		.4byte	.LVL7
 17481 0570 0400     		.2byte	0x4
 17482 0572 F3       		.byte	0xf3
 17483 0573 01       		.uleb128 0x1
 17484 0574 51       		.byte	0x51
 17485 0575 9F       		.byte	0x9f
 17486 0576 12000000 		.4byte	.LVL8
 17487 057a 18000000 		.4byte	.LVL9
 17488 057e 0100     		.2byte	0x1
 17489 0580 51       		.byte	0x51
 17490 0581 18000000 		.4byte	.LVL9
 17491 0585 20000000 		.4byte	.LVL11
 17492 0589 0100     		.2byte	0x1
 17493 058b 52       		.byte	0x52
 17494 058c 20000000 		.4byte	.LVL11
 17495 0590 B1000000 		.4byte	.LVL13-1
 17496 0594 0300     		.2byte	0x3
 17497 0596 72       		.byte	0x72
 17498 0597 7F       		.sleb128 -1
 17499 0598 9F       		.byte	0x9f
 17500 0599 B1000000 		.4byte	.LVL13-1
 17501 059d D6000000 		.4byte	.LVL16
 17502 05a1 0600     		.2byte	0x6
 17503 05a3 F3       		.byte	0xf3
 17504 05a4 01       		.uleb128 0x1
 17505 05a5 51       		.byte	0x51
 17506 05a6 31       		.byte	0x31
 17507 05a7 1C       		.byte	0x1c
 17508 05a8 9F       		.byte	0x9f
 17509 05a9 D6000000 		.4byte	.LVL16
 17510 05ad E1000000 		.4byte	.LVL17-1
ARM GAS  /tmp/cczXzW7i.s 			page 309


 17511 05b1 0300     		.2byte	0x3
 17512 05b3 72       		.byte	0x72
 17513 05b4 7F       		.sleb128 -1
 17514 05b5 9F       		.byte	0x9f
 17515 05b6 E1000000 		.4byte	.LVL17-1
 17516 05ba EE000000 		.4byte	.LVL19
 17517 05be 0600     		.2byte	0x6
 17518 05c0 F3       		.byte	0xf3
 17519 05c1 01       		.uleb128 0x1
 17520 05c2 51       		.byte	0x51
 17521 05c3 31       		.byte	0x31
 17522 05c4 1C       		.byte	0x1c
 17523 05c5 9F       		.byte	0x9f
 17524 05c6 EE000000 		.4byte	.LVL19
 17525 05ca FD000000 		.4byte	.LVL21-1
 17526 05ce 0300     		.2byte	0x3
 17527 05d0 72       		.byte	0x72
 17528 05d1 7F       		.sleb128 -1
 17529 05d2 9F       		.byte	0x9f
 17530 05d3 FD000000 		.4byte	.LVL21-1
 17531 05d7 00010000 		.4byte	.LVL22
 17532 05db 0600     		.2byte	0x6
 17533 05dd F3       		.byte	0xf3
 17534 05de 01       		.uleb128 0x1
 17535 05df 51       		.byte	0x51
 17536 05e0 31       		.byte	0x31
 17537 05e1 1C       		.byte	0x1c
 17538 05e2 9F       		.byte	0x9f
 17539 05e3 00010000 		.4byte	.LVL22
 17540 05e7 0B010000 		.4byte	.LVL23-1
 17541 05eb 0300     		.2byte	0x3
 17542 05ed 72       		.byte	0x72
 17543 05ee 7F       		.sleb128 -1
 17544 05ef 9F       		.byte	0x9f
 17545 05f0 0B010000 		.4byte	.LVL23-1
 17546 05f4 38010000 		.4byte	.LVL24
 17547 05f8 0600     		.2byte	0x6
 17548 05fa F3       		.byte	0xf3
 17549 05fb 01       		.uleb128 0x1
 17550 05fc 51       		.byte	0x51
 17551 05fd 31       		.byte	0x31
 17552 05fe 1C       		.byte	0x1c
 17553 05ff 9F       		.byte	0x9f
 17554 0600 38010000 		.4byte	.LVL24
 17555 0604 3C010000 		.4byte	.LVL25
 17556 0608 0300     		.2byte	0x3
 17557 060a 72       		.byte	0x72
 17558 060b 7F       		.sleb128 -1
 17559 060c 9F       		.byte	0x9f
 17560 060d 3C010000 		.4byte	.LVL25
 17561 0611 5A040000 		.4byte	.LVL63
 17562 0615 0600     		.2byte	0x6
 17563 0617 F3       		.byte	0xf3
 17564 0618 01       		.uleb128 0x1
 17565 0619 51       		.byte	0x51
 17566 061a 31       		.byte	0x31
 17567 061b 1C       		.byte	0x1c
ARM GAS  /tmp/cczXzW7i.s 			page 310


 17568 061c 9F       		.byte	0x9f
 17569 061d 5A040000 		.4byte	.LVL63
 17570 0621 65040000 		.4byte	.LVL65-1
 17571 0625 0300     		.2byte	0x3
 17572 0627 72       		.byte	0x72
 17573 0628 7F       		.sleb128 -1
 17574 0629 9F       		.byte	0x9f
 17575 062a 65040000 		.4byte	.LVL65-1
 17576 062e 74040000 		.4byte	.LVL66
 17577 0632 0600     		.2byte	0x6
 17578 0634 F3       		.byte	0xf3
 17579 0635 01       		.uleb128 0x1
 17580 0636 51       		.byte	0x51
 17581 0637 31       		.byte	0x31
 17582 0638 1C       		.byte	0x1c
 17583 0639 9F       		.byte	0x9f
 17584 063a 74040000 		.4byte	.LVL66
 17585 063e 78040000 		.4byte	.LVL67
 17586 0642 0300     		.2byte	0x3
 17587 0644 72       		.byte	0x72
 17588 0645 7F       		.sleb128 -1
 17589 0646 9F       		.byte	0x9f
 17590 0647 78040000 		.4byte	.LVL67
 17591 064b 26090000 		.4byte	.LVL147
 17592 064f 0600     		.2byte	0x6
 17593 0651 F3       		.byte	0xf3
 17594 0652 01       		.uleb128 0x1
 17595 0653 51       		.byte	0x51
 17596 0654 31       		.byte	0x31
 17597 0655 1C       		.byte	0x1c
 17598 0656 9F       		.byte	0x9f
 17599 0657 26090000 		.4byte	.LVL147
 17600 065b 41090000 		.4byte	.LVL150-1
 17601 065f 0300     		.2byte	0x3
 17602 0661 72       		.byte	0x72
 17603 0662 7F       		.sleb128 -1
 17604 0663 9F       		.byte	0x9f
 17605 0664 41090000 		.4byte	.LVL150-1
 17606 0668 4C0A0000 		.4byte	.LVL166
 17607 066c 0600     		.2byte	0x6
 17608 066e 91       		.byte	0x91
 17609 066f 5C       		.sleb128 -36
 17610 0670 06       		.byte	0x6
 17611 0671 31       		.byte	0x31
 17612 0672 1C       		.byte	0x1c
 17613 0673 9F       		.byte	0x9f
 17614 0674 4C0A0000 		.4byte	.LVL166
 17615 0678 590A0000 		.4byte	.LVL167-1
 17616 067c 0300     		.2byte	0x3
 17617 067e 72       		.byte	0x72
 17618 067f 7F       		.sleb128 -1
 17619 0680 9F       		.byte	0x9f
 17620 0681 590A0000 		.4byte	.LVL167-1
 17621 0685 A80A0000 		.4byte	.LVL172
 17622 0689 0600     		.2byte	0x6
 17623 068b F3       		.byte	0xf3
 17624 068c 01       		.uleb128 0x1
ARM GAS  /tmp/cczXzW7i.s 			page 311


 17625 068d 51       		.byte	0x51
 17626 068e 31       		.byte	0x31
 17627 068f 1C       		.byte	0x1c
 17628 0690 9F       		.byte	0x9f
 17629 0691 A80A0000 		.4byte	.LVL172
 17630 0695 B50A0000 		.4byte	.LVL173-1
 17631 0699 0300     		.2byte	0x3
 17632 069b 72       		.byte	0x72
 17633 069c 7F       		.sleb128 -1
 17634 069d 9F       		.byte	0x9f
 17635 069e B50A0000 		.4byte	.LVL173-1
 17636 06a2 D80A0000 		.4byte	.LVL175
 17637 06a6 0600     		.2byte	0x6
 17638 06a8 F3       		.byte	0xf3
 17639 06a9 01       		.uleb128 0x1
 17640 06aa 51       		.byte	0x51
 17641 06ab 31       		.byte	0x31
 17642 06ac 1C       		.byte	0x1c
 17643 06ad 9F       		.byte	0x9f
 17644 06ae D80A0000 		.4byte	.LVL175
 17645 06b2 340B0000 		.4byte	.LFE232
 17646 06b6 0600     		.2byte	0x6
 17647 06b8 91       		.byte	0x91
 17648 06b9 5C       		.sleb128 -36
 17649 06ba 06       		.byte	0x6
 17650 06bb 31       		.byte	0x31
 17651 06bc 1C       		.byte	0x1c
 17652 06bd 9F       		.byte	0x9f
 17653 06be 00000000 		.4byte	0
 17654 06c2 00000000 		.4byte	0
 17655              	.LLST8:
 17656 06c6 1A000000 		.4byte	.LVL10
 17657 06ca 7C0A0000 		.4byte	.LVL169
 17658 06ce 0200     		.2byte	0x2
 17659 06d0 30       		.byte	0x30
 17660 06d1 9F       		.byte	0x9f
 17661 06d2 A80A0000 		.4byte	.LVL172
 17662 06d6 340B0000 		.4byte	.LFE232
 17663 06da 0200     		.2byte	0x2
 17664 06dc 30       		.byte	0x30
 17665 06dd 9F       		.byte	0x9f
 17666 06de 00000000 		.4byte	0
 17667 06e2 00000000 		.4byte	0
 17668              	.LLST9:
 17669 06e6 1A000000 		.4byte	.LVL10
 17670 06ea 2A000000 		.4byte	.LVL12
 17671 06ee 0200     		.2byte	0x2
 17672 06f0 70       		.byte	0x70
 17673 06f1 00       		.sleb128 0
 17674 06f2 2A000000 		.4byte	.LVL12
 17675 06f6 B1000000 		.4byte	.LVL13-1
 17676 06fa 0200     		.2byte	0x2
 17677 06fc 73       		.byte	0x73
 17678 06fd 00       		.sleb128 0
 17679 06fe D6000000 		.4byte	.LVL16
 17680 0702 E1000000 		.4byte	.LVL17-1
 17681 0706 0200     		.2byte	0x2
ARM GAS  /tmp/cczXzW7i.s 			page 312


 17682 0708 73       		.byte	0x73
 17683 0709 00       		.sleb128 0
 17684 070a EE000000 		.4byte	.LVL19
 17685 070e FC000000 		.4byte	.LVL20
 17686 0712 0200     		.2byte	0x2
 17687 0714 73       		.byte	0x73
 17688 0715 00       		.sleb128 0
 17689 0716 00010000 		.4byte	.LVL22
 17690 071a 0B010000 		.4byte	.LVL23-1
 17691 071e 0200     		.2byte	0x2
 17692 0720 73       		.byte	0x73
 17693 0721 00       		.sleb128 0
 17694 0722 38010000 		.4byte	.LVL24
 17695 0726 44010000 		.4byte	.LVL26
 17696 072a 0200     		.2byte	0x2
 17697 072c 73       		.byte	0x73
 17698 072d 00       		.sleb128 0
 17699 072e 44010000 		.4byte	.LVL26
 17700 0732 46010000 		.4byte	.LVL27
 17701 0736 0200     		.2byte	0x2
 17702 0738 74       		.byte	0x74
 17703 0739 7F       		.sleb128 -1
 17704 073a 5A040000 		.4byte	.LVL63
 17705 073e 5C040000 		.4byte	.LVL64
 17706 0742 0200     		.2byte	0x2
 17707 0744 73       		.byte	0x73
 17708 0745 00       		.sleb128 0
 17709 0746 5C040000 		.4byte	.LVL64
 17710 074a 65040000 		.4byte	.LVL65-1
 17711 074e 0200     		.2byte	0x2
 17712 0750 74       		.byte	0x74
 17713 0751 7F       		.sleb128 -1
 17714 0752 74040000 		.4byte	.LVL66
 17715 0756 84040000 		.4byte	.LVL68
 17716 075a 0200     		.2byte	0x2
 17717 075c 73       		.byte	0x73
 17718 075d 00       		.sleb128 0
 17719 075e 26090000 		.4byte	.LVL147
 17720 0762 28090000 		.4byte	.LVL148
 17721 0766 0200     		.2byte	0x2
 17722 0768 73       		.byte	0x73
 17723 0769 00       		.sleb128 0
 17724 076a 28090000 		.4byte	.LVL148
 17725 076e 34090000 		.4byte	.LVL149
 17726 0772 0200     		.2byte	0x2
 17727 0774 74       		.byte	0x74
 17728 0775 7F       		.sleb128 -1
 17729 0776 34090000 		.4byte	.LVL149
 17730 077a 41090000 		.4byte	.LVL150-1
 17731 077e 0200     		.2byte	0x2
 17732 0780 73       		.byte	0x73
 17733 0781 00       		.sleb128 0
 17734 0782 4C0A0000 		.4byte	.LVL166
 17735 0786 590A0000 		.4byte	.LVL167-1
 17736 078a 0200     		.2byte	0x2
 17737 078c 73       		.byte	0x73
 17738 078d 00       		.sleb128 0
ARM GAS  /tmp/cczXzW7i.s 			page 313


 17739 078e A80A0000 		.4byte	.LVL172
 17740 0792 B50A0000 		.4byte	.LVL173-1
 17741 0796 0200     		.2byte	0x2
 17742 0798 73       		.byte	0x73
 17743 0799 00       		.sleb128 0
 17744 079a 00000000 		.4byte	0
 17745 079e 00000000 		.4byte	0
 17746              	.LLST0:
 17747 07a2 00000000 		.4byte	.LVL0
 17748 07a6 07000000 		.4byte	.LVL1-1
 17749 07aa 0100     		.2byte	0x1
 17750 07ac 50       		.byte	0x50
 17751 07ad 07000000 		.4byte	.LVL1-1
 17752 07b1 08000000 		.4byte	.LVL1
 17753 07b5 0400     		.2byte	0x4
 17754 07b7 F3       		.byte	0xf3
 17755 07b8 01       		.uleb128 0x1
 17756 07b9 50       		.byte	0x50
 17757 07ba 9F       		.byte	0x9f
 17758 07bb 08000000 		.4byte	.LVL1
 17759 07bf 10000000 		.4byte	.LFE270
 17760 07c3 0100     		.2byte	0x1
 17761 07c5 50       		.byte	0x50
 17762 07c6 00000000 		.4byte	0
 17763 07ca 00000000 		.4byte	0
 17764              	.LLST1:
 17765 07ce 00000000 		.4byte	.LVL0
 17766 07d2 07000000 		.4byte	.LVL1-1
 17767 07d6 0100     		.2byte	0x1
 17768 07d8 51       		.byte	0x51
 17769 07d9 07000000 		.4byte	.LVL1-1
 17770 07dd 08000000 		.4byte	.LVL1
 17771 07e1 0400     		.2byte	0x4
 17772 07e3 F3       		.byte	0xf3
 17773 07e4 01       		.uleb128 0x1
 17774 07e5 51       		.byte	0x51
 17775 07e6 9F       		.byte	0x9f
 17776 07e7 08000000 		.4byte	.LVL1
 17777 07eb 10000000 		.4byte	.LFE270
 17778 07ef 0100     		.2byte	0x1
 17779 07f1 51       		.byte	0x51
 17780 07f2 00000000 		.4byte	0
 17781 07f6 00000000 		.4byte	0
 17782              	.LLST2:
 17783 07fa 00000000 		.4byte	.LVL0
 17784 07fe 07000000 		.4byte	.LVL1-1
 17785 0802 0100     		.2byte	0x1
 17786 0804 51       		.byte	0x51
 17787 0805 07000000 		.4byte	.LVL1-1
 17788 0809 08000000 		.4byte	.LVL1
 17789 080d 0400     		.2byte	0x4
 17790 080f F3       		.byte	0xf3
 17791 0810 01       		.uleb128 0x1
 17792 0811 51       		.byte	0x51
 17793 0812 9F       		.byte	0x9f
 17794 0813 08000000 		.4byte	.LVL1
 17795 0817 10000000 		.4byte	.LFE270
ARM GAS  /tmp/cczXzW7i.s 			page 314


 17796 081b 0100     		.2byte	0x1
 17797 081d 51       		.byte	0x51
 17798 081e 00000000 		.4byte	0
 17799 0822 00000000 		.4byte	0
 17800              	.LLST3:
 17801 0826 00000000 		.4byte	.LVL0
 17802 082a 07000000 		.4byte	.LVL1-1
 17803 082e 0100     		.2byte	0x1
 17804 0830 50       		.byte	0x50
 17805 0831 07000000 		.4byte	.LVL1-1
 17806 0835 08000000 		.4byte	.LVL1
 17807 0839 0400     		.2byte	0x4
 17808 083b F3       		.byte	0xf3
 17809 083c 01       		.uleb128 0x1
 17810 083d 50       		.byte	0x50
 17811 083e 9F       		.byte	0x9f
 17812 083f 08000000 		.4byte	.LVL1
 17813 0843 10000000 		.4byte	.LFE270
 17814 0847 0100     		.2byte	0x1
 17815 0849 50       		.byte	0x50
 17816 084a 00000000 		.4byte	0
 17817 084e 00000000 		.4byte	0
 17818              	.LLST4:
 17819 0852 00000000 		.4byte	.LVL4
 17820 0856 07000000 		.4byte	.LVL5-1
 17821 085a 0100     		.2byte	0x1
 17822 085c 50       		.byte	0x50
 17823 085d 07000000 		.4byte	.LVL5-1
 17824 0861 08000000 		.4byte	.LVL5
 17825 0865 0400     		.2byte	0x4
 17826 0867 F3       		.byte	0xf3
 17827 0868 01       		.uleb128 0x1
 17828 0869 50       		.byte	0x50
 17829 086a 9F       		.byte	0x9f
 17830 086b 08000000 		.4byte	.LVL5
 17831 086f 10000000 		.4byte	.LFE231
 17832 0873 0100     		.2byte	0x1
 17833 0875 50       		.byte	0x50
 17834 0876 00000000 		.4byte	0
 17835 087a 00000000 		.4byte	0
 17836              	.LLST5:
 17837 087e 00000000 		.4byte	.LVL4
 17838 0882 07000000 		.4byte	.LVL5-1
 17839 0886 0100     		.2byte	0x1
 17840 0888 51       		.byte	0x51
 17841 0889 07000000 		.4byte	.LVL5-1
 17842 088d 08000000 		.4byte	.LVL5
 17843 0891 0400     		.2byte	0x4
 17844 0893 F3       		.byte	0xf3
 17845 0894 01       		.uleb128 0x1
 17846 0895 51       		.byte	0x51
 17847 0896 9F       		.byte	0x9f
 17848 0897 08000000 		.4byte	.LVL5
 17849 089b 10000000 		.4byte	.LFE231
 17850 089f 0100     		.2byte	0x1
 17851 08a1 51       		.byte	0x51
 17852 08a2 00000000 		.4byte	0
ARM GAS  /tmp/cczXzW7i.s 			page 315


 17853 08a6 00000000 		.4byte	0
 17854              	.LLST47:
 17855 08aa 00000000 		.4byte	.LVL398
 17856 08ae 0B000000 		.4byte	.LVL399-1
 17857 08b2 0100     		.2byte	0x1
 17858 08b4 50       		.byte	0x50
 17859 08b5 0B000000 		.4byte	.LVL399-1
 17860 08b9 10000000 		.4byte	.LFE269
 17861 08bd 0400     		.2byte	0x4
 17862 08bf F3       		.byte	0xf3
 17863 08c0 01       		.uleb128 0x1
 17864 08c1 50       		.byte	0x50
 17865 08c2 9F       		.byte	0x9f
 17866 08c3 00000000 		.4byte	0
 17867 08c7 00000000 		.4byte	0
 17868              	.LLST48:
 17869 08cb 00000000 		.4byte	.LVL398
 17870 08cf 0B000000 		.4byte	.LVL399-1
 17871 08d3 0100     		.2byte	0x1
 17872 08d5 51       		.byte	0x51
 17873 08d6 0B000000 		.4byte	.LVL399-1
 17874 08da 10000000 		.4byte	.LFE269
 17875 08de 0400     		.2byte	0x4
 17876 08e0 F3       		.byte	0xf3
 17877 08e1 01       		.uleb128 0x1
 17878 08e2 51       		.byte	0x51
 17879 08e3 9F       		.byte	0x9f
 17880 08e4 00000000 		.4byte	0
 17881 08e8 00000000 		.4byte	0
 17882              		.section	.debug_aranges,"",%progbits
 17883 0000 64010000 		.4byte	0x164
 17884 0004 0200     		.2byte	0x2
 17885 0006 00000000 		.4byte	.Ldebug_info0
 17886 000a 04       		.byte	0x4
 17887 000b 00       		.byte	0
 17888 000c 0000     		.2byte	0
 17889 000e 0000     		.2byte	0
 17890 0010 00000000 		.4byte	.LFB270
 17891 0014 10000000 		.4byte	.LFE270-.LFB270
 17892 0018 00000000 		.4byte	.LFB229
 17893 001c 0C000000 		.4byte	.LFE229-.LFB229
 17894 0020 00000000 		.4byte	.LFB230
 17895 0024 0C000000 		.4byte	.LFE230-.LFB230
 17896 0028 00000000 		.4byte	.LFB231
 17897 002c 10000000 		.4byte	.LFE231-.LFB231
 17898 0030 00000000 		.4byte	.LFB232
 17899 0034 340B0000 		.4byte	.LFE232-.LFB232
 17900 0038 00000000 		.4byte	.LFB233
 17901 003c 0C000000 		.4byte	.LFE233-.LFB233
 17902 0040 00000000 		.4byte	.LFB234
 17903 0044 0C000000 		.4byte	.LFE234-.LFB234
 17904 0048 00000000 		.4byte	.LFB235
 17905 004c 02000000 		.4byte	.LFE235-.LFB235
 17906 0050 00000000 		.4byte	.LFB236
 17907 0054 0C000000 		.4byte	.LFE236-.LFB236
 17908 0058 00000000 		.4byte	.LFB237
 17909 005c 0C000000 		.4byte	.LFE237-.LFB237
ARM GAS  /tmp/cczXzW7i.s 			page 316


 17910 0060 00000000 		.4byte	.LFB238
 17911 0064 0C000000 		.4byte	.LFE238-.LFB238
 17912 0068 00000000 		.4byte	.LFB239
 17913 006c 0C000000 		.4byte	.LFE239-.LFB239
 17914 0070 00000000 		.4byte	.LFB240
 17915 0074 0C000000 		.4byte	.LFE240-.LFB240
 17916 0078 00000000 		.4byte	.LFB241
 17917 007c 0C000000 		.4byte	.LFE241-.LFB241
 17918 0080 00000000 		.4byte	.LFB242
 17919 0084 0C000000 		.4byte	.LFE242-.LFB242
 17920 0088 00000000 		.4byte	.LFB243
 17921 008c 0C000000 		.4byte	.LFE243-.LFB243
 17922 0090 00000000 		.4byte	.LFB244
 17923 0094 0C000000 		.4byte	.LFE244-.LFB244
 17924 0098 00000000 		.4byte	.LFB245
 17925 009c 0C000000 		.4byte	.LFE245-.LFB245
 17926 00a0 00000000 		.4byte	.LFB246
 17927 00a4 0C000000 		.4byte	.LFE246-.LFB246
 17928 00a8 00000000 		.4byte	.LFB247
 17929 00ac 38000000 		.4byte	.LFE247-.LFB247
 17930 00b0 00000000 		.4byte	.LFB248
 17931 00b4 4C000000 		.4byte	.LFE248-.LFB248
 17932 00b8 00000000 		.4byte	.LFB249
 17933 00bc 4C000000 		.4byte	.LFE249-.LFB249
 17934 00c0 00000000 		.4byte	.LFB250
 17935 00c4 4C000000 		.4byte	.LFE250-.LFB250
 17936 00c8 00000000 		.4byte	.LFB251
 17937 00cc 50000000 		.4byte	.LFE251-.LFB251
 17938 00d0 00000000 		.4byte	.LFB252
 17939 00d4 4C000000 		.4byte	.LFE252-.LFB252
 17940 00d8 00000000 		.4byte	.LFB253
 17941 00dc 40000000 		.4byte	.LFE253-.LFB253
 17942 00e0 00000000 		.4byte	.LFB254
 17943 00e4 40000000 		.4byte	.LFE254-.LFB254
 17944 00e8 00000000 		.4byte	.LFB255
 17945 00ec 84040000 		.4byte	.LFE255-.LFB255
 17946 00f0 00000000 		.4byte	.LFB256
 17947 00f4 D0020000 		.4byte	.LFE256-.LFB256
 17948 00f8 00000000 		.4byte	.LFB257
 17949 00fc 1C000000 		.4byte	.LFE257-.LFB257
 17950 0100 00000000 		.4byte	.LFB258
 17951 0104 28000000 		.4byte	.LFE258-.LFB258
 17952 0108 00000000 		.4byte	.LFB259
 17953 010c 1C000000 		.4byte	.LFE259-.LFB259
 17954 0110 00000000 		.4byte	.LFB260
 17955 0114 1C000000 		.4byte	.LFE260-.LFB260
 17956 0118 00000000 		.4byte	.LFB261
 17957 011c 1C000000 		.4byte	.LFE261-.LFB261
 17958 0120 00000000 		.4byte	.LFB262
 17959 0124 1C000000 		.4byte	.LFE262-.LFB262
 17960 0128 00000000 		.4byte	.LFB263
 17961 012c 1C000000 		.4byte	.LFE263-.LFB263
 17962 0130 00000000 		.4byte	.LFB264
 17963 0134 74000000 		.4byte	.LFE264-.LFB264
 17964 0138 00000000 		.4byte	.LFB265
 17965 013c 1C000000 		.4byte	.LFE265-.LFB265
 17966 0140 00000000 		.4byte	.LFB266
ARM GAS  /tmp/cczXzW7i.s 			page 317


 17967 0144 1C000000 		.4byte	.LFE266-.LFB266
 17968 0148 00000000 		.4byte	.LFB267
 17969 014c 10000000 		.4byte	.LFE267-.LFB267
 17970 0150 00000000 		.4byte	.LFB268
 17971 0154 18000000 		.4byte	.LFE268-.LFB268
 17972 0158 00000000 		.4byte	.LFB269
 17973 015c 10000000 		.4byte	.LFE269-.LFB269
 17974 0160 00000000 		.4byte	0
 17975 0164 00000000 		.4byte	0
 17976              		.section	.debug_ranges,"",%progbits
 17977              	.Ldebug_ranges0:
 17978 0000 1C000000 		.4byte	.LBB48
 17979 0004 22000000 		.4byte	.LBE48
 17980 0008 24000000 		.4byte	.LBB52
 17981 000c 28000000 		.4byte	.LBE52
 17982 0010 2C000000 		.4byte	.LBB53
 17983 0014 38000000 		.4byte	.LBE53
 17984 0018 00000000 		.4byte	0
 17985 001c 00000000 		.4byte	0
 17986 0020 1C000000 		.4byte	.LBB64
 17987 0024 22000000 		.4byte	.LBE64
 17988 0028 26000000 		.4byte	.LBB67
 17989 002c 2E000000 		.4byte	.LBE67
 17990 0030 00000000 		.4byte	0
 17991 0034 00000000 		.4byte	0
 17992 0038 1C000000 		.4byte	.LBB68
 17993 003c 22000000 		.4byte	.LBE68
 17994 0040 26000000 		.4byte	.LBB71
 17995 0044 2E000000 		.4byte	.LBE71
 17996 0048 00000000 		.4byte	0
 17997 004c 00000000 		.4byte	0
 17998 0050 60040000 		.4byte	.LBB72
 17999 0054 62040000 		.4byte	.LBE72
 18000 0058 68040000 		.4byte	.LBB77
 18001 005c 6A040000 		.4byte	.LBE77
 18002 0060 70040000 		.4byte	.LBB78
 18003 0064 72040000 		.4byte	.LBE78
 18004 0068 76040000 		.4byte	.LBB79
 18005 006c 7C040000 		.4byte	.LBE79
 18006 0070 00000000 		.4byte	0
 18007 0074 00000000 		.4byte	0
 18008 0078 04000000 		.4byte	.LBB80
 18009 007c 06000000 		.4byte	.LBE80
 18010 0080 AA020000 		.4byte	.LBB85
 18011 0084 AC020000 		.4byte	.LBE85
 18012 0088 B8020000 		.4byte	.LBB86
 18013 008c BA020000 		.4byte	.LBE86
 18014 0090 BE020000 		.4byte	.LBB87
 18015 0094 C4020000 		.4byte	.LBE87
 18016 0098 00000000 		.4byte	0
 18017 009c 00000000 		.4byte	0
 18018 00a0 00000000 		.4byte	.LBB88
 18019 00a4 02000000 		.4byte	.LBE88
 18020 00a8 04000000 		.4byte	.LBB93
 18021 00ac 06000000 		.4byte	.LBE93
 18022 00b0 0A000000 		.4byte	.LBB94
 18023 00b4 0C000000 		.4byte	.LBE94
ARM GAS  /tmp/cczXzW7i.s 			page 318


 18024 00b8 0E000000 		.4byte	.LBB95
 18025 00bc 1C000000 		.4byte	.LBE95
 18026 00c0 00000000 		.4byte	0
 18027 00c4 00000000 		.4byte	0
 18028 00c8 08000000 		.4byte	.LBB96
 18029 00cc 0A000000 		.4byte	.LBE96
 18030 00d0 0C000000 		.4byte	.LBB101
 18031 00d4 0E000000 		.4byte	.LBE101
 18032 00d8 12000000 		.4byte	.LBB102
 18033 00dc 14000000 		.4byte	.LBE102
 18034 00e0 16000000 		.4byte	.LBB103
 18035 00e4 28000000 		.4byte	.LBE103
 18036 00e8 00000000 		.4byte	0
 18037 00ec 00000000 		.4byte	0
 18038 00f0 00000000 		.4byte	.LBB104
 18039 00f4 02000000 		.4byte	.LBE104
 18040 00f8 04000000 		.4byte	.LBB109
 18041 00fc 06000000 		.4byte	.LBE109
 18042 0100 0A000000 		.4byte	.LBB110
 18043 0104 0C000000 		.4byte	.LBE110
 18044 0108 0E000000 		.4byte	.LBB111
 18045 010c 1C000000 		.4byte	.LBE111
 18046 0110 00000000 		.4byte	0
 18047 0114 00000000 		.4byte	0
 18048 0118 00000000 		.4byte	.LBB112
 18049 011c 02000000 		.4byte	.LBE112
 18050 0120 04000000 		.4byte	.LBB117
 18051 0124 06000000 		.4byte	.LBE117
 18052 0128 0A000000 		.4byte	.LBB118
 18053 012c 0C000000 		.4byte	.LBE118
 18054 0130 0E000000 		.4byte	.LBB119
 18055 0134 1C000000 		.4byte	.LBE119
 18056 0138 00000000 		.4byte	0
 18057 013c 00000000 		.4byte	0
 18058 0140 00000000 		.4byte	.LBB120
 18059 0144 02000000 		.4byte	.LBE120
 18060 0148 04000000 		.4byte	.LBB125
 18061 014c 06000000 		.4byte	.LBE125
 18062 0150 0A000000 		.4byte	.LBB126
 18063 0154 0C000000 		.4byte	.LBE126
 18064 0158 0E000000 		.4byte	.LBB127
 18065 015c 1C000000 		.4byte	.LBE127
 18066 0160 00000000 		.4byte	0
 18067 0164 00000000 		.4byte	0
 18068 0168 00000000 		.4byte	.LBB128
 18069 016c 02000000 		.4byte	.LBE128
 18070 0170 04000000 		.4byte	.LBB133
 18071 0174 06000000 		.4byte	.LBE133
 18072 0178 0A000000 		.4byte	.LBB134
 18073 017c 0C000000 		.4byte	.LBE134
 18074 0180 0E000000 		.4byte	.LBB135
 18075 0184 1C000000 		.4byte	.LBE135
 18076 0188 00000000 		.4byte	0
 18077 018c 00000000 		.4byte	0
 18078 0190 00000000 		.4byte	.LBB136
 18079 0194 02000000 		.4byte	.LBE136
 18080 0198 04000000 		.4byte	.LBB141
ARM GAS  /tmp/cczXzW7i.s 			page 319


 18081 019c 06000000 		.4byte	.LBE141
 18082 01a0 0A000000 		.4byte	.LBB142
 18083 01a4 0C000000 		.4byte	.LBE142
 18084 01a8 0E000000 		.4byte	.LBB143
 18085 01ac 1C000000 		.4byte	.LBE143
 18086 01b0 00000000 		.4byte	0
 18087 01b4 00000000 		.4byte	0
 18088 01b8 4A000000 		.4byte	.LBB144
 18089 01bc 50000000 		.4byte	.LBE144
 18090 01c0 58000000 		.4byte	.LBB147
 18091 01c4 60000000 		.4byte	.LBE147
 18092 01c8 00000000 		.4byte	0
 18093 01cc 00000000 		.4byte	0
 18094 01d0 00000000 		.4byte	.LBB148
 18095 01d4 02000000 		.4byte	.LBE148
 18096 01d8 04000000 		.4byte	.LBB153
 18097 01dc 06000000 		.4byte	.LBE153
 18098 01e0 0A000000 		.4byte	.LBB154
 18099 01e4 0C000000 		.4byte	.LBE154
 18100 01e8 0E000000 		.4byte	.LBB155
 18101 01ec 1C000000 		.4byte	.LBE155
 18102 01f0 00000000 		.4byte	0
 18103 01f4 00000000 		.4byte	0
 18104 01f8 00000000 		.4byte	.LBB156
 18105 01fc 02000000 		.4byte	.LBE156
 18106 0200 04000000 		.4byte	.LBB161
 18107 0204 06000000 		.4byte	.LBE161
 18108 0208 0A000000 		.4byte	.LBB162
 18109 020c 0C000000 		.4byte	.LBE162
 18110 0210 0E000000 		.4byte	.LBB163
 18111 0214 1C000000 		.4byte	.LBE163
 18112 0218 00000000 		.4byte	0
 18113 021c 00000000 		.4byte	0
 18114 0220 00000000 		.4byte	.LFB270
 18115 0224 10000000 		.4byte	.LFE270
 18116 0228 00000000 		.4byte	.LFB229
 18117 022c 0C000000 		.4byte	.LFE229
 18118 0230 00000000 		.4byte	.LFB230
 18119 0234 0C000000 		.4byte	.LFE230
 18120 0238 00000000 		.4byte	.LFB231
 18121 023c 10000000 		.4byte	.LFE231
 18122 0240 00000000 		.4byte	.LFB232
 18123 0244 340B0000 		.4byte	.LFE232
 18124 0248 00000000 		.4byte	.LFB233
 18125 024c 0C000000 		.4byte	.LFE233
 18126 0250 00000000 		.4byte	.LFB234
 18127 0254 0C000000 		.4byte	.LFE234
 18128 0258 00000000 		.4byte	.LFB235
 18129 025c 02000000 		.4byte	.LFE235
 18130 0260 00000000 		.4byte	.LFB236
 18131 0264 0C000000 		.4byte	.LFE236
 18132 0268 00000000 		.4byte	.LFB237
 18133 026c 0C000000 		.4byte	.LFE237
 18134 0270 00000000 		.4byte	.LFB238
 18135 0274 0C000000 		.4byte	.LFE238
 18136 0278 00000000 		.4byte	.LFB239
 18137 027c 0C000000 		.4byte	.LFE239
ARM GAS  /tmp/cczXzW7i.s 			page 320


 18138 0280 00000000 		.4byte	.LFB240
 18139 0284 0C000000 		.4byte	.LFE240
 18140 0288 00000000 		.4byte	.LFB241
 18141 028c 0C000000 		.4byte	.LFE241
 18142 0290 00000000 		.4byte	.LFB242
 18143 0294 0C000000 		.4byte	.LFE242
 18144 0298 00000000 		.4byte	.LFB243
 18145 029c 0C000000 		.4byte	.LFE243
 18146 02a0 00000000 		.4byte	.LFB244
 18147 02a4 0C000000 		.4byte	.LFE244
 18148 02a8 00000000 		.4byte	.LFB245
 18149 02ac 0C000000 		.4byte	.LFE245
 18150 02b0 00000000 		.4byte	.LFB246
 18151 02b4 0C000000 		.4byte	.LFE246
 18152 02b8 00000000 		.4byte	.LFB247
 18153 02bc 38000000 		.4byte	.LFE247
 18154 02c0 00000000 		.4byte	.LFB248
 18155 02c4 4C000000 		.4byte	.LFE248
 18156 02c8 00000000 		.4byte	.LFB249
 18157 02cc 4C000000 		.4byte	.LFE249
 18158 02d0 00000000 		.4byte	.LFB250
 18159 02d4 4C000000 		.4byte	.LFE250
 18160 02d8 00000000 		.4byte	.LFB251
 18161 02dc 50000000 		.4byte	.LFE251
 18162 02e0 00000000 		.4byte	.LFB252
 18163 02e4 4C000000 		.4byte	.LFE252
 18164 02e8 00000000 		.4byte	.LFB253
 18165 02ec 40000000 		.4byte	.LFE253
 18166 02f0 00000000 		.4byte	.LFB254
 18167 02f4 40000000 		.4byte	.LFE254
 18168 02f8 00000000 		.4byte	.LFB255
 18169 02fc 84040000 		.4byte	.LFE255
 18170 0300 00000000 		.4byte	.LFB256
 18171 0304 D0020000 		.4byte	.LFE256
 18172 0308 00000000 		.4byte	.LFB257
 18173 030c 1C000000 		.4byte	.LFE257
 18174 0310 00000000 		.4byte	.LFB258
 18175 0314 28000000 		.4byte	.LFE258
 18176 0318 00000000 		.4byte	.LFB259
 18177 031c 1C000000 		.4byte	.LFE259
 18178 0320 00000000 		.4byte	.LFB260
 18179 0324 1C000000 		.4byte	.LFE260
 18180 0328 00000000 		.4byte	.LFB261
 18181 032c 1C000000 		.4byte	.LFE261
 18182 0330 00000000 		.4byte	.LFB262
 18183 0334 1C000000 		.4byte	.LFE262
 18184 0338 00000000 		.4byte	.LFB263
 18185 033c 1C000000 		.4byte	.LFE263
 18186 0340 00000000 		.4byte	.LFB264
 18187 0344 74000000 		.4byte	.LFE264
 18188 0348 00000000 		.4byte	.LFB265
 18189 034c 1C000000 		.4byte	.LFE265
 18190 0350 00000000 		.4byte	.LFB266
 18191 0354 1C000000 		.4byte	.LFE266
 18192 0358 00000000 		.4byte	.LFB267
 18193 035c 10000000 		.4byte	.LFE267
 18194 0360 00000000 		.4byte	.LFB268
ARM GAS  /tmp/cczXzW7i.s 			page 321


 18195 0364 18000000 		.4byte	.LFE268
 18196 0368 00000000 		.4byte	.LFB269
 18197 036c 10000000 		.4byte	.LFE269
 18198 0370 00000000 		.4byte	0
 18199 0374 00000000 		.4byte	0
 18200              		.section	.debug_line,"",%progbits
 18201              	.Ldebug_line0:
 18202 0000 350A0000 		.section	.debug_str,"MS",%progbits,1
 18202      02007602 
 18202      00000201 
 18202      FB0E0D00 
 18202      01010101 
 18203              	.LASF169:
 18204 0000 77617474 		.ascii	"watt_hours\000"
 18204      5F686F75 
 18204      727300
 18205              	.LASF367:
 18206 000b 4348554B 		.ascii	"CHUK_CTRL_TYPE_CURRENT\000"
 18206      5F435452 
 18206      4C5F5459 
 18206      50455F43 
 18206      55525245 
 18207              	.LASF650:
 18208 0022 626C6463 		.ascii	"bldc_interface_set_forward_func\000"
 18208      5F696E74 
 18208      65726661 
 18208      63655F73 
 18208      65745F66 
 18209              	.LASF90:
 18210 0042 706F7274 		.ascii	"port_intctx\000"
 18210      5F696E74 
 18210      63747800 
 18211              	.LASF323:
 18212 004e 6374726C 		.ascii	"ctrl_type\000"
 18212      5F747970 
 18212      6500
 18213              	.LASF209:
 18214 0058 6C5F6D61 		.ascii	"l_max_erpm_fbrake\000"
 18214      785F6572 
 18214      706D5F66 
 18214      6272616B 
 18214      6500
 18215              	.LASF112:
 18216 006a 63685F70 		.ascii	"ch_ptrsize\000"
 18216      74727369 
 18216      7A6500
 18217              	.LASF205:
 18218 0075 6C5F6162 		.ascii	"l_abs_current_max\000"
 18218      735F6375 
 18218      7272656E 
 18218      745F6D61 
 18218      7800
 18219              	.LASF314:
 18220 0087 50504D5F 		.ascii	"PPM_CTRL_TYPE_NONE\000"
 18220      4354524C 
 18220      5F545950 
 18220      455F4E4F 
ARM GAS  /tmp/cczXzW7i.s 			page 322


 18220      4E4500
 18221              	.LASF29:
 18222 009a 6D73675F 		.ascii	"msg_t\000"
 18222      7400
 18223              	.LASF425:
 18224 00a0 434F4D4D 		.ascii	"COMM_FW_VERSION\000"
 18224      5F46575F 
 18224      56455253 
 18224      494F4E00 
 18225              	.LASF453:
 18226 00b0 434F4D4D 		.ascii	"COMM_DETECT_HALL_FOC\000"
 18226      5F444554 
 18226      4543545F 
 18226      48414C4C 
 18226      5F464F43 
 18227              	.LASF251:
 18228 00c5 666F635F 		.ascii	"foc_observer_gain_slow\000"
 18228      6F627365 
 18228      72766572 
 18228      5F676169 
 18228      6E5F736C 
 18229              	.LASF388:
 18230 00dc 4E52465F 		.ascii	"NRF_RETR_DELAY_750US\000"
 18230      52455452 
 18230      5F44454C 
 18230      41595F37 
 18230      35305553 
 18231              	.LASF618:
 18232 00f1 626C6463 		.ascii	"bldc_interface_get_appconf\000"
 18232      5F696E74 
 18232      65726661 
 18232      63655F67 
 18232      65745F61 
 18233              	.LASF125:
 18234 010c 63665F6F 		.ascii	"cf_off_time\000"
 18234      66665F74 
 18234      696D6500 
 18235              	.LASF79:
 18236 0118 63685F73 		.ascii	"ch_system_t\000"
 18236      79737465 
 18236      6D5F7400 
 18237              	.LASF3:
 18238 0124 5F5F7569 		.ascii	"__uint8_t\000"
 18238      6E74385F 
 18238      7400
 18239              	.LASF97:
 18240 012e 77747365 		.ascii	"wtsemp\000"
 18240      6D7000
 18241              	.LASF325:
 18242 0135 68797374 		.ascii	"hyst\000"
 18242      00
 18243              	.LASF298:
 18244 013a 5F426F6F 		.ascii	"_Bool\000"
 18244      6C00
 18245              	.LASF608:
 18246 0140 626C6463 		.ascii	"bldc_interface_send_alive\000"
 18246      5F696E74 
ARM GAS  /tmp/cczXzW7i.s 			page 323


 18246      65726661 
 18246      63655F73 
 18246      656E645F 
 18247              	.LASF515:
 18248 015a 5F6D6273 		.ascii	"_mbstate\000"
 18248      74617465 
 18248      00
 18249              	.LASF494:
 18250 0163 5F617465 		.ascii	"_atexit\000"
 18250      78697400 
 18251              	.LASF590:
 18252 016b 666F7277 		.ascii	"forward_func\000"
 18252      6172645F 
 18252      66756E63 
 18252      00
 18253              	.LASF584:
 18254 0178 6465635F 		.ascii	"dec_ppm\000"
 18254      70706D00 
 18255              	.LASF360:
 18256 0180 63635F62 		.ascii	"cc_button_inverted\000"
 18256      7574746F 
 18256      6E5F696E 
 18256      76657274 
 18256      656400
 18257              	.LASF301:
 18258 0193 4150505F 		.ascii	"APP_PPM\000"
 18258      50504D00 
 18259              	.LASF292:
 18260 019b 6D5F6472 		.ascii	"m_drv8301_oc_adj\000"
 18260      76383330 
 18260      315F6F63 
 18260      5F61646A 
 18260      00
 18261              	.LASF484:
 18262 01ac 5F5F746D 		.ascii	"__tm_mon\000"
 18262      5F6D6F6E 
 18262      00
 18263              	.LASF362:
 18264 01b5 766F6C74 		.ascii	"voltage_inverted\000"
 18264      6167655F 
 18264      696E7665 
 18264      72746564 
 18264      00
 18265              	.LASF492:
 18266 01c6 5F666E74 		.ascii	"_fntypes\000"
 18266      79706573 
 18266      00
 18267              	.LASF589:
 18268 01cf 73656E64 		.ascii	"send_func\000"
 18268      5F66756E 
 18268      6300
 18269              	.LASF106:
 18270 01d9 6D5F6E65 		.ascii	"m_next\000"
 18270      787400
 18271              	.LASF215:
 18272 01e0 6C5F736C 		.ascii	"l_slow_abs_current\000"
 18272      6F775F61 
ARM GAS  /tmp/cczXzW7i.s 			page 324


 18272      62735F63 
 18272      75727265 
 18272      6E7400
 18273              	.LASF522:
 18274 01f3 5F696E63 		.ascii	"_inc\000"
 18274      00
 18275              	.LASF495:
 18276 01f8 5F696E64 		.ascii	"_ind\000"
 18276      00
 18277              	.LASF204:
 18278 01fd 6C5F696E 		.ascii	"l_in_current_min\000"
 18278      5F637572 
 18278      72656E74 
 18278      5F6D696E 
 18278      00
 18279              	.LASF18:
 18280 020e 75696E74 		.ascii	"uint16_t\000"
 18280      31365F74 
 18280      00
 18281              	.LASF376:
 18282 0217 4E52465F 		.ascii	"NRF_POWER_M18DBM\000"
 18282      504F5745 
 18282      525F4D31 
 18282      3844424D 
 18282      00
 18283              	.LASF641:
 18284 0228 626C6463 		.ascii	"bldc_interface_set_rx_appconf_func\000"
 18284      5F696E74 
 18284      65726661 
 18284      63655F73 
 18284      65745F72 
 18285              	.LASF501:
 18286 024b 5F666C61 		.ascii	"_flags\000"
 18286      677300
 18287              	.LASF598:
 18288 0252 72785F64 		.ascii	"rx_dec_ppm_func\000"
 18288      65635F70 
 18288      706D5F66 
 18288      756E6300 
 18289              	.LASF281:
 18290 0262 63635F73 		.ascii	"cc_startup_boost_duty\000"
 18290      74617274 
 18290      75705F62 
 18290      6F6F7374 
 18290      5F647574 
 18291              	.LASF621:
 18292 0278 626C6463 		.ascii	"bldc_interface_set_appconf\000"
 18292      5F696E74 
 18292      65726661 
 18292      63655F73 
 18292      65745F61 
 18293              	.LASF532:
 18294 0293 5F637674 		.ascii	"_cvtlen\000"
 18294      6C656E00 
 18295              	.LASF56:
 18296 029b 63685F74 		.ascii	"ch_threads_queue\000"
 18296      68726561 
ARM GAS  /tmp/cczXzW7i.s 			page 325


 18296      64735F71 
 18296      75657565 
 18296      00
 18297              	.LASF582:
 18298 02ac 64657465 		.ascii	"detect_hall_table\000"
 18298      63745F68 
 18298      616C6C5F 
 18298      7461626C 
 18298      6500
 18299              	.LASF206:
 18300 02be 6C5F6D69 		.ascii	"l_min_erpm\000"
 18300      6E5F6572 
 18300      706D00
 18301              	.LASF38:
 18302 02c9 705F6E65 		.ascii	"p_newer\000"
 18302      77657200 
 18303              	.LASF196:
 18304 02d1 43414E5F 		.ascii	"CAN_BAUD\000"
 18304      42415544 
 18304      00
 18305              	.LASF122:
 18306 02da 63665F6F 		.ascii	"cf_off_flags\000"
 18306      66665F66 
 18306      6C616773 
 18306      00
 18307              	.LASF514:
 18308 02e7 5F6C6F63 		.ascii	"_lock\000"
 18308      6B00
 18309              	.LASF407:
 18310 02ed 72657472 		.ascii	"retries\000"
 18310      69657300 
 18311              	.LASF568:
 18312 02f5 5F756E75 		.ascii	"_unused\000"
 18312      73656400 
 18313              	.LASF345:
 18314 02fd 4144435F 		.ascii	"ADC_CTRL_TYPE_CURRENT_NOREV_BRAKE_BUTTON\000"
 18314      4354524C 
 18314      5F545950 
 18314      455F4355 
 18314      5252454E 
 18315              	.LASF639:
 18316 0326 626C6463 		.ascii	"bldc_interface_set_rx_dec_ppm_func\000"
 18316      5F696E74 
 18316      65726661 
 18316      63655F73 
 18316      65745F72 
 18317              	.LASF387:
 18318 0349 4E52465F 		.ascii	"NRF_RETR_DELAY_500US\000"
 18318      52455452 
 18318      5F44454C 
 18318      41595F35 
 18318      30305553 
 18319              	.LASF379:
 18320 035e 4E52465F 		.ascii	"NRF_POWER_0DBM\000"
 18320      504F5745 
 18320      525F3044 
 18320      424D00
ARM GAS  /tmp/cczXzW7i.s 			page 326


 18321              	.LASF110:
 18322 036d 63685F73 		.ascii	"ch_size\000"
 18322      697A6500 
 18323              	.LASF588:
 18324 0375 6465635F 		.ascii	"dec_chuk\000"
 18324      6368756B 
 18324      00
 18325              	.LASF217:
 18326 037e 6C5F7465 		.ascii	"l_temp_fet_end\000"
 18326      6D705F66 
 18326      65745F65 
 18326      6E6400
 18327              	.LASF631:
 18328 038d 626C6463 		.ascii	"bldc_interface_terminal_cmd\000"
 18328      5F696E74 
 18328      65726661 
 18328      63655F74 
 18328      65726D69 
 18329              	.LASF491:
 18330 03a9 5F64736F 		.ascii	"_dso_handle\000"
 18330      5F68616E 
 18330      646C6500 
 18331              	.LASF33:
 18332 03b5 74687265 		.ascii	"thread_t\000"
 18332      61645F74 
 18332      00
 18333              	.LASF74:
 18334 03be 63685F76 		.ascii	"ch_virtual_timers_list\000"
 18334      69727475 
 18334      616C5F74 
 18334      696D6572 
 18334      735F6C69 
 18335              	.LASF19:
 18336 03d5 696E7433 		.ascii	"int32_t\000"
 18336      325F7400 
 18337              	.LASF556:
 18338 03dd 5F776374 		.ascii	"_wctomb_state\000"
 18338      6F6D625F 
 18338      73746174 
 18338      6500
 18339              	.LASF32:
 18340 03eb 73797374 		.ascii	"systime_t\000"
 18340      696D655F 
 18340      7400
 18341              	.LASF120:
 18342 03f5 63665F6F 		.ascii	"cf_off_stklimit\000"
 18342      66665F73 
 18342      746B6C69 
 18342      6D697400 
 18343              	.LASF181:
 18344 0405 44525638 		.ascii	"DRV8301_OC_LIMIT\000"
 18344      3330315F 
 18344      4F435F4C 
 18344      494D4954 
 18344      00
 18345              	.LASF158:
 18346 0416 4641554C 		.ascii	"FAULT_CODE_OVER_TEMP_FET\000"
ARM GAS  /tmp/cczXzW7i.s 			page 327


 18346      545F434F 
 18346      44455F4F 
 18346      5645525F 
 18346      54454D50 
 18347              	.LASF619:
 18348 042f 626C6463 		.ascii	"bldc_interface_get_mcconf\000"
 18348      5F696E74 
 18348      65726661 
 18348      63655F67 
 18348      65745F6D 
 18349              	.LASF402:
 18350 0449 4E52465F 		.ascii	"NRF_RETR_DELAY\000"
 18350      52455452 
 18350      5F44454C 
 18350      415900
 18351              	.LASF131:
 18352 0458 50574D5F 		.ascii	"PWM_MODE_BIPOLAR\000"
 18352      4D4F4445 
 18352      5F424950 
 18352      4F4C4152 
 18352      00
 18353              	.LASF132:
 18354 0469 6D635F70 		.ascii	"mc_pwm_mode\000"
 18354      776D5F6D 
 18354      6F646500 
 18355              	.LASF668:
 18356 0475 626C6463 		.ascii	"bldc_interface_fault_to_string\000"
 18356      5F696E74 
 18356      65726661 
 18356      63655F66 
 18356      61756C74 
 18357              	.LASF192:
 18358 0494 43414E5F 		.ascii	"CAN_BAUD_125K\000"
 18358      42415544 
 18358      5F313235 
 18358      4B00
 18359              	.LASF574:
 18360 04a2 76616C75 		.ascii	"values\000"
 18360      657300
 18361              	.LASF421:
 18362 04a9 6170705F 		.ascii	"app_uart_baudrate\000"
 18362      75617274 
 18362      5F626175 
 18362      64726174 
 18362      6500
 18363              	.LASF191:
 18364 04bb 6D6F746F 		.ascii	"motor_control_mode\000"
 18364      725F636F 
 18364      6E74726F 
 18364      6C5F6D6F 
 18364      646500
 18365              	.LASF503:
 18366 04ce 5F6C6266 		.ascii	"_lbfsize\000"
 18366      73697A65 
 18366      00
 18367              	.LASF140:
 18368 04d7 4F55545F 		.ascii	"OUT_AUX_MODE_OFF\000"
ARM GAS  /tmp/cczXzW7i.s 			page 328


 18368      4155585F 
 18368      4D4F4445 
 18368      5F4F4646 
 18368      00
 18369              	.LASF627:
 18370 04e8 626C6463 		.ascii	"bldc_interface_set_current_brake\000"
 18370      5F696E74 
 18370      65726661 
 18370      63655F73 
 18370      65745F63 
 18371              	.LASF592:
 18372 0509 72785F70 		.ascii	"rx_printf_func\000"
 18372      72696E74 
 18372      665F6675 
 18372      6E6300
 18373              	.LASF666:
 18374 0518 626C6463 		.ascii	"bldc_interface.c\000"
 18374      5F696E74 
 18374      65726661 
 18374      63652E63 
 18374      00
 18375              	.LASF624:
 18376 0529 626C6463 		.ascii	"bldc_interface_set_handbrake\000"
 18376      5F696E74 
 18376      65726661 
 18376      63655F73 
 18376      65745F68 
 18377              	.LASF513:
 18378 0546 5F646174 		.ascii	"_data\000"
 18378      6100
 18379              	.LASF82:
 18380 054c 76746C69 		.ascii	"vtlist\000"
 18380      737400
 18381              	.LASF599:
 18382 0553 72785F64 		.ascii	"rx_dec_adc_func\000"
 18382      65635F61 
 18382      64635F66 
 18382      756E6300 
 18383              	.LASF309:
 18384 0563 6170705F 		.ascii	"app_use\000"
 18384      75736500 
 18385              	.LASF644:
 18386 056b 626C6463 		.ascii	"bldc_interface_set_rx_fw_func\000"
 18386      5F696E74 
 18386      65726661 
 18386      63655F73 
 18386      65745F72 
 18387              	.LASF44:
 18388 0589 705F7761 		.ascii	"p_waiting\000"
 18388      6974696E 
 18388      6700
 18389              	.LASF593:
 18390 0593 72785F66 		.ascii	"rx_fw_func\000"
 18390      775F6675 
 18390      6E6300
 18391              	.LASF454:
 18392 059e 434F4D4D 		.ascii	"COMM_REBOOT\000"
ARM GAS  /tmp/cczXzW7i.s 			page 329


 18392      5F524542 
 18392      4F4F5400 
 18393              	.LASF81:
 18394 05aa 726C6973 		.ascii	"rlist\000"
 18394      7400
 18395              	.LASF52:
 18396 05b0 74687265 		.ascii	"threads_list_t\000"
 18396      6164735F 
 18396      6C697374 
 18396      5F7400
 18397              	.LASF116:
 18398 05bf 63665F6F 		.ascii	"cf_off_ctx\000"
 18398      66665F63 
 18398      747800
 18399              	.LASF569:
 18400 05ca 5F5F6C6F 		.ascii	"__lock\000"
 18400      636B00
 18401              	.LASF232:
 18402 05d1 736C5F6D 		.ascii	"sl_min_erpm_cycle_int_limit\000"
 18402      696E5F65 
 18402      72706D5F 
 18402      6379636C 
 18402      655F696E 
 18403              	.LASF517:
 18404 05ed 5F726565 		.ascii	"_reent\000"
 18404      6E7400
 18405              	.LASF118:
 18406 05f4 63665F6F 		.ascii	"cf_off_older\000"
 18406      66665F6F 
 18406      6C646572 
 18406      00
 18407              	.LASF241:
 18408 0601 666F635F 		.ascii	"foc_current_ki\000"
 18408      63757272 
 18408      656E745F 
 18408      6B6900
 18409              	.LASF423:
 18410 0610 6170705F 		.ascii	"app_nrf_conf\000"
 18410      6E72665F 
 18410      636F6E66 
 18410      00
 18411              	.LASF337:
 18412 061d 74635F6D 		.ascii	"tc_max_diff\000"
 18412      61785F64 
 18412      69666600 
 18413              	.LASF240:
 18414 0629 666F635F 		.ascii	"foc_current_kp\000"
 18414      63757272 
 18414      656E745F 
 18414      6B7000
 18415              	.LASF377:
 18416 0638 4E52465F 		.ascii	"NRF_POWER_M12DBM\000"
 18416      504F5745 
 18416      525F4D31 
 18416      3244424D 
 18416      00
 18417              	.LASF538:
ARM GAS  /tmp/cczXzW7i.s 			page 330


 18418 0649 5F5F7366 		.ascii	"__sf\000"
 18418      00
 18419              	.LASF610:
 18420 064e 626C6463 		.ascii	"bldc_interface_reboot\000"
 18420      5F696E74 
 18420      65726661 
 18420      63655F72 
 18420      65626F6F 
 18421              	.LASF670:
 18422 0664 6D656D63 		.ascii	"memcpy\000"
 18422      707900
 18423              	.LASF555:
 18424 066b 5F6D6274 		.ascii	"_mbtowc_state\000"
 18424      6F77635F 
 18424      73746174 
 18424      6500
 18425              	.LASF296:
 18426 0679 6D5F6E74 		.ascii	"m_ntc_motor_beta\000"
 18426      635F6D6F 
 18426      746F725F 
 18426      62657461 
 18426      00
 18427              	.LASF591:
 18428 068a 72785F76 		.ascii	"rx_value_func\000"
 18428      616C7565 
 18428      5F66756E 
 18428      6300
 18429              	.LASF333:
 18430 0698 7468726F 		.ascii	"throttle_exp_mode\000"
 18430      74746C65 
 18430      5F657870 
 18430      5F6D6F64 
 18430      6500
 18431              	.LASF28:
 18432 06aa 74707269 		.ascii	"tprio_t\000"
 18432      6F5F7400 
 18433              	.LASF143:
 18434 06b2 4F55545F 		.ascii	"OUT_AUX_MODE_ON_AFTER_10S\000"
 18434      4155585F 
 18434      4D4F4445 
 18434      5F4F4E5F 
 18434      41465445 
 18435              	.LASF479:
 18436 06cc 5F5F746D 		.ascii	"__tm\000"
 18436      00
 18437              	.LASF385:
 18438 06d1 4E52465F 		.ascii	"NRF_CRC\000"
 18438      43524300 
 18439              	.LASF587:
 18440 06d9 6465635F 		.ascii	"dec_adc_voltage\000"
 18440      6164635F 
 18440      766F6C74 
 18440      61676500 
 18441              	.LASF357:
 18442 06e9 766F6C74 		.ascii	"voltage2_start\000"
 18442      61676532 
 18442      5F737461 
ARM GAS  /tmp/cczXzW7i.s 			page 331


 18442      727400
 18443              	.LASF637:
 18444 06f8 626C6463 		.ascii	"bldc_interface_set_rx_dec_chuk_func\000"
 18444      5F696E74 
 18444      65726661 
 18444      63655F73 
 18444      65745F72 
 18445              	.LASF487:
 18446 071c 5F5F746D 		.ascii	"__tm_yday\000"
 18446      5F796461 
 18446      7900
 18447              	.LASF628:
 18448 0726 626C6463 		.ascii	"bldc_interface_set_current\000"
 18448      5F696E74 
 18448      65726661 
 18448      63655F73 
 18448      65745F63 
 18449              	.LASF146:
 18450 0741 464F435F 		.ascii	"FOC_SENSOR_MODE_ENCODER\000"
 18450      53454E53 
 18450      4F525F4D 
 18450      4F44455F 
 18450      454E434F 
 18451              	.LASF338:
 18452 0759 70706D5F 		.ascii	"ppm_config\000"
 18452      636F6E66 
 18452      696700
 18453              	.LASF321:
 18454 0764 50504D5F 		.ascii	"PPM_CTRL_TYPE_PID_NOREV\000"
 18454      4354524C 
 18454      5F545950 
 18454      455F5049 
 18454      445F4E4F 
 18455              	.LASF463:
 18456 077c 5F4C4F43 		.ascii	"_LOCK_T\000"
 18456      4B5F5400 
 18457              	.LASF354:
 18458 0784 766F6C74 		.ascii	"voltage_start\000"
 18458      6167655F 
 18458      73746172 
 18458      7400
 18459              	.LASF183:
 18460 0792 44525638 		.ascii	"DRV8301_OC_REPORT_ONLY\000"
 18460      3330315F 
 18460      4F435F52 
 18460      45504F52 
 18460      545F4F4E 
 18461              	.LASF307:
 18462 07a9 4150505F 		.ascii	"APP_NRF\000"
 18462      4E524600 
 18463              	.LASF6:
 18464 07b1 5F5F7569 		.ascii	"__uint16_t\000"
 18464      6E743136 
 18464      5F7400
 18465              	.LASF444:
 18466 07bc 434F4D4D 		.ascii	"COMM_SAMPLE_PRINT\000"
 18466      5F53414D 
ARM GAS  /tmp/cczXzW7i.s 			page 332


 18466      504C455F 
 18466      5052494E 
 18466      5400
 18467              	.LASF365:
 18468 07ce 6164635F 		.ascii	"adc_config\000"
 18468      636F6E66 
 18468      696700
 18469              	.LASF46:
 18470 07d9 705F6D73 		.ascii	"p_msg\000"
 18470      6700
 18471              	.LASF547:
 18472 07df 5F756E75 		.ascii	"_unused_rand\000"
 18472      7365645F 
 18472      72616E64 
 18472      00
 18473              	.LASF285:
 18474 07ec 6D5F6661 		.ascii	"m_fault_stop_time_ms\000"
 18474      756C745F 
 18474      73746F70 
 18474      5F74696D 
 18474      655F6D73 
 18475              	.LASF585:
 18476 0801 6465635F 		.ascii	"dec_ppm_len\000"
 18476      70706D5F 
 18476      6C656E00 
 18477              	.LASF273:
 18478 080d 735F7069 		.ascii	"s_pid_kd_filter\000"
 18478      645F6B64 
 18478      5F66696C 
 18478      74657200 
 18479              	.LASF165:
 18480 081d 63757272 		.ascii	"current_in\000"
 18480      656E745F 
 18480      696E00
 18481              	.LASF272:
 18482 0828 735F7069 		.ascii	"s_pid_kd\000"
 18482      645F6B64 
 18482      00
 18483              	.LASF529:
 18484 0831 5F726573 		.ascii	"_result_k\000"
 18484      756C745F 
 18484      6B00
 18485              	.LASF521:
 18486 083b 5F737464 		.ascii	"_stderr\000"
 18486      65727200 
 18487              	.LASF528:
 18488 0843 5F726573 		.ascii	"_result\000"
 18488      756C7400 
 18489              	.LASF172:
 18490 084b 74616368 		.ascii	"tachometer_abs\000"
 18490      6F6D6574 
 18490      65725F61 
 18490      627300
 18491              	.LASF121:
 18492 085a 63665F6F 		.ascii	"cf_off_state\000"
 18492      66665F73 
 18492      74617465 
ARM GAS  /tmp/cczXzW7i.s 			page 333


 18492      00
 18493              	.LASF247:
 18494 0867 666F635F 		.ascii	"foc_motor_l\000"
 18494      6D6F746F 
 18494      725F6C00 
 18495              	.LASF248:
 18496 0873 666F635F 		.ascii	"foc_motor_r\000"
 18496      6D6F746F 
 18496      725F7200 
 18497              	.LASF486:
 18498 087f 5F5F746D 		.ascii	"__tm_wday\000"
 18498      5F776461 
 18498      7900
 18499              	.LASF156:
 18500 0889 4641554C 		.ascii	"FAULT_CODE_DRV\000"
 18500      545F434F 
 18500      44455F44 
 18500      525600
 18501              	.LASF488:
 18502 0898 5F5F746D 		.ascii	"__tm_isdst\000"
 18502      5F697364 
 18502      737400
 18503              	.LASF88:
 18504 08a3 73746B61 		.ascii	"stkalign_t\000"
 18504      6C69676E 
 18504      5F7400
 18505              	.LASF69:
 18506 08ae 76745F70 		.ascii	"vt_prev\000"
 18506      72657600 
 18507              	.LASF4:
 18508 08b6 756E7369 		.ascii	"unsigned char\000"
 18508      676E6564 
 18508      20636861 
 18508      7200
 18509              	.LASF520:
 18510 08c4 5F737464 		.ascii	"_stdout\000"
 18510      6F757400 
 18511              	.LASF274:
 18512 08cc 735F7069 		.ascii	"s_pid_min_erpm\000"
 18512      645F6D69 
 18512      6E5F6572 
 18512      706D00
 18513              	.LASF57:
 18514 08db 72656164 		.ascii	"ready_list_t\000"
 18514      795F6C69 
 18514      73745F74 
 18514      00
 18515              	.LASF53:
 18516 08e8 63685F74 		.ascii	"ch_thread\000"
 18516      68726561 
 18516      6400
 18517              	.LASF603:
 18518 08f2 6D6F746F 		.ascii	"motor_control_set_func\000"
 18518      725F636F 
 18518      6E74726F 
 18518      6C5F7365 
 18518      745F6675 
ARM GAS  /tmp/cczXzW7i.s 			page 334


 18519              	.LASF562:
 18520 0909 5F6D6273 		.ascii	"_mbsrtowcs_state\000"
 18520      72746F77 
 18520      63735F73 
 18520      74617465 
 18520      00
 18521              	.LASF478:
 18522 091a 5F776473 		.ascii	"_wds\000"
 18522      00
 18523              	.LASF0:
 18524 091f 666C6F61 		.ascii	"float\000"
 18524      7400
 18525              	.LASF411:
 18526 0925 6E72665F 		.ascii	"nrf_config\000"
 18526      636F6E66 
 18526      696700
 18527              	.LASF378:
 18528 0930 4E52465F 		.ascii	"NRF_POWER_M6DBM\000"
 18528      504F5745 
 18528      525F4D36 
 18528      44424D00 
 18529              	.LASF223:
 18530 0940 6C5F7761 		.ascii	"l_watt_max\000"
 18530      74745F6D 
 18530      617800
 18531              	.LASF188:
 18532 094b 4D4F544F 		.ascii	"MOTOR_CONTROL_CURRENT_BRAKE\000"
 18532      525F434F 
 18532      4E54524F 
 18532      4C5F4355 
 18532      5252454E 
 18533              	.LASF242:
 18534 0967 666F635F 		.ascii	"foc_f_sw\000"
 18534      665F7377 
 18534      00
 18535              	.LASF208:
 18536 0970 6C5F6572 		.ascii	"l_erpm_start\000"
 18536      706D5F73 
 18536      74617274 
 18536      00
 18537              	.LASF311:
 18538 097d 5448525F 		.ascii	"THR_EXP_NATURAL\000"
 18538      4558505F 
 18538      4E415455 
 18538      52414C00 
 18539              	.LASF499:
 18540 098d 5F73697A 		.ascii	"_size\000"
 18540      6500
 18541              	.LASF329:
 18542 0993 6D656469 		.ascii	"median_filter\000"
 18542      616E5F66 
 18542      696C7465 
 18542      7200
 18543              	.LASF76:
 18544 09a1 73797374 		.ascii	"system_debug_t\000"
 18544      656D5F64 
 18544      65627567 
ARM GAS  /tmp/cczXzW7i.s 			page 335


 18544      5F7400
 18545              	.LASF216:
 18546 09b0 6C5F7465 		.ascii	"l_temp_fet_start\000"
 18546      6D705F66 
 18546      65745F73 
 18546      74617274 
 18546      00
 18547              	.LASF289:
 18548 09c1 6D5F7365 		.ascii	"m_sensor_port_mode\000"
 18548      6E736F72 
 18548      5F706F72 
 18548      745F6D6F 
 18548      646500
 18549              	.LASF363:
 18550 09d4 766F6C74 		.ascii	"voltage2_inverted\000"
 18550      61676532 
 18550      5F696E76 
 18550      65727465 
 18550      6400
 18551              	.LASF37:
 18552 09e6 705F6374 		.ascii	"p_ctx\000"
 18552      7800
 18553              	.LASF72:
 18554 09ec 76745F70 		.ascii	"vt_par\000"
 18554      617200
 18555              	.LASF364:
 18556 09f3 75706461 		.ascii	"update_rate_hz\000"
 18556      74655F72 
 18556      6174655F 
 18556      687A00
 18557              	.LASF64:
 18558 0a02 725F6375 		.ascii	"r_current\000"
 18558      7272656E 
 18558      7400
 18559              	.LASF455:
 18560 0a0c 434F4D4D 		.ascii	"COMM_ALIVE\000"
 18560      5F414C49 
 18560      564500
 18561              	.LASF198:
 18562 0a17 636F6D6D 		.ascii	"comm_mode\000"
 18562      5F6D6F64 
 18562      6500
 18563              	.LASF157:
 18564 0a21 4641554C 		.ascii	"FAULT_CODE_ABS_OVER_CURRENT\000"
 18564      545F434F 
 18564      44455F41 
 18564      42535F4F 
 18564      5645525F 
 18565              	.LASF250:
 18566 0a3d 666F635F 		.ascii	"foc_observer_gain\000"
 18566      6F627365 
 18566      72766572 
 18566      5F676169 
 18566      6E00
 18567              	.LASF370:
 18568 0a4f 73746963 		.ascii	"stick_erpm_per_s_in_cc\000"
 18568      6B5F6572 
ARM GAS  /tmp/cczXzW7i.s 			page 336


 18568      706D5F70 
 18568      65725F73 
 18568      5F696E5F 
 18569              	.LASF164:
 18570 0a66 63757272 		.ascii	"current_motor\000"
 18570      656E745F 
 18570      6D6F746F 
 18570      7200
 18571              	.LASF21:
 18572 0a74 75696E74 		.ascii	"uint64_t\000"
 18572      36345F74 
 18572      00
 18573              	.LASF127:
 18574 0a7d 63685F64 		.ascii	"ch_debug\000"
 18574      65627567 
 18574      00
 18575              	.LASF401:
 18576 0a86 4E52465F 		.ascii	"NRF_RETR_DELAY_4000US\000"
 18576      52455452 
 18576      5F44454C 
 18576      41595F34 
 18576      30303055 
 18577              	.LASF481:
 18578 0a9c 5F5F746D 		.ascii	"__tm_min\000"
 18578      5F6D696E 
 18578      00
 18579              	.LASF607:
 18580 0aa5 73656E64 		.ascii	"send_values_to_receiver\000"
 18580      5F76616C 
 18580      7565735F 
 18580      746F5F72 
 18580      65636569 
 18581              	.LASF485:
 18582 0abd 5F5F746D 		.ascii	"__tm_year\000"
 18582      5F796561 
 18582      7200
 18583              	.LASF545:
 18584 0ac7 5F6D756C 		.ascii	"_mult\000"
 18584      7400
 18585              	.LASF103:
 18586 0acd 63685F6D 		.ascii	"ch_mutex\000"
 18586      75746578 
 18586      00
 18587              	.LASF506:
 18588 0ad6 5F777269 		.ascii	"_write\000"
 18588      746500
 18589              	.LASF629:
 18590 0add 626C6463 		.ascii	"bldc_interface_set_duty_cycle\000"
 18590      5F696E74 
 18590      65726661 
 18590      63655F73 
 18590      65745F64 
 18591              	.LASF275:
 18592 0afb 735F7069 		.ascii	"s_pid_allow_braking\000"
 18592      645F616C 
 18592      6C6F775F 
 18592      6272616B 
ARM GAS  /tmp/cczXzW7i.s 			page 337


 18592      696E6700 
 18593              	.LASF560:
 18594 0b0f 5F6D6272 		.ascii	"_mbrlen_state\000"
 18594      6C656E5F 
 18594      73746174 
 18594      6500
 18595              	.LASF137:
 18596 0b1d 53454E53 		.ascii	"SENSOR_MODE_SENSORED\000"
 18596      4F525F4D 
 18596      4F44455F 
 18596      53454E53 
 18596      4F524544 
 18597              	.LASF117:
 18598 0b32 63665F6F 		.ascii	"cf_off_newer\000"
 18598      66665F6E 
 18598      65776572 
 18598      00
 18599              	.LASF480:
 18600 0b3f 5F5F746D 		.ascii	"__tm_sec\000"
 18600      5F736563 
 18600      00
 18601              	.LASF594:
 18602 0b48 72785F72 		.ascii	"rx_rotor_pos_func\000"
 18602      6F746F72 
 18602      5F706F73 
 18602      5F66756E 
 18602      6300
 18603              	.LASF342:
 18604 0b5a 4144435F 		.ascii	"ADC_CTRL_TYPE_CURRENT_REV_BUTTON\000"
 18604      4354524C 
 18604      5F545950 
 18604      455F4355 
 18604      5252454E 
 18605              	.LASF519:
 18606 0b7b 5F737464 		.ascii	"_stdin\000"
 18606      696E00
 18607              	.LASF567:
 18608 0b82 5F6E6D61 		.ascii	"_nmalloc\000"
 18608      6C6C6F63 
 18608      00
 18609              	.LASF375:
 18610 0b8b 4E52465F 		.ascii	"NRF_SPEED\000"
 18610      53504545 
 18610      4400
 18611              	.LASF335:
 18612 0b95 72616D70 		.ascii	"ramp_time_neg\000"
 18612      5F74696D 
 18612      655F6E65 
 18612      6700
 18613              	.LASF66:
 18614 0ba3 76697274 		.ascii	"virtual_timer_t\000"
 18614      75616C5F 
 18614      74696D65 
 18614      725F7400 
 18615              	.LASF61:
 18616 0bb3 725F6374 		.ascii	"r_ctx\000"
 18616      7800
ARM GAS  /tmp/cczXzW7i.s 			page 338


 18617              	.LASF68:
 18618 0bb9 76745F6E 		.ascii	"vt_next\000"
 18618      65787400 
 18619              	.LASF428:
 18620 0bc1 434F4D4D 		.ascii	"COMM_WRITE_NEW_APP_DATA\000"
 18620      5F575249 
 18620      54455F4E 
 18620      45575F41 
 18620      50505F44 
 18621              	.LASF427:
 18622 0bd9 434F4D4D 		.ascii	"COMM_ERASE_NEW_APP\000"
 18622      5F455241 
 18622      53455F4E 
 18622      45575F41 
 18622      505000
 18623              	.LASF24:
 18624 0bec 7274636E 		.ascii	"rtcnt_t\000"
 18624      745F7400 
 18625              	.LASF138:
 18626 0bf4 53454E53 		.ascii	"SENSOR_MODE_HYBRID\000"
 18626      4F525F4D 
 18626      4F44455F 
 18626      48594252 
 18626      494400
 18627              	.LASF291:
 18628 0c07 6D5F6472 		.ascii	"m_drv8301_oc_mode\000"
 18628      76383330 
 18628      315F6F63 
 18628      5F6D6F64 
 18628      6500
 18629              	.LASF225:
 18630 0c19 6C6F5F63 		.ascii	"lo_current_max\000"
 18630      75727265 
 18630      6E745F6D 
 18630      617800
 18631              	.LASF245:
 18632 0c28 666F635F 		.ascii	"foc_encoder_inverted\000"
 18632      656E636F 
 18632      6465725F 
 18632      696E7665 
 18632      72746564 
 18633              	.LASF282:
 18634 0c3d 63635F6D 		.ascii	"cc_min_current\000"
 18634      696E5F63 
 18634      75727265 
 18634      6E7400
 18635              	.LASF327:
 18636 0c4c 70756C73 		.ascii	"pulse_end\000"
 18636      655F656E 
 18636      6400
 18637              	.LASF178:
 18638 0c56 53454E53 		.ascii	"SENSOR_PORT_MODE_ABI\000"
 18638      4F525F50 
 18638      4F52545F 
 18638      4D4F4445 
 18638      5F414249 
 18639              	.LASF614:
ARM GAS  /tmp/cczXzW7i.s 			page 339


 18640 0c6b 6C6F775F 		.ascii	"low_duty\000"
 18640      64757479 
 18640      00
 18641              	.LASF343:
 18642 0c74 4144435F 		.ascii	"ADC_CTRL_TYPE_CURRENT_REV_BUTTON_BRAKE_ADC\000"
 18642      4354524C 
 18642      5F545950 
 18642      455F4355 
 18642      5252454E 
 18643              	.LASF464:
 18644 0c9f 5F6F6666 		.ascii	"_off_t\000"
 18644      5F7400
 18645              	.LASF341:
 18646 0ca6 4144435F 		.ascii	"ADC_CTRL_TYPE_CURRENT_REV_CENTER\000"
 18646      4354524C 
 18646      5F545950 
 18646      455F4355 
 18646      5252454E 
 18647              	.LASF22:
 18648 0cc7 73697A65 		.ascii	"size_t\000"
 18648      5F7400
 18649              	.LASF550:
 18650 0cce 5F6C6F63 		.ascii	"_localtime_buf\000"
 18650      616C7469 
 18650      6D655F62 
 18650      756600
 18651              	.LASF179:
 18652 0cdd 53454E53 		.ascii	"SENSOR_PORT_MODE_AS5047_SPI\000"
 18652      4F525F50 
 18652      4F52545F 
 18652      4D4F4445 
 18652      5F415335 
 18653              	.LASF469:
 18654 0cf9 5F5F636F 		.ascii	"__count\000"
 18654      756E7400 
 18655              	.LASF413:
 18656 0d01 74696D65 		.ascii	"timeout_msec\000"
 18656      6F75745F 
 18656      6D736563 
 18656      00
 18657              	.LASF17:
 18658 0d0e 75696E74 		.ascii	"uint8_t\000"
 18658      385F7400 
 18659              	.LASF415:
 18660 0d16 73656E64 		.ascii	"send_can_status\000"
 18660      5F63616E 
 18660      5F737461 
 18660      74757300 
 18661              	.LASF63:
 18662 0d26 725F6F6C 		.ascii	"r_older\000"
 18662      64657200 
 18663              	.LASF35:
 18664 0d2e 705F7072 		.ascii	"p_prev\000"
 18664      657600
 18665              	.LASF119:
 18666 0d35 63665F6F 		.ascii	"cf_off_name\000"
 18666      66665F6E 
ARM GAS  /tmp/cczXzW7i.s 			page 340


 18666      616D6500 
 18667              	.LASF451:
 18668 0d41 434F4D4D 		.ascii	"COMM_DETECT_MOTOR_FLUX_LINKAGE\000"
 18668      5F444554 
 18668      4543545F 
 18668      4D4F544F 
 18668      525F464C 
 18669              	.LASF665:
 18670 0d60 474E5520 		.ascii	"GNU C11 7.3.1 20180622 (release) [ARM/embedded-7-br"
 18670      43313120 
 18670      372E332E 
 18670      31203230 
 18670      31383036 
 18671 0d93 616E6368 		.ascii	"anch revision 261907] -mcpu=cortex-m4 -mfloat-abi=h"
 18671      20726576 
 18671      6973696F 
 18671      6E203236 
 18671      31393037 
 18672 0dc6 61726420 		.ascii	"ard -mfpu=fpv4-sp-d16 -mno-thumb-interwork -mthumb "
 18672      2D6D6670 
 18672      753D6670 
 18672      76342D73 
 18672      702D6431 
 18673 0df9 2D676764 		.ascii	"-ggdb -O2 -fomit-frame-pointer -falign-functions=16"
 18673      62202D4F 
 18673      32202D66 
 18673      6F6D6974 
 18673      2D667261 
 18674 0e2c 202D6666 		.ascii	" -ffunction-sections -fdata-sections -fno-common -f"
 18674      756E6374 
 18674      696F6E2D 
 18674      73656374 
 18674      696F6E73 
 18675 0e5f 73696E67 		.ascii	"single-precision-constant\000"
 18675      6C652D70 
 18675      72656369 
 18675      73696F6E 
 18675      2D636F6E 
 18676              	.LASF306:
 18677 0e79 4150505F 		.ascii	"APP_NUNCHUK\000"
 18677      4E554E43 
 18677      48554B00 
 18678              	.LASF230:
 18679 0e85 6C6F5F63 		.ascii	"lo_current_motor_min_now\000"
 18679      75727265 
 18679      6E745F6D 
 18679      6F746F72 
 18679      5F6D696E 
 18680              	.LASF212:
 18681 0e9e 6C5F6D61 		.ascii	"l_max_vin\000"
 18681      785F7669 
 18681      6E00
 18682              	.LASF581:
 18683 0ea8 64657465 		.ascii	"detect_coupling_k\000"
 18683      63745F63 
 18683      6F75706C 
 18683      696E675F 
ARM GAS  /tmp/cczXzW7i.s 			page 341


 18683      6B00
 18684              	.LASF94:
 18685 0eba 65786974 		.ascii	"exitcode\000"
 18685      636F6465 
 18685      00
 18686              	.LASF410:
 18687 0ec3 73656E64 		.ascii	"send_crc_ack\000"
 18687      5F637263 
 18687      5F61636B 
 18687      00
 18688              	.LASF533:
 18689 0ed0 5F637674 		.ascii	"_cvtbuf\000"
 18689      62756600 
 18690              	.LASF190:
 18691 0ed8 4D4F544F 		.ascii	"MOTOR_CONTROL_POS\000"
 18691      525F434F 
 18691      4E54524F 
 18691      4C5F504F 
 18691      5300
 18692              	.LASF622:
 18693 0eea 626C6463 		.ascii	"bldc_interface_set_mcconf\000"
 18693      5F696E74 
 18693      65726661 
 18693      63655F73 
 18693      65745F6D 
 18694              	.LASF655:
 18695 0f04 62756666 		.ascii	"buffer_append_uint16\000"
 18695      65725F61 
 18695      7070656E 
 18695      645F7569 
 18695      6E743136 
 18696              	.LASF348:
 18697 0f19 4144435F 		.ascii	"ADC_CTRL_TYPE_DUTY_REV_CENTER\000"
 18697      4354524C 
 18697      5F545950 
 18697      455F4455 
 18697      54595F52 
 18698              	.LASF322:
 18699 0f37 70706D5F 		.ascii	"ppm_control_type\000"
 18699      636F6E74 
 18699      726F6C5F 
 18699      74797065 
 18699      00
 18700              	.LASF430:
 18701 0f48 434F4D4D 		.ascii	"COMM_SET_DUTY\000"
 18701      5F534554 
 18701      5F445554 
 18701      5900
 18702              	.LASF468:
 18703 0f56 5F5F7763 		.ascii	"__wchb\000"
 18703      686200
 18704              	.LASF586:
 18705 0f5d 6465635F 		.ascii	"dec_adc\000"
 18705      61646300 
 18706              	.LASF561:
 18707 0f65 5F6D6272 		.ascii	"_mbrtowc_state\000"
 18707      746F7763 
ARM GAS  /tmp/cczXzW7i.s 			page 342


 18707      5F737461 
 18707      746500
 18708              	.LASF213:
 18709 0f74 6C5F6261 		.ascii	"l_battery_cut_start\000"
 18709      74746572 
 18709      795F6375 
 18709      745F7374 
 18709      61727400 
 18710              	.LASF482:
 18711 0f88 5F5F746D 		.ascii	"__tm_hour\000"
 18711      5F686F75 
 18711      7200
 18712              	.LASF214:
 18713 0f92 6C5F6261 		.ascii	"l_battery_cut_end\000"
 18713      74746572 
 18713      795F6375 
 18713      745F656E 
 18713      6400
 18714              	.LASF211:
 18715 0fa4 6C5F6D69 		.ascii	"l_min_vin\000"
 18715      6E5F7669 
 18715      6E00
 18716              	.LASF395:
 18717 0fae 4E52465F 		.ascii	"NRF_RETR_DELAY_2500US\000"
 18717      52455452 
 18717      5F44454C 
 18717      41595F32 
 18717      35303055 
 18718              	.LASF510:
 18719 0fc4 5F6E6275 		.ascii	"_nbuf\000"
 18719      6600
 18720              	.LASF439:
 18721 0fca 434F4D4D 		.ascii	"COMM_GET_MCCONF\000"
 18721      5F474554 
 18721      5F4D4343 
 18721      4F4E4600 
 18722              	.LASF466:
 18723 0fda 77696E74 		.ascii	"wint_t\000"
 18723      5F7400
 18724              	.LASF651:
 18725 0fe1 626C6463 		.ascii	"bldc_interface_init\000"
 18725      5F696E74 
 18725      65726661 
 18725      63655F69 
 18725      6E697400 
 18726              	.LASF262:
 18727 0ff5 666F635F 		.ascii	"foc_hall_table\000"
 18727      68616C6C 
 18727      5F746162 
 18727      6C6500
 18728              	.LASF534:
 18729 1004 5F6E6577 		.ascii	"_new\000"
 18729      00
 18730              	.LASF195:
 18731 1009 43414E5F 		.ascii	"CAN_BAUD_1M\000"
 18731      42415544 
 18731      5F314D00 
ARM GAS  /tmp/cczXzW7i.s 			page 343


 18732              	.LASF456:
 18733 1015 434F4D4D 		.ascii	"COMM_GET_DECODED_PPM\000"
 18733      5F474554 
 18733      5F444543 
 18733      4F444544 
 18733      5F50504D 
 18734              	.LASF380:
 18735 102a 4E52465F 		.ascii	"NRF_POWER_OFF\000"
 18735      504F5745 
 18735      525F4F46 
 18735      4600
 18736              	.LASF151:
 18737 1038 4D4F544F 		.ascii	"MOTOR_TYPE_FOC\000"
 18737      525F5459 
 18737      50455F46 
 18737      4F4300
 18738              	.LASF541:
 18739 1047 5F6E696F 		.ascii	"_niobs\000"
 18739      627300
 18740              	.LASF231:
 18741 104e 736C5F6D 		.ascii	"sl_min_erpm\000"
 18741      696E5F65 
 18741      72706D00 
 18742              	.LASF625:
 18743 105a 626C6463 		.ascii	"bldc_interface_set_pos\000"
 18743      5F696E74 
 18743      65726661 
 18743      63655F73 
 18743      65745F70 
 18744              	.LASF518:
 18745 1071 5F657272 		.ascii	"_errno\000"
 18745      6E6F00
 18746              	.LASF611:
 18747 1078 626C6463 		.ascii	"bldc_interface_detect_motor_param\000"
 18747      5F696E74 
 18747      65726661 
 18747      63655F64 
 18747      65746563 
 18748              	.LASF154:
 18749 109a 4641554C 		.ascii	"FAULT_CODE_OVER_VOLTAGE\000"
 18749      545F434F 
 18749      44455F4F 
 18749      5645525F 
 18749      564F4C54 
 18750              	.LASF287:
 18751 10b2 6D5F6375 		.ascii	"m_current_backoff_gain\000"
 18751      7272656E 
 18751      745F6261 
 18751      636B6F66 
 18751      665F6761 
 18752              	.LASF483:
 18753 10c9 5F5F746D 		.ascii	"__tm_mday\000"
 18753      5F6D6461 
 18753      7900
 18754              	.LASF290:
 18755 10d3 6D5F696E 		.ascii	"m_invert_direction\000"
 18755      76657274 
ARM GAS  /tmp/cczXzW7i.s 			page 344


 18755      5F646972 
 18755      65637469 
 18755      6F6E00
 18756              	.LASF653:
 18757 10e6 62756666 		.ascii	"buffer_append_uint32\000"
 18757      65725F61 
 18757      7070656E 
 18757      645F7569 
 18757      6E743332 
 18758              	.LASF459:
 18759 10fb 434F4D4D 		.ascii	"COMM_FORWARD_CAN\000"
 18759      5F464F52 
 18759      57415244 
 18759      5F43414E 
 18759      00
 18760              	.LASF93:
 18761 110c 7264796D 		.ascii	"rdymsg\000"
 18761      736700
 18762              	.LASF490:
 18763 1113 5F666E61 		.ascii	"_fnargs\000"
 18763      72677300 
 18764              	.LASF471:
 18765 111b 5F6D6273 		.ascii	"_mbstate_t\000"
 18765      74617465 
 18765      5F7400
 18766              	.LASF222:
 18767 1126 6C5F6D61 		.ascii	"l_max_duty\000"
 18767      785F6475 
 18767      747900
 18768              	.LASF448:
 18769 1131 434F4D4D 		.ascii	"COMM_EXPERIMENT_SAMPLE\000"
 18769      5F455850 
 18769      4552494D 
 18769      454E545F 
 18769      53414D50 
 18770              	.LASF579:
 18771 1148 61707063 		.ascii	"appconf\000"
 18771      6F6E6600 
 18772              	.LASF652:
 18773 1150 62756666 		.ascii	"buffer_append_float32\000"
 18773      65725F61 
 18773      7070656E 
 18773      645F666C 
 18773      6F617433 
 18774              	.LASF36:
 18775 1166 705F7072 		.ascii	"p_prio\000"
 18775      696F00
 18776              	.LASF13:
 18777 116d 5F5F7569 		.ascii	"__uint64_t\000"
 18777      6E743634 
 18777      5F7400
 18778              	.LASF399:
 18779 1178 4E52465F 		.ascii	"NRF_RETR_DELAY_3500US\000"
 18779      52455452 
 18779      5F44454C 
 18779      41595F33 
 18779      35303055 
ARM GAS  /tmp/cczXzW7i.s 			page 345


 18780              	.LASF263:
 18781 118e 666F635F 		.ascii	"foc_sl_erpm\000"
 18781      736C5F65 
 18781      72706D00 
 18782              	.LASF475:
 18783 119a 5F6E6578 		.ascii	"_next\000"
 18783      7400
 18784              	.LASF558:
 18785 11a0 5F736967 		.ascii	"_signal_buf\000"
 18785      6E616C5F 
 18785      62756600 
 18786              	.LASF409:
 18787 11ac 61646472 		.ascii	"address\000"
 18787      65737300 
 18788              	.LASF504:
 18789 11b4 5F636F6F 		.ascii	"_cookie\000"
 18789      6B696500 
 18790              	.LASF235:
 18791 11bc 736C5F70 		.ascii	"sl_phase_advance_at_br\000"
 18791      68617365 
 18791      5F616476 
 18791      616E6365 
 18791      5F61745F 
 18792              	.LASF163:
 18793 11d3 74656D70 		.ascii	"temp_motor\000"
 18793      5F6D6F74 
 18793      6F7200
 18794              	.LASF344:
 18795 11de 4144435F 		.ascii	"ADC_CTRL_TYPE_CURRENT_NOREV_BRAKE_CENTER\000"
 18795      4354524C 
 18795      5F545950 
 18795      455F4355 
 18795      5252454E 
 18796              	.LASF34:
 18797 1207 705F6E65 		.ascii	"p_next\000"
 18797      787400
 18798              	.LASF661:
 18799 120e 62756666 		.ascii	"buffer_get_float32_auto\000"
 18799      65725F67 
 18799      65745F66 
 18799      6C6F6174 
 18799      33325F61 
 18800              	.LASF170:
 18801 1226 77617474 		.ascii	"watt_hours_charged\000"
 18801      5F686F75 
 18801      72735F63 
 18801      68617267 
 18801      656400
 18802              	.LASF408:
 18803 1239 6368616E 		.ascii	"channel\000"
 18803      6E656C00 
 18804              	.LASF283:
 18805 1241 63635F67 		.ascii	"cc_gain\000"
 18805      61696E00 
 18806              	.LASF391:
 18807 1249 4E52465F 		.ascii	"NRF_RETR_DELAY_1500US\000"
 18807      52455452 
ARM GAS  /tmp/cczXzW7i.s 			page 346


 18807      5F44454C 
 18807      41595F31 
 18807      35303055 
 18808              	.LASF27:
 18809 125f 74726566 		.ascii	"trefs_t\000"
 18809      735F7400 
 18810              	.LASF50:
 18811 1267 705F6D70 		.ascii	"p_mpool\000"
 18811      6F6F6C00 
 18812              	.LASF197:
 18813 126f 70776D5F 		.ascii	"pwm_mode\000"
 18813      6D6F6465 
 18813      00
 18814              	.LASF630:
 18815 1278 64757479 		.ascii	"dutyCycle\000"
 18815      4379636C 
 18815      6500
 18816              	.LASF349:
 18817 1282 4144435F 		.ascii	"ADC_CTRL_TYPE_DUTY_REV_BUTTON\000"
 18817      4354524C 
 18817      5F545950 
 18817      455F4455 
 18817      54595F52 
 18818              	.LASF199:
 18819 12a0 6D6F746F 		.ascii	"motor_type\000"
 18819      725F7479 
 18819      706500
 18820              	.LASF226:
 18821 12ab 6C6F5F63 		.ascii	"lo_current_min\000"
 18821      75727265 
 18821      6E745F6D 
 18821      696E00
 18822              	.LASF233:
 18823 12ba 736C5F6D 		.ascii	"sl_max_fullbreak_current_dir_change\000"
 18823      61785F66 
 18823      756C6C62 
 18823      7265616B 
 18823      5F637572 
 18824              	.LASF489:
 18825 12de 5F6F6E5F 		.ascii	"_on_exit_args\000"
 18825      65786974 
 18825      5F617267 
 18825      7300
 18826              	.LASF580:
 18827 12ec 64657465 		.ascii	"detect_cycle_int_limit\000"
 18827      63745F63 
 18827      79636C65 
 18827      5F696E74 
 18827      5F6C696D 
 18828              	.LASF25:
 18829 1303 746D6F64 		.ascii	"tmode_t\000"
 18829      655F7400 
 18830              	.LASF167:
 18831 130b 616D705F 		.ascii	"amp_hours\000"
 18831      686F7572 
 18831      7300
 18832              	.LASF498:
ARM GAS  /tmp/cczXzW7i.s 			page 347


 18833 1315 5F626173 		.ascii	"_base\000"
 18833      6500
 18834              	.LASF259:
 18835 131b 666F635F 		.ascii	"foc_sl_d_current_duty\000"
 18835      736C5F64 
 18835      5F637572 
 18835      72656E74 
 18835      5F647574 
 18836              	.LASF563:
 18837 1331 5F776372 		.ascii	"_wcrtomb_state\000"
 18837      746F6D62 
 18837      5F737461 
 18837      746500
 18838              	.LASF396:
 18839 1340 4E52465F 		.ascii	"NRF_RETR_DELAY_2750US\000"
 18839      52455452 
 18839      5F44454C 
 18839      41595F32 
 18839      37353055 
 18840              	.LASF667:
 18841 1356 2F686F6D 		.ascii	"/home/jhl/myprogram/vesc/bldc_uart_comm_stm32f4_dis"
 18841      652F6A68 
 18841      6C2F6D79 
 18841      70726F67 
 18841      72616D2F 
 18842 1389 636F7665 		.ascii	"covery\000"
 18842      727900
 18843              	.LASF238:
 18844 1390 68616C6C 		.ascii	"hall_table\000"
 18844      5F746162 
 18844      6C6500
 18845              	.LASF175:
 18846 139b 76657363 		.ascii	"vesc_id\000"
 18846      5F696400 
 18847              	.LASF150:
 18848 13a3 4D4F544F 		.ascii	"MOTOR_TYPE_DC\000"
 18848      525F5459 
 18848      50455F44 
 18848      4300
 18849              	.LASF392:
 18850 13b1 4E52465F 		.ascii	"NRF_RETR_DELAY_1750US\000"
 18850      52455452 
 18850      5F44454C 
 18850      41595F31 
 18850      37353055 
 18851              	.LASF315:
 18852 13c7 50504D5F 		.ascii	"PPM_CTRL_TYPE_CURRENT\000"
 18852      4354524C 
 18852      5F545950 
 18852      455F4355 
 18852      5252454E 
 18853              	.LASF422:
 18854 13dd 6170705F 		.ascii	"app_chuk_conf\000"
 18854      6368756B 
 18854      5F636F6E 
 18854      6600
 18855              	.LASF249:
ARM GAS  /tmp/cczXzW7i.s 			page 348


 18856 13eb 666F635F 		.ascii	"foc_motor_flux_linkage\000"
 18856      6D6F746F 
 18856      725F666C 
 18856      75785F6C 
 18856      696E6B61 
 18857              	.LASF234:
 18858 1402 736C5F63 		.ascii	"sl_cycle_int_limit\000"
 18858      79636C65 
 18858      5F696E74 
 18858      5F6C696D 
 18858      697400
 18859              	.LASF16:
 18860 1415 696E7438 		.ascii	"int8_t\000"
 18860      5F7400
 18861              	.LASF437:
 18862 141c 434F4D4D 		.ascii	"COMM_SET_SERVO_POS\000"
 18862      5F534554 
 18862      5F534552 
 18862      564F5F50 
 18862      4F5300
 18863              	.LASF473:
 18864 142f 5F5F554C 		.ascii	"__ULong\000"
 18864      6F6E6700 
 18865              	.LASF78:
 18866 1437 70616E69 		.ascii	"panic_msg\000"
 18866      635F6D73 
 18866      6700
 18867              	.LASF414:
 18868 1441 74696D65 		.ascii	"timeout_brake_current\000"
 18868      6F75745F 
 18868      6272616B 
 18868      655F6375 
 18868      7272656E 
 18869              	.LASF62:
 18870 1457 725F6E65 		.ascii	"r_newer\000"
 18870      77657200 
 18871              	.LASF597:
 18872 145f 72785F64 		.ascii	"rx_detect_func\000"
 18872      65746563 
 18872      745F6675 
 18872      6E6300
 18873              	.LASF431:
 18874 146e 434F4D4D 		.ascii	"COMM_SET_CURRENT\000"
 18874      5F534554 
 18874      5F435552 
 18874      52454E54 
 18874      00
 18875              	.LASF310:
 18876 147f 5448525F 		.ascii	"THR_EXP_EXPO\000"
 18876      4558505F 
 18876      4558504F 
 18876      00
 18877              	.LASF126:
 18878 148c 63686465 		.ascii	"chdebug_t\000"
 18878      6275675F 
 18878      7400
 18879              	.LASF649:
ARM GAS  /tmp/cczXzW7i.s 			page 349


 18880 1496 626C6463 		.ascii	"bldc_interface_send_packet\000"
 18880      5F696E74 
 18880      65726661 
 18880      63655F73 
 18880      656E645F 
 18881              	.LASF548:
 18882 14b1 5F737472 		.ascii	"_strtok_last\000"
 18882      746F6B5F 
 18882      6C617374 
 18882      00
 18883              	.LASF113:
 18884 14be 63685F74 		.ascii	"ch_timesize\000"
 18884      696D6573 
 18884      697A6500 
 18885              	.LASF328:
 18886 14ca 70756C73 		.ascii	"pulse_center\000"
 18886      655F6365 
 18886      6E746572 
 18886      00
 18887              	.LASF352:
 18888 14d7 4144435F 		.ascii	"ADC_CTRL_TYPE_PID_REV_BUTTON\000"
 18888      4354524C 
 18888      5F545950 
 18888      455F5049 
 18888      445F5245 
 18889              	.LASF70:
 18890 14f4 76745F64 		.ascii	"vt_delta\000"
 18890      656C7461 
 18890      00
 18891              	.LASF544:
 18892 14fd 5F736565 		.ascii	"_seed\000"
 18892      6400
 18893              	.LASF507:
 18894 1503 5F736565 		.ascii	"_seek\000"
 18894      6B00
 18895              	.LASF7:
 18896 1509 73686F72 		.ascii	"short unsigned int\000"
 18896      7420756E 
 18896      7369676E 
 18896      65642069 
 18896      6E7400
 18897              	.LASF161:
 18898 151c 765F696E 		.ascii	"v_in\000"
 18898      00
 18899              	.LASF1:
 18900 1521 7369676E 		.ascii	"signed char\000"
 18900      65642063 
 18900      68617200 
 18901              	.LASF418:
 18902 152d 6170705F 		.ascii	"app_to_use\000"
 18902      746F5F75 
 18902      736500
 18903              	.LASF642:
 18904 1538 626C6463 		.ascii	"bldc_interface_set_rx_mcconf_func\000"
 18904      5F696E74 
 18904      65726661 
 18904      63655F73 
ARM GAS  /tmp/cczXzW7i.s 			page 350


 18904      65745F72 
 18905              	.LASF102:
 18906 155a 735F636E 		.ascii	"s_cnt\000"
 18906      7400
 18907              	.LASF207:
 18908 1560 6C5F6D61 		.ascii	"l_max_erpm\000"
 18908      785F6572 
 18908      706D00
 18909              	.LASF612:
 18910 156b 63757272 		.ascii	"current\000"
 18910      656E7400 
 18911              	.LASF575:
 18912 1573 66775F6D 		.ascii	"fw_major\000"
 18912      616A6F72 
 18912      00
 18913              	.LASF313:
 18914 157c 7468725F 		.ascii	"thr_exp_mode\000"
 18914      6578705F 
 18914      6D6F6465 
 18914      00
 18915              	.LASF657:
 18916 1589 62756666 		.ascii	"buffer_append_float16\000"
 18916      65725F61 
 18916      7070656E 
 18916      645F666C 
 18916      6F617431 
 18917              	.LASF663:
 18918 159f 62756666 		.ascii	"buffer_get_int32\000"
 18918      65725F67 
 18918      65745F69 
 18918      6E743332 
 18918      00
 18919              	.LASF531:
 18920 15b0 5F667265 		.ascii	"_freelist\000"
 18920      656C6973 
 18920      7400
 18921              	.LASF419:
 18922 15ba 6170705F 		.ascii	"app_ppm_conf\000"
 18922      70706D5F 
 18922      636F6E66 
 18922      00
 18923              	.LASF159:
 18924 15c7 4641554C 		.ascii	"FAULT_CODE_OVER_TEMP_MOTOR\000"
 18924      545F434F 
 18924      44455F4F 
 18924      5645525F 
 18924      54454D50 
 18925              	.LASF144:
 18926 15e2 6F75745F 		.ascii	"out_aux_mode\000"
 18926      6175785F 
 18926      6D6F6465 
 18926      00
 18927              	.LASF45:
 18928 15ef 705F6D73 		.ascii	"p_msgqueue\000"
 18928      67717565 
 18928      756500
 18929              	.LASF583:
ARM GAS  /tmp/cczXzW7i.s 			page 351


 18930 15fa 64657465 		.ascii	"detect_hall_res\000"
 18930      63745F68 
 18930      616C6C5F 
 18930      72657300 
 18931              	.LASF123:
 18932 160a 63665F6F 		.ascii	"cf_off_refs\000"
 18932      66665F72 
 18932      65667300 
 18933              	.LASF255:
 18934 1616 666F635F 		.ascii	"foc_duty_dowmramp_ki\000"
 18934      64757479 
 18934      5F646F77 
 18934      6D72616D 
 18934      705F6B69 
 18935              	.LASF386:
 18936 162b 4E52465F 		.ascii	"NRF_RETR_DELAY_250US\000"
 18936      52455452 
 18936      5F44454C 
 18936      41595F32 
 18936      35305553 
 18937              	.LASF105:
 18938 1640 6D5F6F77 		.ascii	"m_owner\000"
 18938      6E657200 
 18939              	.LASF254:
 18940 1648 666F635F 		.ascii	"foc_duty_dowmramp_kp\000"
 18940      64757479 
 18940      5F646F77 
 18940      6D72616D 
 18940      705F6B70 
 18941              	.LASF512:
 18942 165d 5F6F6666 		.ascii	"_offset\000"
 18942      73657400 
 18943              	.LASF86:
 18944 1665 53797374 		.ascii	"SystemCoreClock\000"
 18944      656D436F 
 18944      7265436C 
 18944      6F636B00 
 18945              	.LASF420:
 18946 1675 6170705F 		.ascii	"app_adc_conf\000"
 18946      6164635F 
 18946      636F6E66 
 18946      00
 18947              	.LASF617:
 18948 1682 626C6463 		.ascii	"bldc_interface_get_decoded_ppm\000"
 18948      5F696E74 
 18948      65726661 
 18948      63655F67 
 18948      65745F64 
 18949              	.LASF111:
 18950 16a1 63685F76 		.ascii	"ch_version\000"
 18950      65727369 
 18950      6F6E00
 18951              	.LASF497:
 18952 16ac 5F5F7362 		.ascii	"__sbuf\000"
 18952      756600
 18953              	.LASF557:
 18954 16b3 5F6C3634 		.ascii	"_l64a_buf\000"
ARM GAS  /tmp/cczXzW7i.s 			page 352


 18954      615F6275 
 18954      6600
 18955              	.LASF189:
 18956 16bd 4D4F544F 		.ascii	"MOTOR_CONTROL_RPM\000"
 18956      525F434F 
 18956      4E54524F 
 18956      4C5F5250 
 18956      4D00
 18957              	.LASF546:
 18958 16cf 5F616464 		.ascii	"_add\000"
 18958      00
 18959              	.LASF166:
 18960 16d4 64757479 		.ascii	"duty_now\000"
 18960      5F6E6F77 
 18960      00
 18961              	.LASF80:
 18962 16dd 63685F73 		.ascii	"ch_system\000"
 18962      79737465 
 18962      6D00
 18963              	.LASF201:
 18964 16e7 6C5F6375 		.ascii	"l_current_max\000"
 18964      7272656E 
 18964      745F6D61 
 18964      7800
 18965              	.LASF549:
 18966 16f5 5F617363 		.ascii	"_asctime_buf\000"
 18966      74696D65 
 18966      5F627566 
 18966      00
 18967              	.LASF633:
 18968 1702 66756E63 		.ascii	"func\000"
 18968      00
 18969              	.LASF467:
 18970 1707 5F5F7763 		.ascii	"__wch\000"
 18970      6800
 18971              	.LASF372:
 18972 170d 4E52465F 		.ascii	"NRF_SPEED_250K\000"
 18972      53504545 
 18972      445F3235 
 18972      304B00
 18973              	.LASF100:
 18974 171c 63685F73 		.ascii	"ch_semaphore\000"
 18974      656D6170 
 18974      686F7265 
 18974      00
 18975              	.LASF173:
 18976 1729 6661756C 		.ascii	"fault_code\000"
 18976      745F636F 
 18976      646500
 18977              	.LASF564:
 18978 1734 5F776373 		.ascii	"_wcsrtombs_state\000"
 18978      72746F6D 
 18978      62735F73 
 18978      74617465 
 18978      00
 18979              	.LASF317:
 18980 1745 50504D5F 		.ascii	"PPM_CTRL_TYPE_CURRENT_NOREV_BRAKE\000"
ARM GAS  /tmp/cczXzW7i.s 			page 353


 18980      4354524C 
 18980      5F545950 
 18980      455F4355 
 18980      5252454E 
 18981              	.LASF171:
 18982 1767 74616368 		.ascii	"tachometer\000"
 18982      6F6D6574 
 18982      657200
 18983              	.LASF368:
 18984 1772 4348554B 		.ascii	"CHUK_CTRL_TYPE_CURRENT_NOREV\000"
 18984      5F435452 
 18984      4C5F5459 
 18984      50455F43 
 18984      55525245 
 18985              	.LASF366:
 18986 178f 4348554B 		.ascii	"CHUK_CTRL_TYPE_NONE\000"
 18986      5F435452 
 18986      4C5F5459 
 18986      50455F4E 
 18986      4F4E4500 
 18987              	.LASF55:
 18988 17a3 74687265 		.ascii	"threads_queue_t\000"
 18988      6164735F 
 18988      71756575 
 18988      655F7400 
 18989              	.LASF177:
 18990 17b3 53454E53 		.ascii	"SENSOR_PORT_MODE_HALL\000"
 18990      4F525F50 
 18990      4F52545F 
 18990      4D4F4445 
 18990      5F48414C 
 18991              	.LASF405:
 18992 17c9 6372635F 		.ascii	"crc_type\000"
 18992      74797065 
 18992      00
 18993              	.LASF145:
 18994 17d2 464F435F 		.ascii	"FOC_SENSOR_MODE_SENSORLESS\000"
 18994      53454E53 
 18994      4F525F4D 
 18994      4F44455F 
 18994      53454E53 
 18995              	.LASF43:
 18996 17ed 705F7265 		.ascii	"p_refs\000"
 18996      667300
 18997              	.LASF369:
 18998 17f4 6368756B 		.ascii	"chuk_control_type\000"
 18998      5F636F6E 
 18998      74726F6C 
 18998      5F747970 
 18998      6500
 18999              	.LASF139:
 19000 1806 6D635F73 		.ascii	"mc_sensor_mode\000"
 19000      656E736F 
 19000      725F6D6F 
 19000      646500
 19001              	.LASF596:
 19002 1815 72785F61 		.ascii	"rx_appconf_func\000"
ARM GAS  /tmp/cczXzW7i.s 			page 354


 19002      7070636F 
 19002      6E665F66 
 19002      756E6300 
 19003              	.LASF9:
 19004 1825 6C6F6E67 		.ascii	"long int\000"
 19004      20696E74 
 19004      00
 19005              	.LASF83:
 19006 182e 6D61696E 		.ascii	"mainthread\000"
 19006      74687265 
 19006      616400
 19007              	.LASF626:
 19008 1839 626C6463 		.ascii	"bldc_interface_set_rpm\000"
 19008      5F696E74 
 19008      65726661 
 19008      63655F73 
 19008      65745F72 
 19009              	.LASF104:
 19010 1850 6D5F7175 		.ascii	"m_queue\000"
 19010      65756500 
 19011              	.LASF436:
 19012 1858 434F4D4D 		.ascii	"COMM_SET_DETECT\000"
 19012      5F534554 
 19012      5F444554 
 19012      45435400 
 19013              	.LASF426:
 19014 1868 434F4D4D 		.ascii	"COMM_JUMP_TO_BOOTLOADER\000"
 19014      5F4A554D 
 19014      505F544F 
 19014      5F424F4F 
 19014      544C4F41 
 19015              	.LASF133:
 19016 1880 434F4D4D 		.ascii	"COMM_MODE_INTEGRATE\000"
 19016      5F4D4F44 
 19016      455F494E 
 19016      54454752 
 19016      41544500 
 19017              	.LASF542:
 19018 1894 5F696F62 		.ascii	"_iobs\000"
 19018      7300
 19019              	.LASF523:
 19020 189a 5F656D65 		.ascii	"_emergency\000"
 19020      7267656E 
 19020      637900
 19021              	.LASF331:
 19022 18a5 7468726F 		.ascii	"throttle_exp\000"
 19022      74746C65 
 19022      5F657870 
 19022      00
 19023              	.LASF320:
 19024 18b2 50504D5F 		.ascii	"PPM_CTRL_TYPE_PID\000"
 19024      4354524C 
 19024      5F545950 
 19024      455F5049 
 19024      4400
 19025              	.LASF96:
 19026 18c4 77747472 		.ascii	"wttrp\000"
ARM GAS  /tmp/cczXzW7i.s 			page 355


 19026      7000
 19027              	.LASF89:
 19028 18ca 636F6E74 		.ascii	"context\000"
 19028      65787400 
 19029              	.LASF552:
 19030 18d2 5F72616E 		.ascii	"_rand_next\000"
 19030      645F6E65 
 19030      787400
 19031              	.LASF246:
 19032 18dd 666F635F 		.ascii	"foc_encoder_ratio\000"
 19032      656E636F 
 19032      6465725F 
 19032      72617469 
 19032      6F00
 19033              	.LASF20:
 19034 18ef 75696E74 		.ascii	"uint32_t\000"
 19034      33325F74 
 19034      00
 19035              	.LASF458:
 19036 18f8 434F4D4D 		.ascii	"COMM_GET_DECODED_CHUK\000"
 19036      5F474554 
 19036      5F444543 
 19036      4F444544 
 19036      5F434855 
 19037              	.LASF476:
 19038 190e 5F6D6178 		.ascii	"_maxwds\000"
 19038      77647300 
 19039              	.LASF435:
 19040 1916 434F4D4D 		.ascii	"COMM_SET_HANDBRAKE\000"
 19040      5F534554 
 19040      5F48414E 
 19040      44425241 
 19040      4B4500
 19041              	.LASF477:
 19042 1929 5F736967 		.ascii	"_sign\000"
 19042      6E00
 19043              	.LASF381:
 19044 192f 4E52465F 		.ascii	"NRF_POWER\000"
 19044      504F5745 
 19044      5200
 19045              	.LASF23:
 19046 1939 6C6F6E67 		.ascii	"long double\000"
 19046      20646F75 
 19046      626C6500 
 19047              	.LASF434:
 19048 1945 434F4D4D 		.ascii	"COMM_SET_POS\000"
 19048      5F534554 
 19048      5F504F53 
 19048      00
 19049              	.LASF87:
 19050 1952 72656761 		.ascii	"regarm_t\000"
 19050      726D5F74 
 19050      00
 19051              	.LASF30:
 19052 195b 6576656E 		.ascii	"eventmask_t\000"
 19052      746D6173 
 19052      6B5F7400 
ARM GAS  /tmp/cczXzW7i.s 			page 356


 19053              	.LASF643:
 19054 1967 626C6463 		.ascii	"bldc_interface_set_rx_rotor_pos_func\000"
 19054      5F696E74 
 19054      65726661 
 19054      63655F73 
 19054      65745F72 
 19055              	.LASF358:
 19056 198c 766F6C74 		.ascii	"voltage2_end\000"
 19056      61676532 
 19056      5F656E64 
 19056      00
 19057              	.LASF347:
 19058 1999 4144435F 		.ascii	"ADC_CTRL_TYPE_DUTY\000"
 19058      4354524C 
 19058      5F545950 
 19058      455F4455 
 19058      545900
 19059              	.LASF11:
 19060 19ac 6C6F6E67 		.ascii	"long unsigned int\000"
 19060      20756E73 
 19060      69676E65 
 19060      6420696E 
 19060      7400
 19061              	.LASF284:
 19062 19be 63635F72 		.ascii	"cc_ramp_step_max\000"
 19062      616D705F 
 19062      73746570 
 19062      5F6D6178 
 19062      00
 19063              	.LASF176:
 19064 19cf 6D635F76 		.ascii	"mc_values\000"
 19064      616C7565 
 19064      7300
 19065              	.LASF186:
 19066 19d9 4D4F544F 		.ascii	"MOTOR_CONTROL_DUTY\000"
 19066      525F434F 
 19066      4E54524F 
 19066      4C5F4455 
 19066      545900
 19067              	.LASF374:
 19068 19ec 4E52465F 		.ascii	"NRF_SPEED_2M\000"
 19068      53504545 
 19068      445F324D 
 19068      00
 19069              	.LASF278:
 19070 19f9 705F7069 		.ascii	"p_pid_kd\000"
 19070      645F6B64 
 19070      00
 19071              	.LASF277:
 19072 1a02 705F7069 		.ascii	"p_pid_ki\000"
 19072      645F6B69 
 19072      00
 19073              	.LASF382:
 19074 1a0b 4E52465F 		.ascii	"NRF_CRC_DISABLED\000"
 19074      4352435F 
 19074      44495341 
 19074      424C4544 
ARM GAS  /tmp/cczXzW7i.s 			page 357


 19074      00
 19075              	.LASF276:
 19076 1a1c 705F7069 		.ascii	"p_pid_kp\000"
 19076      645F6B70 
 19076      00
 19077              	.LASF404:
 19078 1a25 706F7765 		.ascii	"power\000"
 19078      7200
 19079              	.LASF300:
 19080 1a2b 4150505F 		.ascii	"APP_NONE\000"
 19080      4E4F4E45 
 19080      00
 19081              	.LASF130:
 19082 1a34 50574D5F 		.ascii	"PWM_MODE_SYNCHRONOUS\000"
 19082      4D4F4445 
 19082      5F53594E 
 19082      4348524F 
 19082      4E4F5553 
 19083              	.LASF294:
 19084 1a49 6D5F626C 		.ascii	"m_bldc_f_sw_max\000"
 19084      64635F66 
 19084      5F73775F 
 19084      6D617800 
 19085              	.LASF647:
 19086 1a59 626C6463 		.ascii	"bldc_interface_process_packet\000"
 19086      5F696E74 
 19086      65726661 
 19086      63655F70 
 19086      726F6365 
 19087              	.LASF185:
 19088 1a77 64727638 		.ascii	"drv8301_oc_mode\000"
 19088      3330315F 
 19088      6F635F6D 
 19088      6F646500 
 19089              	.LASF267:
 19090 1a87 666F635F 		.ascii	"foc_temp_comp\000"
 19090      74656D70 
 19090      5F636F6D 
 19090      7000
 19091              	.LASF355:
 19092 1a95 766F6C74 		.ascii	"voltage_end\000"
 19092      6167655F 
 19092      656E6400 
 19093              	.LASF508:
 19094 1aa1 5F636C6F 		.ascii	"_close\000"
 19094      736500
 19095              	.LASF107:
 19096 1aa8 63686172 		.ascii	"char\000"
 19096      00
 19097              	.LASF59:
 19098 1aad 725F7175 		.ascii	"r_queue\000"
 19098      65756500 
 19099              	.LASF540:
 19100 1ab5 5F676C75 		.ascii	"_glue\000"
 19100      6500
 19101              	.LASF237:
 19102 1abb 736C5F62 		.ascii	"sl_bemf_coupling_k\000"
ARM GAS  /tmp/cczXzW7i.s 			page 358


 19102      656D665F 
 19102      636F7570 
 19102      6C696E67 
 19102      5F6B00
 19103              	.LASF220:
 19104 1ace 6C5F7465 		.ascii	"l_temp_accel_dec\000"
 19104      6D705F61 
 19104      6363656C 
 19104      5F646563 
 19104      00
 19105              	.LASF334:
 19106 1adf 72616D70 		.ascii	"ramp_time_pos\000"
 19106      5F74696D 
 19106      655F706F 
 19106      7300
 19107              	.LASF536:
 19108 1aed 5F736967 		.ascii	"_sig_func\000"
 19108      5F66756E 
 19108      6300
 19109              	.LASF635:
 19110 1af7 626C6463 		.ascii	"bldc_interface_set_rx_appconf_received_func\000"
 19110      5F696E74 
 19110      65726661 
 19110      63655F73 
 19110      65745F72 
 19111              	.LASF577:
 19112 1b23 726F746F 		.ascii	"rotor_pos\000"
 19112      725F706F 
 19112      7300
 19113              	.LASF400:
 19114 1b2d 4E52465F 		.ascii	"NRF_RETR_DELAY_3750US\000"
 19114      52455452 
 19114      5F44454C 
 19114      41595F33 
 19114      37353055 
 19115              	.LASF75:
 19116 1b43 76745F6C 		.ascii	"vt_lasttime\000"
 19116      61737474 
 19116      696D6500 
 19117              	.LASF613:
 19118 1b4f 6D696E5F 		.ascii	"min_rpm\000"
 19118      72706D00 
 19119              	.LASF304:
 19120 1b57 4150505F 		.ascii	"APP_PPM_UART\000"
 19120      50504D5F 
 19120      55415254 
 19120      00
 19121              	.LASF474:
 19122 1b64 5F426967 		.ascii	"_Bigint\000"
 19122      696E7400 
 19123              	.LASF218:
 19124 1b6c 6C5F7465 		.ascii	"l_temp_motor_start\000"
 19124      6D705F6D 
 19124      6F746F72 
 19124      5F737461 
 19124      727400
 19125              	.LASF162:
ARM GAS  /tmp/cczXzW7i.s 			page 359


 19126 1b7f 74656D70 		.ascii	"temp_mos\000"
 19126      5F6D6F73 
 19126      00
 19127              	.LASF659:
 19128 1b88 62756666 		.ascii	"buffer_get_float32\000"
 19128      65725F67 
 19128      65745F66 
 19128      6C6F6174 
 19128      333200
 19129              	.LASF606:
 19130 1b9b 6661756C 		.ascii	"fault\000"
 19130      7400
 19131              	.LASF535:
 19132 1ba1 5F617465 		.ascii	"_atexit0\000"
 19132      78697430 
 19132      00
 19133              	.LASF174:
 19134 1baa 7069645F 		.ascii	"pid_pos\000"
 19134      706F7300 
 19135              	.LASF656:
 19136 1bb2 62756666 		.ascii	"buffer_append_int32\000"
 19136      65725F61 
 19136      7070656E 
 19136      645F696E 
 19136      74333200 
 19137              	.LASF658:
 19138 1bc6 7374726C 		.ascii	"strlen\000"
 19138      656E00
 19139              	.LASF202:
 19140 1bcd 6C5F6375 		.ascii	"l_current_min\000"
 19140      7272656E 
 19140      745F6D69 
 19140      6E00
 19141              	.LASF559:
 19142 1bdb 5F676574 		.ascii	"_getdate_err\000"
 19142      64617465 
 19142      5F657272 
 19142      00
 19143              	.LASF638:
 19144 1be8 626C6463 		.ascii	"bldc_interface_set_rx_dec_adc_func\000"
 19144      5F696E74 
 19144      65726661 
 19144      63655F73 
 19144      65745F72 
 19145              	.LASF302:
 19146 1c0b 4150505F 		.ascii	"APP_ADC\000"
 19146      41444300 
 19147              	.LASF155:
 19148 1c13 4641554C 		.ascii	"FAULT_CODE_UNDER_VOLTAGE\000"
 19148      545F434F 
 19148      44455F55 
 19148      4E444552 
 19148      5F564F4C 
 19149              	.LASF452:
 19150 1c2c 434F4D4D 		.ascii	"COMM_DETECT_ENCODER\000"
 19150      5F444554 
 19150      4543545F 
ARM GAS  /tmp/cczXzW7i.s 			page 360


 19150      454E434F 
 19150      44455200 
 19151              	.LASF440:
 19152 1c40 434F4D4D 		.ascii	"COMM_GET_MCCONF_DEFAULT\000"
 19152      5F474554 
 19152      5F4D4343 
 19152      4F4E465F 
 19152      44454641 
 19153              	.LASF429:
 19154 1c58 434F4D4D 		.ascii	"COMM_GET_VALUES\000"
 19154      5F474554 
 19154      5F56414C 
 19154      55455300 
 19155              	.LASF31:
 19156 1c68 636E745F 		.ascii	"cnt_t\000"
 19156      7400
 19157              	.LASF620:
 19158 1c6e 626C6463 		.ascii	"bldc_interface_get_fw_version\000"
 19158      5F696E74 
 19158      65726661 
 19158      63655F67 
 19158      65745F66 
 19159              	.LASF353:
 19160 1c8c 6164635F 		.ascii	"adc_control_type\000"
 19160      636F6E74 
 19160      726F6C5F 
 19160      74797065 
 19160      00
 19161              	.LASF153:
 19162 1c9d 4641554C 		.ascii	"FAULT_CODE_NONE\000"
 19162      545F434F 
 19162      44455F4E 
 19162      4F4E4500 
 19163              	.LASF271:
 19164 1cad 735F7069 		.ascii	"s_pid_ki\000"
 19164      645F6B69 
 19164      00
 19165              	.LASF239:
 19166 1cb6 68616C6C 		.ascii	"hall_sl_erpm\000"
 19166      5F736C5F 
 19166      6572706D 
 19166      00
 19167              	.LASF270:
 19168 1cc3 735F7069 		.ascii	"s_pid_kp\000"
 19168      645F6B70 
 19168      00
 19169              	.LASF446:
 19170 1ccc 434F4D4D 		.ascii	"COMM_PRINT\000"
 19170      5F505249 
 19170      4E5400
 19171              	.LASF424:
 19172 1cd7 6170705F 		.ascii	"app_configuration\000"
 19172      636F6E66 
 19172      69677572 
 19172      6174696F 
 19172      6E00
 19173              	.LASF229:
ARM GAS  /tmp/cczXzW7i.s 			page 361


 19174 1ce9 6C6F5F63 		.ascii	"lo_current_motor_max_now\000"
 19174      75727265 
 19174      6E745F6D 
 19174      6F746F72 
 19174      5F6D6178 
 19175              	.LASF332:
 19176 1d02 7468726F 		.ascii	"throttle_exp_brake\000"
 19176      74746C65 
 19176      5F657870 
 19176      5F627261 
 19176      6B6500
 19177              	.LASF571:
 19178 1d15 5F696D70 		.ascii	"_impure_ptr\000"
 19178      7572655F 
 19178      70747200 
 19179              	.LASF124:
 19180 1d21 63665F6F 		.ascii	"cf_off_preempt\000"
 19180      66665F70 
 19180      7265656D 
 19180      707400
 19181              	.LASF373:
 19182 1d30 4E52465F 		.ascii	"NRF_SPEED_1M\000"
 19182      53504545 
 19182      445F314D 
 19182      00
 19183              	.LASF511:
 19184 1d3d 5F626C6B 		.ascii	"_blksize\000"
 19184      73697A65 
 19184      00
 19185              	.LASF509:
 19186 1d46 5F756275 		.ascii	"_ubuf\000"
 19186      6600
 19187              	.LASF256:
 19188 1d4c 666F635F 		.ascii	"foc_openloop_rpm\000"
 19188      6F70656E 
 19188      6C6F6F70 
 19188      5F72706D 
 19188      00
 19189              	.LASF260:
 19190 1d5d 666F635F 		.ascii	"foc_sl_d_current_factor\000"
 19190      736C5F64 
 19190      5F637572 
 19190      72656E74 
 19190      5F666163 
 19191              	.LASF554:
 19192 1d75 5F6D626C 		.ascii	"_mblen_state\000"
 19192      656E5F73 
 19192      74617465 
 19192      00
 19193              	.LASF537:
 19194 1d82 5F5F7367 		.ascii	"__sglue\000"
 19194      6C756500 
 19195              	.LASF570:
 19196 1d8a 5F5F6C6F 		.ascii	"__locale_t\000"
 19196      63616C65 
 19196      5F7400
 19197              	.LASF253:
ARM GAS  /tmp/cczXzW7i.s 			page 362


 19198 1d95 666F635F 		.ascii	"foc_pll_ki\000"
 19198      706C6C5F 
 19198      6B6900
 19199              	.LASF252:
 19200 1da0 666F635F 		.ascii	"foc_pll_kp\000"
 19200      706C6C5F 
 19200      6B7000
 19201              	.LASF527:
 19202 1dab 5F5F636C 		.ascii	"__cleanup\000"
 19202      65616E75 
 19202      7000
 19203              	.LASF308:
 19204 1db5 4150505F 		.ascii	"APP_CUSTOM\000"
 19204      43555354 
 19204      4F4D00
 19205              	.LASF65:
 19206 1dc0 76746675 		.ascii	"vtfunc_t\000"
 19206      6E635F74 
 19206      00
 19207              	.LASF450:
 19208 1dc9 434F4D4D 		.ascii	"COMM_DETECT_MOTOR_R_L\000"
 19208      5F444554 
 19208      4543545F 
 19208      4D4F544F 
 19208      525F525F 
 19209              	.LASF168:
 19210 1ddf 616D705F 		.ascii	"amp_hours_charged\000"
 19210      686F7572 
 19210      735F6368 
 19210      61726765 
 19210      6400
 19211              	.LASF662:
 19212 1df1 62756666 		.ascii	"buffer_get_uint16\000"
 19212      65725F67 
 19212      65745F75 
 19212      696E7431 
 19212      3600
 19213              	.LASF95:
 19214 1e03 77746F62 		.ascii	"wtobjp\000"
 19214      6A7000
 19215              	.LASF465:
 19216 1e0a 5F66706F 		.ascii	"_fpos_t\000"
 19216      735F7400 
 19217              	.LASF303:
 19218 1e12 4150505F 		.ascii	"APP_UART\000"
 19218      55415254 
 19218      00
 19219              	.LASF182:
 19220 1e1b 44525638 		.ascii	"DRV8301_OC_LATCH_SHUTDOWN\000"
 19220      3330315F 
 19220      4F435F4C 
 19220      41544348 
 19220      5F534855 
 19221              	.LASF49:
 19222 1e35 705F7265 		.ascii	"p_realprio\000"
 19222      616C7072 
 19222      696F00
ARM GAS  /tmp/cczXzW7i.s 			page 363


 19223              	.LASF305:
 19224 1e40 4150505F 		.ascii	"APP_ADC_UART\000"
 19224      4144435F 
 19224      55415254 
 19224      00
 19225              	.LASF460:
 19226 1e4d 434F4D4D 		.ascii	"COMM_SET_CHUCK_DATA\000"
 19226      5F534554 
 19226      5F434855 
 19226      434B5F44 
 19226      41544100 
 19227              	.LASF640:
 19228 1e61 626C6463 		.ascii	"bldc_interface_set_rx_detect_func\000"
 19228      5F696E74 
 19228      65726661 
 19228      63655F73 
 19228      65745F72 
 19229              	.LASF98:
 19230 1e83 77746D74 		.ascii	"wtmtxp\000"
 19230      787000
 19231              	.LASF152:
 19232 1e8a 6D635F6D 		.ascii	"mc_motor_type\000"
 19232      6F746F72 
 19232      5F747970 
 19232      6500
 19233              	.LASF500:
 19234 1e98 5F5F7346 		.ascii	"__sFILE\000"
 19234      494C4500 
 19235              	.LASF361:
 19236 1ea0 7265765F 		.ascii	"rev_button_inverted\000"
 19236      62757474 
 19236      6F6E5F69 
 19236      6E766572 
 19236      74656400 
 19237              	.LASF496:
 19238 1eb4 5F666E73 		.ascii	"_fns\000"
 19238      00
 19239              	.LASF442:
 19240 1eb9 434F4D4D 		.ascii	"COMM_GET_APPCONF\000"
 19240      5F474554 
 19240      5F415050 
 19240      434F4E46 
 19240      00
 19241              	.LASF671:
 19242 1eca 5F5F6275 		.ascii	"__builtin_memcpy\000"
 19242      696C7469 
 19242      6E5F6D65 
 19242      6D637079 
 19242      00
 19243              	.LASF219:
 19244 1edb 6C5F7465 		.ascii	"l_temp_motor_end\000"
 19244      6D705F6D 
 19244      6F746F72 
 19244      5F656E64 
 19244      00
 19245              	.LASF462:
 19246 1eec 434F4D4D 		.ascii	"COMM_NRF_START_PAIRING\000"
ARM GAS  /tmp/cczXzW7i.s 			page 364


 19246      5F4E5246 
 19246      5F535441 
 19246      52545F50 
 19246      41495249 
 19247              	.LASF565:
 19248 1f03 5F685F65 		.ascii	"_h_errno\000"
 19248      72726E6F 
 19248      00
 19249              	.LASF268:
 19250 1f0c 666F635F 		.ascii	"foc_temp_comp_base_temp\000"
 19250      74656D70 
 19250      5F636F6D 
 19250      705F6261 
 19250      73655F74 
 19251              	.LASF200:
 19252 1f24 73656E73 		.ascii	"sensor_mode\000"
 19252      6F725F6D 
 19252      6F646500 
 19253              	.LASF136:
 19254 1f30 53454E53 		.ascii	"SENSOR_MODE_SENSORLESS\000"
 19254      4F525F4D 
 19254      4F44455F 
 19254      53454E53 
 19254      4F524C45 
 19255              	.LASF403:
 19256 1f47 73706565 		.ascii	"speed\000"
 19256      6400
 19257              	.LASF58:
 19258 1f4d 63685F72 		.ascii	"ch_ready_list\000"
 19258      65616479 
 19258      5F6C6973 
 19258      7400
 19259              	.LASF8:
 19260 1f5b 5F5F696E 		.ascii	"__int32_t\000"
 19260      7433325F 
 19260      7400
 19261              	.LASF194:
 19262 1f65 43414E5F 		.ascii	"CAN_BAUD_500K\000"
 19262      42415544 
 19262      5F353030 
 19262      4B00
 19263              	.LASF10:
 19264 1f73 5F5F7569 		.ascii	"__uint32_t\000"
 19264      6E743332 
 19264      5F7400
 19265              	.LASF77:
 19266 1f7e 63685F73 		.ascii	"ch_system_debug\000"
 19266      79737465 
 19266      6D5F6465 
 19266      62756700 
 19267              	.LASF605:
 19268 1f8e 64617461 		.ascii	"data\000"
 19268      00
 19269              	.LASF660:
 19270 1f93 62756666 		.ascii	"buffer_get_uint32\000"
 19270      65725F67 
 19270      65745F75 
ARM GAS  /tmp/cczXzW7i.s 			page 365


 19270      696E7433 
 19270      3200
 19271              	.LASF470:
 19272 1fa5 5F5F7661 		.ascii	"__value\000"
 19272      6C756500 
 19273              	.LASF493:
 19274 1fad 5F69735F 		.ascii	"_is_cxa\000"
 19274      63786100 
 19275              	.LASF371:
 19276 1fb5 6368756B 		.ascii	"chuk_config\000"
 19276      5F636F6E 
 19276      66696700 
 19277              	.LASF576:
 19278 1fc1 66775F6D 		.ascii	"fw_minor\000"
 19278      696E6F72 
 19278      00
 19279              	.LASF339:
 19280 1fca 4144435F 		.ascii	"ADC_CTRL_TYPE_NONE\000"
 19280      4354524C 
 19280      5F545950 
 19280      455F4E4F 
 19280      4E4500
 19281              	.LASF293:
 19282 1fdd 6D5F626C 		.ascii	"m_bldc_f_sw_min\000"
 19282      64635F66 
 19282      5F73775F 
 19282      6D696E00 
 19283              	.LASF502:
 19284 1fed 5F66696C 		.ascii	"_file\000"
 19284      6500
 19285              	.LASF578:
 19286 1ff3 6D63636F 		.ascii	"mcconf\000"
 19286      6E6600
 19287              	.LASF128:
 19288 1ffa 6D757465 		.ascii	"mutex_t\000"
 19288      785F7400 
 19289              	.LASF530:
 19290 2002 5F703573 		.ascii	"_p5s\000"
 19290      00
 19291              	.LASF244:
 19292 2007 666F635F 		.ascii	"foc_encoder_offset\000"
 19292      656E636F 
 19292      6465725F 
 19292      6F666673 
 19292      657400
 19293              	.LASF654:
 19294 201a 62756666 		.ascii	"buffer_append_float32_auto\000"
 19294      65725F61 
 19294      7070656E 
 19294      645F666C 
 19294      6F617433 
 19295              	.LASF47:
 19296 2035 705F6570 		.ascii	"p_epending\000"
 19296      656E6469 
 19296      6E6700
 19297              	.LASF257:
 19298 2040 666F635F 		.ascii	"foc_sl_openloop_hyst\000"
ARM GAS  /tmp/cczXzW7i.s 			page 366


 19298      736C5F6F 
 19298      70656E6C 
 19298      6F6F705F 
 19298      68797374 
 19299              	.LASF187:
 19300 2055 4D4F544F 		.ascii	"MOTOR_CONTROL_CURRENT\000"
 19300      525F434F 
 19300      4E54524F 
 19300      4C5F4355 
 19300      5252454E 
 19301              	.LASF330:
 19302 206b 73616665 		.ascii	"safe_start\000"
 19302      5F737461 
 19302      727400
 19303              	.LASF457:
 19304 2076 434F4D4D 		.ascii	"COMM_GET_DECODED_ADC\000"
 19304      5F474554 
 19304      5F444543 
 19304      4F444544 
 19304      5F414443 
 19305              	.LASF356:
 19306 208b 766F6C74 		.ascii	"voltage_center\000"
 19306      6167655F 
 19306      63656E74 
 19306      657200
 19307              	.LASF441:
 19308 209a 434F4D4D 		.ascii	"COMM_SET_APPCONF\000"
 19308      5F534554 
 19308      5F415050 
 19308      434F4E46 
 19308      00
 19309              	.LASF319:
 19310 20ab 50504D5F 		.ascii	"PPM_CTRL_TYPE_DUTY_NOREV\000"
 19310      4354524C 
 19310      5F545950 
 19310      455F4455 
 19310      54595F4E 
 19311              	.LASF193:
 19312 20c4 43414E5F 		.ascii	"CAN_BAUD_250K\000"
 19312      42415544 
 19312      5F323530 
 19312      4B00
 19313              	.LASF227:
 19314 20d2 6C6F5F69 		.ascii	"lo_in_current_max\000"
 19314      6E5F6375 
 19314      7272656E 
 19314      745F6D61 
 19314      7800
 19315              	.LASF449:
 19316 20e4 434F4D4D 		.ascii	"COMM_DETECT_MOTOR_PARAM\000"
 19316      5F444554 
 19316      4543545F 
 19316      4D4F544F 
 19316      525F5041 
 19317              	.LASF60:
 19318 20fc 725F7072 		.ascii	"r_prio\000"
 19318      696F00
ARM GAS  /tmp/cczXzW7i.s 			page 367


 19319              	.LASF261:
 19320 2103 666F635F 		.ascii	"foc_sensor_mode\000"
 19320      73656E73 
 19320      6F725F6D 
 19320      6F646500 
 19321              	.LASF85:
 19322 2113 49544D5F 		.ascii	"ITM_RxBuffer\000"
 19322      52784275 
 19322      66666572 
 19322      00
 19323              	.LASF147:
 19324 2120 464F435F 		.ascii	"FOC_SENSOR_MODE_HALL\000"
 19324      53454E53 
 19324      4F525F4D 
 19324      4F44455F 
 19324      48414C4C 
 19325              	.LASF14:
 19326 2135 6C6F6E67 		.ascii	"long long unsigned int\000"
 19326      206C6F6E 
 19326      6720756E 
 19326      7369676E 
 19326      65642069 
 19327              	.LASF91:
 19328 214c 6F666673 		.ascii	"offset\000"
 19328      657400
 19329              	.LASF645:
 19330 2153 626C6463 		.ascii	"bldc_interface_set_rx_printf_func\000"
 19330      5F696E74 
 19330      65726661 
 19330      63655F73 
 19330      65745F72 
 19331              	.LASF279:
 19332 2175 705F7069 		.ascii	"p_pid_kd_filter\000"
 19332      645F6B64 
 19332      5F66696C 
 19332      74657200 
 19333              	.LASF243:
 19334 2185 666F635F 		.ascii	"foc_dt_us\000"
 19334      64745F75 
 19334      7300
 19335              	.LASF266:
 19336 218f 666F635F 		.ascii	"foc_sat_comp\000"
 19336      7361745F 
 19336      636F6D70 
 19336      00
 19337              	.LASF595:
 19338 219c 72785F6D 		.ascii	"rx_mcconf_func\000"
 19338      63636F6E 
 19338      665F6675 
 19338      6E6300
 19339              	.LASF551:
 19340 21ab 5F67616D 		.ascii	"_gamma_signgam\000"
 19340      6D615F73 
 19340      69676E67 
 19340      616D00
 19341              	.LASF84:
 19342 21ba 69646C65 		.ascii	"idle_thread_wa\000"
ARM GAS  /tmp/cczXzW7i.s 			page 368


 19342      5F746872 
 19342      6561645F 
 19342      776100
 19343              	.LASF609:
 19344 21c9 73656E64 		.ascii	"send_index\000"
 19344      5F696E64 
 19344      657800
 19345              	.LASF71:
 19346 21d4 76745F66 		.ascii	"vt_func\000"
 19346      756E6300 
 19347              	.LASF432:
 19348 21dc 434F4D4D 		.ascii	"COMM_SET_CURRENT_BRAKE\000"
 19348      5F534554 
 19348      5F435552 
 19348      52454E54 
 19348      5F425241 
 19349              	.LASF67:
 19350 21f3 63685F76 		.ascii	"ch_virtual_timer\000"
 19350      69727475 
 19350      616C5F74 
 19350      696D6572 
 19350      00
 19351              	.LASF42:
 19352 2204 705F666C 		.ascii	"p_flags\000"
 19352      61677300 
 19353              	.LASF438:
 19354 220c 434F4D4D 		.ascii	"COMM_SET_MCCONF\000"
 19354      5F534554 
 19354      5F4D4343 
 19354      4F4E4600 
 19355              	.LASF99:
 19356 221c 65776D61 		.ascii	"ewmask\000"
 19356      736B00
 19357              	.LASF433:
 19358 2223 434F4D4D 		.ascii	"COMM_SET_RPM\000"
 19358      5F534554 
 19358      5F52504D 
 19358      00
 19359              	.LASF397:
 19360 2230 4E52465F 		.ascii	"NRF_RETR_DELAY_3000US\000"
 19360      52455452 
 19360      5F44454C 
 19360      41595F33 
 19360      30303055 
 19361              	.LASF48:
 19362 2246 705F6D74 		.ascii	"p_mtxlist\000"
 19362      786C6973 
 19362      7400
 19363              	.LASF236:
 19364 2250 736C5F63 		.ascii	"sl_cycle_int_rpm_br\000"
 19364      79636C65 
 19364      5F696E74 
 19364      5F72706D 
 19364      5F627200 
 19365              	.LASF26:
 19366 2264 74737461 		.ascii	"tstate_t\000"
 19366      74655F74 
ARM GAS  /tmp/cczXzW7i.s 			page 369


 19366      00
 19367              	.LASF572:
 19368 226d 5F676C6F 		.ascii	"_global_impure_ptr\000"
 19368      62616C5F 
 19368      696D7075 
 19368      72655F70 
 19368      747200
 19369              	.LASF573:
 19370 2280 73656E64 		.ascii	"send_buffer\000"
 19370      5F627566 
 19370      66657200 
 19371              	.LASF318:
 19372 228c 50504D5F 		.ascii	"PPM_CTRL_TYPE_DUTY\000"
 19372      4354524C 
 19372      5F545950 
 19372      455F4455 
 19372      545900
 19373              	.LASF524:
 19374 229f 5F756E73 		.ascii	"_unspecified_locale_info\000"
 19374      70656369 
 19374      66696564 
 19374      5F6C6F63 
 19374      616C655F 
 19375              	.LASF295:
 19376 22b8 6D5F6463 		.ascii	"m_dc_f_sw\000"
 19376      5F665F73 
 19376      7700
 19377              	.LASF265:
 19378 22c2 666F635F 		.ascii	"foc_sample_high_current\000"
 19378      73616D70 
 19378      6C655F68 
 19378      6967685F 
 19378      63757272 
 19379              	.LASF135:
 19380 22da 6D635F63 		.ascii	"mc_comm_mode\000"
 19380      6F6D6D5F 
 19380      6D6F6465 
 19380      00
 19381              	.LASF40:
 19382 22e7 705F6E61 		.ascii	"p_name\000"
 19382      6D6500
 19383              	.LASF526:
 19384 22ee 5F5F7364 		.ascii	"__sdidinit\000"
 19384      6964696E 
 19384      697400
 19385              	.LASF393:
 19386 22f9 4E52465F 		.ascii	"NRF_RETR_DELAY_2000US\000"
 19386      52455452 
 19386      5F44454C 
 19386      41595F32 
 19386      30303055 
 19387              	.LASF351:
 19388 230f 4144435F 		.ascii	"ADC_CTRL_TYPE_PID_REV_CENTER\000"
 19388      4354524C 
 19388      5F545950 
 19388      455F5049 
 19388      445F5245 
ARM GAS  /tmp/cczXzW7i.s 			page 370


 19389              	.LASF312:
 19390 232c 5448525F 		.ascii	"THR_EXP_POLY\000"
 19390      4558505F 
 19390      504F4C59 
 19390      00
 19391              	.LASF601:
 19392 2339 72785F6D 		.ascii	"rx_mcconf_received_func\000"
 19392      63636F6E 
 19392      665F7265 
 19392      63656976 
 19392      65645F66 
 19393              	.LASF472:
 19394 2351 5F666C6F 		.ascii	"_flock_t\000"
 19394      636B5F74 
 19394      00
 19395              	.LASF73:
 19396 235a 76697274 		.ascii	"virtual_timers_list_t\000"
 19396      75616C5F 
 19396      74696D65 
 19396      72735F6C 
 19396      6973745F 
 19397              	.LASF129:
 19398 2370 50574D5F 		.ascii	"PWM_MODE_NONSYNCHRONOUS_HISW\000"
 19398      4D4F4445 
 19398      5F4E4F4E 
 19398      53594E43 
 19398      48524F4E 
 19399              	.LASF184:
 19400 238d 44525638 		.ascii	"DRV8301_OC_DISABLED\000"
 19400      3330315F 
 19400      4F435F44 
 19400      49534142 
 19400      4C454400 
 19401              	.LASF461:
 19402 23a1 434F4D4D 		.ascii	"COMM_CUSTOM_APP_DATA\000"
 19402      5F435553 
 19402      544F4D5F 
 19402      4150505F 
 19402      44415441 
 19403              	.LASF389:
 19404 23b6 4E52465F 		.ascii	"NRF_RETR_DELAY_1000US\000"
 19404      52455452 
 19404      5F44454C 
 19404      41595F31 
 19404      30303055 
 19405              	.LASF447:
 19406 23cc 434F4D4D 		.ascii	"COMM_ROTOR_POSITION\000"
 19406      5F524F54 
 19406      4F525F50 
 19406      4F534954 
 19406      494F4E00 
 19407              	.LASF141:
 19408 23e0 4F55545F 		.ascii	"OUT_AUX_MODE_ON_AFTER_2S\000"
 19408      4155585F 
 19408      4D4F4445 
 19408      5F4F4E5F 
 19408      41465445 
ARM GAS  /tmp/cczXzW7i.s 			page 371


 19409              	.LASF101:
 19410 23f9 735F7175 		.ascii	"s_queue\000"
 19410      65756500 
 19411              	.LASF359:
 19412 2401 7573655F 		.ascii	"use_filter\000"
 19412      66696C74 
 19412      657200
 19413              	.LASF160:
 19414 240c 6D635F66 		.ascii	"mc_fault_code\000"
 19414      61756C74 
 19414      5F636F64 
 19414      6500
 19415              	.LASF286:
 19416 241a 6D5F6475 		.ascii	"m_duty_ramp_step\000"
 19416      74795F72 
 19416      616D705F 
 19416      73746570 
 19416      00
 19417              	.LASF299:
 19418 242b 6D635F63 		.ascii	"mc_configuration\000"
 19418      6F6E6669 
 19418      67757261 
 19418      74696F6E 
 19418      00
 19419              	.LASF108:
 19420 243c 63685F69 		.ascii	"ch_identifier\000"
 19420      64656E74 
 19420      69666965 
 19420      7200
 19421              	.LASF398:
 19422 244a 4E52465F 		.ascii	"NRF_RETR_DELAY_3250US\000"
 19422      52455452 
 19422      5F44454C 
 19422      41595F33 
 19422      32353055 
 19423              	.LASF12:
 19424 2460 6C6F6E67 		.ascii	"long long int\000"
 19424      206C6F6E 
 19424      6720696E 
 19424      7400
 19425              	.LASF115:
 19426 246e 63665F6F 		.ascii	"cf_off_prio\000"
 19426      66665F70 
 19426      72696F00 
 19427              	.LASF516:
 19428 247a 5F666C61 		.ascii	"_flags2\000"
 19428      67733200 
 19429              	.LASF566:
 19430 2482 5F6E6578 		.ascii	"_nextf\000"
 19430      746600
 19431              	.LASF634:
 19432 2489 626C6463 		.ascii	"bldc_interface_set_sim_control_function\000"
 19432      5F696E74 
 19432      65726661 
 19432      63655F73 
 19432      65745F73 
 19433              	.LASF664:
ARM GAS  /tmp/cczXzW7i.s 			page 372


 19434 24b1 62756666 		.ascii	"buffer_get_float16\000"
 19434      65725F67 
 19434      65745F66 
 19434      6C6F6174 
 19434      313600
 19435              	.LASF445:
 19436 24c4 434F4D4D 		.ascii	"COMM_TERMINAL_CMD\000"
 19436      5F544552 
 19436      4D494E41 
 19436      4C5F434D 
 19436      4400
 19437              	.LASF340:
 19438 24d6 4144435F 		.ascii	"ADC_CTRL_TYPE_CURRENT\000"
 19438      4354524C 
 19438      5F545950 
 19438      455F4355 
 19438      5252454E 
 19439              	.LASF224:
 19440 24ec 6C5F7761 		.ascii	"l_watt_min\000"
 19440      74745F6D 
 19440      696E00
 19441              	.LASF383:
 19442 24f7 4E52465F 		.ascii	"NRF_CRC_1B\000"
 19442      4352435F 
 19442      314200
 19443              	.LASF623:
 19444 2502 626C6463 		.ascii	"bldc_interface_set_servo_pos\000"
 19444      5F696E74 
 19444      65726661 
 19444      63655F73 
 19444      65745F73 
 19445              	.LASF210:
 19446 251f 6C5F6D61 		.ascii	"l_max_erpm_fbrake_cc\000"
 19446      785F6572 
 19446      706D5F66 
 19446      6272616B 
 19446      655F6363 
 19447              	.LASF525:
 19448 2534 5F6C6F63 		.ascii	"_locale\000"
 19448      616C6500 
 19449              	.LASF394:
 19450 253c 4E52465F 		.ascii	"NRF_RETR_DELAY_2250US\000"
 19450      52455452 
 19450      5F44454C 
 19450      41595F32 
 19450      32353055 
 19451              	.LASF443:
 19452 2552 434F4D4D 		.ascii	"COMM_GET_APPCONF_DEFAULT\000"
 19452      5F474554 
 19452      5F415050 
 19452      434F4E46 
 19452      5F444546 
 19453              	.LASF632:
 19454 256b 626C6463 		.ascii	"bldc_interface_set_sim_values_func\000"
 19454      5F696E74 
 19454      65726661 
 19454      63655F73 
ARM GAS  /tmp/cczXzW7i.s 			page 373


 19454      65745F73 
 19455              	.LASF324:
 19456 258e 7069645F 		.ascii	"pid_max_erpm\000"
 19456      6D61785F 
 19456      6572706D 
 19456      00
 19457              	.LASF648:
 19458 259b 73656E64 		.ascii	"send_packet_no_fwd\000"
 19458      5F706163 
 19458      6B65745F 
 19458      6E6F5F66 
 19458      776400
 19459              	.LASF600:
 19460 25ae 72785F64 		.ascii	"rx_dec_chuk_func\000"
 19460      65635F63 
 19460      68756B5F 
 19460      66756E63 
 19460      00
 19461              	.LASF616:
 19462 25bf 626C6463 		.ascii	"bldc_interface_get_decoded_adc\000"
 19462      5F696E74 
 19462      65726661 
 19462      63655F67 
 19462      65745F64 
 19463              	.LASF350:
 19464 25de 4144435F 		.ascii	"ADC_CTRL_TYPE_PID\000"
 19464      4354524C 
 19464      5F545950 
 19464      455F5049 
 19464      4400
 19465              	.LASF406:
 19466 25f0 72657472 		.ascii	"retry_delay\000"
 19466      795F6465 
 19466      6C617900 
 19467              	.LASF417:
 19468 25fc 63616E5F 		.ascii	"can_baud_rate\000"
 19468      62617564 
 19468      5F726174 
 19468      6500
 19469              	.LASF336:
 19470 260a 6D756C74 		.ascii	"multi_esc\000"
 19470      695F6573 
 19470      6300
 19471              	.LASF636:
 19472 2614 626C6463 		.ascii	"bldc_interface_set_rx_mcconf_received_func\000"
 19472      5F696E74 
 19472      65726661 
 19472      63655F73 
 19472      65745F72 
 19473              	.LASF384:
 19474 263f 4E52465F 		.ascii	"NRF_CRC_2B\000"
 19474      4352435F 
 19474      324200
 19475              	.LASF390:
 19476 264a 4E52465F 		.ascii	"NRF_RETR_DELAY_1250US\000"
 19476      52455452 
 19476      5F44454C 
ARM GAS  /tmp/cczXzW7i.s 			page 374


 19476      41595F31 
 19476      32353055 
 19477              	.LASF203:
 19478 2660 6C5F696E 		.ascii	"l_in_current_max\000"
 19478      5F637572 
 19478      72656E74 
 19478      5F6D6178 
 19478      00
 19479              	.LASF604:
 19480 2671 76616C75 		.ascii	"values_requested_func\000"
 19480      65735F72 
 19480      65717565 
 19480      73746564 
 19480      5F66756E 
 19481              	.LASF39:
 19482 2687 705F6F6C 		.ascii	"p_older\000"
 19482      64657200 
 19483              	.LASF416:
 19484 268f 73656E64 		.ascii	"send_can_status_rate_hz\000"
 19484      5F63616E 
 19484      5F737461 
 19484      7475735F 
 19484      72617465 
 19485              	.LASF269:
 19486 26a7 666F635F 		.ascii	"foc_current_filter_const\000"
 19486      63757272 
 19486      656E745F 
 19486      66696C74 
 19486      65725F63 
 19487              	.LASF615:
 19488 26c0 626C6463 		.ascii	"bldc_interface_get_decoded_chuk\000"
 19488      5F696E74 
 19488      65726661 
 19488      63655F67 
 19488      65745F64 
 19489              	.LASF51:
 19490 26e0 74687265 		.ascii	"thread_reference_t\000"
 19490      61645F72 
 19490      65666572 
 19490      656E6365 
 19490      5F7400
 19491              	.LASF280:
 19492 26f3 705F7069 		.ascii	"p_pid_ang_div\000"
 19492      645F616E 
 19492      675F6469 
 19492      7600
 19493              	.LASF142:
 19494 2701 4F55545F 		.ascii	"OUT_AUX_MODE_ON_AFTER_5S\000"
 19494      4155585F 
 19494      4D4F4445 
 19494      5F4F4E5F 
 19494      41465445 
 19495              	.LASF602:
 19496 271a 72785F61 		.ascii	"rx_appconf_received_func\000"
 19496      7070636F 
 19496      6E665F72 
 19496      65636569 
ARM GAS  /tmp/cczXzW7i.s 			page 375


 19496      7665645F 
 19497              	.LASF646:
 19498 2733 626C6463 		.ascii	"bldc_interface_set_rx_value_func\000"
 19498      5F696E74 
 19498      65726661 
 19498      63655F73 
 19498      65745F72 
 19499              	.LASF539:
 19500 2754 5F5F4649 		.ascii	"__FILE\000"
 19500      4C4500
 19501              	.LASF412:
 19502 275b 636F6E74 		.ascii	"controller_id\000"
 19502      726F6C6C 
 19502      65725F69 
 19502      6400
 19503              	.LASF258:
 19504 2769 666F635F 		.ascii	"foc_sl_openloop_time\000"
 19504      736C5F6F 
 19504      70656E6C 
 19504      6F6F705F 
 19504      74696D65 
 19505              	.LASF92:
 19506 277e 746D5F63 		.ascii	"tm_calibration_t\000"
 19506      616C6962 
 19506      72617469 
 19506      6F6E5F74 
 19506      00
 19507              	.LASF2:
 19508 278f 5F5F696E 		.ascii	"__int8_t\000"
 19508      74385F74 
 19508      00
 19509              	.LASF228:
 19510 2798 6C6F5F69 		.ascii	"lo_in_current_min\000"
 19510      6E5F6375 
 19510      7272656E 
 19510      745F6D69 
 19510      6E00
 19511              	.LASF326:
 19512 27aa 70756C73 		.ascii	"pulse_start\000"
 19512      655F7374 
 19512      61727400 
 19513              	.LASF109:
 19514 27b6 63685F7A 		.ascii	"ch_zero\000"
 19514      65726F00 
 19515              	.LASF221:
 19516 27be 6C5F6D69 		.ascii	"l_min_duty\000"
 19516      6E5F6475 
 19516      747900
 19517              	.LASF316:
 19518 27c9 50504D5F 		.ascii	"PPM_CTRL_TYPE_CURRENT_NOREV\000"
 19518      4354524C 
 19518      5F545950 
 19518      455F4355 
 19518      5252454E 
 19519              	.LASF114:
 19520 27e5 63685F74 		.ascii	"ch_threadsize\000"
 19520      68726561 
ARM GAS  /tmp/cczXzW7i.s 			page 376


 19520      6473697A 
 19520      6500
 19521              	.LASF180:
 19522 27f3 73656E73 		.ascii	"sensor_port_mode\000"
 19522      6F725F70 
 19522      6F72745F 
 19522      6D6F6465 
 19522      00
 19523              	.LASF148:
 19524 2804 6D635F66 		.ascii	"mc_foc_sensor_mode\000"
 19524      6F635F73 
 19524      656E736F 
 19524      725F6D6F 
 19524      646500
 19525              	.LASF15:
 19526 2817 756E7369 		.ascii	"unsigned int\000"
 19526      676E6564 
 19526      20696E74 
 19526      00
 19527              	.LASF553:
 19528 2824 5F723438 		.ascii	"_r48\000"
 19528      00
 19529              	.LASF346:
 19530 2829 4144435F 		.ascii	"ADC_CTRL_TYPE_CURRENT_NOREV_BRAKE_ADC\000"
 19530      4354524C 
 19530      5F545950 
 19530      455F4355 
 19530      5252454E 
 19531              	.LASF5:
 19532 284f 73686F72 		.ascii	"short int\000"
 19532      7420696E 
 19532      7400
 19533              	.LASF264:
 19534 2859 666F635F 		.ascii	"foc_sample_v0_v7\000"
 19534      73616D70 
 19534      6C655F76 
 19534      305F7637 
 19534      00
 19535              	.LASF505:
 19536 286a 5F726561 		.ascii	"_read\000"
 19536      6400
 19537              	.LASF669:
 19538 2870 626C6463 		.ascii	"bldc_interface_get_values\000"
 19538      5F696E74 
 19538      65726661 
 19538      63655F67 
 19538      65745F76 
 19539              	.LASF149:
 19540 288a 4D4F544F 		.ascii	"MOTOR_TYPE_BLDC\000"
 19540      525F5459 
 19540      50455F42 
 19540      4C444300 
 19541              	.LASF543:
 19542 289a 5F72616E 		.ascii	"_rand48\000"
 19542      64343800 
 19543              	.LASF41:
 19544 28a2 705F7374 		.ascii	"p_state\000"
ARM GAS  /tmp/cczXzW7i.s 			page 377


 19544      61746500 
 19545              	.LASF54:
 19546 28aa 63685F74 		.ascii	"ch_threads_list\000"
 19546      68726561 
 19546      64735F6C 
 19546      69737400 
 19547              	.LASF134:
 19548 28ba 434F4D4D 		.ascii	"COMM_MODE_DELAY\000"
 19548      5F4D4F44 
 19548      455F4445 
 19548      4C415900 
 19549              	.LASF297:
 19550 28ca 6D5F6F75 		.ascii	"m_out_aux_mode\000"
 19550      745F6175 
 19550      785F6D6F 
 19550      646500
 19551              	.LASF288:
 19552 28d9 6D5F656E 		.ascii	"m_encoder_counts\000"
 19552      636F6465 
 19552      725F636F 
 19552      756E7473 
 19552      00
 19553              		.ident	"GCC: (GNU Tools for Arm Embedded Processors 7-2018-q3-update) 7.3.1 20180622 (release) [AR
ARM GAS  /tmp/cczXzW7i.s 			page 378


DEFINED SYMBOLS
                            *ABS*:0000000000000000 bldc_interface.c
     /tmp/cczXzW7i.s:18     .text.send_packet_no_fwd.part.0:0000000000000000 $t
     /tmp/cczXzW7i.s:25     .text.send_packet_no_fwd.part.0:0000000000000000 send_packet_no_fwd.part.0
     /tmp/cczXzW7i.s:51     .text.send_packet_no_fwd.part.0:000000000000000c $d
     /tmp/cczXzW7i.s:56     .text.bldc_interface_init:0000000000000000 $t
     /tmp/cczXzW7i.s:64     .text.bldc_interface_init:0000000000000000 bldc_interface_init
     /tmp/cczXzW7i.s:80     .text.bldc_interface_init:0000000000000008 $d
     /tmp/cczXzW7i.s:85     .text.bldc_interface_set_forward_func:0000000000000000 $t
     /tmp/cczXzW7i.s:93     .text.bldc_interface_set_forward_func:0000000000000000 bldc_interface_set_forward_func
     /tmp/cczXzW7i.s:109    .text.bldc_interface_set_forward_func:0000000000000008 $d
     /tmp/cczXzW7i.s:114    .text.bldc_interface_send_packet:0000000000000000 $t
     /tmp/cczXzW7i.s:122    .text.bldc_interface_send_packet:0000000000000000 bldc_interface_send_packet
     /tmp/cczXzW7i.s:143    .text.bldc_interface_send_packet:000000000000000c $d
     /tmp/cczXzW7i.s:148    .text.bldc_interface_process_packet:0000000000000000 $t
     /tmp/cczXzW7i.s:156    .text.bldc_interface_process_packet:0000000000000000 bldc_interface_process_packet
     /tmp/cczXzW7i.s:227    .text.bldc_interface_process_packet:000000000000002c $d
     /tmp/cczXzW7i.s:257    .text.bldc_interface_process_packet:00000000000000a4 $t
     /tmp/cczXzW7i.s:342    .text.bldc_interface_process_packet:0000000000000118 $d
     /tmp/cczXzW7i.s:353    .text.bldc_interface_process_packet:0000000000000138 $t
     /tmp/cczXzW7i.s:880    .text.bldc_interface_process_packet:0000000000000468 $d
     /tmp/cczXzW7i.s:886    .text.bldc_interface_process_packet:0000000000000474 $t
     /tmp/cczXzW7i.s:1514   .text.bldc_interface_process_packet:0000000000000810 $d
     /tmp/cczXzW7i.s:1517   .text.bldc_interface_process_packet:0000000000000814 $t
     /tmp/cczXzW7i.s:1977   .text.bldc_interface_process_packet:0000000000000afc $d
     /tmp/cczXzW7i.s:1995   .text.bldc_interface_set_rx_value_func:0000000000000000 $t
     /tmp/cczXzW7i.s:2003   .text.bldc_interface_set_rx_value_func:0000000000000000 bldc_interface_set_rx_value_func
     /tmp/cczXzW7i.s:2019   .text.bldc_interface_set_rx_value_func:0000000000000008 $d
     /tmp/cczXzW7i.s:2024   .text.bldc_interface_set_rx_printf_func:0000000000000000 $t
     /tmp/cczXzW7i.s:2032   .text.bldc_interface_set_rx_printf_func:0000000000000000 bldc_interface_set_rx_printf_func
     /tmp/cczXzW7i.s:2048   .text.bldc_interface_set_rx_printf_func:0000000000000008 $d
     /tmp/cczXzW7i.s:2053   .text.bldc_interface_set_rx_fw_func:0000000000000000 $t
     /tmp/cczXzW7i.s:2061   .text.bldc_interface_set_rx_fw_func:0000000000000000 bldc_interface_set_rx_fw_func
     /tmp/cczXzW7i.s:2075   .text.bldc_interface_set_rx_rotor_pos_func:0000000000000000 $t
     /tmp/cczXzW7i.s:2083   .text.bldc_interface_set_rx_rotor_pos_func:0000000000000000 bldc_interface_set_rx_rotor_pos_func
     /tmp/cczXzW7i.s:2099   .text.bldc_interface_set_rx_rotor_pos_func:0000000000000008 $d
     /tmp/cczXzW7i.s:2104   .text.bldc_interface_set_rx_mcconf_func:0000000000000000 $t
     /tmp/cczXzW7i.s:2112   .text.bldc_interface_set_rx_mcconf_func:0000000000000000 bldc_interface_set_rx_mcconf_func
     /tmp/cczXzW7i.s:2128   .text.bldc_interface_set_rx_mcconf_func:0000000000000008 $d
     /tmp/cczXzW7i.s:2133   .text.bldc_interface_set_rx_appconf_func:0000000000000000 $t
     /tmp/cczXzW7i.s:2141   .text.bldc_interface_set_rx_appconf_func:0000000000000000 bldc_interface_set_rx_appconf_func
     /tmp/cczXzW7i.s:2157   .text.bldc_interface_set_rx_appconf_func:0000000000000008 $d
     /tmp/cczXzW7i.s:2162   .text.bldc_interface_set_rx_detect_func:0000000000000000 $t
     /tmp/cczXzW7i.s:2170   .text.bldc_interface_set_rx_detect_func:0000000000000000 bldc_interface_set_rx_detect_func
     /tmp/cczXzW7i.s:2186   .text.bldc_interface_set_rx_detect_func:0000000000000008 $d
     /tmp/cczXzW7i.s:2191   .text.bldc_interface_set_rx_dec_ppm_func:0000000000000000 $t
     /tmp/cczXzW7i.s:2199   .text.bldc_interface_set_rx_dec_ppm_func:0000000000000000 bldc_interface_set_rx_dec_ppm_func
     /tmp/cczXzW7i.s:2215   .text.bldc_interface_set_rx_dec_ppm_func:0000000000000008 $d
     /tmp/cczXzW7i.s:2220   .text.bldc_interface_set_rx_dec_adc_func:0000000000000000 $t
     /tmp/cczXzW7i.s:2228   .text.bldc_interface_set_rx_dec_adc_func:0000000000000000 bldc_interface_set_rx_dec_adc_func
     /tmp/cczXzW7i.s:2244   .text.bldc_interface_set_rx_dec_adc_func:0000000000000008 $d
     /tmp/cczXzW7i.s:2249   .text.bldc_interface_set_rx_dec_chuk_func:0000000000000000 $t
     /tmp/cczXzW7i.s:2257   .text.bldc_interface_set_rx_dec_chuk_func:0000000000000000 bldc_interface_set_rx_dec_chuk_func
     /tmp/cczXzW7i.s:2273   .text.bldc_interface_set_rx_dec_chuk_func:0000000000000008 $d
     /tmp/cczXzW7i.s:2278   .text.bldc_interface_set_rx_mcconf_received_func:0000000000000000 $t
     /tmp/cczXzW7i.s:2286   .text.bldc_interface_set_rx_mcconf_received_func:0000000000000000 bldc_interface_set_rx_mcconf_received_func
     /tmp/cczXzW7i.s:2302   .text.bldc_interface_set_rx_mcconf_received_func:0000000000000008 $d
ARM GAS  /tmp/cczXzW7i.s 			page 379


     /tmp/cczXzW7i.s:2307   .text.bldc_interface_set_rx_appconf_received_func:0000000000000000 $t
     /tmp/cczXzW7i.s:2315   .text.bldc_interface_set_rx_appconf_received_func:0000000000000000 bldc_interface_set_rx_appconf_received_func
     /tmp/cczXzW7i.s:2331   .text.bldc_interface_set_rx_appconf_received_func:0000000000000008 $d
     /tmp/cczXzW7i.s:2336   .text.bldc_interface_set_sim_control_function:0000000000000000 $t
     /tmp/cczXzW7i.s:2344   .text.bldc_interface_set_sim_control_function:0000000000000000 bldc_interface_set_sim_control_function
     /tmp/cczXzW7i.s:2360   .text.bldc_interface_set_sim_control_function:0000000000000008 $d
     /tmp/cczXzW7i.s:2365   .text.bldc_interface_set_sim_values_func:0000000000000000 $t
     /tmp/cczXzW7i.s:2373   .text.bldc_interface_set_sim_values_func:0000000000000000 bldc_interface_set_sim_values_func
     /tmp/cczXzW7i.s:2389   .text.bldc_interface_set_sim_values_func:0000000000000008 $d
     /tmp/cczXzW7i.s:2394   .text.bldc_interface_terminal_cmd:0000000000000000 $t
     /tmp/cczXzW7i.s:2402   .text.bldc_interface_terminal_cmd:0000000000000000 bldc_interface_terminal_cmd
     /tmp/cczXzW7i.s:2467   .text.bldc_interface_terminal_cmd:0000000000000030 $d
     /tmp/cczXzW7i.s:2475   .text.bldc_interface_set_duty_cycle:0000000000000000 $t
     /tmp/cczXzW7i.s:2483   .text.bldc_interface_set_duty_cycle:0000000000000000 bldc_interface_set_duty_cycle
     /tmp/cczXzW7i.s:2547   .text.bldc_interface_set_duty_cycle:000000000000003c $d
     /tmp/cczXzW7i.s:2557   .text.bldc_interface_set_current:0000000000000000 $t
     /tmp/cczXzW7i.s:2565   .text.bldc_interface_set_current:0000000000000000 bldc_interface_set_current
     /tmp/cczXzW7i.s:2629   .text.bldc_interface_set_current:000000000000003c $d
     /tmp/cczXzW7i.s:2639   .text.bldc_interface_set_current_brake:0000000000000000 $t
     /tmp/cczXzW7i.s:2647   .text.bldc_interface_set_current_brake:0000000000000000 bldc_interface_set_current_brake
     /tmp/cczXzW7i.s:2711   .text.bldc_interface_set_current_brake:000000000000003c $d
     /tmp/cczXzW7i.s:2721   .text.bldc_interface_set_rpm:0000000000000000 $t
     /tmp/cczXzW7i.s:2729   .text.bldc_interface_set_rpm:0000000000000000 bldc_interface_set_rpm
     /tmp/cczXzW7i.s:2798   .text.bldc_interface_set_rpm:0000000000000044 $d
     /tmp/cczXzW7i.s:2807   .text.bldc_interface_set_pos:0000000000000000 $t
     /tmp/cczXzW7i.s:2815   .text.bldc_interface_set_pos:0000000000000000 bldc_interface_set_pos
     /tmp/cczXzW7i.s:2879   .text.bldc_interface_set_pos:000000000000003c $d
     /tmp/cczXzW7i.s:2889   .text.bldc_interface_set_handbrake:0000000000000000 $t
     /tmp/cczXzW7i.s:2897   .text.bldc_interface_set_handbrake:0000000000000000 bldc_interface_set_handbrake
     /tmp/cczXzW7i.s:2958   .text.bldc_interface_set_handbrake:0000000000000034 $d
     /tmp/cczXzW7i.s:2965   .text.bldc_interface_set_servo_pos:0000000000000000 $t
     /tmp/cczXzW7i.s:2973   .text.bldc_interface_set_servo_pos:0000000000000000 bldc_interface_set_servo_pos
     /tmp/cczXzW7i.s:3034   .text.bldc_interface_set_servo_pos:0000000000000034 $d
     /tmp/cczXzW7i.s:3041   .text.bldc_interface_set_mcconf:0000000000000000 $t
     /tmp/cczXzW7i.s:3049   .text.bldc_interface_set_mcconf:0000000000000000 bldc_interface_set_mcconf
     /tmp/cczXzW7i.s:3588   .text.bldc_interface_set_mcconf:00000000000003d0 $d
     /tmp/cczXzW7i.s:3591   .text.bldc_interface_set_mcconf:00000000000003d4 $t
     /tmp/cczXzW7i.s:3713   .text.bldc_interface_set_mcconf:0000000000000480 $d
     /tmp/cczXzW7i.s:3718   .text.bldc_interface_set_appconf:0000000000000000 $t
     /tmp/cczXzW7i.s:3726   .text.bldc_interface_set_appconf:0000000000000000 bldc_interface_set_appconf
     /tmp/cczXzW7i.s:4176   .text.bldc_interface_set_appconf:00000000000002c8 $d
     /tmp/cczXzW7i.s:4182   .text.bldc_interface_get_fw_version:0000000000000000 $t
     /tmp/cczXzW7i.s:4190   .text.bldc_interface_get_fw_version:0000000000000000 bldc_interface_get_fw_version
     /tmp/cczXzW7i.s:4233   .text.bldc_interface_get_fw_version:0000000000000014 $d
     /tmp/cczXzW7i.s:4241   .text.bldc_interface_get_values:0000000000000000 $t
     /tmp/cczXzW7i.s:4249   .text.bldc_interface_get_values:0000000000000000 bldc_interface_get_values
     /tmp/cczXzW7i.s:4299   .text.bldc_interface_get_values:000000000000001c $d
     /tmp/cczXzW7i.s:4308   .text.bldc_interface_get_mcconf:0000000000000000 $t
     /tmp/cczXzW7i.s:4316   .text.bldc_interface_get_mcconf:0000000000000000 bldc_interface_get_mcconf
     /tmp/cczXzW7i.s:4359   .text.bldc_interface_get_mcconf:0000000000000014 $d
     /tmp/cczXzW7i.s:4367   .text.bldc_interface_get_appconf:0000000000000000 $t
     /tmp/cczXzW7i.s:4375   .text.bldc_interface_get_appconf:0000000000000000 bldc_interface_get_appconf
     /tmp/cczXzW7i.s:4418   .text.bldc_interface_get_appconf:0000000000000014 $d
     /tmp/cczXzW7i.s:4426   .text.bldc_interface_get_decoded_ppm:0000000000000000 $t
     /tmp/cczXzW7i.s:4434   .text.bldc_interface_get_decoded_ppm:0000000000000000 bldc_interface_get_decoded_ppm
     /tmp/cczXzW7i.s:4477   .text.bldc_interface_get_decoded_ppm:0000000000000014 $d
     /tmp/cczXzW7i.s:4485   .text.bldc_interface_get_decoded_adc:0000000000000000 $t
ARM GAS  /tmp/cczXzW7i.s 			page 380


     /tmp/cczXzW7i.s:4493   .text.bldc_interface_get_decoded_adc:0000000000000000 bldc_interface_get_decoded_adc
     /tmp/cczXzW7i.s:4536   .text.bldc_interface_get_decoded_adc:0000000000000014 $d
     /tmp/cczXzW7i.s:4544   .text.bldc_interface_get_decoded_chuk:0000000000000000 $t
     /tmp/cczXzW7i.s:4552   .text.bldc_interface_get_decoded_chuk:0000000000000000 bldc_interface_get_decoded_chuk
     /tmp/cczXzW7i.s:4595   .text.bldc_interface_get_decoded_chuk:0000000000000014 $d
     /tmp/cczXzW7i.s:4603   .text.bldc_interface_detect_motor_param:0000000000000000 $t
     /tmp/cczXzW7i.s:4611   .text.bldc_interface_detect_motor_param:0000000000000000 bldc_interface_detect_motor_param
     /tmp/cczXzW7i.s:4705   .text.bldc_interface_detect_motor_param:0000000000000068 $d
     /tmp/cczXzW7i.s:4712   .text.bldc_interface_reboot:0000000000000000 $t
     /tmp/cczXzW7i.s:4720   .text.bldc_interface_reboot:0000000000000000 bldc_interface_reboot
     /tmp/cczXzW7i.s:4763   .text.bldc_interface_reboot:0000000000000014 $d
     /tmp/cczXzW7i.s:4771   .text.bldc_interface_send_alive:0000000000000000 $t
     /tmp/cczXzW7i.s:4779   .text.bldc_interface_send_alive:0000000000000000 bldc_interface_send_alive
     /tmp/cczXzW7i.s:4822   .text.bldc_interface_send_alive:0000000000000014 $d
     /tmp/cczXzW7i.s:4830   .text.send_values_to_receiver:0000000000000000 $t
     /tmp/cczXzW7i.s:4838   .text.send_values_to_receiver:0000000000000000 send_values_to_receiver
     /tmp/cczXzW7i.s:4859   .text.send_values_to_receiver:000000000000000c $d
     /tmp/cczXzW7i.s:4864   .text.bldc_interface_fault_to_string:0000000000000000 $t
     /tmp/cczXzW7i.s:4872   .text.bldc_interface_fault_to_string:0000000000000000 bldc_interface_fault_to_string
     /tmp/cczXzW7i.s:4892   .text.bldc_interface_fault_to_string:0000000000000010 $d
     /tmp/cczXzW7i.s:4898   .text.send_packet_no_fwd:0000000000000000 $t
     /tmp/cczXzW7i.s:4906   .text.send_packet_no_fwd:0000000000000000 send_packet_no_fwd
     /tmp/cczXzW7i.s:4926   .text.send_packet_no_fwd:000000000000000c $d
     /tmp/cczXzW7i.s:4931   .bss.appconf:0000000000000000 $d
     /tmp/cczXzW7i.s:4935   .bss.appconf:0000000000000000 appconf
     /tmp/cczXzW7i.s:4938   .bss.dec_adc:0000000000000000 $d
     /tmp/cczXzW7i.s:4942   .bss.dec_adc:0000000000000000 dec_adc
     /tmp/cczXzW7i.s:4945   .bss.dec_ppm:0000000000000000 $d
     /tmp/cczXzW7i.s:4949   .bss.dec_ppm:0000000000000000 dec_ppm
     /tmp/cczXzW7i.s:4952   .bss.detect_cycle_int_limit:0000000000000000 $d
     /tmp/cczXzW7i.s:4956   .bss.detect_cycle_int_limit:0000000000000000 detect_cycle_int_limit
     /tmp/cczXzW7i.s:4959   .bss.detect_hall_table:0000000000000000 $d
     /tmp/cczXzW7i.s:4963   .bss.detect_hall_table:0000000000000000 detect_hall_table
     /tmp/cczXzW7i.s:4966   .bss.forward_func:0000000000000000 $d
     /tmp/cczXzW7i.s:4970   .bss.forward_func:0000000000000000 forward_func
     /tmp/cczXzW7i.s:4973   .bss.mcconf:0000000000000000 $d
     /tmp/cczXzW7i.s:4977   .bss.mcconf:0000000000000000 mcconf
     /tmp/cczXzW7i.s:4980   .bss.motor_control_set_func:0000000000000000 $d
     /tmp/cczXzW7i.s:4984   .bss.motor_control_set_func:0000000000000000 motor_control_set_func
     /tmp/cczXzW7i.s:4987   .bss.rx_appconf_func:0000000000000000 $d
     /tmp/cczXzW7i.s:4991   .bss.rx_appconf_func:0000000000000000 rx_appconf_func
     /tmp/cczXzW7i.s:4994   .bss.rx_appconf_received_func:0000000000000000 $d
     /tmp/cczXzW7i.s:4998   .bss.rx_appconf_received_func:0000000000000000 rx_appconf_received_func
     /tmp/cczXzW7i.s:5001   .bss.rx_dec_adc_func:0000000000000000 $d
     /tmp/cczXzW7i.s:5005   .bss.rx_dec_adc_func:0000000000000000 rx_dec_adc_func
     /tmp/cczXzW7i.s:5008   .bss.rx_dec_chuk_func:0000000000000000 $d
     /tmp/cczXzW7i.s:5012   .bss.rx_dec_chuk_func:0000000000000000 rx_dec_chuk_func
     /tmp/cczXzW7i.s:5015   .bss.rx_dec_ppm_func:0000000000000000 $d
     /tmp/cczXzW7i.s:5019   .bss.rx_dec_ppm_func:0000000000000000 rx_dec_ppm_func
     /tmp/cczXzW7i.s:5022   .bss.rx_detect_func:0000000000000000 $d
     /tmp/cczXzW7i.s:5026   .bss.rx_detect_func:0000000000000000 rx_detect_func
     /tmp/cczXzW7i.s:5029   .bss.rx_mcconf_func:0000000000000000 $d
     /tmp/cczXzW7i.s:5033   .bss.rx_mcconf_func:0000000000000000 rx_mcconf_func
     /tmp/cczXzW7i.s:5036   .bss.rx_mcconf_received_func:0000000000000000 $d
     /tmp/cczXzW7i.s:5040   .bss.rx_mcconf_received_func:0000000000000000 rx_mcconf_received_func
     /tmp/cczXzW7i.s:5043   .bss.rx_printf_func:0000000000000000 $d
     /tmp/cczXzW7i.s:5047   .bss.rx_printf_func:0000000000000000 rx_printf_func
ARM GAS  /tmp/cczXzW7i.s 			page 381


     /tmp/cczXzW7i.s:5050   .bss.rx_rotor_pos_func:0000000000000000 $d
     /tmp/cczXzW7i.s:5054   .bss.rx_rotor_pos_func:0000000000000000 rx_rotor_pos_func
     /tmp/cczXzW7i.s:5057   .bss.rx_value_func:0000000000000000 $d
     /tmp/cczXzW7i.s:5061   .bss.rx_value_func:0000000000000000 rx_value_func
     /tmp/cczXzW7i.s:5064   .bss.send_buffer:0000000000000000 $d
     /tmp/cczXzW7i.s:5068   .bss.send_buffer:0000000000000000 send_buffer
     /tmp/cczXzW7i.s:5071   .bss.send_func:0000000000000000 $d
     /tmp/cczXzW7i.s:5075   .bss.send_func:0000000000000000 send_func
     /tmp/cczXzW7i.s:5078   .bss.values:0000000000000000 $d
     /tmp/cczXzW7i.s:5082   .bss.values:0000000000000000 values
     /tmp/cczXzW7i.s:5085   .bss.values_requested_func:0000000000000000 $d
     /tmp/cczXzW7i.s:5089   .bss.values_requested_func:0000000000000000 values_requested_func
     /tmp/cczXzW7i.s:5092   .rodata.CSWTCH.404:0000000000000000 $d
     /tmp/cczXzW7i.s:5096   .rodata.CSWTCH.404:0000000000000000 CSWTCH.404
     /tmp/cczXzW7i.s:5105   .rodata.bldc_interface_fault_to_string.str1.4:0000000000000000 $d
     /tmp/cczXzW7i.s:5109   .rodata.str1.4:0000000000000000 $d

UNDEFINED SYMBOLS
buffer_get_float32
buffer_get_uint32
buffer_get_float32_auto
buffer_get_uint16
buffer_get_int32
buffer_get_float16
strlen
memcpy
buffer_append_float32
buffer_append_int32
buffer_append_float16
buffer_append_float32_auto
buffer_append_uint32
buffer_append_uint16
