ARM GAS  /tmp/ccsfnBTQ.s 			page 1


   1              		.cpu cortex-m4
   2              		.eabi_attribute 27, 1
   3              		.eabi_attribute 28, 1
   4              		.eabi_attribute 20, 1
   5              		.eabi_attribute 21, 1
   6              		.eabi_attribute 23, 3
   7              		.eabi_attribute 24, 1
   8              		.eabi_attribute 25, 1
   9              		.eabi_attribute 26, 1
  10              		.eabi_attribute 30, 2
  11              		.eabi_attribute 34, 1
  12              		.eabi_attribute 18, 4
  13              		.file	"bldc_interface_uart.c"
  14              		.text
  15              	.Ltext0:
  16              		.cfi_sections	.debug_frame
  17              		.section	.text.send_packet_bldc_interface,"ax",%progbits
  18              		.align	1
  19              		.p2align 4,,15
  20              		.syntax unified
  21              		.thumb
  22              		.thumb_func
  23              		.fpu fpv4-sp-d16
  24              		.type	send_packet_bldc_interface, %function
  25              	send_packet_bldc_interface:
  26              	.LFB264:
  27              		.file 1 "bldc_interface_uart.c"
  28              		.loc 1 93 0
  29              		.cfi_startproc
  30              		@ args = 0, pretend = 0, frame = 0
  31              		@ frame_needed = 0, uses_anonymous_args = 0
  32              		@ link register save eliminated.
  33              	.LVL0:
  34              		.loc 1 95 0
  35 0000 0022     		movs	r2, #0
  36 0002 FFF7FEBF 		b	packet_send_packet
  37              	.LVL1:
  38              		.cfi_endproc
  39              	.LFE264:
  40              		.size	send_packet_bldc_interface, .-send_packet_bldc_interface
  41 0006 00BF     		.section	.text.process_packet,"ax",%progbits
  42              		.align	1
  43              		.p2align 4,,15
  44              		.syntax unified
  45              		.thumb
  46              		.thumb_func
  47              		.fpu fpv4-sp-d16
  48              		.type	process_packet, %function
  49              	process_packet:
  50              	.LFB263:
  51              		.loc 1 80 0
  52              		.cfi_startproc
  53              		@ args = 0, pretend = 0, frame = 0
  54              		@ frame_needed = 0, uses_anonymous_args = 0
  55              		@ link register save eliminated.
  56              	.LVL2:
  57              		.loc 1 82 0
ARM GAS  /tmp/ccsfnBTQ.s 			page 2


  58 0000 FFF7FEBF 		b	bldc_interface_process_packet
  59              	.LVL3:
  60              		.cfi_endproc
  61              	.LFE263:
  62              		.size	process_packet, .-process_packet
  63              		.section	.text.bldc_interface_uart_init,"ax",%progbits
  64              		.align	1
  65              		.p2align 4,,15
  66              		.global	bldc_interface_uart_init
  67              		.syntax unified
  68              		.thumb
  69              		.thumb_func
  70              		.fpu fpv4-sp-d16
  71              		.type	bldc_interface_uart_init, %function
  72              	bldc_interface_uart_init:
  73              	.LFB260:
  74              		.loc 1 44 0
  75              		.cfi_startproc
  76              		@ args = 0, pretend = 0, frame = 0
  77              		@ frame_needed = 0, uses_anonymous_args = 0
  78              	.LVL4:
  79 0000 08B5     		push	{r3, lr}
  80              		.cfi_def_cfa_offset 8
  81              		.cfi_offset 3, -8
  82              		.cfi_offset 14, -4
  83              		.loc 1 46 0
  84 0002 0022     		movs	r2, #0
  85 0004 0349     		ldr	r1, .L6
  86 0006 FFF7FEFF 		bl	packet_init
  87              	.LVL5:
  88              		.loc 1 49 0
  89 000a 0348     		ldr	r0, .L6+4
  90              		.loc 1 50 0
  91 000c BDE80840 		pop	{r3, lr}
  92              		.cfi_restore 14
  93              		.cfi_restore 3
  94              		.cfi_def_cfa_offset 0
  95              		.loc 1 49 0
  96 0010 FFF7FEBF 		b	bldc_interface_init
  97              	.LVL6:
  98              	.L7:
  99              		.align	2
 100              	.L6:
 101 0014 00000000 		.word	process_packet
 102 0018 00000000 		.word	send_packet_bldc_interface
 103              		.cfi_endproc
 104              	.LFE260:
 105              		.size	bldc_interface_uart_init, .-bldc_interface_uart_init
 106              		.section	.text.bldc_interface_uart_process_byte,"ax",%progbits
 107              		.align	1
 108              		.p2align 4,,15
 109              		.global	bldc_interface_uart_process_byte
 110              		.syntax unified
 111              		.thumb
 112              		.thumb_func
 113              		.fpu fpv4-sp-d16
 114              		.type	bldc_interface_uart_process_byte, %function
ARM GAS  /tmp/ccsfnBTQ.s 			page 3


 115              	bldc_interface_uart_process_byte:
 116              	.LFB261:
 117              		.loc 1 59 0
 118              		.cfi_startproc
 119              		@ args = 0, pretend = 0, frame = 0
 120              		@ frame_needed = 0, uses_anonymous_args = 0
 121              		@ link register save eliminated.
 122              	.LVL7:
 123              		.loc 1 60 0
 124 0000 0021     		movs	r1, #0
 125 0002 FFF7FEBF 		b	packet_process_byte
 126              	.LVL8:
 127              		.cfi_endproc
 128              	.LFE261:
 129              		.size	bldc_interface_uart_process_byte, .-bldc_interface_uart_process_byte
 130 0006 00BF     		.section	.text.bldc_interface_uart_run_timer,"ax",%progbits
 131              		.align	1
 132              		.p2align 4,,15
 133              		.global	bldc_interface_uart_run_timer
 134              		.syntax unified
 135              		.thumb
 136              		.thumb_func
 137              		.fpu fpv4-sp-d16
 138              		.type	bldc_interface_uart_run_timer, %function
 139              	bldc_interface_uart_run_timer:
 140              	.LFB262:
 141              		.loc 1 67 0
 142              		.cfi_startproc
 143              		@ args = 0, pretend = 0, frame = 0
 144              		@ frame_needed = 0, uses_anonymous_args = 0
 145              		@ link register save eliminated.
 146              		.loc 1 68 0
 147 0000 FFF7FEBF 		b	packet_timerfunc
 148              	.LVL9:
 149              		.cfi_endproc
 150              	.LFE262:
 151              		.size	bldc_interface_uart_run_timer, .-bldc_interface_uart_run_timer
 152              		.text
 153              	.Letext0:
 154              		.file 2 "/usr/arm-none-eabi/include/machine/_default_types.h"
 155              		.file 3 "/usr/arm-none-eabi/include/sys/_stdint.h"
 156              		.file 4 "/usr/lib/gcc/arm-none-eabi/7.3.1/include/stddef.h"
 157              		.file 5 "ChibiOS_3.0.2/os/rt/ports/ARMCMx/compilers/GCC/chtypes.h"
 158              		.file 6 "ChibiOS_3.0.2/os/rt/include/chsystypes.h"
 159              		.file 7 "ChibiOS_3.0.2/os/rt/include/chschd.h"
 160              		.file 8 "ChibiOS_3.0.2/os/ext/CMSIS/include/core_cm4.h"
 161              		.file 9 "ChibiOS_3.0.2/os/ext/CMSIS/ST/system_stm32f4xx.h"
 162              		.file 10 "ChibiOS_3.0.2/os/ext/CMSIS/ST/stm32f407xx.h"
 163              		.file 11 "ChibiOS_3.0.2/os/rt/ports/ARMCMx/chcore.h"
 164              		.file 12 "ChibiOS_3.0.2/os/rt/ports/ARMCMx/chcore_v7m.h"
 165              		.file 13 "ChibiOS_3.0.2/os/rt/include/chtm.h"
 166              		.file 14 "ChibiOS_3.0.2/os/rt/include/chsem.h"
 167              		.file 15 "ChibiOS_3.0.2/os/rt/include/chmtx.h"
 168              		.file 16 "ChibiOS_3.0.2/os/rt/include/chregistry.h"
 169              		.file 17 "ChibiOS_3.0.2/os/rt/include/chqueues.h"
 170              		.file 18 "ChibiOS_3.0.2/os/hal/ports/STM32/STM32F4xx/stm32_dma.h"
 171              		.file 19 "ChibiOS_3.0.2/os/hal/ports/STM32/LLD/GPIOv2/pal_lld.h"
ARM GAS  /tmp/ccsfnBTQ.s 			page 4


 172              		.file 20 "ChibiOS_3.0.2/os/hal/include/uart.h"
 173              		.file 21 "ChibiOS_3.0.2/os/hal/ports/STM32/LLD/USARTv1/uart_lld.h"
 174              		.file 22 "ChibiOS_3.0.2/os/hal/include/usb.h"
 175              		.file 23 "ChibiOS_3.0.2/os/hal/ports/STM32/LLD/OTGv1/usb_lld.h"
 176              		.file 24 "ChibiOS_3.0.2/os/hal/ports/STM32/LLD/OTGv1/stm32_otg.h"
 177              		.file 25 "packet.h"
 178              		.file 26 "bldc_interface.h"