ARM GAS  /tmp/cczXzW7i.s 			page 1


   1              		.cpu cortex-m4
   2              		.eabi_attribute 27, 1
   3              		.eabi_attribute 28, 1
   4              		.eabi_attribute 20, 1
   5              		.eabi_attribute 21, 1
   6              		.eabi_attribute 23, 3
   7              		.eabi_attribute 24, 1
   8              		.eabi_attribute 25, 1
   9              		.eabi_attribute 26, 1
  10              		.eabi_attribute 30, 2
  11              		.eabi_attribute 34, 1
  12              		.eabi_attribute 18, 4
  13              		.file	"bldc_interface.c"
  14              		.text
  15              	.Ltext0:
  16              		.cfi_sections	.debug_frame
  17              		.section	.text.send_packet_no_fwd.part.0,"ax",%progbits
  18              		.align	1
  19              		.p2align 4,,15
  20              		.syntax unified
  21              		.thumb
  22              		.thumb_func
  23              		.fpu fpv4-sp-d16
  24              		.type	send_packet_no_fwd.part.0, %function
  25              	send_packet_no_fwd.part.0:
  26              	.LFB270:
  27              		.file 1 "bldc_interface.c"
  28              		.loc 1 907 0
  29              		.cfi_startproc
  30              		@ args = 0, pretend = 0, frame = 0
  31              		@ frame_needed = 0, uses_anonymous_args = 0
  32              		@ link register save eliminated.
  33              	.LVL0:
  34              	.LBB46:
  35              	.LBB47:
  36              		.loc 1 93 0
  37 0000 024B     		ldr	r3, .L4
  38 0002 1B68     		ldr	r3, [r3]
  39 0004 03B1     		cbz	r3, .L1
  40              		.loc 1 94 0
  41 0006 1847     		bx	r3	@ indirect register sibling call
  42              	.LVL1:
  43              	.L1:
  44              	.LBE47:
  45              	.LBE46:
  46              		.loc 1 911 0
  47 0008 7047     		bx	lr
  48              	.L5:
  49 000a 00BF     		.align	2
  50              	.L4:
  51 000c 00000000 		.word	.LANCHOR0
  52              		.cfi_endproc
  53              	.LFE270:
  54              		.size	send_packet_no_fwd.part.0, .-send_packet_no_fwd.part.0
  55              		.section	.text.bldc_interface_init,"ax",%progbits
  56              		.align	1
  57              		.p2align 4,,15
ARM GAS  /tmp/cczXzW7i.s 			page 2


  58              		.global	bldc_interface_init
  59              		.syntax unified
  60              		.thumb
  61              		.thumb_func
  62              		.fpu fpv4-sp-d16
  63              		.type	bldc_interface_init, %function
  64              	bldc_interface_init:
  65              	.LFB229:
  66              		.loc 1 75 0
  67              		.cfi_startproc
  68              		@ args = 0, pretend = 0, frame = 0
  69              		@ frame_needed = 0, uses_anonymous_args = 0
  70              		@ link register save eliminated.
  71              	.LVL2:
  72              		.loc 1 76 0
  73 0000 014B     		ldr	r3, .L7
  74 0002 1860     		str	r0, [r3]
  75              		.loc 1 77 0
  76 0004 7047     		bx	lr
  77              	.L8:
  78 0006 00BF     		.align	2
  79              	.L7:
  80 0008 00000000 		.word	.LANCHOR0
  81              		.cfi_endproc
  82              	.LFE229:
  83              		.size	bldc_interface_init, .-bldc_interface_init
  84              		.section	.text.bldc_interface_set_forward_func,"ax",%progbits
  85              		.align	1
  86              		.p2align 4,,15
  87              		.global	bldc_interface_set_forward_func
  88              		.syntax unified
  89              		.thumb
  90              		.thumb_func
  91              		.fpu fpv4-sp-d16
  92              		.type	bldc_interface_set_forward_func, %function
  93              	bldc_interface_set_forward_func:
  94              	.LFB230:
  95              		.loc 1 79 0
  96              		.cfi_startproc
  97              		@ args = 0, pretend = 0, frame = 0
  98              		@ frame_needed = 0, uses_anonymous_args = 0
  99              		@ link register save eliminated.
 100              	.LVL3:
 101              		.loc 1 80 0
 102 0000 014B     		ldr	r3, .L10
 103 0002 1860     		str	r0, [r3]
 104              		.loc 1 81 0
 105 0004 7047     		bx	lr
 106              	.L11:
 107 0006 00BF     		.align	2
 108              	.L10:
 109 0008 00000000 		.word	.LANCHOR1
 110              		.cfi_endproc
 111              	.LFE230:
 112              		.size	bldc_interface_set_forward_func, .-bldc_interface_set_forward_func
 113              		.section	.text.bldc_interface_send_packet,"ax",%progbits
 114              		.align	1
ARM GAS  /tmp/cczXzW7i.s 			page 3


 115              		.p2align 4,,15
 116              		.global	bldc_interface_send_packet
 117              		.syntax unified
 118              		.thumb
 119              		.thumb_func
 120              		.fpu fpv4-sp-d16
 121              		.type	bldc_interface_send_packet, %function
 122              	bldc_interface_send_packet:
 123              	.LFB231:
 124              		.loc 1 92 0
 125              		.cfi_startproc
 126              		@ args = 0, pretend = 0, frame = 0
 127              		@ frame_needed = 0, uses_anonymous_args = 0
 128              		@ link register save eliminated.
 129              	.LVL4:
 130              		.loc 1 93 0
 131 0000 024B     		ldr	r3, .L14
 132 0002 1B68     		ldr	r3, [r3]
 133 0004 03B1     		cbz	r3, .L12
 134              		.loc 1 94 0
 135 0006 1847     		bx	r3	@ indirect register sibling call
 136              	.LVL5:
 137              	.L12:
 138              		.loc 1 96 0
 139 0008 7047     		bx	lr
 140              	.L15:
 141 000a 00BF     		.align	2
 142              	.L14:
 143 000c 00000000 		.word	.LANCHOR0
 144              		.cfi_endproc
 145              	.LFE231:
 146              		.size	bldc_interface_send_packet, .-bldc_interface_send_packet
 147              		.section	.text.bldc_interface_process_packet,"ax",%progbits
 148              		.align	1
 149              		.p2align 4,,15
 150              		.global	bldc_interface_process_packet
 151              		.syntax unified
 152              		.thumb
 153              		.thumb_func
 154              		.fpu fpv4-sp-d16
 155              		.type	bldc_interface_process_packet, %function
 156              	bldc_interface_process_packet:
 157              	.LFB232:
 158              		.loc 1 107 0
 159              		.cfi_startproc
 160              		@ args = 0, pretend = 0, frame = 16
 161              		@ frame_needed = 0, uses_anonymous_args = 0
 162              	.LVL6:
 163              		.loc 1 108 0
 164 0000 39B1     		cbz	r1, .L75
 165              		.loc 1 107 0
 166 0002 F0B5     		push	{r4, r5, r6, r7, lr}
 167              		.cfi_def_cfa_offset 20
 168              		.cfi_offset 4, -20
 169              		.cfi_offset 5, -16
 170              		.cfi_offset 6, -12
 171              		.cfi_offset 7, -8
ARM GAS  /tmp/cczXzW7i.s 			page 4


 172              		.cfi_offset 14, -4
 173              		.loc 1 112 0
 174 0004 444C     		ldr	r4, .L82
 175 0006 2468     		ldr	r4, [r4]
 176              		.loc 1 107 0
 177 0008 85B0     		sub	sp, sp, #20
 178              		.cfi_def_cfa_offset 40
 179              		.loc 1 112 0
 180 000a 1CB1     		cbz	r4, .L18
 181              		.loc 1 113 0
 182 000c A047     		blx	r4
 183              	.LVL7:
 184              	.L16:
 185              		.loc 1 480 0
 186 000e 05B0     		add	sp, sp, #20
 187              		.cfi_def_cfa_offset 20
 188              		@ sp needed
 189 0010 F0BD     		pop	{r4, r5, r6, r7, pc}
 190              	.LVL8:
 191              	.L75:
 192              		.cfi_def_cfa_offset 0
 193              		.cfi_restore 4
 194              		.cfi_restore 5
 195              		.cfi_restore 6
 196              		.cfi_restore 7
 197              		.cfi_restore 14
 198 0012 7047     		bx	lr
 199              	.L18:
 200              		.cfi_def_cfa_offset 40
 201              		.cfi_offset 4, -20
 202              		.cfi_offset 5, -16
 203              		.cfi_offset 6, -12
 204              		.cfi_offset 7, -8
 205              		.cfi_offset 14, -4
 206 0014 0A46     		mov	r2, r1
 207              		.loc 1 123 0
 208 0016 0178     		ldrb	r1, [r0]	@ zero_extendqisi2
 209              	.LVL9:
 210              		.loc 1 117 0
 211 0018 0394     		str	r4, [sp, #12]
 212              	.LVL10:
 213              		.loc 1 123 0
 214 001a 0439     		subs	r1, r1, #4
 215 001c 0346     		mov	r3, r0
 216              		.loc 1 120 0
 217 001e 441C     		adds	r4, r0, #1
 218              	.LVL11:
 219              		.loc 1 123 0
 220 0020 1D29     		cmp	r1, #29
 221 0022 F4D8     		bhi	.L16
 222 0024 01A0     		adr	r0, .L21
 223 0026 50F821F0 		ldr	pc, [r0, r1, lsl #2]
 224              	.LVL12:
 225 002a 00BF     		.p2align 2
 226              	.L21:
 227 002c 35090000 		.word	.L20+1
 228 0030 0F000000 		.word	.L16+1
ARM GAS  /tmp/cczXzW7i.s 			page 5


 229 0034 0F000000 		.word	.L16+1
 230 0038 0F000000 		.word	.L16+1
 231 003c 0F000000 		.word	.L16+1
 232 0040 0F000000 		.word	.L16+1
 233 0044 0F000000 		.word	.L16+1
 234 0048 0F000000 		.word	.L16+1
 235 004c 0F000000 		.word	.L16+1
 236 0050 27090000 		.word	.L22+1
 237 0054 75040000 		.word	.L23+1
 238 0058 75040000 		.word	.L23+1
 239 005c 5B040000 		.word	.L24+1
 240 0060 39010000 		.word	.L25+1
 241 0064 39010000 		.word	.L25+1
 242 0068 0F000000 		.word	.L16+1
 243 006c 0F000000 		.word	.L16+1
 244 0070 EF000000 		.word	.L26+1
 245 0074 D7000000 		.word	.L27+1
 246 0078 0F000000 		.word	.L16+1
 247 007c 4D0A0000 		.word	.L28+1
 248 0080 0F000000 		.word	.L16+1
 249 0084 0F000000 		.word	.L16+1
 250 0088 0F000000 		.word	.L16+1
 251 008c 0F000000 		.word	.L16+1
 252 0090 0F000000 		.word	.L16+1
 253 0094 0F000000 		.word	.L16+1
 254 0098 A90A0000 		.word	.L29+1
 255 009c A5000000 		.word	.L30+1
 256 00a0 01010000 		.word	.L31+1
 257              		.p2align 1
 258              	.L30:
 259              		.loc 1 445 0
 260 00a4 03A9     		add	r1, sp, #12
 261 00a6 2046     		mov	r0, r4
 262 00a8 9FED1C0A 		vldr.32	s0, .L82+4
 263 00ac 1C4D     		ldr	r5, .L82+8
 264 00ae FFF7FEFF 		bl	buffer_get_float32
 265              	.LVL13:
 266              		.loc 1 446 0
 267 00b2 03A9     		add	r1, sp, #12
 268              		.loc 1 445 0
 269 00b4 85ED000A 		vstr.32	s0, [r5]
 270              		.loc 1 446 0
 271 00b8 2046     		mov	r0, r4
 272 00ba 9FED180A 		vldr.32	s0, .L82+4
 273 00be FFF7FEFF 		bl	buffer_get_float32
 274              	.LVL14:
 275              		.loc 1 449 0
 276 00c2 184B     		ldr	r3, .L82+12
 277 00c4 1B68     		ldr	r3, [r3]
 278              		.loc 1 446 0
 279 00c6 F0EE400A 		vmov.f32	s1, s0
 280              		.loc 1 449 0
 281 00ca 002B     		cmp	r3, #0
 282 00cc 9FD0     		beq	.L16
 283              	.L80:
 284              		.loc 1 450 0
 285 00ce 95ED000A 		vldr.32	s0, [r5]
ARM GAS  /tmp/cczXzW7i.s 			page 6


 286 00d2 9847     		blx	r3
 287              	.LVL15:
 288 00d4 9BE7     		b	.L16
 289              	.LVL16:
 290              	.L27:
 291              		.loc 1 189 0
 292 00d6 2046     		mov	r0, r4
 293 00d8 03A9     		add	r1, sp, #12
 294 00da 9FED130A 		vldr.32	s0, .L82+16
 295 00de FFF7FEFF 		bl	buffer_get_float32
 296              	.LVL17:
 297              		.loc 1 191 0
 298 00e2 124B     		ldr	r3, .L82+20
 299 00e4 1B68     		ldr	r3, [r3]
 300 00e6 002B     		cmp	r3, #0
 301 00e8 91D0     		beq	.L16
 302              	.L79:
 303              		.loc 1 459 0
 304 00ea 9847     		blx	r3
 305              	.LVL18:
 306 00ec 8FE7     		b	.L16
 307              	.LVL19:
 308              	.L26:
 309              		.loc 1 177 0
 310 00ee 1049     		ldr	r1, .L82+24
 311 00f0 0968     		ldr	r1, [r1]
 312 00f2 0029     		cmp	r1, #0
 313 00f4 8BD0     		beq	.L16
 314              		.loc 1 178 0
 315 00f6 0025     		movs	r5, #0
 316              		.loc 1 179 0
 317 00f8 2046     		mov	r0, r4
 318              		.loc 1 178 0
 319 00fa 9D54     		strb	r5, [r3, r2]
 320              	.LVL20:
 321              		.loc 1 179 0
 322 00fc 8847     		blx	r1
 323              	.LVL21:
 324 00fe 86E7     		b	.L16
 325              	.LVL22:
 326              	.L31:
 327              		.loc 1 456 0
 328 0100 2046     		mov	r0, r4
 329 0102 03A9     		add	r1, sp, #12
 330 0104 9FED050A 		vldr.32	s0, .L82+4
 331 0108 FFF7FEFF 		bl	buffer_get_float32
 332              	.LVL23:
 333              		.loc 1 458 0
 334 010c 094B     		ldr	r3, .L82+28
 335 010e 1B68     		ldr	r3, [r3]
 336 0110 002B     		cmp	r3, #0
 337 0112 EAD1     		bne	.L79
 338 0114 7BE7     		b	.L16
 339              	.L83:
 340 0116 00BF     		.align	2
 341              	.L82:
 342 0118 00000000 		.word	.LANCHOR1
ARM GAS  /tmp/cczXzW7i.s 			page 7


 343 011c 00247449 		.word	1232348160
 344 0120 00000000 		.word	.LANCHOR15
 345 0124 00000000 		.word	.LANCHOR16
 346 0128 0050C347 		.word	1203982336
 347 012c 00000000 		.word	.LANCHOR5
 348 0130 00000000 		.word	.LANCHOR4
 349 0134 00000000 		.word	.LANCHOR17
 350              	.LVL24:
 351              	.L25:
 352              		.loc 1 324 0
 353 0138 04AE     		add	r6, sp, #16
 354 013a 0122     		movs	r2, #1
 355              	.LVL25:
 356 013c 46F8042D 		str	r2, [r6, #-4]!
 357 0140 C94D     		ldr	r5, .L84
 358 0142 5B78     		ldrb	r3, [r3, #1]	@ zero_extendqisi2
 359              	.LVL26:
 360 0144 2B70     		strb	r3, [r5]
 361              	.LVL27:
 362              		.loc 1 325 0
 363 0146 3146     		mov	r1, r6
 364 0148 2046     		mov	r0, r4
 365 014a FFF7FEFF 		bl	buffer_get_uint32
 366              	.LVL28:
 367              		.loc 1 326 0
 368 014e 3146     		mov	r1, r6
 369              		.loc 1 325 0
 370 0150 6860     		str	r0, [r5, #4]
 371              		.loc 1 326 0
 372 0152 2046     		mov	r0, r4
 373 0154 FFF7FEFF 		bl	buffer_get_float32_auto
 374              	.LVL29:
 375              		.loc 1 327 0
 376 0158 039B     		ldr	r3, [sp, #12]
 377              		.loc 1 326 0
 378 015a 85ED020A 		vstr.32	s0, [r5, #8]
 379              		.loc 1 327 0
 380 015e E25C     		ldrb	r2, [r4, r3]	@ zero_extendqisi2
 381 0160 0032     		adds	r2, r2, #0
 382 0162 18BF     		it	ne
 383 0164 0122     		movne	r2, #1
 384 0166 0133     		adds	r3, r3, #1
 385              		.loc 1 328 0
 386 0168 3146     		mov	r1, r6
 387 016a 2046     		mov	r0, r4
 388              		.loc 1 327 0
 389 016c 2A73     		strb	r2, [r5, #12]
 390 016e 0393     		str	r3, [sp, #12]
 391              		.loc 1 328 0
 392 0170 FFF7FEFF 		bl	buffer_get_uint16
 393              	.LVL30:
 394              		.loc 1 329 0
 395 0174 039B     		ldr	r3, [sp, #12]
 396              		.loc 1 328 0
 397 0176 2861     		str	r0, [r5, #16]
 398              		.loc 1 329 0
 399 0178 E25C     		ldrb	r2, [r4, r3]	@ zero_extendqisi2
ARM GAS  /tmp/cczXzW7i.s 			page 8


 400 017a 2A75     		strb	r2, [r5, #20]
 401              		.loc 1 331 0
 402 017c E218     		adds	r2, r4, r3
 403              		.loc 1 334 0
 404 017e 2046     		mov	r0, r4
 405              		.loc 1 331 0
 406 0180 5178     		ldrb	r1, [r2, #1]	@ zero_extendqisi2
 407 0182 6975     		strb	r1, [r5, #21]
 408              		.loc 1 333 0
 409 0184 0333     		adds	r3, r3, #3
 410 0186 9278     		ldrb	r2, [r2, #2]	@ zero_extendqisi2
 411 0188 0393     		str	r3, [sp, #12]
 412              		.loc 1 334 0
 413 018a 3146     		mov	r1, r6
 414              		.loc 1 333 0
 415 018c 2A76     		strb	r2, [r5, #24]
 416              		.loc 1 334 0
 417 018e FFF7FEFF 		bl	buffer_get_float32_auto
 418              	.LVL31:
 419              		.loc 1 335 0
 420 0192 2046     		mov	r0, r4
 421 0194 3146     		mov	r1, r6
 422              		.loc 1 334 0
 423 0196 85ED070A 		vstr.32	s0, [r5, #28]
 424              		.loc 1 335 0
 425 019a FFF7FEFF 		bl	buffer_get_float32_auto
 426              	.LVL32:
 427              		.loc 1 336 0
 428 019e 2046     		mov	r0, r4
 429 01a0 3146     		mov	r1, r6
 430              		.loc 1 335 0
 431 01a2 85ED080A 		vstr.32	s0, [r5, #32]
 432              		.loc 1 336 0
 433 01a6 FFF7FEFF 		bl	buffer_get_float32_auto
 434              	.LVL33:
 435              		.loc 1 337 0
 436 01aa 2046     		mov	r0, r4
 437 01ac 3146     		mov	r1, r6
 438              		.loc 1 336 0
 439 01ae 85ED090A 		vstr.32	s0, [r5, #36]
 440              		.loc 1 337 0
 441 01b2 FFF7FEFF 		bl	buffer_get_float32_auto
 442              	.LVL34:
 443              		.loc 1 338 0
 444 01b6 2046     		mov	r0, r4
 445 01b8 3146     		mov	r1, r6
 446              		.loc 1 337 0
 447 01ba 85ED0A0A 		vstr.32	s0, [r5, #40]
 448              		.loc 1 338 0
 449 01be FFF7FEFF 		bl	buffer_get_float32_auto
 450              	.LVL35:
 451              		.loc 1 339 0
 452 01c2 039B     		ldr	r3, [sp, #12]
 453              		.loc 1 338 0
 454 01c4 85ED0B0A 		vstr.32	s0, [r5, #44]
 455              		.loc 1 339 0
 456 01c8 E25C     		ldrb	r2, [r4, r3]	@ zero_extendqisi2
ARM GAS  /tmp/cczXzW7i.s 			page 9


 457 01ca 0032     		adds	r2, r2, #0
 458              		.loc 1 340 0
 459 01cc 04EB0301 		add	r1, r4, r3
 460              		.loc 1 339 0
 461 01d0 18BF     		it	ne
 462 01d2 0122     		movne	r2, #1
 463 01d4 85F83020 		strb	r2, [r5, #48]
 464              		.loc 1 340 0
 465 01d8 4A78     		ldrb	r2, [r1, #1]	@ zero_extendqisi2
 466 01da 0032     		adds	r2, r2, #0
 467 01dc 18BF     		it	ne
 468 01de 0122     		movne	r2, #1
 469 01e0 0233     		adds	r3, r3, #2
 470              		.loc 1 341 0
 471 01e2 2046     		mov	r0, r4
 472 01e4 3146     		mov	r1, r6
 473              		.loc 1 340 0
 474 01e6 85F83120 		strb	r2, [r5, #49]
 475 01ea 0393     		str	r3, [sp, #12]
 476              		.loc 1 341 0
 477 01ec FFF7FEFF 		bl	buffer_get_float32_auto
 478              	.LVL36:
 479              		.loc 1 342 0
 480 01f0 2046     		mov	r0, r4
 481 01f2 3146     		mov	r1, r6
 482              		.loc 1 341 0
 483 01f4 85ED0D0A 		vstr.32	s0, [r5, #52]
 484              		.loc 1 342 0
 485 01f8 FFF7FEFF 		bl	buffer_get_float32_auto
 486              	.LVL37:
 487              		.loc 1 343 0
 488 01fc 039B     		ldr	r3, [sp, #12]
 489              		.loc 1 342 0
 490 01fe 85ED0E0A 		vstr.32	s0, [r5, #56]
 491              		.loc 1 343 0
 492 0202 E25C     		ldrb	r2, [r4, r3]	@ zero_extendqisi2
 493 0204 85F83C20 		strb	r2, [r5, #60]
 494 0208 0133     		adds	r3, r3, #1
 495              		.loc 1 344 0
 496 020a 2046     		mov	r0, r4
 497 020c 3146     		mov	r1, r6
 498              		.loc 1 343 0
 499 020e 0393     		str	r3, [sp, #12]
 500              		.loc 1 344 0
 501 0210 FFF7FEFF 		bl	buffer_get_float32_auto
 502              	.LVL38:
 503              		.loc 1 345 0
 504 0214 2046     		mov	r0, r4
 505 0216 3146     		mov	r1, r6
 506              		.loc 1 344 0
 507 0218 85ED100A 		vstr.32	s0, [r5, #64]
 508              		.loc 1 345 0
 509 021c FFF7FEFF 		bl	buffer_get_float32_auto
 510              	.LVL39:
 511              		.loc 1 346 0
 512 0220 039B     		ldr	r3, [sp, #12]
 513              		.loc 1 345 0
ARM GAS  /tmp/cczXzW7i.s 			page 10


 514 0222 85ED110A 		vstr.32	s0, [r5, #68]
 515              		.loc 1 346 0
 516 0226 E25C     		ldrb	r2, [r4, r3]	@ zero_extendqisi2
 517 0228 0032     		adds	r2, r2, #0
 518              		.loc 1 347 0
 519 022a 04EB0301 		add	r1, r4, r3
 520              		.loc 1 346 0
 521 022e 18BF     		it	ne
 522 0230 0122     		movne	r2, #1
 523 0232 85F84820 		strb	r2, [r5, #72]
 524              		.loc 1 347 0
 525 0236 4A78     		ldrb	r2, [r1, #1]	@ zero_extendqisi2
 526 0238 0032     		adds	r2, r2, #0
 527 023a 18BF     		it	ne
 528 023c 0122     		movne	r2, #1
 529 023e 0233     		adds	r3, r3, #2
 530              		.loc 1 348 0
 531 0240 2046     		mov	r0, r4
 532 0242 3146     		mov	r1, r6
 533              		.loc 1 347 0
 534 0244 85F84920 		strb	r2, [r5, #73]
 535 0248 0393     		str	r3, [sp, #12]
 536              		.loc 1 348 0
 537 024a FFF7FEFF 		bl	buffer_get_float32_auto
 538              	.LVL40:
 539              		.loc 1 350 0
 540 024e 039B     		ldr	r3, [sp, #12]
 541              		.loc 1 348 0
 542 0250 85ED130A 		vstr.32	s0, [r5, #76]
 543              		.loc 1 350 0
 544 0254 E25C     		ldrb	r2, [r4, r3]	@ zero_extendqisi2
 545 0256 85F85020 		strb	r2, [r5, #80]
 546 025a 0133     		adds	r3, r3, #1
 547              		.loc 1 351 0
 548 025c 2046     		mov	r0, r4
 549 025e 3146     		mov	r1, r6
 550              		.loc 1 350 0
 551 0260 0393     		str	r3, [sp, #12]
 552              		.loc 1 351 0
 553 0262 FFF7FEFF 		bl	buffer_get_float32_auto
 554              	.LVL41:
 555              		.loc 1 352 0
 556 0266 2046     		mov	r0, r4
 557 0268 3146     		mov	r1, r6
 558              		.loc 1 351 0
 559 026a 85ED150A 		vstr.32	s0, [r5, #84]
 560              		.loc 1 352 0
 561 026e FFF7FEFF 		bl	buffer_get_float32_auto
 562              	.LVL42:
 563              		.loc 1 353 0
 564 0272 2046     		mov	r0, r4
 565 0274 3146     		mov	r1, r6
 566              		.loc 1 352 0
 567 0276 85ED160A 		vstr.32	s0, [r5, #88]
 568              		.loc 1 353 0
 569 027a FFF7FEFF 		bl	buffer_get_float32_auto
 570              	.LVL43:
ARM GAS  /tmp/cczXzW7i.s 			page 11


 571              		.loc 1 354 0
 572 027e 2046     		mov	r0, r4
 573 0280 3146     		mov	r1, r6
 574              		.loc 1 353 0
 575 0282 85ED170A 		vstr.32	s0, [r5, #92]
 576              		.loc 1 354 0
 577 0286 FFF7FEFF 		bl	buffer_get_float32_auto
 578              	.LVL44:
 579              		.loc 1 355 0
 580 028a 2046     		mov	r0, r4
 581 028c 3146     		mov	r1, r6
 582              		.loc 1 354 0
 583 028e 85ED180A 		vstr.32	s0, [r5, #96]
 584              		.loc 1 355 0
 585 0292 FFF7FEFF 		bl	buffer_get_float32_auto
 586              	.LVL45:
 587              		.loc 1 356 0
 588 0296 2046     		mov	r0, r4
 589 0298 3146     		mov	r1, r6
 590              		.loc 1 355 0
 591 029a 85ED190A 		vstr.32	s0, [r5, #100]
 592              		.loc 1 356 0
 593 029e FFF7FEFF 		bl	buffer_get_float32_auto
 594              	.LVL46:
 595              		.loc 1 357 0
 596 02a2 039B     		ldr	r3, [sp, #12]
 597              		.loc 1 356 0
 598 02a4 85ED1A0A 		vstr.32	s0, [r5, #104]
 599              		.loc 1 357 0
 600 02a8 E15C     		ldrb	r1, [r4, r3]	@ zero_extendqisi2
 601 02aa 0031     		adds	r1, r1, #0
 602              		.loc 1 358 0
 603 02ac 04EB0302 		add	r2, r4, r3
 604              		.loc 1 357 0
 605 02b0 18BF     		it	ne
 606 02b2 0121     		movne	r1, #1
 607 02b4 85F86C10 		strb	r1, [r5, #108]
 608              		.loc 1 358 0
 609 02b8 5178     		ldrb	r1, [r2, #1]	@ zero_extendqisi2
 610 02ba 0031     		adds	r1, r1, #0
 611 02bc 18BF     		it	ne
 612 02be 0121     		movne	r1, #1
 613 02c0 85F86D10 		strb	r1, [r5, #109]
 614              		.loc 1 359 0
 615 02c4 9178     		ldrb	r1, [r2, #2]	@ zero_extendqisi2
 616 02c6 0031     		adds	r1, r1, #0
 617 02c8 18BF     		it	ne
 618 02ca 0121     		movne	r1, #1
 619 02cc 85F86E10 		strb	r1, [r5, #110]
 620              		.loc 1 360 0
 621 02d0 D178     		ldrb	r1, [r2, #3]	@ zero_extendqisi2
 622 02d2 0031     		adds	r1, r1, #0
 623 02d4 18BF     		it	ne
 624 02d6 0121     		movne	r1, #1
 625 02d8 85F86F10 		strb	r1, [r5, #111]
 626              		.loc 1 361 0
 627 02dc 1179     		ldrb	r1, [r2, #4]	@ zero_extendqisi2
ARM GAS  /tmp/cczXzW7i.s 			page 12


 628 02de 0031     		adds	r1, r1, #0
 629 02e0 18BF     		it	ne
 630 02e2 0121     		movne	r1, #1
 631 02e4 85F87010 		strb	r1, [r5, #112]
 632              		.loc 1 362 0
 633 02e8 5279     		ldrb	r2, [r2, #5]	@ zero_extendqisi2
 634 02ea 0032     		adds	r2, r2, #0
 635 02ec 18BF     		it	ne
 636 02ee 0122     		movne	r2, #1
 637 02f0 0633     		adds	r3, r3, #6
 638              		.loc 1 363 0
 639 02f2 2046     		mov	r0, r4
 640 02f4 3146     		mov	r1, r6
 641              		.loc 1 362 0
 642 02f6 0393     		str	r3, [sp, #12]
 643 02f8 85F87120 		strb	r2, [r5, #113]
 644              		.loc 1 363 0
 645 02fc FFF7FEFF 		bl	buffer_get_float32_auto
 646              	.LVL47:
 647              		.loc 1 364 0
 648 0300 2046     		mov	r0, r4
 649 0302 3146     		mov	r1, r6
 650              		.loc 1 363 0
 651 0304 85ED1D0A 		vstr.32	s0, [r5, #116]
 652              		.loc 1 364 0
 653 0308 FFF7FEFF 		bl	buffer_get_float32_auto
 654              	.LVL48:
 655              		.loc 1 365 0
 656 030c 039B     		ldr	r3, [sp, #12]
 657              		.loc 1 364 0
 658 030e 85ED1E0A 		vstr.32	s0, [r5, #120]
 659              		.loc 1 365 0
 660 0312 E25C     		ldrb	r2, [r4, r3]	@ zero_extendqisi2
 661 0314 85F87C20 		strb	r2, [r5, #124]
 662 0318 0133     		adds	r3, r3, #1
 663              		.loc 1 366 0
 664 031a 2046     		mov	r0, r4
 665 031c 3146     		mov	r1, r6
 666              		.loc 1 365 0
 667 031e 0393     		str	r3, [sp, #12]
 668              		.loc 1 366 0
 669 0320 FFF7FEFF 		bl	buffer_get_float32_auto
 670              	.LVL49:
 671              		.loc 1 367 0
 672 0324 2046     		mov	r0, r4
 673 0326 3146     		mov	r1, r6
 674              		.loc 1 366 0
 675 0328 85ED200A 		vstr.32	s0, [r5, #128]
 676              		.loc 1 367 0
 677 032c FFF7FEFF 		bl	buffer_get_float32_auto
 678              	.LVL50:
 679              		.loc 1 368 0
 680 0330 039B     		ldr	r3, [sp, #12]
 681              		.loc 1 367 0
 682 0332 85ED210A 		vstr.32	s0, [r5, #132]
 683              		.loc 1 368 0
 684 0336 E25C     		ldrb	r2, [r4, r3]	@ zero_extendqisi2
ARM GAS  /tmp/cczXzW7i.s 			page 13


 685 0338 0032     		adds	r2, r2, #0
 686              		.loc 1 369 0
 687 033a 04EB0301 		add	r1, r4, r3
 688              		.loc 1 368 0
 689 033e 18BF     		it	ne
 690 0340 0122     		movne	r2, #1
 691 0342 85F88820 		strb	r2, [r5, #136]
 692              		.loc 1 369 0
 693 0346 4A78     		ldrb	r2, [r1, #1]	@ zero_extendqisi2
 694 0348 0032     		adds	r2, r2, #0
 695 034a 18BF     		it	ne
 696 034c 0122     		movne	r2, #1
 697 034e 0233     		adds	r3, r3, #2
 698              		.loc 1 370 0
 699 0350 2046     		mov	r0, r4
 700 0352 3146     		mov	r1, r6
 701              		.loc 1 369 0
 702 0354 85F88920 		strb	r2, [r5, #137]
 703 0358 0393     		str	r3, [sp, #12]
 704              		.loc 1 370 0
 705 035a FFF7FEFF 		bl	buffer_get_float32_auto
 706              	.LVL51:
 707              		.loc 1 371 0
 708 035e 3146     		mov	r1, r6
 709 0360 2046     		mov	r0, r4
 710              		.loc 1 370 0
 711 0362 85ED230A 		vstr.32	s0, [r5, #140]
 712              		.loc 1 371 0
 713 0366 FFF7FEFF 		bl	buffer_get_uint16
 714              	.LVL52:
 715              		.loc 1 373 0
 716 036a 3146     		mov	r1, r6
 717              		.loc 1 371 0
 718 036c C5F89000 		str	r0, [r5, #144]
 719              		.loc 1 373 0
 720 0370 2046     		mov	r0, r4
 721 0372 FFF7FEFF 		bl	buffer_get_uint32
 722              	.LVL53:
 723              		.loc 1 375 0
 724 0376 039B     		ldr	r3, [sp, #12]
 725              		.loc 1 373 0
 726 0378 C5F89400 		str	r0, [r5, #148]
 727              		.loc 1 375 0
 728 037c E25C     		ldrb	r2, [r4, r3]	@ zero_extendqisi2
 729 037e 85F89820 		strb	r2, [r5, #152]
 730 0382 0133     		adds	r3, r3, #1
 731              		.loc 1 376 0
 732 0384 2046     		mov	r0, r4
 733 0386 3146     		mov	r1, r6
 734              		.loc 1 375 0
 735 0388 0393     		str	r3, [sp, #12]
 736              		.loc 1 376 0
 737 038a FFF7FEFF 		bl	buffer_get_float32_auto
 738              	.LVL54:
 739              		.loc 1 377 0
 740 038e 2046     		mov	r0, r4
 741 0390 3146     		mov	r1, r6
ARM GAS  /tmp/cczXzW7i.s 			page 14


 742              		.loc 1 376 0
 743 0392 85ED270A 		vstr.32	s0, [r5, #156]
 744              		.loc 1 377 0
 745 0396 FFF7FEFF 		bl	buffer_get_float32_auto
 746              	.LVL55:
 747              		.loc 1 378 0
 748 039a 2046     		mov	r0, r4
 749 039c 3146     		mov	r1, r6
 750              		.loc 1 377 0
 751 039e 85ED280A 		vstr.32	s0, [r5, #160]
 752              		.loc 1 378 0
 753 03a2 FFF7FEFF 		bl	buffer_get_float32_auto
 754              	.LVL56:
 755              		.loc 1 379 0
 756 03a6 2046     		mov	r0, r4
 757 03a8 3146     		mov	r1, r6
 758              		.loc 1 378 0
 759 03aa 85ED290A 		vstr.32	s0, [r5, #164]
 760              		.loc 1 379 0
 761 03ae FFF7FEFF 		bl	buffer_get_float32_auto
 762              	.LVL57:
 763              		.loc 1 380 0
 764 03b2 2046     		mov	r0, r4
 765 03b4 3146     		mov	r1, r6
 766              		.loc 1 379 0
 767 03b6 85ED2A0A 		vstr.32	s0, [r5, #168]
 768              		.loc 1 380 0
 769 03ba FFF7FEFF 		bl	buffer_get_float32_auto
 770              	.LVL58:
 771              		.loc 1 381 0
 772 03be 2046     		mov	r0, r4
 773 03c0 3146     		mov	r1, r6
 774              		.loc 1 380 0
 775 03c2 85ED2B0A 		vstr.32	s0, [r5, #172]
 776              		.loc 1 381 0
 777 03c6 FFF7FEFF 		bl	buffer_get_float32_auto
 778              	.LVL59:
 779              		.loc 1 382 0
 780 03ca 039B     		ldr	r3, [sp, #12]
 781              		.loc 1 381 0
 782 03cc 85ED2C0A 		vstr.32	s0, [r5, #176]
 783              		.loc 1 382 0
 784 03d0 E25C     		ldrb	r2, [r4, r3]	@ zero_extendqisi2
 785 03d2 85F8B420 		strb	r2, [r5, #180]
 786              		.loc 1 383 0
 787 03d6 E018     		adds	r0, r4, r3
 788              		.loc 1 385 0
 789 03d8 3146     		mov	r1, r6
 790              		.loc 1 383 0
 791 03da 4278     		ldrb	r2, [r0, #1]	@ zero_extendqisi2
 792 03dc 0032     		adds	r2, r2, #0
 793 03de 18BF     		it	ne
 794 03e0 0122     		movne	r2, #1
 795 03e2 85F8B520 		strb	r2, [r5, #181]
 796              		.loc 1 384 0
 797 03e6 8278     		ldrb	r2, [r0, #2]	@ zero_extendqisi2
 798 03e8 0032     		adds	r2, r2, #0
ARM GAS  /tmp/cczXzW7i.s 			page 15


 799 03ea 18BF     		it	ne
 800 03ec 0122     		movne	r2, #1
 801 03ee 0333     		adds	r3, r3, #3
 802              		.loc 1 385 0
 803 03f0 2046     		mov	r0, r4
 804              		.loc 1 384 0
 805 03f2 0393     		str	r3, [sp, #12]
 806 03f4 85F8B620 		strb	r2, [r5, #182]
 807              		.loc 1 385 0
 808 03f8 FFF7FEFF 		bl	buffer_get_float32_auto
 809              	.LVL60:
 810              		.loc 1 387 0
 811 03fc 039B     		ldr	r3, [sp, #12]
 812              		.loc 1 385 0
 813 03fe 85ED2E0A 		vstr.32	s0, [r5, #184]
 814              		.loc 1 387 0
 815 0402 E25C     		ldrb	r2, [r4, r3]	@ zero_extendqisi2
 816 0404 85F8BC20 		strb	r2, [r5, #188]
 817              		.loc 1 388 0
 818 0408 1C44     		add	r4, r4, r3
 819              	.LVL61:
 820              		.loc 1 393 0
 821 040a 2246     		mov	r2, r4
 822              		.loc 1 388 0
 823 040c 6178     		ldrb	r1, [r4, #1]	@ zero_extendqisi2
 824 040e 85F8BD10 		strb	r1, [r5, #189]
 825              		.loc 1 389 0
 826 0412 A178     		ldrb	r1, [r4, #2]	@ zero_extendqisi2
 827 0414 85F8BE10 		strb	r1, [r5, #190]
 828              		.loc 1 390 0
 829 0418 E178     		ldrb	r1, [r4, #3]	@ zero_extendqisi2
 830 041a 85F8BF10 		strb	r1, [r5, #191]
 831              		.loc 1 391 0
 832 041e 2179     		ldrb	r1, [r4, #4]	@ zero_extendqisi2
 833 0420 85F8C010 		strb	r1, [r5, #192]
 834              		.loc 1 392 0
 835 0424 6179     		ldrb	r1, [r4, #5]	@ zero_extendqisi2
 836 0426 85F8C110 		strb	r1, [r5, #193]
 837              		.loc 1 393 0
 838 042a 32F8060F 		ldrh	r0, [r2, #6]!	@ unaligned
 839              		.loc 1 397 0
 840 042e 0F49     		ldr	r1, .L84+4
 841              		.loc 1 393 0
 842 0430 9278     		ldrb	r2, [r2, #2]	@ zero_extendqisi2
 843 0432 85F8C420 		strb	r2, [r5, #196]
 844 0436 A5F8C200 		strh	r0, [r5, #194]	@ unaligned
 845              		.loc 1 395 0
 846 043a 627A     		ldrb	r2, [r4, #9]	@ zero_extendqisi2
 847              		.loc 1 397 0
 848 043c 0968     		ldr	r1, [r1]
 849              		.loc 1 395 0
 850 043e 0032     		adds	r2, r2, #0
 851 0440 03F10A03 		add	r3, r3, #10
 852 0444 18BF     		it	ne
 853 0446 0122     		movne	r2, #1
 854 0448 0393     		str	r3, [sp, #12]
 855 044a 85F8C520 		strb	r2, [r5, #197]
ARM GAS  /tmp/cczXzW7i.s 			page 16


 856              		.loc 1 397 0
 857 044e 0029     		cmp	r1, #0
 858 0450 3FF4DDAD 		beq	.L16
 859              		.loc 1 398 0
 860 0454 2846     		mov	r0, r5
 861 0456 8847     		blx	r1
 862              	.LVL62:
 863 0458 D9E5     		b	.L16
 864              	.LVL63:
 865              	.L24:
 866              		.loc 1 472 0
 867 045a 054B     		ldr	r3, .L84+8
 868              	.LVL64:
 869 045c 1B68     		ldr	r3, [r3]
 870 045e 002B     		cmp	r3, #0
 871 0460 3FF4D5AD 		beq	.L16
 872              	.L78:
 873              		.loc 1 473 0
 874 0464 9847     		blx	r3
 875              	.LVL65:
 876 0466 D2E5     		b	.L16
 877              	.L85:
 878              		.align	2
 879              	.L84:
 880 0468 00000000 		.word	.LANCHOR8
 881 046c 00000000 		.word	.LANCHOR9
 882 0470 00000000 		.word	.LANCHOR19
 883              	.LVL66:
 884              	.L23:
 885              		.loc 1 206 0
 886 0474 04AE     		add	r6, sp, #16
 887 0476 0422     		movs	r2, #4
 888              	.LVL67:
 889              		.loc 1 203 0
 890 0478 E54D     		ldr	r5, .L86
 891              		.loc 1 206 0
 892 047a 46F8042D 		str	r2, [r6, #-4]!
 893              		.loc 1 204 0
 894 047e 9878     		ldrb	r0, [r3, #2]	@ zero_extendqisi2
 895              		.loc 1 203 0
 896 0480 5A78     		ldrb	r2, [r3, #1]	@ zero_extendqisi2
 897 0482 2A70     		strb	r2, [r5]
 898              	.LVL68:
 899              		.loc 1 208 0
 900 0484 3146     		mov	r1, r6
 901              		.loc 1 205 0
 902 0486 DA78     		ldrb	r2, [r3, #3]	@ zero_extendqisi2
 903              		.loc 1 204 0
 904 0488 6870     		strb	r0, [r5, #1]
 905              		.loc 1 206 0
 906 048a 1B79     		ldrb	r3, [r3, #4]	@ zero_extendqisi2
 907              		.loc 1 205 0
 908 048c AA70     		strb	r2, [r5, #2]
 909              		.loc 1 208 0
 910 048e 2046     		mov	r0, r4
 911              		.loc 1 206 0
 912 0490 EB70     		strb	r3, [r5, #3]
ARM GAS  /tmp/cczXzW7i.s 			page 17


 913              		.loc 1 208 0
 914 0492 FFF7FEFF 		bl	buffer_get_float32_auto
 915              	.LVL69:
 916              		.loc 1 209 0
 917 0496 3146     		mov	r1, r6
 918 0498 2046     		mov	r0, r4
 919              		.loc 1 208 0
 920 049a 85ED010A 		vstr.32	s0, [r5, #4]
 921              		.loc 1 209 0
 922 049e FFF7FEFF 		bl	buffer_get_float32_auto
 923              	.LVL70:
 924              		.loc 1 210 0
 925 04a2 3146     		mov	r1, r6
 926 04a4 2046     		mov	r0, r4
 927              		.loc 1 209 0
 928 04a6 85ED020A 		vstr.32	s0, [r5, #8]
 929              		.loc 1 210 0
 930 04aa FFF7FEFF 		bl	buffer_get_float32_auto
 931              	.LVL71:
 932              		.loc 1 211 0
 933 04ae 3146     		mov	r1, r6
 934 04b0 2046     		mov	r0, r4
 935              		.loc 1 210 0
 936 04b2 85ED030A 		vstr.32	s0, [r5, #12]
 937              		.loc 1 211 0
 938 04b6 FFF7FEFF 		bl	buffer_get_float32_auto
 939              	.LVL72:
 940              		.loc 1 212 0
 941 04ba 3146     		mov	r1, r6
 942 04bc 2046     		mov	r0, r4
 943              		.loc 1 211 0
 944 04be 85ED040A 		vstr.32	s0, [r5, #16]
 945              		.loc 1 212 0
 946 04c2 FFF7FEFF 		bl	buffer_get_float32_auto
 947              	.LVL73:
 948              		.loc 1 213 0
 949 04c6 3146     		mov	r1, r6
 950 04c8 2046     		mov	r0, r4
 951              		.loc 1 212 0
 952 04ca 85ED050A 		vstr.32	s0, [r5, #20]
 953              		.loc 1 213 0
 954 04ce FFF7FEFF 		bl	buffer_get_float32_auto
 955              	.LVL74:
 956              		.loc 1 214 0
 957 04d2 3146     		mov	r1, r6
 958 04d4 2046     		mov	r0, r4
 959              		.loc 1 213 0
 960 04d6 85ED060A 		vstr.32	s0, [r5, #24]
 961              		.loc 1 214 0
 962 04da FFF7FEFF 		bl	buffer_get_float32_auto
 963              	.LVL75:
 964              		.loc 1 215 0
 965 04de 3146     		mov	r1, r6
 966 04e0 2046     		mov	r0, r4
 967              		.loc 1 214 0
 968 04e2 85ED070A 		vstr.32	s0, [r5, #28]
 969              		.loc 1 215 0
ARM GAS  /tmp/cczXzW7i.s 			page 18


 970 04e6 FFF7FEFF 		bl	buffer_get_float32_auto
 971              	.LVL76:
 972              		.loc 1 216 0
 973 04ea 3146     		mov	r1, r6
 974 04ec 2046     		mov	r0, r4
 975              		.loc 1 215 0
 976 04ee 85ED080A 		vstr.32	s0, [r5, #32]
 977              		.loc 1 216 0
 978 04f2 FFF7FEFF 		bl	buffer_get_float32_auto
 979              	.LVL77:
 980              		.loc 1 217 0
 981 04f6 3146     		mov	r1, r6
 982 04f8 2046     		mov	r0, r4
 983              		.loc 1 216 0
 984 04fa 85ED090A 		vstr.32	s0, [r5, #36]
 985              		.loc 1 217 0
 986 04fe FFF7FEFF 		bl	buffer_get_float32_auto
 987              	.LVL78:
 988              		.loc 1 218 0
 989 0502 3146     		mov	r1, r6
 990 0504 2046     		mov	r0, r4
 991              		.loc 1 217 0
 992 0506 85ED0A0A 		vstr.32	s0, [r5, #40]
 993              		.loc 1 218 0
 994 050a FFF7FEFF 		bl	buffer_get_float32_auto
 995              	.LVL79:
 996              		.loc 1 219 0
 997 050e 3146     		mov	r1, r6
 998 0510 2046     		mov	r0, r4
 999              		.loc 1 218 0
 1000 0512 85ED0B0A 		vstr.32	s0, [r5, #44]
 1001              		.loc 1 219 0
 1002 0516 FFF7FEFF 		bl	buffer_get_float32_auto
 1003              	.LVL80:
 1004              		.loc 1 220 0
 1005 051a 3146     		mov	r1, r6
 1006 051c 2046     		mov	r0, r4
 1007              		.loc 1 219 0
 1008 051e 85ED0C0A 		vstr.32	s0, [r5, #48]
 1009              		.loc 1 220 0
 1010 0522 FFF7FEFF 		bl	buffer_get_float32_auto
 1011              	.LVL81:
 1012              		.loc 1 221 0
 1013 0526 3146     		mov	r1, r6
 1014 0528 2046     		mov	r0, r4
 1015              		.loc 1 220 0
 1016 052a 85ED0D0A 		vstr.32	s0, [r5, #52]
 1017              		.loc 1 221 0
 1018 052e FFF7FEFF 		bl	buffer_get_float32_auto
 1019              	.LVL82:
 1020              		.loc 1 222 0
 1021 0532 039B     		ldr	r3, [sp, #12]
 1022              		.loc 1 221 0
 1023 0534 85ED0E0A 		vstr.32	s0, [r5, #56]
 1024              		.loc 1 222 0
 1025 0538 E25C     		ldrb	r2, [r4, r3]	@ zero_extendqisi2
 1026 053a 0032     		adds	r2, r2, #0
ARM GAS  /tmp/cczXzW7i.s 			page 19


 1027 053c 18BF     		it	ne
 1028 053e 0122     		movne	r2, #1
 1029 0540 0133     		adds	r3, r3, #1
 1030              		.loc 1 223 0
 1031 0542 3146     		mov	r1, r6
 1032 0544 2046     		mov	r0, r4
 1033              		.loc 1 222 0
 1034 0546 85F83C20 		strb	r2, [r5, #60]
 1035 054a 0393     		str	r3, [sp, #12]
 1036              		.loc 1 223 0
 1037 054c FFF7FEFF 		bl	buffer_get_float32_auto
 1038              	.LVL83:
 1039              		.loc 1 224 0
 1040 0550 3146     		mov	r1, r6
 1041 0552 2046     		mov	r0, r4
 1042              		.loc 1 223 0
 1043 0554 85ED100A 		vstr.32	s0, [r5, #64]
 1044              		.loc 1 224 0
 1045 0558 FFF7FEFF 		bl	buffer_get_float32_auto
 1046              	.LVL84:
 1047              		.loc 1 225 0
 1048 055c 3146     		mov	r1, r6
 1049 055e 2046     		mov	r0, r4
 1050              		.loc 1 224 0
 1051 0560 85ED110A 		vstr.32	s0, [r5, #68]
 1052              		.loc 1 225 0
 1053 0564 FFF7FEFF 		bl	buffer_get_float32_auto
 1054              	.LVL85:
 1055              		.loc 1 226 0
 1056 0568 3146     		mov	r1, r6
 1057 056a 2046     		mov	r0, r4
 1058              		.loc 1 225 0
 1059 056c 85ED120A 		vstr.32	s0, [r5, #72]
 1060              		.loc 1 226 0
 1061 0570 FFF7FEFF 		bl	buffer_get_float32_auto
 1062              	.LVL86:
 1063              		.loc 1 227 0
 1064 0574 3146     		mov	r1, r6
 1065 0576 2046     		mov	r0, r4
 1066              		.loc 1 226 0
 1067 0578 85ED130A 		vstr.32	s0, [r5, #76]
 1068              		.loc 1 227 0
 1069 057c FFF7FEFF 		bl	buffer_get_float32_auto
 1070              	.LVL87:
 1071              		.loc 1 228 0
 1072 0580 3146     		mov	r1, r6
 1073 0582 2046     		mov	r0, r4
 1074              		.loc 1 227 0
 1075 0584 85ED140A 		vstr.32	s0, [r5, #80]
 1076              		.loc 1 228 0
 1077 0588 FFF7FEFF 		bl	buffer_get_float32_auto
 1078              	.LVL88:
 1079              		.loc 1 229 0
 1080 058c 3146     		mov	r1, r6
 1081 058e 2046     		mov	r0, r4
 1082              		.loc 1 228 0
 1083 0590 85ED150A 		vstr.32	s0, [r5, #84]
ARM GAS  /tmp/cczXzW7i.s 			page 20


 1084              		.loc 1 229 0
 1085 0594 FFF7FEFF 		bl	buffer_get_float32_auto
 1086              	.LVL89:
 1087              		.loc 1 230 0
 1088 0598 3146     		mov	r1, r6
 1089 059a 2046     		mov	r0, r4
 1090              		.loc 1 229 0
 1091 059c 85ED160A 		vstr.32	s0, [r5, #88]
 1092              		.loc 1 230 0
 1093 05a0 FFF7FEFF 		bl	buffer_get_float32_auto
 1094              	.LVL90:
 1095              		.loc 1 231 0
 1096 05a4 3146     		mov	r1, r6
 1097 05a6 2046     		mov	r0, r4
 1098              		.loc 1 230 0
 1099 05a8 85ED170A 		vstr.32	s0, [r5, #92]
 1100              		.loc 1 231 0
 1101 05ac FFF7FEFF 		bl	buffer_get_float32_auto
 1102              	.LVL91:
 1103              		.loc 1 235 0
 1104 05b0 E968     		ldr	r1, [r5, #12]	@ float
 1105              		.loc 1 236 0
 1106 05b2 2869     		ldr	r0, [r5, #16]	@ float
 1107              		.loc 1 233 0
 1108 05b4 6A68     		ldr	r2, [r5, #4]	@ float
 1109              		.loc 1 234 0
 1110 05b6 AB68     		ldr	r3, [r5, #8]	@ float
 1111              		.loc 1 235 0
 1112 05b8 E966     		str	r1, [r5, #108]	@ float
 1113              		.loc 1 236 0
 1114 05ba 2867     		str	r0, [r5, #112]	@ float
 1115              		.loc 1 240 0
 1116 05bc 3146     		mov	r1, r6
 1117 05be 2046     		mov	r0, r4
 1118              		.loc 1 233 0
 1119 05c0 6A66     		str	r2, [r5, #100]	@ float
 1120              		.loc 1 237 0
 1121 05c2 6A67     		str	r2, [r5, #116]	@ float
 1122              		.loc 1 234 0
 1123 05c4 AB66     		str	r3, [r5, #104]	@ float
 1124              		.loc 1 238 0
 1125 05c6 AB67     		str	r3, [r5, #120]	@ float
 1126              		.loc 1 231 0
 1127 05c8 85ED180A 		vstr.32	s0, [r5, #96]
 1128              		.loc 1 240 0
 1129 05cc FFF7FEFF 		bl	buffer_get_float32_auto
 1130              	.LVL92:
 1131              		.loc 1 241 0
 1132 05d0 3146     		mov	r1, r6
 1133 05d2 2046     		mov	r0, r4
 1134              		.loc 1 240 0
 1135 05d4 85ED1F0A 		vstr.32	s0, [r5, #124]
 1136              		.loc 1 241 0
 1137 05d8 FFF7FEFF 		bl	buffer_get_float32_auto
 1138              	.LVL93:
 1139              		.loc 1 242 0
 1140 05dc 3146     		mov	r1, r6
ARM GAS  /tmp/cczXzW7i.s 			page 21


 1141 05de 2046     		mov	r0, r4
 1142              		.loc 1 241 0
 1143 05e0 85ED200A 		vstr.32	s0, [r5, #128]
 1144              		.loc 1 242 0
 1145 05e4 FFF7FEFF 		bl	buffer_get_float32_auto
 1146              	.LVL94:
 1147              		.loc 1 243 0
 1148 05e8 3146     		mov	r1, r6
 1149 05ea 2046     		mov	r0, r4
 1150              		.loc 1 242 0
 1151 05ec 85ED210A 		vstr.32	s0, [r5, #132]
 1152              		.loc 1 243 0
 1153 05f0 FFF7FEFF 		bl	buffer_get_float32_auto
 1154              	.LVL95:
 1155              		.loc 1 244 0
 1156 05f4 3146     		mov	r1, r6
 1157 05f6 2046     		mov	r0, r4
 1158              		.loc 1 243 0
 1159 05f8 85ED220A 		vstr.32	s0, [r5, #136]
 1160              		.loc 1 244 0
 1161 05fc FFF7FEFF 		bl	buffer_get_float32_auto
 1162              	.LVL96:
 1163              		.loc 1 245 0
 1164 0600 3146     		mov	r1, r6
 1165 0602 2046     		mov	r0, r4
 1166              		.loc 1 244 0
 1167 0604 85ED230A 		vstr.32	s0, [r5, #140]
 1168              		.loc 1 245 0
 1169 0608 FFF7FEFF 		bl	buffer_get_float32_auto
 1170              	.LVL97:
 1171              		.loc 1 246 0
 1172 060c 3146     		mov	r1, r6
 1173 060e 2046     		mov	r0, r4
 1174              		.loc 1 245 0
 1175 0610 85ED240A 		vstr.32	s0, [r5, #144]
 1176              		.loc 1 246 0
 1177 0614 FFF7FEFF 		bl	buffer_get_float32_auto
 1178              	.LVL98:
 1179              		.loc 1 248 0
 1180 0618 039B     		ldr	r3, [sp, #12]
 1181              		.loc 1 246 0
 1182 061a 85ED250A 		vstr.32	s0, [r5, #148]
 1183              		.loc 1 248 0
 1184 061e E118     		adds	r1, r4, r3
 1185 0620 05F19802 		add	r2, r5, #152
 1186 0624 0868     		ldr	r0, [r1]	@ unaligned
 1187 0626 4968     		ldr	r1, [r1, #4]	@ unaligned
 1188              		.loc 1 249 0
 1189 0628 0833     		adds	r3, r3, #8
 1190              		.loc 1 248 0
 1191 062a 03C2     		stmia	r2!, {r0, r1}
 1192              		.loc 1 250 0
 1193 062c 3146     		mov	r1, r6
 1194 062e 2046     		mov	r0, r4
 1195              		.loc 1 249 0
 1196 0630 0393     		str	r3, [sp, #12]
 1197              		.loc 1 250 0
ARM GAS  /tmp/cczXzW7i.s 			page 22


 1198 0632 FFF7FEFF 		bl	buffer_get_float32_auto
 1199              	.LVL99:
 1200              		.loc 1 252 0
 1201 0636 3146     		mov	r1, r6
 1202 0638 2046     		mov	r0, r4
 1203              		.loc 1 250 0
 1204 063a 85ED280A 		vstr.32	s0, [r5, #160]
 1205              		.loc 1 252 0
 1206 063e FFF7FEFF 		bl	buffer_get_float32_auto
 1207              	.LVL100:
 1208              		.loc 1 253 0
 1209 0642 3146     		mov	r1, r6
 1210 0644 2046     		mov	r0, r4
 1211              		.loc 1 252 0
 1212 0646 85ED290A 		vstr.32	s0, [r5, #164]
 1213              		.loc 1 253 0
 1214 064a FFF7FEFF 		bl	buffer_get_float32_auto
 1215              	.LVL101:
 1216              		.loc 1 254 0
 1217 064e 3146     		mov	r1, r6
 1218 0650 2046     		mov	r0, r4
 1219              		.loc 1 253 0
 1220 0652 85ED2A0A 		vstr.32	s0, [r5, #168]
 1221              		.loc 1 254 0
 1222 0656 FFF7FEFF 		bl	buffer_get_float32_auto
 1223              	.LVL102:
 1224              		.loc 1 255 0
 1225 065a 3146     		mov	r1, r6
 1226 065c 2046     		mov	r0, r4
 1227              		.loc 1 254 0
 1228 065e 85ED2B0A 		vstr.32	s0, [r5, #172]
 1229              		.loc 1 255 0
 1230 0662 FFF7FEFF 		bl	buffer_get_float32_auto
 1231              	.LVL103:
 1232              		.loc 1 256 0
 1233 0666 039B     		ldr	r3, [sp, #12]
 1234              		.loc 1 255 0
 1235 0668 85ED2C0A 		vstr.32	s0, [r5, #176]
 1236              		.loc 1 256 0
 1237 066c E25C     		ldrb	r2, [r4, r3]	@ zero_extendqisi2
 1238 066e 0032     		adds	r2, r2, #0
 1239 0670 18BF     		it	ne
 1240 0672 0122     		movne	r2, #1
 1241 0674 0133     		adds	r3, r3, #1
 1242              		.loc 1 257 0
 1243 0676 3146     		mov	r1, r6
 1244 0678 2046     		mov	r0, r4
 1245              		.loc 1 256 0
 1246 067a 85F8B820 		strb	r2, [r5, #184]
 1247 067e 0393     		str	r3, [sp, #12]
 1248              		.loc 1 257 0
 1249 0680 FFF7FEFF 		bl	buffer_get_float32_auto
 1250              	.LVL104:
 1251              		.loc 1 258 0
 1252 0684 3146     		mov	r1, r6
 1253 0686 2046     		mov	r0, r4
 1254              		.loc 1 257 0
ARM GAS  /tmp/cczXzW7i.s 			page 23


 1255 0688 85ED2D0A 		vstr.32	s0, [r5, #180]
 1256              		.loc 1 258 0
 1257 068c FFF7FEFF 		bl	buffer_get_float32_auto
 1258              	.LVL105:
 1259              		.loc 1 259 0
 1260 0690 039B     		ldr	r3, [sp, #12]
 1261              		.loc 1 258 0
 1262 0692 85ED2F0A 		vstr.32	s0, [r5, #188]
 1263              		.loc 1 259 0
 1264 0696 E25C     		ldrb	r2, [r4, r3]	@ zero_extendqisi2
 1265 0698 85F8F820 		strb	r2, [r5, #248]
 1266 069c 0133     		adds	r3, r3, #1
 1267              		.loc 1 260 0
 1268 069e 3146     		mov	r1, r6
 1269 06a0 2046     		mov	r0, r4
 1270              		.loc 1 259 0
 1271 06a2 0393     		str	r3, [sp, #12]
 1272              		.loc 1 260 0
 1273 06a4 FFF7FEFF 		bl	buffer_get_float32_auto
 1274              	.LVL106:
 1275              		.loc 1 261 0
 1276 06a8 3146     		mov	r1, r6
 1277 06aa 2046     		mov	r0, r4
 1278              		.loc 1 260 0
 1279 06ac 85ED350A 		vstr.32	s0, [r5, #212]
 1280              		.loc 1 261 0
 1281 06b0 FFF7FEFF 		bl	buffer_get_float32_auto
 1282              	.LVL107:
 1283              		.loc 1 262 0
 1284 06b4 3146     		mov	r1, r6
 1285 06b6 2046     		mov	r0, r4
 1286              		.loc 1 261 0
 1287 06b8 85ED360A 		vstr.32	s0, [r5, #216]
 1288              		.loc 1 262 0
 1289 06bc FFF7FEFF 		bl	buffer_get_float32_auto
 1290              	.LVL108:
 1291              		.loc 1 263 0
 1292 06c0 3146     		mov	r1, r6
 1293 06c2 2046     		mov	r0, r4
 1294              		.loc 1 262 0
 1295 06c4 85ED300A 		vstr.32	s0, [r5, #192]
 1296              		.loc 1 263 0
 1297 06c8 FFF7FEFF 		bl	buffer_get_float32_auto
 1298              	.LVL109:
 1299              		.loc 1 264 0
 1300 06cc 3146     		mov	r1, r6
 1301 06ce 2046     		mov	r0, r4
 1302              		.loc 1 263 0
 1303 06d0 85ED310A 		vstr.32	s0, [r5, #196]
 1304              		.loc 1 264 0
 1305 06d4 FFF7FEFF 		bl	buffer_get_float32_auto
 1306              	.LVL110:
 1307              		.loc 1 265 0
 1308 06d8 3146     		mov	r1, r6
 1309 06da 2046     		mov	r0, r4
 1310              		.loc 1 264 0
 1311 06dc 85ED320A 		vstr.32	s0, [r5, #200]
ARM GAS  /tmp/cczXzW7i.s 			page 24


 1312              		.loc 1 265 0
 1313 06e0 FFF7FEFF 		bl	buffer_get_float32_auto
 1314              	.LVL111:
 1315              		.loc 1 266 0
 1316 06e4 3146     		mov	r1, r6
 1317 06e6 2046     		mov	r0, r4
 1318              		.loc 1 265 0
 1319 06e8 85ED330A 		vstr.32	s0, [r5, #204]
 1320              		.loc 1 266 0
 1321 06ec FFF7FEFF 		bl	buffer_get_float32_auto
 1322              	.LVL112:
 1323              		.loc 1 267 0
 1324 06f0 3146     		mov	r1, r6
 1325 06f2 2046     		mov	r0, r4
 1326              		.loc 1 266 0
 1327 06f4 85ED340A 		vstr.32	s0, [r5, #208]
 1328              		.loc 1 267 0
 1329 06f8 FFF7FEFF 		bl	buffer_get_float32_auto
 1330              	.LVL113:
 1331              		.loc 1 268 0
 1332 06fc 3146     		mov	r1, r6
 1333 06fe 2046     		mov	r0, r4
 1334              		.loc 1 267 0
 1335 0700 85ED370A 		vstr.32	s0, [r5, #220]
 1336              		.loc 1 268 0
 1337 0704 FFF7FEFF 		bl	buffer_get_float32_auto
 1338              	.LVL114:
 1339              		.loc 1 269 0
 1340 0708 3146     		mov	r1, r6
 1341 070a 2046     		mov	r0, r4
 1342              		.loc 1 268 0
 1343 070c 85ED380A 		vstr.32	s0, [r5, #224]
 1344              		.loc 1 269 0
 1345 0710 FFF7FEFF 		bl	buffer_get_float32_auto
 1346              	.LVL115:
 1347              		.loc 1 270 0
 1348 0714 3146     		mov	r1, r6
 1349 0716 2046     		mov	r0, r4
 1350              		.loc 1 269 0
 1351 0718 85ED390A 		vstr.32	s0, [r5, #228]
 1352              		.loc 1 270 0
 1353 071c FFF7FEFF 		bl	buffer_get_float32_auto
 1354              	.LVL116:
 1355              		.loc 1 271 0
 1356 0720 3146     		mov	r1, r6
 1357 0722 2046     		mov	r0, r4
 1358              		.loc 1 270 0
 1359 0724 85ED3A0A 		vstr.32	s0, [r5, #232]
 1360              		.loc 1 271 0
 1361 0728 FFF7FEFF 		bl	buffer_get_float32_auto
 1362              	.LVL117:
 1363              		.loc 1 272 0
 1364 072c 3146     		mov	r1, r6
 1365 072e 2046     		mov	r0, r4
 1366              		.loc 1 271 0
 1367 0730 85ED3B0A 		vstr.32	s0, [r5, #236]
 1368              		.loc 1 272 0
ARM GAS  /tmp/cczXzW7i.s 			page 25


 1369 0734 FFF7FEFF 		bl	buffer_get_float32_auto
 1370              	.LVL118:
 1371              		.loc 1 273 0
 1372 0738 3146     		mov	r1, r6
 1373 073a 2046     		mov	r0, r4
 1374              		.loc 1 272 0
 1375 073c 85ED3C0A 		vstr.32	s0, [r5, #240]
 1376              		.loc 1 273 0
 1377 0740 FFF7FEFF 		bl	buffer_get_float32_auto
 1378              	.LVL119:
 1379              		.loc 1 274 0
 1380 0744 039B     		ldr	r3, [sp, #12]
 1381              		.loc 1 273 0
 1382 0746 85ED3D0A 		vstr.32	s0, [r5, #244]
 1383              		.loc 1 274 0
 1384 074a E218     		adds	r2, r4, r3
 1385              		.loc 1 276 0
 1386 074c 3146     		mov	r1, r6
 1387              		.loc 1 274 0
 1388 074e 1768     		ldr	r7, [r2]	@ unaligned
 1389 0750 5268     		ldr	r2, [r2, #4]	@ unaligned
 1390 0752 C5F8FD20 		str	r2, [r5, #253]	@ unaligned
 1391              		.loc 1 275 0
 1392 0756 0833     		adds	r3, r3, #8
 1393              		.loc 1 276 0
 1394 0758 2046     		mov	r0, r4
 1395              		.loc 1 274 0
 1396 075a C5F8F970 		str	r7, [r5, #249]	@ unaligned
 1397              		.loc 1 275 0
 1398 075e 0393     		str	r3, [sp, #12]
 1399              		.loc 1 276 0
 1400 0760 FFF7FEFF 		bl	buffer_get_float32_auto
 1401              	.LVL120:
 1402              		.loc 1 277 0
 1403 0764 039B     		ldr	r3, [sp, #12]
 1404              		.loc 1 276 0
 1405 0766 85ED410A 		vstr.32	s0, [r5, #260]
 1406              		.loc 1 277 0
 1407 076a E25C     		ldrb	r2, [r4, r3]	@ zero_extendqisi2
 1408 076c 0032     		adds	r2, r2, #0
 1409              		.loc 1 278 0
 1410 076e 04EB0301 		add	r1, r4, r3
 1411              		.loc 1 277 0
 1412 0772 18BF     		it	ne
 1413 0774 0122     		movne	r2, #1
 1414 0776 85F80821 		strb	r2, [r5, #264]
 1415              		.loc 1 278 0
 1416 077a 4A78     		ldrb	r2, [r1, #1]	@ zero_extendqisi2
 1417 077c 0032     		adds	r2, r2, #0
 1418 077e 18BF     		it	ne
 1419 0780 0122     		movne	r2, #1
 1420 0782 0233     		adds	r3, r3, #2
 1421              		.loc 1 279 0
 1422 0784 3146     		mov	r1, r6
 1423 0786 2046     		mov	r0, r4
 1424              		.loc 1 278 0
 1425 0788 85F80921 		strb	r2, [r5, #265]
ARM GAS  /tmp/cczXzW7i.s 			page 26


 1426 078c 0393     		str	r3, [sp, #12]
 1427              		.loc 1 279 0
 1428 078e FFF7FEFF 		bl	buffer_get_float32_auto
 1429              	.LVL121:
 1430              		.loc 1 280 0
 1431 0792 039B     		ldr	r3, [sp, #12]
 1432              		.loc 1 279 0
 1433 0794 85ED430A 		vstr.32	s0, [r5, #268]
 1434              		.loc 1 280 0
 1435 0798 E25C     		ldrb	r2, [r4, r3]	@ zero_extendqisi2
 1436 079a 0032     		adds	r2, r2, #0
 1437 079c 18BF     		it	ne
 1438 079e 0122     		movne	r2, #1
 1439 07a0 0133     		adds	r3, r3, #1
 1440              		.loc 1 281 0
 1441 07a2 3146     		mov	r1, r6
 1442 07a4 2046     		mov	r0, r4
 1443              		.loc 1 280 0
 1444 07a6 85F81021 		strb	r2, [r5, #272]
 1445 07aa 0393     		str	r3, [sp, #12]
 1446              		.loc 1 281 0
 1447 07ac FFF7FEFF 		bl	buffer_get_float32_auto
 1448              	.LVL122:
 1449              		.loc 1 282 0
 1450 07b0 3146     		mov	r1, r6
 1451 07b2 2046     		mov	r0, r4
 1452              		.loc 1 281 0
 1453 07b4 85ED450A 		vstr.32	s0, [r5, #276]
 1454              		.loc 1 282 0
 1455 07b8 FFF7FEFF 		bl	buffer_get_float32_auto
 1456              	.LVL123:
 1457              		.loc 1 284 0
 1458 07bc 3146     		mov	r1, r6
 1459 07be 2046     		mov	r0, r4
 1460              		.loc 1 282 0
 1461 07c0 85ED460A 		vstr.32	s0, [r5, #280]
 1462              		.loc 1 284 0
 1463 07c4 FFF7FEFF 		bl	buffer_get_float32_auto
 1464              	.LVL124:
 1465              		.loc 1 285 0
 1466 07c8 3146     		mov	r1, r6
 1467 07ca 2046     		mov	r0, r4
 1468              		.loc 1 284 0
 1469 07cc 85ED470A 		vstr.32	s0, [r5, #284]
 1470              		.loc 1 285 0
 1471 07d0 FFF7FEFF 		bl	buffer_get_float32_auto
 1472              	.LVL125:
 1473              		.loc 1 286 0
 1474 07d4 3146     		mov	r1, r6
 1475 07d6 2046     		mov	r0, r4
 1476              		.loc 1 285 0
 1477 07d8 85ED480A 		vstr.32	s0, [r5, #288]
 1478              		.loc 1 286 0
 1479 07dc FFF7FEFF 		bl	buffer_get_float32_auto
 1480              	.LVL126:
 1481              		.loc 1 287 0
 1482 07e0 3146     		mov	r1, r6
ARM GAS  /tmp/cczXzW7i.s 			page 27


 1483 07e2 2046     		mov	r0, r4
 1484              		.loc 1 286 0
 1485 07e4 85ED490A 		vstr.32	s0, [r5, #292]
 1486              		.loc 1 287 0
 1487 07e8 FFF7FEFF 		bl	buffer_get_float32_auto
 1488              	.LVL127:
 1489              		.loc 1 288 0
 1490 07ec 3146     		mov	r1, r6
 1491 07ee 2046     		mov	r0, r4
 1492              		.loc 1 287 0
 1493 07f0 85ED4A0A 		vstr.32	s0, [r5, #296]
 1494              		.loc 1 288 0
 1495 07f4 FFF7FEFF 		bl	buffer_get_float32_auto
 1496              	.LVL128:
 1497              		.loc 1 289 0
 1498 07f8 039B     		ldr	r3, [sp, #12]
 1499              		.loc 1 288 0
 1500 07fa 85ED4B0A 		vstr.32	s0, [r5, #300]
 1501              		.loc 1 289 0
 1502 07fe E25C     		ldrb	r2, [r4, r3]	@ zero_extendqisi2
 1503 0800 0032     		adds	r2, r2, #0
 1504 0802 18BF     		it	ne
 1505 0804 0122     		movne	r2, #1
 1506 0806 0133     		adds	r3, r3, #1
 1507              		.loc 1 291 0
 1508 0808 3146     		mov	r1, r6
 1509 080a 2046     		mov	r0, r4
 1510 080c 02E0     		b	.L87
 1511              	.L88:
 1512 080e 00BF     		.align	2
 1513              	.L86:
 1514 0810 00000000 		.word	.LANCHOR6
 1515              	.L87:
 1516              		.loc 1 289 0
 1517 0814 85F83021 		strb	r2, [r5, #304]
 1518 0818 0393     		str	r3, [sp, #12]
 1519              		.loc 1 291 0
 1520 081a FFF7FEFF 		bl	buffer_get_float32_auto
 1521              	.LVL129:
 1522              		.loc 1 292 0
 1523 081e 3146     		mov	r1, r6
 1524 0820 2046     		mov	r0, r4
 1525              		.loc 1 291 0
 1526 0822 85ED4D0A 		vstr.32	s0, [r5, #308]
 1527              		.loc 1 292 0
 1528 0826 FFF7FEFF 		bl	buffer_get_float32_auto
 1529              	.LVL130:
 1530              		.loc 1 293 0
 1531 082a 3146     		mov	r1, r6
 1532 082c 2046     		mov	r0, r4
 1533              		.loc 1 292 0
 1534 082e 85ED4E0A 		vstr.32	s0, [r5, #312]
 1535              		.loc 1 293 0
 1536 0832 FFF7FEFF 		bl	buffer_get_float32_auto
 1537              	.LVL131:
 1538              		.loc 1 294 0
 1539 0836 3146     		mov	r1, r6
ARM GAS  /tmp/cczXzW7i.s 			page 28


 1540 0838 2046     		mov	r0, r4
 1541              		.loc 1 293 0
 1542 083a 85ED4F0A 		vstr.32	s0, [r5, #316]
 1543              		.loc 1 294 0
 1544 083e FFF7FEFF 		bl	buffer_get_float32_auto
 1545              	.LVL132:
 1546              		.loc 1 295 0
 1547 0842 3146     		mov	r1, r6
 1548 0844 2046     		mov	r0, r4
 1549              		.loc 1 294 0
 1550 0846 85ED500A 		vstr.32	s0, [r5, #320]
 1551              		.loc 1 295 0
 1552 084a FFF7FEFF 		bl	buffer_get_float32_auto
 1553              	.LVL133:
 1554              		.loc 1 297 0
 1555 084e 3146     		mov	r1, r6
 1556 0850 2046     		mov	r0, r4
 1557              		.loc 1 295 0
 1558 0852 85ED510A 		vstr.32	s0, [r5, #324]
 1559              		.loc 1 297 0
 1560 0856 FFF7FEFF 		bl	buffer_get_float32_auto
 1561              	.LVL134:
 1562              		.loc 1 298 0
 1563 085a 3146     		mov	r1, r6
 1564 085c 2046     		mov	r0, r4
 1565              		.loc 1 297 0
 1566 085e 85ED520A 		vstr.32	s0, [r5, #328]
 1567              		.loc 1 298 0
 1568 0862 FFF7FEFF 		bl	buffer_get_float32_auto
 1569              	.LVL135:
 1570              		.loc 1 299 0
 1571 0866 3146     		mov	r1, r6
 1572 0868 2046     		mov	r0, r4
 1573              		.loc 1 298 0
 1574 086a 85ED530A 		vstr.32	s0, [r5, #332]
 1575              		.loc 1 299 0
 1576 086e FFF7FEFF 		bl	buffer_get_float32_auto
 1577              	.LVL136:
 1578              		.loc 1 300 0
 1579 0872 3146     		mov	r1, r6
 1580 0874 2046     		mov	r0, r4
 1581              		.loc 1 299 0
 1582 0876 85ED540A 		vstr.32	s0, [r5, #336]
 1583              		.loc 1 300 0
 1584 087a FFF7FEFF 		bl	buffer_get_float32_auto
 1585              	.LVL137:
 1586              		.loc 1 302 0
 1587 087e 3146     		mov	r1, r6
 1588 0880 2046     		mov	r0, r4
 1589              		.loc 1 300 0
 1590 0882 85ED550A 		vstr.32	s0, [r5, #340]
 1591              		.loc 1 302 0
 1592 0886 FFF7FEFF 		bl	buffer_get_int32
 1593              	.LVL138:
 1594              		.loc 1 303 0
 1595 088a 3146     		mov	r1, r6
 1596              		.loc 1 302 0
ARM GAS  /tmp/cczXzW7i.s 			page 29


 1597 088c C5F85801 		str	r0, [r5, #344]
 1598              		.loc 1 303 0
 1599 0890 2046     		mov	r0, r4
 1600 0892 FFF7FEFF 		bl	buffer_get_float32_auto
 1601              	.LVL139:
 1602              		.loc 1 304 0
 1603 0896 3146     		mov	r1, r6
 1604 0898 2046     		mov	r0, r4
 1605              		.loc 1 303 0
 1606 089a 85ED570A 		vstr.32	s0, [r5, #348]
 1607              		.loc 1 304 0
 1608 089e FFF7FEFF 		bl	buffer_get_float32_auto
 1609              	.LVL140:
 1610              		.loc 1 305 0
 1611 08a2 3146     		mov	r1, r6
 1612 08a4 2046     		mov	r0, r4
 1613              		.loc 1 304 0
 1614 08a6 85ED580A 		vstr.32	s0, [r5, #352]
 1615              		.loc 1 305 0
 1616 08aa FFF7FEFF 		bl	buffer_get_uint32
 1617              	.LVL141:
 1618              		.loc 1 306 0
 1619 08ae 039B     		ldr	r3, [sp, #12]
 1620              		.loc 1 305 0
 1621 08b0 C5F86401 		str	r0, [r5, #356]
 1622              		.loc 1 306 0
 1623 08b4 E25C     		ldrb	r2, [r4, r3]	@ zero_extendqisi2
 1624 08b6 85F86821 		strb	r2, [r5, #360]
 1625              		.loc 1 307 0
 1626 08ba E218     		adds	r2, r4, r3
 1627              		.loc 1 309 0
 1628 08bc 0433     		adds	r3, r3, #4
 1629              		.loc 1 307 0
 1630 08be 5178     		ldrb	r1, [r2, #1]	@ zero_extendqisi2
 1631              		.loc 1 309 0
 1632 08c0 0393     		str	r3, [sp, #12]
 1633              		.loc 1 307 0
 1634 08c2 0B1C     		adds	r3, r1, #0
 1635 08c4 18BF     		it	ne
 1636 08c6 0123     		movne	r3, #1
 1637 08c8 85F86931 		strb	r3, [r5, #361]
 1638              		.loc 1 308 0
 1639 08cc 9378     		ldrb	r3, [r2, #2]	@ zero_extendqisi2
 1640 08ce 85F86A31 		strb	r3, [r5, #362]
 1641              		.loc 1 309 0
 1642 08d2 D378     		ldrb	r3, [r2, #3]	@ zero_extendqisi2
 1643 08d4 C5F86C31 		str	r3, [r5, #364]
 1644              		.loc 1 310 0
 1645 08d8 3146     		mov	r1, r6
 1646 08da 2046     		mov	r0, r4
 1647 08dc FFF7FEFF 		bl	buffer_get_float32_auto
 1648              	.LVL142:
 1649              		.loc 1 311 0
 1650 08e0 3146     		mov	r1, r6
 1651 08e2 2046     		mov	r0, r4
 1652              		.loc 1 310 0
 1653 08e4 85ED5C0A 		vstr.32	s0, [r5, #368]
ARM GAS  /tmp/cczXzW7i.s 			page 30


 1654              		.loc 1 311 0
 1655 08e8 FFF7FEFF 		bl	buffer_get_float32_auto
 1656              	.LVL143:
 1657              		.loc 1 312 0
 1658 08ec 3146     		mov	r1, r6
 1659 08ee 2046     		mov	r0, r4
 1660              		.loc 1 311 0
 1661 08f0 85ED5D0A 		vstr.32	s0, [r5, #372]
 1662              		.loc 1 312 0
 1663 08f4 FFF7FEFF 		bl	buffer_get_float32_auto
 1664              	.LVL144:
 1665              		.loc 1 313 0
 1666 08f8 3146     		mov	r1, r6
 1667 08fa 2046     		mov	r0, r4
 1668              		.loc 1 312 0
 1669 08fc 85ED5E0A 		vstr.32	s0, [r5, #376]
 1670              		.loc 1 313 0
 1671 0900 FFF7FEFF 		bl	buffer_get_float32_auto
 1672              	.LVL145:
 1673              		.loc 1 316 0
 1674 0904 7D4A     		ldr	r2, .L89
 1675              		.loc 1 314 0
 1676 0906 039B     		ldr	r3, [sp, #12]
 1677              		.loc 1 313 0
 1678 0908 85ED5F0A 		vstr.32	s0, [r5, #380]
 1679              		.loc 1 316 0
 1680 090c 1268     		ldr	r2, [r2]
 1681              		.loc 1 314 0
 1682 090e E15C     		ldrb	r1, [r4, r3]	@ zero_extendqisi2
 1683 0910 85F88011 		strb	r1, [r5, #384]
 1684 0914 0133     		adds	r3, r3, #1
 1685 0916 0393     		str	r3, [sp, #12]
 1686              		.loc 1 316 0
 1687 0918 002A     		cmp	r2, #0
 1688 091a 3FF478AB 		beq	.L16
 1689              		.loc 1 317 0
 1690 091e 2846     		mov	r0, r5
 1691 0920 9047     		blx	r2
 1692              	.LVL146:
 1693 0922 FFF774BB 		b	.L16
 1694              	.LVL147:
 1695              	.L22:
 1696              		.loc 1 465 0
 1697 0926 764B     		ldr	r3, .L89+4
 1698              	.LVL148:
 1699 0928 1B68     		ldr	r3, [r3]
 1700 092a 002B     		cmp	r3, #0
 1701 092c 7FF49AAD 		bne	.L78
 1702 0930 FFF76DBB 		b	.L16
 1703              	.LVL149:
 1704              	.L20:
 1705              		.loc 1 142 0
 1706 0934 03A9     		add	r1, sp, #12
 1707 0936 2046     		mov	r0, r4
 1708 0938 B2EE040A 		vmov.f32	s0, #1.0e+1
 1709 093c 0192     		str	r2, [sp, #4]
 1710 093e FFF7FEFF 		bl	buffer_get_float16
ARM GAS  /tmp/cczXzW7i.s 			page 31


 1711              	.LVL150:
 1712 0942 704D     		ldr	r5, .L89+8
 1713              		.loc 1 143 0
 1714 0944 03A9     		add	r1, sp, #12
 1715              		.loc 1 142 0
 1716 0946 85ED010A 		vstr.32	s0, [r5, #4]
 1717              		.loc 1 143 0
 1718 094a 2046     		mov	r0, r4
 1719 094c B2EE040A 		vmov.f32	s0, #1.0e+1
 1720 0950 FFF7FEFF 		bl	buffer_get_float16
 1721              	.LVL151:
 1722              		.loc 1 144 0
 1723 0954 03A9     		add	r1, sp, #12
 1724              		.loc 1 143 0
 1725 0956 85ED020A 		vstr.32	s0, [r5, #8]
 1726              		.loc 1 144 0
 1727 095a 2046     		mov	r0, r4
 1728 095c 9FED6A0A 		vldr.32	s0, .L89+12
 1729 0960 FFF7FEFF 		bl	buffer_get_float32
 1730              	.LVL152:
 1731              		.loc 1 145 0
 1732 0964 03A9     		add	r1, sp, #12
 1733              		.loc 1 144 0
 1734 0966 85ED030A 		vstr.32	s0, [r5, #12]
 1735              		.loc 1 145 0
 1736 096a 2046     		mov	r0, r4
 1737 096c 9FED660A 		vldr.32	s0, .L89+12
 1738 0970 FFF7FEFF 		bl	buffer_get_float32
 1739              	.LVL153:
 1740              		.loc 1 146 0
 1741 0974 03A9     		add	r1, sp, #12
 1742              		.loc 1 145 0
 1743 0976 85ED040A 		vstr.32	s0, [r5, #16]
 1744              		.loc 1 146 0
 1745 097a 2046     		mov	r0, r4
 1746 097c 9FED620A 		vldr.32	s0, .L89+12
 1747 0980 FFF7FEFF 		bl	buffer_get_float32
 1748              	.LVL154:
 1749              		.loc 1 147 0
 1750 0984 03A9     		add	r1, sp, #12
 1751              		.loc 1 146 0
 1752 0986 85ED050A 		vstr.32	s0, [r5, #20]
 1753              		.loc 1 147 0
 1754 098a 2046     		mov	r0, r4
 1755 098c 9FED5E0A 		vldr.32	s0, .L89+12
 1756 0990 FFF7FEFF 		bl	buffer_get_float32
 1757              	.LVL155:
 1758              		.loc 1 148 0
 1759 0994 03A9     		add	r1, sp, #12
 1760              		.loc 1 147 0
 1761 0996 85ED060A 		vstr.32	s0, [r5, #24]
 1762              		.loc 1 148 0
 1763 099a 2046     		mov	r0, r4
 1764 099c 9FED5B0A 		vldr.32	s0, .L89+16
 1765 09a0 FFF7FEFF 		bl	buffer_get_float16
 1766              	.LVL156:
 1767              		.loc 1 149 0
ARM GAS  /tmp/cczXzW7i.s 			page 32


 1768 09a4 03A9     		add	r1, sp, #12
 1769              		.loc 1 148 0
 1770 09a6 85ED080A 		vstr.32	s0, [r5, #32]
 1771              		.loc 1 149 0
 1772 09aa 2046     		mov	r0, r4
 1773 09ac B7EE000A 		vmov.f32	s0, #1.0e+0
 1774 09b0 FFF7FEFF 		bl	buffer_get_float32
 1775              	.LVL157:
 1776              		.loc 1 150 0
 1777 09b4 03A9     		add	r1, sp, #12
 1778              		.loc 1 149 0
 1779 09b6 85ED070A 		vstr.32	s0, [r5, #28]
 1780              		.loc 1 150 0
 1781 09ba 2046     		mov	r0, r4
 1782 09bc B2EE040A 		vmov.f32	s0, #1.0e+1
 1783 09c0 FFF7FEFF 		bl	buffer_get_float16
 1784              	.LVL158:
 1785              		.loc 1 151 0
 1786 09c4 03A9     		add	r1, sp, #12
 1787              		.loc 1 150 0
 1788 09c6 85ED000A 		vstr.32	s0, [r5]
 1789              		.loc 1 151 0
 1790 09ca 2046     		mov	r0, r4
 1791 09cc 9FED500A 		vldr.32	s0, .L89+20
 1792 09d0 FFF7FEFF 		bl	buffer_get_float32
 1793              	.LVL159:
 1794              		.loc 1 152 0
 1795 09d4 03A9     		add	r1, sp, #12
 1796              		.loc 1 151 0
 1797 09d6 85ED090A 		vstr.32	s0, [r5, #36]
 1798              		.loc 1 152 0
 1799 09da 2046     		mov	r0, r4
 1800 09dc 9FED4C0A 		vldr.32	s0, .L89+20
 1801 09e0 FFF7FEFF 		bl	buffer_get_float32
 1802              	.LVL160:
 1803              		.loc 1 153 0
 1804 09e4 03A9     		add	r1, sp, #12
 1805              		.loc 1 152 0
 1806 09e6 85ED0A0A 		vstr.32	s0, [r5, #40]
 1807              		.loc 1 153 0
 1808 09ea 2046     		mov	r0, r4
 1809 09ec 9FED480A 		vldr.32	s0, .L89+20
 1810 09f0 FFF7FEFF 		bl	buffer_get_float32
 1811              	.LVL161:
 1812              		.loc 1 154 0
 1813 09f4 03A9     		add	r1, sp, #12
 1814              		.loc 1 153 0
 1815 09f6 85ED0B0A 		vstr.32	s0, [r5, #44]
 1816              		.loc 1 154 0
 1817 09fa 2046     		mov	r0, r4
 1818 09fc 9FED440A 		vldr.32	s0, .L89+20
 1819 0a00 FFF7FEFF 		bl	buffer_get_float32
 1820              	.LVL162:
 1821              		.loc 1 155 0
 1822 0a04 03A9     		add	r1, sp, #12
 1823 0a06 2046     		mov	r0, r4
 1824              		.loc 1 154 0
ARM GAS  /tmp/cczXzW7i.s 			page 33


 1825 0a08 85ED0C0A 		vstr.32	s0, [r5, #48]
 1826              		.loc 1 155 0
 1827 0a0c FFF7FEFF 		bl	buffer_get_int32
 1828              	.LVL163:
 1829              		.loc 1 156 0
 1830 0a10 03A9     		add	r1, sp, #12
 1831              		.loc 1 155 0
 1832 0a12 6863     		str	r0, [r5, #52]
 1833              		.loc 1 156 0
 1834 0a14 2046     		mov	r0, r4
 1835 0a16 FFF7FEFF 		bl	buffer_get_int32
 1836              	.LVL164:
 1837              		.loc 1 157 0
 1838 0a1a 039B     		ldr	r3, [sp, #12]
 1839              		.loc 1 121 0
 1840 0a1c 019A     		ldr	r2, [sp, #4]
 1841              		.loc 1 156 0
 1842 0a1e A863     		str	r0, [r5, #56]
 1843              		.loc 1 121 0
 1844 0a20 561E     		subs	r6, r2, #1
 1845              		.loc 1 157 0
 1846 0a22 E25C     		ldrb	r2, [r4, r3]	@ zero_extendqisi2
 1847 0a24 85F83C20 		strb	r2, [r5, #60]
 1848 0a28 0133     		adds	r3, r3, #1
 1849              		.loc 1 159 0
 1850 0a2a B342     		cmp	r3, r6
 1851              		.loc 1 157 0
 1852 0a2c 0393     		str	r3, [sp, #12]
 1853              		.loc 1 159 0
 1854 0a2e 53DB     		blt	.L81
 1855              		.loc 1 162 0
 1856 0a30 0023     		movs	r3, #0
 1857 0a32 2B64     		str	r3, [r5, #64]	@ float
 1858              	.L34:
 1859              		.loc 1 168 0
 1860 0a34 FF23     		movs	r3, #255
 1861 0a36 85F84430 		strb	r3, [r5, #68]
 1862              	.L35:
 1863              		.loc 1 171 0
 1864 0a3a 364B     		ldr	r3, .L89+24
 1865 0a3c 1B68     		ldr	r3, [r3]
 1866 0a3e 002B     		cmp	r3, #0
 1867 0a40 3FF4E5AA 		beq	.L16
 1868              		.loc 1 172 0
 1869 0a44 2F48     		ldr	r0, .L89+8
 1870 0a46 9847     		blx	r3
 1871              	.LVL165:
 1872 0a48 FFF7E1BA 		b	.L16
 1873              	.LVL166:
 1874              	.L28:
 1875              		.loc 1 404 0
 1876 0a4c 03A9     		add	r1, sp, #12
 1877 0a4e 2046     		mov	r0, r4
 1878 0a50 9FED2E0A 		vldr.32	s0, .L89+16
 1879 0a54 0193     		str	r3, [sp, #4]
 1880 0a56 FFF7FEFF 		bl	buffer_get_float32
 1881              	.LVL167:
ARM GAS  /tmp/cczXzW7i.s 			page 34


 1882 0a5a 2F4E     		ldr	r6, .L89+28
 1883              		.loc 1 405 0
 1884 0a5c 2046     		mov	r0, r4
 1885              		.loc 1 404 0
 1886 0a5e 86ED000A 		vstr.32	s0, [r6]
 1887              		.loc 1 405 0
 1888 0a62 03A9     		add	r1, sp, #12
 1889 0a64 9FED290A 		vldr.32	s0, .L89+16
 1890 0a68 FFF7FEFF 		bl	buffer_get_float32
 1891              	.LVL168:
 1892 0a6c 039D     		ldr	r5, [sp, #12]
 1893 0a6e 2B4A     		ldr	r2, .L89+32
 1894 0a70 019B     		ldr	r3, [sp, #4]
 1895 0a72 F0EE400A 		vmov.f32	s1, s0
 1896 0a76 2B44     		add	r3, r3, r5
 1897 0a78 02F10800 		add	r0, r2, #8
 1898              	.LVL169:
 1899              	.L38:
 1900              		.loc 1 407 0 discriminator 3
 1901 0a7c 13F8011F 		ldrb	r1, [r3, #1]!	@ zero_extendqisi2
 1902 0a80 02F8011F 		strb	r1, [r2, #1]!
 1903              		.loc 1 406 0 discriminator 3
 1904 0a84 8242     		cmp	r2, r0
 1905 0a86 F9D1     		bne	.L38
 1906              		.loc 1 411 0
 1907 0a88 254B     		ldr	r3, .L89+36
 1908              		.loc 1 409 0
 1909 0a8a 2C44     		add	r4, r4, r5
 1910              	.LVL170:
 1911              		.loc 1 411 0
 1912 0a8c 1B68     		ldr	r3, [r3]
 1913              		.loc 1 409 0
 1914 0a8e 94F90810 		ldrsb	r1, [r4, #8]
 1915 0a92 0935     		adds	r5, r5, #9
 1916 0a94 0395     		str	r5, [sp, #12]
 1917              		.loc 1 411 0
 1918 0a96 002B     		cmp	r3, #0
 1919 0a98 3FF4B9AA 		beq	.L16
 1920              		.loc 1 412 0
 1921 0a9c 2148     		ldr	r0, .L89+40
 1922 0a9e 96ED000A 		vldr.32	s0, [r6]
 1923 0aa2 9847     		blx	r3
 1924              	.LVL171:
 1925 0aa4 FFF7B3BA 		b	.L16
 1926              	.LVL172:
 1927              	.L29:
 1928              		.loc 1 435 0
 1929 0aa8 03A9     		add	r1, sp, #12
 1930 0aaa 2046     		mov	r0, r4
 1931 0aac 9FED1E0A 		vldr.32	s0, .L89+44
 1932 0ab0 1E4D     		ldr	r5, .L89+48
 1933 0ab2 FFF7FEFF 		bl	buffer_get_float32
 1934              	.LVL173:
 1935              		.loc 1 436 0
 1936 0ab6 03A9     		add	r1, sp, #12
 1937              		.loc 1 435 0
 1938 0ab8 85ED000A 		vstr.32	s0, [r5]
ARM GAS  /tmp/cczXzW7i.s 			page 35


 1939              		.loc 1 436 0
 1940 0abc 2046     		mov	r0, r4
 1941 0abe 9FED1A0A 		vldr.32	s0, .L89+44
 1942 0ac2 FFF7FEFF 		bl	buffer_get_float32
 1943              	.LVL174:
 1944              		.loc 1 438 0
 1945 0ac6 1A4B     		ldr	r3, .L89+52
 1946 0ac8 1B68     		ldr	r3, [r3]
 1947              		.loc 1 436 0
 1948 0aca F0EE400A 		vmov.f32	s1, s0
 1949              		.loc 1 438 0
 1950 0ace 002B     		cmp	r3, #0
 1951 0ad0 7FF4FDAA 		bne	.L80
 1952 0ad4 FFF79BBA 		b	.L16
 1953              	.LVL175:
 1954              	.L81:
 1955              		.loc 1 160 0
 1956 0ad8 03A9     		add	r1, sp, #12
 1957 0ada 9FED130A 		vldr.32	s0, .L89+44
 1958 0ade 2046     		mov	r0, r4
 1959 0ae0 FFF7FEFF 		bl	buffer_get_float32
 1960              	.LVL176:
 1961              		.loc 1 165 0
 1962 0ae4 039B     		ldr	r3, [sp, #12]
 1963              		.loc 1 160 0
 1964 0ae6 85ED100A 		vstr.32	s0, [r5, #64]
 1965              		.loc 1 165 0
 1966 0aea 9E42     		cmp	r6, r3
 1967 0aec A2DD     		ble	.L34
 1968              		.loc 1 166 0
 1969 0aee E25C     		ldrb	r2, [r4, r3]	@ zero_extendqisi2
 1970 0af0 85F84420 		strb	r2, [r5, #68]
 1971 0af4 0133     		adds	r3, r3, #1
 1972 0af6 0393     		str	r3, [sp, #12]
 1973 0af8 9FE7     		b	.L35
 1974              	.L90:
 1975 0afa 00BF     		.align	2
 1976              	.L89:
 1977 0afc 00000000 		.word	.LANCHOR7
 1978 0b00 00000000 		.word	.LANCHOR18
 1979 0b04 00000000 		.word	.LANCHOR2
 1980 0b08 0000C842 		.word	1120403456
 1981 0b0c 00007A44 		.word	1148846080
 1982 0b10 00401C46 		.word	1176256512
 1983 0b14 00000000 		.word	.LANCHOR3
 1984 0b18 00000000 		.word	.LANCHOR10
 1985 0b1c FFFFFFFF 		.word	.LANCHOR11-1
 1986 0b20 00000000 		.word	.LANCHOR12
 1987 0b24 00000000 		.word	.LANCHOR11
 1988 0b28 00247449 		.word	1232348160
 1989 0b2c 00000000 		.word	.LANCHOR13
 1990 0b30 00000000 		.word	.LANCHOR14
 1991              		.cfi_endproc
 1992              	.LFE232:
 1993              		.size	bldc_interface_process_packet, .-bldc_interface_process_packet
 1994              		.section	.text.bldc_interface_set_rx_value_func,"ax",%progbits
 1995              		.align	1
ARM GAS  /tmp/cczXzW7i.s 			page 36


 1996              		.p2align 4,,15
 1997              		.global	bldc_interface_set_rx_value_func
 1998              		.syntax unified
 1999              		.thumb
 2000              		.thumb_func
 2001              		.fpu fpv4-sp-d16
 2002              		.type	bldc_interface_set_rx_value_func, %function
 2003              	bldc_interface_set_rx_value_func:
 2004              	.LFB233:
 2005              		.loc 1 491 0
 2006              		.cfi_startproc
 2007              		@ args = 0, pretend = 0, frame = 0
 2008              		@ frame_needed = 0, uses_anonymous_args = 0
 2009              		@ link register save eliminated.
 2010              	.LVL177:
 2011              		.loc 1 492 0
 2012 0000 014B     		ldr	r3, .L92
 2013 0002 1860     		str	r0, [r3]
 2014              		.loc 1 493 0
 2015 0004 7047     		bx	lr
 2016              	.L93:
 2017 0006 00BF     		.align	2
 2018              	.L92:
 2019 0008 00000000 		.word	.LANCHOR3
 2020              		.cfi_endproc
 2021              	.LFE233:
 2022              		.size	bldc_interface_set_rx_value_func, .-bldc_interface_set_rx_value_func
 2023              		.section	.text.bldc_interface_set_rx_printf_func,"ax",%progbits
 2024              		.align	1
 2025              		.p2align 4,,15
 2026              		.global	bldc_interface_set_rx_printf_func
 2027              		.syntax unified
 2028              		.thumb
 2029              		.thumb_func
 2030              		.fpu fpv4-sp-d16
 2031              		.type	bldc_interface_set_rx_printf_func, %function
 2032              	bldc_interface_set_rx_printf_func:
 2033              	.LFB234:
 2034              		.loc 1 495 0
 2035              		.cfi_startproc
 2036              		@ args = 0, pretend = 0, frame = 0
 2037              		@ frame_needed = 0, uses_anonymous_args = 0
 2038              		@ link register save eliminated.
 2039              	.LVL178:
 2040              		.loc 1 496 0
 2041 0000 014B     		ldr	r3, .L95
 2042 0002 1860     		str	r0, [r3]
 2043              		.loc 1 497 0
 2044 0004 7047     		bx	lr
 2045              	.L96:
 2046 0006 00BF     		.align	2
 2047              	.L95:
 2048 0008 00000000 		.word	.LANCHOR4
 2049              		.cfi_endproc
 2050              	.LFE234:
 2051              		.size	bldc_interface_set_rx_printf_func, .-bldc_interface_set_rx_printf_func
 2052              		.section	.text.bldc_interface_set_rx_fw_func,"ax",%progbits
ARM GAS  /tmp/cczXzW7i.s 			page 37


 2053              		.align	1
 2054              		.p2align 4,,15
 2055              		.global	bldc_interface_set_rx_fw_func
 2056              		.syntax unified
 2057              		.thumb
 2058              		.thumb_func
 2059              		.fpu fpv4-sp-d16
 2060              		.type	bldc_interface_set_rx_fw_func, %function
 2061              	bldc_interface_set_rx_fw_func:
 2062              	.LFB235:
 2063              		.loc 1 499 0
 2064              		.cfi_startproc
 2065              		@ args = 0, pretend = 0, frame = 0
 2066              		@ frame_needed = 0, uses_anonymous_args = 0
 2067              		@ link register save eliminated.
 2068              	.LVL179:
 2069              		.loc 1 501 0
 2070 0000 7047     		bx	lr
 2071              		.cfi_endproc
 2072              	.LFE235:
 2073              		.size	bldc_interface_set_rx_fw_func, .-bldc_interface_set_rx_fw_func
 2074 0002 00BF     		.section	.text.bldc_interface_set_rx_rotor_pos_func,"ax",%progbits
 2075              		.align	1
 2076              		.p2align 4,,15
 2077              		.global	bldc_interface_set_rx_rotor_pos_func
 2078              		.syntax unified
 2079              		.thumb
 2080              		.thumb_func
 2081              		.fpu fpv4-sp-d16
 2082              		.type	bldc_interface_set_rx_rotor_pos_func, %function
 2083              	bldc_interface_set_rx_rotor_pos_func:
 2084              	.LFB236:
 2085              		.loc 1 503 0
 2086              		.cfi_startproc
 2087              		@ args = 0, pretend = 0, frame = 0
 2088              		@ frame_needed = 0, uses_anonymous_args = 0
 2089              		@ link register save eliminated.
 2090              	.LVL180:
 2091              		.loc 1 504 0
 2092 0000 014B     		ldr	r3, .L99
 2093 0002 1860     		str	r0, [r3]
 2094              		.loc 1 505 0
 2095 0004 7047     		bx	lr
 2096              	.L100:
 2097 0006 00BF     		.align	2
 2098              	.L99:
 2099 0008 00000000 		.word	.LANCHOR5
 2100              		.cfi_endproc
 2101              	.LFE236:
 2102              		.size	bldc_interface_set_rx_rotor_pos_func, .-bldc_interface_set_rx_rotor_pos_func
 2103              		.section	.text.bldc_interface_set_rx_mcconf_func,"ax",%progbits
 2104              		.align	1
 2105              		.p2align 4,,15
 2106              		.global	bldc_interface_set_rx_mcconf_func
 2107              		.syntax unified
 2108              		.thumb
 2109              		.thumb_func
ARM GAS  /tmp/cczXzW7i.s 			page 38


 2110              		.fpu fpv4-sp-d16
 2111              		.type	bldc_interface_set_rx_mcconf_func, %function
 2112              	bldc_interface_set_rx_mcconf_func:
 2113              	.LFB237:
 2114              		.loc 1 507 0
 2115              		.cfi_startproc
 2116              		@ args = 0, pretend = 0, frame = 0
 2117              		@ frame_needed = 0, uses_anonymous_args = 0
 2118              		@ link register save eliminated.
 2119              	.LVL181:
 2120              		.loc 1 508 0
 2121 0000 014B     		ldr	r3, .L102
 2122 0002 1860     		str	r0, [r3]
 2123              		.loc 1 509 0
 2124 0004 7047     		bx	lr
 2125              	.L103:
 2126 0006 00BF     		.align	2
 2127              	.L102:
 2128 0008 00000000 		.word	.LANCHOR7
 2129              		.cfi_endproc
 2130              	.LFE237:
 2131              		.size	bldc_interface_set_rx_mcconf_func, .-bldc_interface_set_rx_mcconf_func
 2132              		.section	.text.bldc_interface_set_rx_appconf_func,"ax",%progbits
 2133              		.align	1
 2134              		.p2align 4,,15
 2135              		.global	bldc_interface_set_rx_appconf_func
 2136              		.syntax unified
 2137              		.thumb
 2138              		.thumb_func
 2139              		.fpu fpv4-sp-d16
 2140              		.type	bldc_interface_set_rx_appconf_func, %function
 2141              	bldc_interface_set_rx_appconf_func:
 2142              	.LFB238:
 2143              		.loc 1 511 0
 2144              		.cfi_startproc
 2145              		@ args = 0, pretend = 0, frame = 0
 2146              		@ frame_needed = 0, uses_anonymous_args = 0
 2147              		@ link register save eliminated.
 2148              	.LVL182:
 2149              		.loc 1 512 0
 2150 0000 014B     		ldr	r3, .L105
 2151 0002 1860     		str	r0, [r3]
 2152              		.loc 1 513 0
 2153 0004 7047     		bx	lr
 2154              	.L106:
 2155 0006 00BF     		.align	2
 2156              	.L105:
 2157 0008 00000000 		.word	.LANCHOR9
 2158              		.cfi_endproc
 2159              	.LFE238:
 2160              		.size	bldc_interface_set_rx_appconf_func, .-bldc_interface_set_rx_appconf_func
 2161              		.section	.text.bldc_interface_set_rx_detect_func,"ax",%progbits
 2162              		.align	1
 2163              		.p2align 4,,15
 2164              		.global	bldc_interface_set_rx_detect_func
 2165              		.syntax unified
 2166              		.thumb
ARM GAS  /tmp/cczXzW7i.s 			page 39


 2167              		.thumb_func
 2168              		.fpu fpv4-sp-d16
 2169              		.type	bldc_interface_set_rx_detect_func, %function
 2170              	bldc_interface_set_rx_detect_func:
 2171              	.LFB239:
 2172              		.loc 1 516 0
 2173              		.cfi_startproc
 2174              		@ args = 0, pretend = 0, frame = 0
 2175              		@ frame_needed = 0, uses_anonymous_args = 0
 2176              		@ link register save eliminated.
 2177              	.LVL183:
 2178              		.loc 1 517 0
 2179 0000 014B     		ldr	r3, .L108
 2180 0002 1860     		str	r0, [r3]
 2181              		.loc 1 518 0
 2182 0004 7047     		bx	lr
 2183              	.L109:
 2184 0006 00BF     		.align	2
 2185              	.L108:
 2186 0008 00000000 		.word	.LANCHOR12
 2187              		.cfi_endproc
 2188              	.LFE239:
 2189              		.size	bldc_interface_set_rx_detect_func, .-bldc_interface_set_rx_detect_func
 2190              		.section	.text.bldc_interface_set_rx_dec_ppm_func,"ax",%progbits
 2191              		.align	1
 2192              		.p2align 4,,15
 2193              		.global	bldc_interface_set_rx_dec_ppm_func
 2194              		.syntax unified
 2195              		.thumb
 2196              		.thumb_func
 2197              		.fpu fpv4-sp-d16
 2198              		.type	bldc_interface_set_rx_dec_ppm_func, %function
 2199              	bldc_interface_set_rx_dec_ppm_func:
 2200              	.LFB240:
 2201              		.loc 1 520 0
 2202              		.cfi_startproc
 2203              		@ args = 0, pretend = 0, frame = 0
 2204              		@ frame_needed = 0, uses_anonymous_args = 0
 2205              		@ link register save eliminated.
 2206              	.LVL184:
 2207              		.loc 1 521 0
 2208 0000 014B     		ldr	r3, .L111
 2209 0002 1860     		str	r0, [r3]
 2210              		.loc 1 522 0
 2211 0004 7047     		bx	lr
 2212              	.L112:
 2213 0006 00BF     		.align	2
 2214              	.L111:
 2215 0008 00000000 		.word	.LANCHOR14
 2216              		.cfi_endproc
 2217              	.LFE240:
 2218              		.size	bldc_interface_set_rx_dec_ppm_func, .-bldc_interface_set_rx_dec_ppm_func
 2219              		.section	.text.bldc_interface_set_rx_dec_adc_func,"ax",%progbits
 2220              		.align	1
 2221              		.p2align 4,,15
 2222              		.global	bldc_interface_set_rx_dec_adc_func
 2223              		.syntax unified
ARM GAS  /tmp/cczXzW7i.s 			page 40


 2224              		.thumb
 2225              		.thumb_func
 2226              		.fpu fpv4-sp-d16
 2227              		.type	bldc_interface_set_rx_dec_adc_func, %function
 2228              	bldc_interface_set_rx_dec_adc_func:
 2229              	.LFB241:
 2230              		.loc 1 524 0
 2231              		.cfi_startproc
 2232              		@ args = 0, pretend = 0, frame = 0
 2233              		@ frame_needed = 0, uses_anonymous_args = 0
 2234              		@ link register save eliminated.
 2235              	.LVL185:
 2236              		.loc 1 525 0
 2237 0000 014B     		ldr	r3, .L114
 2238 0002 1860     		str	r0, [r3]
 2239              		.loc 1 526 0
 2240 0004 7047     		bx	lr
 2241              	.L115:
 2242 0006 00BF     		.align	2
 2243              	.L114:
 2244 0008 00000000 		.word	.LANCHOR16
 2245              		.cfi_endproc
 2246              	.LFE241:
 2247              		.size	bldc_interface_set_rx_dec_adc_func, .-bldc_interface_set_rx_dec_adc_func
 2248              		.section	.text.bldc_interface_set_rx_dec_chuk_func,"ax",%progbits
 2249              		.align	1
 2250              		.p2align 4,,15
 2251              		.global	bldc_interface_set_rx_dec_chuk_func
 2252              		.syntax unified
 2253              		.thumb
 2254              		.thumb_func
 2255              		.fpu fpv4-sp-d16
 2256              		.type	bldc_interface_set_rx_dec_chuk_func, %function
 2257              	bldc_interface_set_rx_dec_chuk_func:
 2258              	.LFB242:
 2259              		.loc 1 528 0
 2260              		.cfi_startproc
 2261              		@ args = 0, pretend = 0, frame = 0
 2262              		@ frame_needed = 0, uses_anonymous_args = 0
 2263              		@ link register save eliminated.
 2264              	.LVL186:
 2265              		.loc 1 529 0
 2266 0000 014B     		ldr	r3, .L117
 2267 0002 1860     		str	r0, [r3]
 2268              		.loc 1 530 0
 2269 0004 7047     		bx	lr
 2270              	.L118:
 2271 0006 00BF     		.align	2
 2272              	.L117:
 2273 0008 00000000 		.word	.LANCHOR17
 2274              		.cfi_endproc
 2275              	.LFE242:
 2276              		.size	bldc_interface_set_rx_dec_chuk_func, .-bldc_interface_set_rx_dec_chuk_func
 2277              		.section	.text.bldc_interface_set_rx_mcconf_received_func,"ax",%progbits
 2278              		.align	1
 2279              		.p2align 4,,15
 2280              		.global	bldc_interface_set_rx_mcconf_received_func
ARM GAS  /tmp/cczXzW7i.s 			page 41


 2281              		.syntax unified
 2282              		.thumb
 2283              		.thumb_func
 2284              		.fpu fpv4-sp-d16
 2285              		.type	bldc_interface_set_rx_mcconf_received_func, %function
 2286              	bldc_interface_set_rx_mcconf_received_func:
 2287              	.LFB243:
 2288              		.loc 1 532 0
 2289              		.cfi_startproc
 2290              		@ args = 0, pretend = 0, frame = 0
 2291              		@ frame_needed = 0, uses_anonymous_args = 0
 2292              		@ link register save eliminated.
 2293              	.LVL187:
 2294              		.loc 1 533 0
 2295 0000 014B     		ldr	r3, .L120
 2296 0002 1860     		str	r0, [r3]
 2297              		.loc 1 534 0
 2298 0004 7047     		bx	lr
 2299              	.L121:
 2300 0006 00BF     		.align	2
 2301              	.L120:
 2302 0008 00000000 		.word	.LANCHOR18
 2303              		.cfi_endproc
 2304              	.LFE243:
 2305              		.size	bldc_interface_set_rx_mcconf_received_func, .-bldc_interface_set_rx_mcconf_received_func
 2306              		.section	.text.bldc_interface_set_rx_appconf_received_func,"ax",%progbits
 2307              		.align	1
 2308              		.p2align 4,,15
 2309              		.global	bldc_interface_set_rx_appconf_received_func
 2310              		.syntax unified
 2311              		.thumb
 2312              		.thumb_func
 2313              		.fpu fpv4-sp-d16
 2314              		.type	bldc_interface_set_rx_appconf_received_func, %function
 2315              	bldc_interface_set_rx_appconf_received_func:
 2316              	.LFB244:
 2317              		.loc 1 536 0
 2318              		.cfi_startproc
 2319              		@ args = 0, pretend = 0, frame = 0
 2320              		@ frame_needed = 0, uses_anonymous_args = 0
 2321              		@ link register save eliminated.
 2322              	.LVL188:
 2323              		.loc 1 537 0
 2324 0000 014B     		ldr	r3, .L123
 2325 0002 1860     		str	r0, [r3]
 2326              		.loc 1 538 0
 2327 0004 7047     		bx	lr
 2328              	.L124:
 2329 0006 00BF     		.align	2
 2330              	.L123:
 2331 0008 00000000 		.word	.LANCHOR19
 2332              		.cfi_endproc
 2333              	.LFE244:
 2334              		.size	bldc_interface_set_rx_appconf_received_func, .-bldc_interface_set_rx_appconf_received_func
 2335              		.section	.text.bldc_interface_set_sim_control_function,"ax",%progbits
 2336              		.align	1
 2337              		.p2align 4,,15
ARM GAS  /tmp/cczXzW7i.s 			page 42


 2338              		.global	bldc_interface_set_sim_control_function
 2339              		.syntax unified
 2340              		.thumb
 2341              		.thumb_func
 2342              		.fpu fpv4-sp-d16
 2343              		.type	bldc_interface_set_sim_control_function, %function
 2344              	bldc_interface_set_sim_control_function:
 2345              	.LFB245:
 2346              		.loc 1 540 0
 2347              		.cfi_startproc
 2348              		@ args = 0, pretend = 0, frame = 0
 2349              		@ frame_needed = 0, uses_anonymous_args = 0
 2350              		@ link register save eliminated.
 2351              	.LVL189:
 2352              		.loc 1 541 0
 2353 0000 014B     		ldr	r3, .L126
 2354 0002 1860     		str	r0, [r3]
 2355              		.loc 1 542 0
 2356 0004 7047     		bx	lr
 2357              	.L127:
 2358 0006 00BF     		.align	2
 2359              	.L126:
 2360 0008 00000000 		.word	.LANCHOR20
 2361              		.cfi_endproc
 2362              	.LFE245:
 2363              		.size	bldc_interface_set_sim_control_function, .-bldc_interface_set_sim_control_function
 2364              		.section	.text.bldc_interface_set_sim_values_func,"ax",%progbits
 2365              		.align	1
 2366              		.p2align 4,,15
 2367              		.global	bldc_interface_set_sim_values_func
 2368              		.syntax unified
 2369              		.thumb
 2370              		.thumb_func
 2371              		.fpu fpv4-sp-d16
 2372              		.type	bldc_interface_set_sim_values_func, %function
 2373              	bldc_interface_set_sim_values_func:
 2374              	.LFB246:
 2375              		.loc 1 544 0
 2376              		.cfi_startproc
 2377              		@ args = 0, pretend = 0, frame = 0
 2378              		@ frame_needed = 0, uses_anonymous_args = 0
 2379              		@ link register save eliminated.
 2380              	.LVL190:
 2381              		.loc 1 545 0
 2382 0000 014B     		ldr	r3, .L129
 2383 0002 1860     		str	r0, [r3]
 2384              		.loc 1 546 0
 2385 0004 7047     		bx	lr
 2386              	.L130:
 2387 0006 00BF     		.align	2
 2388              	.L129:
 2389 0008 00000000 		.word	.LANCHOR21
 2390              		.cfi_endproc
 2391              	.LFE246:
 2392              		.size	bldc_interface_set_sim_values_func, .-bldc_interface_set_sim_values_func
 2393              		.section	.text.bldc_interface_terminal_cmd,"ax",%progbits
 2394              		.align	1
ARM GAS  /tmp/cczXzW7i.s 			page 43


 2395              		.p2align 4,,15
 2396              		.global	bldc_interface_terminal_cmd
 2397              		.syntax unified
 2398              		.thumb
 2399              		.thumb_func
 2400              		.fpu fpv4-sp-d16
 2401              		.type	bldc_interface_terminal_cmd, %function
 2402              	bldc_interface_terminal_cmd:
 2403              	.LFB247:
 2404              		.loc 1 549 0
 2405              		.cfi_startproc
 2406              		@ args = 0, pretend = 0, frame = 0
 2407              		@ frame_needed = 0, uses_anonymous_args = 0
 2408              	.LVL191:
 2409 0000 70B5     		push	{r4, r5, r6, lr}
 2410              		.cfi_def_cfa_offset 16
 2411              		.cfi_offset 4, -16
 2412              		.cfi_offset 5, -12
 2413              		.cfi_offset 6, -8
 2414              		.cfi_offset 14, -4
 2415              		.loc 1 549 0
 2416 0002 0646     		mov	r6, r0
 2417              		.loc 1 550 0
 2418 0004 FFF7FEFF 		bl	strlen
 2419              	.LVL192:
 2420              		.loc 1 551 0
 2421 0008 094C     		ldr	r4, .L135
 2422              		.loc 1 550 0
 2423 000a 0546     		mov	r5, r0
 2424              	.LVL193:
 2425              		.loc 1 551 0
 2426 000c 2046     		mov	r0, r4
 2427              	.LVL194:
 2428 000e 1423     		movs	r3, #20
 2429 0010 00F8013B 		strb	r3, [r0], #1
 2430              		.loc 1 552 0
 2431 0014 3146     		mov	r1, r6
 2432 0016 2A46     		mov	r2, r5
 2433 0018 FFF7FEFF 		bl	memcpy
 2434              	.LVL195:
 2435              	.LBB48:
 2436              	.LBB49:
 2437              		.loc 1 908 0
 2438 001c 054B     		ldr	r3, .L135+4
 2439 001e 1B68     		ldr	r3, [r3]
 2440 0020 03B1     		cbz	r3, .L134
 2441              	.LBE49:
 2442              	.LBE48:
 2443              		.loc 1 554 0
 2444 0022 70BD     		pop	{r4, r5, r6, pc}
 2445              	.LVL196:
 2446              	.L134:
 2447              	.LBB52:
 2448              	.LBB50:
 2449 0024 691C     		adds	r1, r5, #1
 2450 0026 2046     		mov	r0, r4
 2451              	.LBE50:
ARM GAS  /tmp/cczXzW7i.s 			page 44


 2452              	.LBE52:
 2453 0028 BDE87040 		pop	{r4, r5, r6, lr}
 2454              		.cfi_restore 14
 2455              		.cfi_restore 6
 2456              		.cfi_restore 5
 2457              		.cfi_restore 4
 2458              		.cfi_def_cfa_offset 0
 2459              	.LVL197:
 2460              	.LBB53:
 2461              	.LBB51:
 2462 002c FFF7FEBF 		b	send_packet_no_fwd.part.0
 2463              	.LVL198:
 2464              	.L136:
 2465              		.align	2
 2466              	.L135:
 2467 0030 00000000 		.word	.LANCHOR22
 2468 0034 00000000 		.word	.LANCHOR1
 2469              	.LBE51:
 2470              	.LBE53:
 2471              		.cfi_endproc
 2472              	.LFE247:
 2473              		.size	bldc_interface_terminal_cmd, .-bldc_interface_terminal_cmd
 2474              		.section	.text.bldc_interface_set_duty_cycle,"ax",%progbits
 2475              		.align	1
 2476              		.p2align 4,,15
 2477              		.global	bldc_interface_set_duty_cycle
 2478              		.syntax unified
 2479              		.thumb
 2480              		.thumb_func
 2481              		.fpu fpv4-sp-d16
 2482              		.type	bldc_interface_set_duty_cycle, %function
 2483              	bldc_interface_set_duty_cycle:
 2484              	.LFB248:
 2485              		.loc 1 556 0
 2486              		.cfi_startproc
 2487              		@ args = 0, pretend = 0, frame = 8
 2488              		@ frame_needed = 0, uses_anonymous_args = 0
 2489              	.LVL199:
 2490 0000 10B5     		push	{r4, lr}
 2491              		.cfi_def_cfa_offset 8
 2492              		.cfi_offset 4, -8
 2493              		.cfi_offset 14, -4
 2494              		.loc 1 557 0
 2495 0002 0E4B     		ldr	r3, .L142
 2496 0004 1B68     		ldr	r3, [r3]
 2497              		.loc 1 556 0
 2498 0006 82B0     		sub	sp, sp, #8
 2499              		.cfi_def_cfa_offset 16
 2500              		.loc 1 557 0
 2501 0008 1BB1     		cbz	r3, .L138
 2502              		.loc 1 558 0
 2503 000a 0020     		movs	r0, #0
 2504 000c 9847     		blx	r3
 2505              	.LVL200:
 2506              	.L137:
 2507              		.loc 1 565 0
 2508 000e 02B0     		add	sp, sp, #8
ARM GAS  /tmp/cczXzW7i.s 			page 45


 2509              		.cfi_remember_state
 2510              		.cfi_def_cfa_offset 8
 2511              		@ sp needed
 2512 0010 10BD     		pop	{r4, pc}
 2513              	.LVL201:
 2514              	.L138:
 2515              		.cfi_restore_state
 2516              		.loc 1 562 0
 2517 0012 02A9     		add	r1, sp, #8
 2518 0014 0A4C     		ldr	r4, .L142+4
 2519              		.loc 1 563 0
 2520 0016 DFED0B0A 		vldr.32	s1, .L142+8
 2521              		.loc 1 562 0
 2522 001a 0123     		movs	r3, #1
 2523 001c 41F8043D 		str	r3, [r1, #-4]!
 2524              		.loc 1 563 0
 2525 0020 2046     		mov	r0, r4
 2526              		.loc 1 562 0
 2527 0022 0523     		movs	r3, #5
 2528 0024 2370     		strb	r3, [r4]
 2529              		.loc 1 563 0
 2530 0026 FFF7FEFF 		bl	buffer_append_float32
 2531              	.LVL202:
 2532              	.LBB54:
 2533              	.LBB55:
 2534              		.loc 1 908 0
 2535 002a 074B     		ldr	r3, .L142+12
 2536 002c 1B68     		ldr	r3, [r3]
 2537 002e 002B     		cmp	r3, #0
 2538 0030 EDD1     		bne	.L137
 2539 0032 2046     		mov	r0, r4
 2540 0034 0199     		ldr	r1, [sp, #4]
 2541 0036 FFF7FEFF 		bl	send_packet_no_fwd.part.0
 2542              	.LVL203:
 2543 003a E8E7     		b	.L137
 2544              	.L143:
 2545              		.align	2
 2546              	.L142:
 2547 003c 00000000 		.word	.LANCHOR20
 2548 0040 00000000 		.word	.LANCHOR22
 2549 0044 0050C347 		.word	1203982336
 2550 0048 00000000 		.word	.LANCHOR1
 2551              	.LBE55:
 2552              	.LBE54:
 2553              		.cfi_endproc
 2554              	.LFE248:
 2555              		.size	bldc_interface_set_duty_cycle, .-bldc_interface_set_duty_cycle
 2556              		.section	.text.bldc_interface_set_current,"ax",%progbits
 2557              		.align	1
 2558              		.p2align 4,,15
 2559              		.global	bldc_interface_set_current
 2560              		.syntax unified
 2561              		.thumb
 2562              		.thumb_func
 2563              		.fpu fpv4-sp-d16
 2564              		.type	bldc_interface_set_current, %function
 2565              	bldc_interface_set_current:
ARM GAS  /tmp/cczXzW7i.s 			page 46


 2566              	.LFB249:
 2567              		.loc 1 567 0
 2568              		.cfi_startproc
 2569              		@ args = 0, pretend = 0, frame = 8
 2570              		@ frame_needed = 0, uses_anonymous_args = 0
 2571              	.LVL204:
 2572 0000 10B5     		push	{r4, lr}
 2573              		.cfi_def_cfa_offset 8
 2574              		.cfi_offset 4, -8
 2575              		.cfi_offset 14, -4
 2576              		.loc 1 568 0
 2577 0002 0E4B     		ldr	r3, .L149
 2578 0004 1B68     		ldr	r3, [r3]
 2579              		.loc 1 567 0
 2580 0006 82B0     		sub	sp, sp, #8
 2581              		.cfi_def_cfa_offset 16
 2582              		.loc 1 568 0
 2583 0008 1BB1     		cbz	r3, .L145
 2584              		.loc 1 569 0
 2585 000a 0120     		movs	r0, #1
 2586 000c 9847     		blx	r3
 2587              	.LVL205:
 2588              	.L144:
 2589              		.loc 1 576 0
 2590 000e 02B0     		add	sp, sp, #8
 2591              		.cfi_remember_state
 2592              		.cfi_def_cfa_offset 8
 2593              		@ sp needed
 2594 0010 10BD     		pop	{r4, pc}
 2595              	.LVL206:
 2596              	.L145:
 2597              		.cfi_restore_state
 2598              		.loc 1 573 0
 2599 0012 02A9     		add	r1, sp, #8
 2600 0014 0A4C     		ldr	r4, .L149+4
 2601              		.loc 1 574 0
 2602 0016 DFED0B0A 		vldr.32	s1, .L149+8
 2603              		.loc 1 573 0
 2604 001a 0123     		movs	r3, #1
 2605 001c 41F8043D 		str	r3, [r1, #-4]!
 2606              		.loc 1 574 0
 2607 0020 2046     		mov	r0, r4
 2608              		.loc 1 573 0
 2609 0022 0623     		movs	r3, #6
 2610 0024 2370     		strb	r3, [r4]
 2611              		.loc 1 574 0
 2612 0026 FFF7FEFF 		bl	buffer_append_float32
 2613              	.LVL207:
 2614              	.LBB56:
 2615              	.LBB57:
 2616              		.loc 1 908 0
 2617 002a 074B     		ldr	r3, .L149+12
 2618 002c 1B68     		ldr	r3, [r3]
 2619 002e 002B     		cmp	r3, #0
 2620 0030 EDD1     		bne	.L144
 2621 0032 2046     		mov	r0, r4
 2622 0034 0199     		ldr	r1, [sp, #4]
ARM GAS  /tmp/cczXzW7i.s 			page 47


 2623 0036 FFF7FEFF 		bl	send_packet_no_fwd.part.0
 2624              	.LVL208:
 2625 003a E8E7     		b	.L144
 2626              	.L150:
 2627              		.align	2
 2628              	.L149:
 2629 003c 00000000 		.word	.LANCHOR20
 2630 0040 00000000 		.word	.LANCHOR22
 2631 0044 00007A44 		.word	1148846080
 2632 0048 00000000 		.word	.LANCHOR1
 2633              	.LBE57:
 2634              	.LBE56:
 2635              		.cfi_endproc
 2636              	.LFE249:
 2637              		.size	bldc_interface_set_current, .-bldc_interface_set_current
 2638              		.section	.text.bldc_interface_set_current_brake,"ax",%progbits
 2639              		.align	1
 2640              		.p2align 4,,15
 2641              		.global	bldc_interface_set_current_brake
 2642              		.syntax unified
 2643              		.thumb
 2644              		.thumb_func
 2645              		.fpu fpv4-sp-d16
 2646              		.type	bldc_interface_set_current_brake, %function
 2647              	bldc_interface_set_current_brake:
 2648              	.LFB250:
 2649              		.loc 1 578 0
 2650              		.cfi_startproc
 2651              		@ args = 0, pretend = 0, frame = 8
 2652              		@ frame_needed = 0, uses_anonymous_args = 0
 2653              	.LVL209:
 2654 0000 10B5     		push	{r4, lr}
 2655              		.cfi_def_cfa_offset 8
 2656              		.cfi_offset 4, -8
 2657              		.cfi_offset 14, -4
 2658              		.loc 1 579 0
 2659 0002 0E4B     		ldr	r3, .L156
 2660 0004 1B68     		ldr	r3, [r3]
 2661              		.loc 1 578 0
 2662 0006 82B0     		sub	sp, sp, #8
 2663              		.cfi_def_cfa_offset 16
 2664              		.loc 1 579 0
 2665 0008 1BB1     		cbz	r3, .L152
 2666              		.loc 1 580 0
 2667 000a 0220     		movs	r0, #2
 2668 000c 9847     		blx	r3
 2669              	.LVL210:
 2670              	.L151:
 2671              		.loc 1 587 0
 2672 000e 02B0     		add	sp, sp, #8
 2673              		.cfi_remember_state
 2674              		.cfi_def_cfa_offset 8
 2675              		@ sp needed
 2676 0010 10BD     		pop	{r4, pc}
 2677              	.LVL211:
 2678              	.L152:
 2679              		.cfi_restore_state
ARM GAS  /tmp/cczXzW7i.s 			page 48


 2680              		.loc 1 584 0
 2681 0012 02A9     		add	r1, sp, #8
 2682 0014 0A4C     		ldr	r4, .L156+4
 2683              		.loc 1 585 0
 2684 0016 DFED0B0A 		vldr.32	s1, .L156+8
 2685              		.loc 1 584 0
 2686 001a 0123     		movs	r3, #1
 2687 001c 41F8043D 		str	r3, [r1, #-4]!
 2688              		.loc 1 585 0
 2689 0020 2046     		mov	r0, r4
 2690              		.loc 1 584 0
 2691 0022 0723     		movs	r3, #7
 2692 0024 2370     		strb	r3, [r4]
 2693              		.loc 1 585 0
 2694 0026 FFF7FEFF 		bl	buffer_append_float32
 2695              	.LVL212:
 2696              	.LBB58:
 2697              	.LBB59:
 2698              		.loc 1 908 0
 2699 002a 074B     		ldr	r3, .L156+12
 2700 002c 1B68     		ldr	r3, [r3]
 2701 002e 002B     		cmp	r3, #0
 2702 0030 EDD1     		bne	.L151
 2703 0032 2046     		mov	r0, r4
 2704 0034 0199     		ldr	r1, [sp, #4]
 2705 0036 FFF7FEFF 		bl	send_packet_no_fwd.part.0
 2706              	.LVL213:
 2707 003a E8E7     		b	.L151
 2708              	.L157:
 2709              		.align	2
 2710              	.L156:
 2711 003c 00000000 		.word	.LANCHOR20
 2712 0040 00000000 		.word	.LANCHOR22
 2713 0044 00007A44 		.word	1148846080
 2714 0048 00000000 		.word	.LANCHOR1
 2715              	.LBE59:
 2716              	.LBE58:
 2717              		.cfi_endproc
 2718              	.LFE250:
 2719              		.size	bldc_interface_set_current_brake, .-bldc_interface_set_current_brake
 2720              		.section	.text.bldc_interface_set_rpm,"ax",%progbits
 2721              		.align	1
 2722              		.p2align 4,,15
 2723              		.global	bldc_interface_set_rpm
 2724              		.syntax unified
 2725              		.thumb
 2726              		.thumb_func
 2727              		.fpu fpv4-sp-d16
 2728              		.type	bldc_interface_set_rpm, %function
 2729              	bldc_interface_set_rpm:
 2730              	.LFB251:
 2731              		.loc 1 589 0
 2732              		.cfi_startproc
 2733              		@ args = 0, pretend = 0, frame = 8
 2734              		@ frame_needed = 0, uses_anonymous_args = 0
 2735              	.LVL214:
 2736 0000 10B5     		push	{r4, lr}
ARM GAS  /tmp/cczXzW7i.s 			page 49


 2737              		.cfi_def_cfa_offset 8
 2738              		.cfi_offset 4, -8
 2739              		.cfi_offset 14, -4
 2740              		.loc 1 590 0
 2741 0002 104B     		ldr	r3, .L163
 2742 0004 1B68     		ldr	r3, [r3]
 2743              		.loc 1 589 0
 2744 0006 82B0     		sub	sp, sp, #8
 2745              		.cfi_def_cfa_offset 16
 2746              		.loc 1 589 0
 2747 0008 00EE100A 		vmov	s0, r0	@ int
 2748              		.loc 1 590 0
 2749 000c 2BB1     		cbz	r3, .L159
 2750              		.loc 1 591 0
 2751 000e B8EEC00A 		vcvt.f32.s32	s0, s0
 2752 0012 0320     		movs	r0, #3
 2753              	.LVL215:
 2754 0014 9847     		blx	r3
 2755              	.LVL216:
 2756              	.L158:
 2757              		.loc 1 598 0
 2758 0016 02B0     		add	sp, sp, #8
 2759              		.cfi_remember_state
 2760              		.cfi_def_cfa_offset 8
 2761              		@ sp needed
 2762 0018 10BD     		pop	{r4, pc}
 2763              	.LVL217:
 2764              	.L159:
 2765              		.cfi_restore_state
 2766              		.loc 1 595 0
 2767 001a 02AA     		add	r2, sp, #8
 2768 001c 0A4C     		ldr	r4, .L163+4
 2769 001e 0123     		movs	r3, #1
 2770 0020 42F8043D 		str	r3, [r2, #-4]!
 2771              		.loc 1 596 0
 2772 0024 2046     		mov	r0, r4
 2773              	.LVL218:
 2774              		.loc 1 595 0
 2775 0026 0823     		movs	r3, #8
 2776              		.loc 1 596 0
 2777 0028 10EE101A 		vmov	r1, s0	@ int
 2778              		.loc 1 595 0
 2779 002c 2370     		strb	r3, [r4]
 2780              		.loc 1 596 0
 2781 002e FFF7FEFF 		bl	buffer_append_int32
 2782              	.LVL219:
 2783              	.LBB60:
 2784              	.LBB61:
 2785              		.loc 1 908 0
 2786 0032 064B     		ldr	r3, .L163+8
 2787 0034 1B68     		ldr	r3, [r3]
 2788 0036 002B     		cmp	r3, #0
 2789 0038 EDD1     		bne	.L158
 2790 003a 2046     		mov	r0, r4
 2791 003c 0199     		ldr	r1, [sp, #4]
 2792 003e FFF7FEFF 		bl	send_packet_no_fwd.part.0
 2793              	.LVL220:
ARM GAS  /tmp/cczXzW7i.s 			page 50


 2794 0042 E8E7     		b	.L158
 2795              	.L164:
 2796              		.align	2
 2797              	.L163:
 2798 0044 00000000 		.word	.LANCHOR20
 2799 0048 00000000 		.word	.LANCHOR22
 2800 004c 00000000 		.word	.LANCHOR1
 2801              	.LBE61:
 2802              	.LBE60:
 2803              		.cfi_endproc
 2804              	.LFE251:
 2805              		.size	bldc_interface_set_rpm, .-bldc_interface_set_rpm
 2806              		.section	.text.bldc_interface_set_pos,"ax",%progbits
 2807              		.align	1
 2808              		.p2align 4,,15
 2809              		.global	bldc_interface_set_pos
 2810              		.syntax unified
 2811              		.thumb
 2812              		.thumb_func
 2813              		.fpu fpv4-sp-d16
 2814              		.type	bldc_interface_set_pos, %function
 2815              	bldc_interface_set_pos:
 2816              	.LFB252:
 2817              		.loc 1 600 0
 2818              		.cfi_startproc
 2819              		@ args = 0, pretend = 0, frame = 8
 2820              		@ frame_needed = 0, uses_anonymous_args = 0
 2821              	.LVL221:
 2822 0000 10B5     		push	{r4, lr}
 2823              		.cfi_def_cfa_offset 8
 2824              		.cfi_offset 4, -8
 2825              		.cfi_offset 14, -4
 2826              		.loc 1 601 0
 2827 0002 0E4B     		ldr	r3, .L170
 2828 0004 1B68     		ldr	r3, [r3]
 2829              		.loc 1 600 0
 2830 0006 82B0     		sub	sp, sp, #8
 2831              		.cfi_def_cfa_offset 16
 2832              		.loc 1 601 0
 2833 0008 1BB1     		cbz	r3, .L166
 2834              		.loc 1 602 0
 2835 000a 0420     		movs	r0, #4
 2836 000c 9847     		blx	r3
 2837              	.LVL222:
 2838              	.L165:
 2839              		.loc 1 609 0
 2840 000e 02B0     		add	sp, sp, #8
 2841              		.cfi_remember_state
 2842              		.cfi_def_cfa_offset 8
 2843              		@ sp needed
 2844 0010 10BD     		pop	{r4, pc}
 2845              	.LVL223:
 2846              	.L166:
 2847              		.cfi_restore_state
 2848              		.loc 1 606 0
 2849 0012 02A9     		add	r1, sp, #8
 2850 0014 0A4C     		ldr	r4, .L170+4
ARM GAS  /tmp/cczXzW7i.s 			page 51


 2851              		.loc 1 607 0
 2852 0016 DFED0B0A 		vldr.32	s1, .L170+8
 2853              		.loc 1 606 0
 2854 001a 0123     		movs	r3, #1
 2855 001c 41F8043D 		str	r3, [r1, #-4]!
 2856              		.loc 1 607 0
 2857 0020 2046     		mov	r0, r4
 2858              		.loc 1 606 0
 2859 0022 0923     		movs	r3, #9
 2860 0024 2370     		strb	r3, [r4]
 2861              		.loc 1 607 0
 2862 0026 FFF7FEFF 		bl	buffer_append_float32
 2863              	.LVL224:
 2864              	.LBB62:
 2865              	.LBB63:
 2866              		.loc 1 908 0
 2867 002a 074B     		ldr	r3, .L170+12
 2868 002c 1B68     		ldr	r3, [r3]
 2869 002e 002B     		cmp	r3, #0
 2870 0030 EDD1     		bne	.L165
 2871 0032 2046     		mov	r0, r4
 2872 0034 0199     		ldr	r1, [sp, #4]
 2873 0036 FFF7FEFF 		bl	send_packet_no_fwd.part.0
 2874              	.LVL225:
 2875 003a E8E7     		b	.L165
 2876              	.L171:
 2877              		.align	2
 2878              	.L170:
 2879 003c 00000000 		.word	.LANCHOR20
 2880 0040 00000000 		.word	.LANCHOR22
 2881 0044 00247449 		.word	1232348160
 2882 0048 00000000 		.word	.LANCHOR1
 2883              	.LBE63:
 2884              	.LBE62:
 2885              		.cfi_endproc
 2886              	.LFE252:
 2887              		.size	bldc_interface_set_pos, .-bldc_interface_set_pos
 2888              		.section	.text.bldc_interface_set_handbrake,"ax",%progbits
 2889              		.align	1
 2890              		.p2align 4,,15
 2891              		.global	bldc_interface_set_handbrake
 2892              		.syntax unified
 2893              		.thumb
 2894              		.thumb_func
 2895              		.fpu fpv4-sp-d16
 2896              		.type	bldc_interface_set_handbrake, %function
 2897              	bldc_interface_set_handbrake:
 2898              	.LFB253:
 2899              		.loc 1 611 0
 2900              		.cfi_startproc
 2901              		@ args = 0, pretend = 0, frame = 8
 2902              		@ frame_needed = 0, uses_anonymous_args = 0
 2903              	.LVL226:
 2904 0000 10B5     		push	{r4, lr}
 2905              		.cfi_def_cfa_offset 8
 2906              		.cfi_offset 4, -8
 2907              		.cfi_offset 14, -4
ARM GAS  /tmp/cczXzW7i.s 			page 52


 2908 0002 82B0     		sub	sp, sp, #8
 2909              		.cfi_def_cfa_offset 16
 2910              		.loc 1 613 0
 2911 0004 02A9     		add	r1, sp, #8
 2912 0006 0B4C     		ldr	r4, .L176
 2913              		.loc 1 614 0
 2914 0008 DFED0B0A 		vldr.32	s1, .L176+4
 2915              		.loc 1 613 0
 2916 000c 0123     		movs	r3, #1
 2917 000e 41F8043D 		str	r3, [r1, #-4]!
 2918              		.loc 1 614 0
 2919 0012 2046     		mov	r0, r4
 2920              		.loc 1 613 0
 2921 0014 0A23     		movs	r3, #10
 2922 0016 2370     		strb	r3, [r4]
 2923              		.loc 1 614 0
 2924 0018 FFF7FEFF 		bl	buffer_append_float32
 2925              	.LVL227:
 2926              	.LBB64:
 2927              	.LBB65:
 2928              		.loc 1 908 0
 2929 001c 074B     		ldr	r3, .L176+8
 2930 001e 1B68     		ldr	r3, [r3]
 2931 0020 0BB1     		cbz	r3, .L175
 2932              	.LBE65:
 2933              	.LBE64:
 2934              		.loc 1 616 0
 2935 0022 02B0     		add	sp, sp, #8
 2936              		.cfi_remember_state
 2937              		.cfi_def_cfa_offset 8
 2938              		@ sp needed
 2939 0024 10BD     		pop	{r4, pc}
 2940              	.LVL228:
 2941              	.L175:
 2942              		.cfi_restore_state
 2943              	.LBB67:
 2944              	.LBB66:
 2945 0026 2046     		mov	r0, r4
 2946 0028 0199     		ldr	r1, [sp, #4]
 2947 002a FFF7FEFF 		bl	send_packet_no_fwd.part.0
 2948              	.LVL229:
 2949              	.LBE66:
 2950              	.LBE67:
 2951 002e 02B0     		add	sp, sp, #8
 2952              		.cfi_def_cfa_offset 8
 2953              		@ sp needed
 2954 0030 10BD     		pop	{r4, pc}
 2955              	.L177:
 2956 0032 00BF     		.align	2
 2957              	.L176:
 2958 0034 00000000 		.word	.LANCHOR22
 2959 0038 00007A44 		.word	1148846080
 2960 003c 00000000 		.word	.LANCHOR1
 2961              		.cfi_endproc
 2962              	.LFE253:
 2963              		.size	bldc_interface_set_handbrake, .-bldc_interface_set_handbrake
 2964              		.section	.text.bldc_interface_set_servo_pos,"ax",%progbits
ARM GAS  /tmp/cczXzW7i.s 			page 53


 2965              		.align	1
 2966              		.p2align 4,,15
 2967              		.global	bldc_interface_set_servo_pos
 2968              		.syntax unified
 2969              		.thumb
 2970              		.thumb_func
 2971              		.fpu fpv4-sp-d16
 2972              		.type	bldc_interface_set_servo_pos, %function
 2973              	bldc_interface_set_servo_pos:
 2974              	.LFB254:
 2975              		.loc 1 618 0
 2976              		.cfi_startproc
 2977              		@ args = 0, pretend = 0, frame = 8
 2978              		@ frame_needed = 0, uses_anonymous_args = 0
 2979              	.LVL230:
 2980 0000 10B5     		push	{r4, lr}
 2981              		.cfi_def_cfa_offset 8
 2982              		.cfi_offset 4, -8
 2983              		.cfi_offset 14, -4
 2984 0002 82B0     		sub	sp, sp, #8
 2985              		.cfi_def_cfa_offset 16
 2986              		.loc 1 620 0
 2987 0004 02A9     		add	r1, sp, #8
 2988 0006 0B4C     		ldr	r4, .L182
 2989              		.loc 1 621 0
 2990 0008 DFED0B0A 		vldr.32	s1, .L182+4
 2991              		.loc 1 620 0
 2992 000c 0123     		movs	r3, #1
 2993 000e 41F8043D 		str	r3, [r1, #-4]!
 2994              		.loc 1 621 0
 2995 0012 2046     		mov	r0, r4
 2996              		.loc 1 620 0
 2997 0014 0C23     		movs	r3, #12
 2998 0016 2370     		strb	r3, [r4]
 2999              		.loc 1 621 0
 3000 0018 FFF7FEFF 		bl	buffer_append_float16
 3001              	.LVL231:
 3002              	.LBB68:
 3003              	.LBB69:
 3004              		.loc 1 908 0
 3005 001c 074B     		ldr	r3, .L182+8
 3006 001e 1B68     		ldr	r3, [r3]
 3007 0020 0BB1     		cbz	r3, .L181
 3008              	.LBE69:
 3009              	.LBE68:
 3010              		.loc 1 623 0
 3011 0022 02B0     		add	sp, sp, #8
 3012              		.cfi_remember_state
 3013              		.cfi_def_cfa_offset 8
 3014              		@ sp needed
 3015 0024 10BD     		pop	{r4, pc}
 3016              	.LVL232:
 3017              	.L181:
 3018              		.cfi_restore_state
 3019              	.LBB71:
 3020              	.LBB70:
 3021 0026 2046     		mov	r0, r4
ARM GAS  /tmp/cczXzW7i.s 			page 54


 3022 0028 0199     		ldr	r1, [sp, #4]
 3023 002a FFF7FEFF 		bl	send_packet_no_fwd.part.0
 3024              	.LVL233:
 3025              	.LBE70:
 3026              	.LBE71:
 3027 002e 02B0     		add	sp, sp, #8
 3028              		.cfi_def_cfa_offset 8
 3029              		@ sp needed
 3030 0030 10BD     		pop	{r4, pc}
 3031              	.L183:
 3032 0032 00BF     		.align	2
 3033              	.L182:
 3034 0034 00000000 		.word	.LANCHOR22
 3035 0038 00007A44 		.word	1148846080
 3036 003c 00000000 		.word	.LANCHOR1
 3037              		.cfi_endproc
 3038              	.LFE254:
 3039              		.size	bldc_interface_set_servo_pos, .-bldc_interface_set_servo_pos
 3040              		.section	.text.bldc_interface_set_mcconf,"ax",%progbits
 3041              		.align	1
 3042              		.p2align 4,,15
 3043              		.global	bldc_interface_set_mcconf
 3044              		.syntax unified
 3045              		.thumb
 3046              		.thumb_func
 3047              		.fpu fpv4-sp-d16
 3048              		.type	bldc_interface_set_mcconf, %function
 3049              	bldc_interface_set_mcconf:
 3050              	.LFB255:
 3051              		.loc 1 625 0
 3052              		.cfi_startproc
 3053              		@ args = 0, pretend = 0, frame = 8
 3054              		@ frame_needed = 0, uses_anonymous_args = 0
 3055              	.LVL234:
 3056 0000 70B5     		push	{r4, r5, r6, lr}
 3057              		.cfi_def_cfa_offset 16
 3058              		.cfi_offset 4, -16
 3059              		.cfi_offset 5, -12
 3060              		.cfi_offset 6, -8
 3061              		.cfi_offset 14, -4
 3062              		.loc 1 627 0
 3063 0002 F34C     		ldr	r4, .L188
 3064 0004 0D23     		movs	r3, #13
 3065 0006 2370     		strb	r3, [r4]
 3066              		.loc 1 629 0
 3067 0008 0378     		ldrb	r3, [r0]	@ zero_extendqisi2
 3068 000a 6370     		strb	r3, [r4, #1]
 3069              		.loc 1 630 0
 3070 000c 4378     		ldrb	r3, [r0, #1]	@ zero_extendqisi2
 3071 000e A370     		strb	r3, [r4, #2]
 3072              		.loc 1 625 0
 3073 0010 82B0     		sub	sp, sp, #8
 3074              		.cfi_def_cfa_offset 24
 3075              		.loc 1 632 0
 3076 0012 02AE     		add	r6, sp, #8
 3077              		.loc 1 631 0
 3078 0014 8378     		ldrb	r3, [r0, #2]	@ zero_extendqisi2
ARM GAS  /tmp/cczXzW7i.s 			page 55


 3079 0016 E370     		strb	r3, [r4, #3]
 3080              		.loc 1 632 0
 3081 0018 0522     		movs	r2, #5
 3082 001a 46F8042D 		str	r2, [r6, #-4]!
 3083 001e C378     		ldrb	r3, [r0, #3]	@ zero_extendqisi2
 3084 0020 2371     		strb	r3, [r4, #4]
 3085              		.loc 1 625 0
 3086 0022 0546     		mov	r5, r0
 3087              		.loc 1 634 0
 3088 0024 90ED010A 		vldr.32	s0, [r0, #4]
 3089 0028 3146     		mov	r1, r6
 3090 002a 2046     		mov	r0, r4
 3091              	.LVL235:
 3092 002c FFF7FEFF 		bl	buffer_append_float32_auto
 3093              	.LVL236:
 3094              		.loc 1 635 0
 3095 0030 3146     		mov	r1, r6
 3096 0032 95ED020A 		vldr.32	s0, [r5, #8]
 3097 0036 2046     		mov	r0, r4
 3098 0038 FFF7FEFF 		bl	buffer_append_float32_auto
 3099              	.LVL237:
 3100              		.loc 1 636 0
 3101 003c 3146     		mov	r1, r6
 3102 003e 95ED030A 		vldr.32	s0, [r5, #12]
 3103 0042 2046     		mov	r0, r4
 3104 0044 FFF7FEFF 		bl	buffer_append_float32_auto
 3105              	.LVL238:
 3106              		.loc 1 637 0
 3107 0048 3146     		mov	r1, r6
 3108 004a 95ED040A 		vldr.32	s0, [r5, #16]
 3109 004e 2046     		mov	r0, r4
 3110 0050 FFF7FEFF 		bl	buffer_append_float32_auto
 3111              	.LVL239:
 3112              		.loc 1 638 0
 3113 0054 3146     		mov	r1, r6
 3114 0056 95ED050A 		vldr.32	s0, [r5, #20]
 3115 005a 2046     		mov	r0, r4
 3116 005c FFF7FEFF 		bl	buffer_append_float32_auto
 3117              	.LVL240:
 3118              		.loc 1 639 0
 3119 0060 3146     		mov	r1, r6
 3120 0062 95ED060A 		vldr.32	s0, [r5, #24]
 3121 0066 2046     		mov	r0, r4
 3122 0068 FFF7FEFF 		bl	buffer_append_float32_auto
 3123              	.LVL241:
 3124              		.loc 1 640 0
 3125 006c 3146     		mov	r1, r6
 3126 006e 95ED070A 		vldr.32	s0, [r5, #28]
 3127 0072 2046     		mov	r0, r4
 3128 0074 FFF7FEFF 		bl	buffer_append_float32_auto
 3129              	.LVL242:
 3130              		.loc 1 641 0
 3131 0078 3146     		mov	r1, r6
 3132 007a 95ED080A 		vldr.32	s0, [r5, #32]
 3133 007e 2046     		mov	r0, r4
 3134 0080 FFF7FEFF 		bl	buffer_append_float32_auto
 3135              	.LVL243:
ARM GAS  /tmp/cczXzW7i.s 			page 56


 3136              		.loc 1 642 0
 3137 0084 3146     		mov	r1, r6
 3138 0086 95ED090A 		vldr.32	s0, [r5, #36]
 3139 008a 2046     		mov	r0, r4
 3140 008c FFF7FEFF 		bl	buffer_append_float32_auto
 3141              	.LVL244:
 3142              		.loc 1 643 0
 3143 0090 3146     		mov	r1, r6
 3144 0092 95ED0A0A 		vldr.32	s0, [r5, #40]
 3145 0096 2046     		mov	r0, r4
 3146 0098 FFF7FEFF 		bl	buffer_append_float32_auto
 3147              	.LVL245:
 3148              		.loc 1 644 0
 3149 009c 3146     		mov	r1, r6
 3150 009e 95ED0B0A 		vldr.32	s0, [r5, #44]
 3151 00a2 2046     		mov	r0, r4
 3152 00a4 FFF7FEFF 		bl	buffer_append_float32_auto
 3153              	.LVL246:
 3154              		.loc 1 645 0
 3155 00a8 3146     		mov	r1, r6
 3156 00aa 95ED0C0A 		vldr.32	s0, [r5, #48]
 3157 00ae 2046     		mov	r0, r4
 3158 00b0 FFF7FEFF 		bl	buffer_append_float32_auto
 3159              	.LVL247:
 3160              		.loc 1 646 0
 3161 00b4 3146     		mov	r1, r6
 3162 00b6 95ED0D0A 		vldr.32	s0, [r5, #52]
 3163 00ba 2046     		mov	r0, r4
 3164 00bc FFF7FEFF 		bl	buffer_append_float32_auto
 3165              	.LVL248:
 3166              		.loc 1 647 0
 3167 00c0 3146     		mov	r1, r6
 3168 00c2 95ED0E0A 		vldr.32	s0, [r5, #56]
 3169 00c6 2046     		mov	r0, r4
 3170 00c8 FFF7FEFF 		bl	buffer_append_float32_auto
 3171              	.LVL249:
 3172              		.loc 1 648 0
 3173 00cc 019B     		ldr	r3, [sp, #4]
 3174 00ce 95F83C20 		ldrb	r2, [r5, #60]	@ zero_extendqisi2
 3175 00d2 E254     		strb	r2, [r4, r3]
 3176              		.loc 1 649 0
 3177 00d4 3146     		mov	r1, r6
 3178              		.loc 1 648 0
 3179 00d6 0133     		adds	r3, r3, #1
 3180              		.loc 1 649 0
 3181 00d8 95ED100A 		vldr.32	s0, [r5, #64]
 3182              		.loc 1 648 0
 3183 00dc 0193     		str	r3, [sp, #4]
 3184              		.loc 1 649 0
 3185 00de 2046     		mov	r0, r4
 3186 00e0 FFF7FEFF 		bl	buffer_append_float32_auto
 3187              	.LVL250:
 3188              		.loc 1 650 0
 3189 00e4 3146     		mov	r1, r6
 3190 00e6 95ED110A 		vldr.32	s0, [r5, #68]
 3191 00ea 2046     		mov	r0, r4
 3192 00ec FFF7FEFF 		bl	buffer_append_float32_auto
ARM GAS  /tmp/cczXzW7i.s 			page 57


 3193              	.LVL251:
 3194              		.loc 1 651 0
 3195 00f0 3146     		mov	r1, r6
 3196 00f2 95ED120A 		vldr.32	s0, [r5, #72]
 3197 00f6 2046     		mov	r0, r4
 3198 00f8 FFF7FEFF 		bl	buffer_append_float32_auto
 3199              	.LVL252:
 3200              		.loc 1 652 0
 3201 00fc 3146     		mov	r1, r6
 3202 00fe 95ED130A 		vldr.32	s0, [r5, #76]
 3203 0102 2046     		mov	r0, r4
 3204 0104 FFF7FEFF 		bl	buffer_append_float32_auto
 3205              	.LVL253:
 3206              		.loc 1 653 0
 3207 0108 3146     		mov	r1, r6
 3208 010a 95ED140A 		vldr.32	s0, [r5, #80]
 3209 010e 2046     		mov	r0, r4
 3210 0110 FFF7FEFF 		bl	buffer_append_float32_auto
 3211              	.LVL254:
 3212              		.loc 1 654 0
 3213 0114 3146     		mov	r1, r6
 3214 0116 95ED150A 		vldr.32	s0, [r5, #84]
 3215 011a 2046     		mov	r0, r4
 3216 011c FFF7FEFF 		bl	buffer_append_float32_auto
 3217              	.LVL255:
 3218              		.loc 1 655 0
 3219 0120 3146     		mov	r1, r6
 3220 0122 95ED160A 		vldr.32	s0, [r5, #88]
 3221 0126 2046     		mov	r0, r4
 3222 0128 FFF7FEFF 		bl	buffer_append_float32_auto
 3223              	.LVL256:
 3224              		.loc 1 656 0
 3225 012c 3146     		mov	r1, r6
 3226 012e 95ED170A 		vldr.32	s0, [r5, #92]
 3227 0132 2046     		mov	r0, r4
 3228 0134 FFF7FEFF 		bl	buffer_append_float32_auto
 3229              	.LVL257:
 3230              		.loc 1 657 0
 3231 0138 3146     		mov	r1, r6
 3232 013a 95ED180A 		vldr.32	s0, [r5, #96]
 3233 013e 2046     		mov	r0, r4
 3234 0140 FFF7FEFF 		bl	buffer_append_float32_auto
 3235              	.LVL258:
 3236              		.loc 1 659 0
 3237 0144 3146     		mov	r1, r6
 3238 0146 95ED1F0A 		vldr.32	s0, [r5, #124]
 3239 014a 2046     		mov	r0, r4
 3240 014c FFF7FEFF 		bl	buffer_append_float32_auto
 3241              	.LVL259:
 3242              		.loc 1 660 0
 3243 0150 3146     		mov	r1, r6
 3244 0152 95ED200A 		vldr.32	s0, [r5, #128]
 3245 0156 2046     		mov	r0, r4
 3246 0158 FFF7FEFF 		bl	buffer_append_float32_auto
 3247              	.LVL260:
 3248              		.loc 1 661 0
 3249 015c 3146     		mov	r1, r6
ARM GAS  /tmp/cczXzW7i.s 			page 58


 3250 015e 95ED210A 		vldr.32	s0, [r5, #132]
 3251 0162 2046     		mov	r0, r4
 3252 0164 FFF7FEFF 		bl	buffer_append_float32_auto
 3253              	.LVL261:
 3254              		.loc 1 662 0
 3255 0168 3146     		mov	r1, r6
 3256 016a 95ED220A 		vldr.32	s0, [r5, #136]
 3257 016e 2046     		mov	r0, r4
 3258 0170 FFF7FEFF 		bl	buffer_append_float32_auto
 3259              	.LVL262:
 3260              		.loc 1 663 0
 3261 0174 3146     		mov	r1, r6
 3262 0176 95ED230A 		vldr.32	s0, [r5, #140]
 3263 017a 2046     		mov	r0, r4
 3264 017c FFF7FEFF 		bl	buffer_append_float32_auto
 3265              	.LVL263:
 3266              		.loc 1 664 0
 3267 0180 3146     		mov	r1, r6
 3268 0182 95ED240A 		vldr.32	s0, [r5, #144]
 3269 0186 2046     		mov	r0, r4
 3270 0188 FFF7FEFF 		bl	buffer_append_float32_auto
 3271              	.LVL264:
 3272              		.loc 1 665 0
 3273 018c 3146     		mov	r1, r6
 3274 018e 95ED250A 		vldr.32	s0, [r5, #148]
 3275 0192 2046     		mov	r0, r4
 3276 0194 FFF7FEFF 		bl	buffer_append_float32_auto
 3277              	.LVL265:
 3278              		.loc 1 667 0
 3279 0198 2A46     		mov	r2, r5
 3280 019a 019B     		ldr	r3, [sp, #4]
 3281 019c 52F8980F 		ldr	r0, [r2, #152]!	@ unaligned
 3282 01a0 E118     		adds	r1, r4, r3
 3283 01a2 5268     		ldr	r2, [r2, #4]	@ unaligned
 3284 01a4 E050     		str	r0, [r4, r3]	@ unaligned
 3285 01a6 4A60     		str	r2, [r1, #4]	@ unaligned
 3286              		.loc 1 668 0
 3287 01a8 0833     		adds	r3, r3, #8
 3288              		.loc 1 669 0
 3289 01aa 95ED280A 		vldr.32	s0, [r5, #160]
 3290              		.loc 1 668 0
 3291 01ae 0193     		str	r3, [sp, #4]
 3292              		.loc 1 669 0
 3293 01b0 3146     		mov	r1, r6
 3294 01b2 2046     		mov	r0, r4
 3295 01b4 FFF7FEFF 		bl	buffer_append_float32_auto
 3296              	.LVL266:
 3297              		.loc 1 671 0
 3298 01b8 3146     		mov	r1, r6
 3299 01ba 95ED290A 		vldr.32	s0, [r5, #164]
 3300 01be 2046     		mov	r0, r4
 3301 01c0 FFF7FEFF 		bl	buffer_append_float32_auto
 3302              	.LVL267:
 3303              		.loc 1 672 0
 3304 01c4 3146     		mov	r1, r6
 3305 01c6 95ED2A0A 		vldr.32	s0, [r5, #168]
 3306 01ca 2046     		mov	r0, r4
ARM GAS  /tmp/cczXzW7i.s 			page 59


 3307 01cc FFF7FEFF 		bl	buffer_append_float32_auto
 3308              	.LVL268:
 3309              		.loc 1 673 0
 3310 01d0 3146     		mov	r1, r6
 3311 01d2 95ED2B0A 		vldr.32	s0, [r5, #172]
 3312 01d6 2046     		mov	r0, r4
 3313 01d8 FFF7FEFF 		bl	buffer_append_float32_auto
 3314              	.LVL269:
 3315              		.loc 1 674 0
 3316 01dc 3146     		mov	r1, r6
 3317 01de 95ED2C0A 		vldr.32	s0, [r5, #176]
 3318 01e2 2046     		mov	r0, r4
 3319 01e4 FFF7FEFF 		bl	buffer_append_float32_auto
 3320              	.LVL270:
 3321              		.loc 1 675 0
 3322 01e8 019B     		ldr	r3, [sp, #4]
 3323 01ea 95F8B820 		ldrb	r2, [r5, #184]	@ zero_extendqisi2
 3324 01ee E254     		strb	r2, [r4, r3]
 3325              		.loc 1 676 0
 3326 01f0 3146     		mov	r1, r6
 3327              		.loc 1 675 0
 3328 01f2 0133     		adds	r3, r3, #1
 3329              		.loc 1 676 0
 3330 01f4 95ED2D0A 		vldr.32	s0, [r5, #180]
 3331              		.loc 1 675 0
 3332 01f8 0193     		str	r3, [sp, #4]
 3333              		.loc 1 676 0
 3334 01fa 2046     		mov	r0, r4
 3335 01fc FFF7FEFF 		bl	buffer_append_float32_auto
 3336              	.LVL271:
 3337              		.loc 1 677 0
 3338 0200 3146     		mov	r1, r6
 3339 0202 95ED2F0A 		vldr.32	s0, [r5, #188]
 3340 0206 2046     		mov	r0, r4
 3341 0208 FFF7FEFF 		bl	buffer_append_float32_auto
 3342              	.LVL272:
 3343              		.loc 1 678 0
 3344 020c 019B     		ldr	r3, [sp, #4]
 3345 020e 95F8F820 		ldrb	r2, [r5, #248]	@ zero_extendqisi2
 3346 0212 E254     		strb	r2, [r4, r3]
 3347              		.loc 1 679 0
 3348 0214 3146     		mov	r1, r6
 3349              		.loc 1 678 0
 3350 0216 0133     		adds	r3, r3, #1
 3351              		.loc 1 679 0
 3352 0218 95ED350A 		vldr.32	s0, [r5, #212]
 3353              		.loc 1 678 0
 3354 021c 0193     		str	r3, [sp, #4]
 3355              		.loc 1 679 0
 3356 021e 2046     		mov	r0, r4
 3357 0220 FFF7FEFF 		bl	buffer_append_float32_auto
 3358              	.LVL273:
 3359              		.loc 1 680 0
 3360 0224 3146     		mov	r1, r6
 3361 0226 95ED360A 		vldr.32	s0, [r5, #216]
 3362 022a 2046     		mov	r0, r4
 3363 022c FFF7FEFF 		bl	buffer_append_float32_auto
ARM GAS  /tmp/cczXzW7i.s 			page 60


 3364              	.LVL274:
 3365              		.loc 1 681 0
 3366 0230 3146     		mov	r1, r6
 3367 0232 95ED300A 		vldr.32	s0, [r5, #192]
 3368 0236 2046     		mov	r0, r4
 3369 0238 FFF7FEFF 		bl	buffer_append_float32_auto
 3370              	.LVL275:
 3371              		.loc 1 682 0
 3372 023c 3146     		mov	r1, r6
 3373 023e 95ED310A 		vldr.32	s0, [r5, #196]
 3374 0242 2046     		mov	r0, r4
 3375 0244 FFF7FEFF 		bl	buffer_append_float32_auto
 3376              	.LVL276:
 3377              		.loc 1 683 0
 3378 0248 3146     		mov	r1, r6
 3379 024a 95ED320A 		vldr.32	s0, [r5, #200]
 3380 024e 2046     		mov	r0, r4
 3381 0250 FFF7FEFF 		bl	buffer_append_float32_auto
 3382              	.LVL277:
 3383              		.loc 1 684 0
 3384 0254 3146     		mov	r1, r6
 3385 0256 95ED330A 		vldr.32	s0, [r5, #204]
 3386 025a 2046     		mov	r0, r4
 3387 025c FFF7FEFF 		bl	buffer_append_float32_auto
 3388              	.LVL278:
 3389              		.loc 1 685 0
 3390 0260 3146     		mov	r1, r6
 3391 0262 95ED340A 		vldr.32	s0, [r5, #208]
 3392 0266 2046     		mov	r0, r4
 3393 0268 FFF7FEFF 		bl	buffer_append_float32_auto
 3394              	.LVL279:
 3395              		.loc 1 686 0
 3396 026c 3146     		mov	r1, r6
 3397 026e 95ED370A 		vldr.32	s0, [r5, #220]
 3398 0272 2046     		mov	r0, r4
 3399 0274 FFF7FEFF 		bl	buffer_append_float32_auto
 3400              	.LVL280:
 3401              		.loc 1 687 0
 3402 0278 3146     		mov	r1, r6
 3403 027a 95ED380A 		vldr.32	s0, [r5, #224]
 3404 027e 2046     		mov	r0, r4
 3405 0280 FFF7FEFF 		bl	buffer_append_float32_auto
 3406              	.LVL281:
 3407              		.loc 1 688 0
 3408 0284 3146     		mov	r1, r6
 3409 0286 95ED390A 		vldr.32	s0, [r5, #228]
 3410 028a 2046     		mov	r0, r4
 3411 028c FFF7FEFF 		bl	buffer_append_float32_auto
 3412              	.LVL282:
 3413              		.loc 1 689 0
 3414 0290 3146     		mov	r1, r6
 3415 0292 95ED3A0A 		vldr.32	s0, [r5, #232]
 3416 0296 2046     		mov	r0, r4
 3417 0298 FFF7FEFF 		bl	buffer_append_float32_auto
 3418              	.LVL283:
 3419              		.loc 1 690 0
 3420 029c 3146     		mov	r1, r6
ARM GAS  /tmp/cczXzW7i.s 			page 61


 3421 029e 95ED3B0A 		vldr.32	s0, [r5, #236]
 3422 02a2 2046     		mov	r0, r4
 3423 02a4 FFF7FEFF 		bl	buffer_append_float32_auto
 3424              	.LVL284:
 3425              		.loc 1 691 0
 3426 02a8 3146     		mov	r1, r6
 3427 02aa 95ED3C0A 		vldr.32	s0, [r5, #240]
 3428 02ae 2046     		mov	r0, r4
 3429 02b0 FFF7FEFF 		bl	buffer_append_float32_auto
 3430              	.LVL285:
 3431              		.loc 1 692 0
 3432 02b4 3146     		mov	r1, r6
 3433 02b6 95ED3D0A 		vldr.32	s0, [r5, #244]
 3434 02ba 2046     		mov	r0, r4
 3435 02bc FFF7FEFF 		bl	buffer_append_float32_auto
 3436              	.LVL286:
 3437              		.loc 1 693 0
 3438 02c0 2A46     		mov	r2, r5
 3439 02c2 019B     		ldr	r3, [sp, #4]
 3440 02c4 52F8F90F 		ldr	r0, [r2, #249]!	@ unaligned
 3441 02c8 E118     		adds	r1, r4, r3
 3442 02ca 5268     		ldr	r2, [r2, #4]	@ unaligned
 3443 02cc E050     		str	r0, [r4, r3]	@ unaligned
 3444 02ce 4A60     		str	r2, [r1, #4]	@ unaligned
 3445              		.loc 1 694 0
 3446 02d0 0833     		adds	r3, r3, #8
 3447              		.loc 1 695 0
 3448 02d2 95ED410A 		vldr.32	s0, [r5, #260]
 3449              		.loc 1 694 0
 3450 02d6 0193     		str	r3, [sp, #4]
 3451              		.loc 1 695 0
 3452 02d8 3146     		mov	r1, r6
 3453 02da 2046     		mov	r0, r4
 3454 02dc FFF7FEFF 		bl	buffer_append_float32_auto
 3455              	.LVL287:
 3456              		.loc 1 696 0
 3457 02e0 019B     		ldr	r3, [sp, #4]
 3458 02e2 95F80821 		ldrb	r2, [r5, #264]	@ zero_extendqisi2
 3459 02e6 E254     		strb	r2, [r4, r3]
 3460              		.loc 1 697 0
 3461 02e8 E218     		adds	r2, r4, r3
 3462 02ea 95F80911 		ldrb	r1, [r5, #265]	@ zero_extendqisi2
 3463 02ee 5170     		strb	r1, [r2, #1]
 3464 02f0 0233     		adds	r3, r3, #2
 3465              		.loc 1 698 0
 3466 02f2 95ED430A 		vldr.32	s0, [r5, #268]
 3467              		.loc 1 697 0
 3468 02f6 0193     		str	r3, [sp, #4]
 3469              		.loc 1 698 0
 3470 02f8 3146     		mov	r1, r6
 3471 02fa 2046     		mov	r0, r4
 3472 02fc FFF7FEFF 		bl	buffer_append_float32_auto
 3473              	.LVL288:
 3474              		.loc 1 699 0
 3475 0300 019B     		ldr	r3, [sp, #4]
 3476 0302 95F81021 		ldrb	r2, [r5, #272]	@ zero_extendqisi2
 3477 0306 E254     		strb	r2, [r4, r3]
ARM GAS  /tmp/cczXzW7i.s 			page 62


 3478              		.loc 1 700 0
 3479 0308 3146     		mov	r1, r6
 3480              		.loc 1 699 0
 3481 030a 0133     		adds	r3, r3, #1
 3482              		.loc 1 700 0
 3483 030c 95ED450A 		vldr.32	s0, [r5, #276]
 3484              		.loc 1 699 0
 3485 0310 0193     		str	r3, [sp, #4]
 3486              		.loc 1 700 0
 3487 0312 2046     		mov	r0, r4
 3488 0314 FFF7FEFF 		bl	buffer_append_float32_auto
 3489              	.LVL289:
 3490              		.loc 1 701 0
 3491 0318 3146     		mov	r1, r6
 3492 031a 95ED460A 		vldr.32	s0, [r5, #280]
 3493 031e 2046     		mov	r0, r4
 3494 0320 FFF7FEFF 		bl	buffer_append_float32_auto
 3495              	.LVL290:
 3496              		.loc 1 703 0
 3497 0324 3146     		mov	r1, r6
 3498 0326 95ED470A 		vldr.32	s0, [r5, #284]
 3499 032a 2046     		mov	r0, r4
 3500 032c FFF7FEFF 		bl	buffer_append_float32_auto
 3501              	.LVL291:
 3502              		.loc 1 704 0
 3503 0330 3146     		mov	r1, r6
 3504 0332 95ED480A 		vldr.32	s0, [r5, #288]
 3505 0336 2046     		mov	r0, r4
 3506 0338 FFF7FEFF 		bl	buffer_append_float32_auto
 3507              	.LVL292:
 3508              		.loc 1 705 0
 3509 033c 3146     		mov	r1, r6
 3510 033e 95ED490A 		vldr.32	s0, [r5, #292]
 3511 0342 2046     		mov	r0, r4
 3512 0344 FFF7FEFF 		bl	buffer_append_float32_auto
 3513              	.LVL293:
 3514              		.loc 1 706 0
 3515 0348 3146     		mov	r1, r6
 3516 034a 95ED4A0A 		vldr.32	s0, [r5, #296]
 3517 034e 2046     		mov	r0, r4
 3518 0350 FFF7FEFF 		bl	buffer_append_float32_auto
 3519              	.LVL294:
 3520              		.loc 1 707 0
 3521 0354 3146     		mov	r1, r6
 3522 0356 95ED4B0A 		vldr.32	s0, [r5, #300]
 3523 035a 2046     		mov	r0, r4
 3524 035c FFF7FEFF 		bl	buffer_append_float32_auto
 3525              	.LVL295:
 3526              		.loc 1 708 0
 3527 0360 019B     		ldr	r3, [sp, #4]
 3528 0362 95F83021 		ldrb	r2, [r5, #304]	@ zero_extendqisi2
 3529 0366 E254     		strb	r2, [r4, r3]
 3530              		.loc 1 710 0
 3531 0368 3146     		mov	r1, r6
 3532              		.loc 1 708 0
 3533 036a 0133     		adds	r3, r3, #1
 3534              		.loc 1 710 0
ARM GAS  /tmp/cczXzW7i.s 			page 63


 3535 036c 95ED4D0A 		vldr.32	s0, [r5, #308]
 3536              		.loc 1 708 0
 3537 0370 0193     		str	r3, [sp, #4]
 3538              		.loc 1 710 0
 3539 0372 2046     		mov	r0, r4
 3540 0374 FFF7FEFF 		bl	buffer_append_float32_auto
 3541              	.LVL296:
 3542              		.loc 1 711 0
 3543 0378 3146     		mov	r1, r6
 3544 037a 95ED4E0A 		vldr.32	s0, [r5, #312]
 3545 037e 2046     		mov	r0, r4
 3546 0380 FFF7FEFF 		bl	buffer_append_float32_auto
 3547              	.LVL297:
 3548              		.loc 1 712 0
 3549 0384 3146     		mov	r1, r6
 3550 0386 95ED4F0A 		vldr.32	s0, [r5, #316]
 3551 038a 2046     		mov	r0, r4
 3552 038c FFF7FEFF 		bl	buffer_append_float32_auto
 3553              	.LVL298:
 3554              		.loc 1 713 0
 3555 0390 3146     		mov	r1, r6
 3556 0392 95ED500A 		vldr.32	s0, [r5, #320]
 3557 0396 2046     		mov	r0, r4
 3558 0398 FFF7FEFF 		bl	buffer_append_float32_auto
 3559              	.LVL299:
 3560              		.loc 1 714 0
 3561 039c 3146     		mov	r1, r6
 3562 039e 95ED510A 		vldr.32	s0, [r5, #324]
 3563 03a2 2046     		mov	r0, r4
 3564 03a4 FFF7FEFF 		bl	buffer_append_float32_auto
 3565              	.LVL300:
 3566              		.loc 1 716 0
 3567 03a8 3146     		mov	r1, r6
 3568 03aa 95ED520A 		vldr.32	s0, [r5, #328]
 3569 03ae 2046     		mov	r0, r4
 3570 03b0 FFF7FEFF 		bl	buffer_append_float32_auto
 3571              	.LVL301:
 3572              		.loc 1 717 0
 3573 03b4 3146     		mov	r1, r6
 3574 03b6 95ED530A 		vldr.32	s0, [r5, #332]
 3575 03ba 2046     		mov	r0, r4
 3576 03bc FFF7FEFF 		bl	buffer_append_float32_auto
 3577              	.LVL302:
 3578              		.loc 1 718 0
 3579 03c0 3146     		mov	r1, r6
 3580 03c2 95ED540A 		vldr.32	s0, [r5, #336]
 3581 03c6 2046     		mov	r0, r4
 3582 03c8 FFF7FEFF 		bl	buffer_append_float32_auto
 3583              	.LVL303:
 3584 03cc 02E0     		b	.L189
 3585              	.L190:
 3586 03ce 00BF     		.align	2
 3587              	.L188:
 3588 03d0 00000000 		.word	.LANCHOR22
 3589              	.L189:
 3590              		.loc 1 719 0
 3591 03d4 95ED550A 		vldr.32	s0, [r5, #340]
ARM GAS  /tmp/cczXzW7i.s 			page 64


 3592 03d8 3146     		mov	r1, r6
 3593 03da 2046     		mov	r0, r4
 3594 03dc FFF7FEFF 		bl	buffer_append_float32_auto
 3595              	.LVL304:
 3596              		.loc 1 721 0
 3597 03e0 3246     		mov	r2, r6
 3598 03e2 D5F85811 		ldr	r1, [r5, #344]
 3599 03e6 2046     		mov	r0, r4
 3600 03e8 FFF7FEFF 		bl	buffer_append_int32
 3601              	.LVL305:
 3602              		.loc 1 722 0
 3603 03ec 3146     		mov	r1, r6
 3604 03ee 95ED570A 		vldr.32	s0, [r5, #348]
 3605 03f2 2046     		mov	r0, r4
 3606 03f4 FFF7FEFF 		bl	buffer_append_float32_auto
 3607              	.LVL306:
 3608              		.loc 1 723 0
 3609 03f8 95ED580A 		vldr.32	s0, [r5, #352]
 3610 03fc 3146     		mov	r1, r6
 3611 03fe 2046     		mov	r0, r4
 3612 0400 FFF7FEFF 		bl	buffer_append_float32_auto
 3613              	.LVL307:
 3614              		.loc 1 724 0
 3615 0404 3246     		mov	r2, r6
 3616 0406 D5F86411 		ldr	r1, [r5, #356]
 3617 040a 2046     		mov	r0, r4
 3618 040c FFF7FEFF 		bl	buffer_append_uint32
 3619              	.LVL308:
 3620              		.loc 1 725 0
 3621 0410 019B     		ldr	r3, [sp, #4]
 3622 0412 95F86821 		ldrb	r2, [r5, #360]	@ zero_extendqisi2
 3623 0416 E254     		strb	r2, [r4, r3]
 3624              		.loc 1 726 0
 3625 0418 E218     		adds	r2, r4, r3
 3626 041a 95F86911 		ldrb	r1, [r5, #361]	@ zero_extendqisi2
 3627 041e 5170     		strb	r1, [r2, #1]
 3628              		.loc 1 727 0
 3629 0420 95F86A11 		ldrb	r1, [r5, #362]	@ zero_extendqisi2
 3630 0424 9170     		strb	r1, [r2, #2]
 3631              		.loc 1 728 0
 3632 0426 D5F86C11 		ldr	r1, [r5, #364]
 3633 042a D170     		strb	r1, [r2, #3]
 3634 042c 0433     		adds	r3, r3, #4
 3635              		.loc 1 729 0
 3636 042e 95ED5C0A 		vldr.32	s0, [r5, #368]
 3637              		.loc 1 728 0
 3638 0432 0193     		str	r3, [sp, #4]
 3639              		.loc 1 729 0
 3640 0434 3146     		mov	r1, r6
 3641 0436 2046     		mov	r0, r4
 3642 0438 FFF7FEFF 		bl	buffer_append_float32_auto
 3643              	.LVL309:
 3644              		.loc 1 730 0
 3645 043c 3146     		mov	r1, r6
 3646 043e 95ED5D0A 		vldr.32	s0, [r5, #372]
 3647 0442 2046     		mov	r0, r4
 3648 0444 FFF7FEFF 		bl	buffer_append_float32_auto
ARM GAS  /tmp/cczXzW7i.s 			page 65


 3649              	.LVL310:
 3650              		.loc 1 731 0
 3651 0448 3146     		mov	r1, r6
 3652 044a 95ED5E0A 		vldr.32	s0, [r5, #376]
 3653 044e 2046     		mov	r0, r4
 3654 0450 FFF7FEFF 		bl	buffer_append_float32_auto
 3655              	.LVL311:
 3656              		.loc 1 732 0
 3657 0454 3146     		mov	r1, r6
 3658 0456 95ED5F0A 		vldr.32	s0, [r5, #380]
 3659 045a 2046     		mov	r0, r4
 3660 045c FFF7FEFF 		bl	buffer_append_float32_auto
 3661              	.LVL312:
 3662              	.LBB72:
 3663              	.LBB73:
 3664              		.loc 1 908 0
 3665 0460 074B     		ldr	r3, .L191
 3666              	.LBE73:
 3667              	.LBE72:
 3668              		.loc 1 733 0
 3669 0462 0199     		ldr	r1, [sp, #4]
 3670 0464 95F88021 		ldrb	r2, [r5, #384]	@ zero_extendqisi2
 3671              	.LBB77:
 3672              	.LBB74:
 3673              		.loc 1 908 0
 3674 0468 1B68     		ldr	r3, [r3]
 3675              	.LBE74:
 3676              	.LBE77:
 3677              		.loc 1 733 0
 3678 046a 6254     		strb	r2, [r4, r1]
 3679              	.LVL313:
 3680 046c 0131     		adds	r1, r1, #1
 3681              	.LVL314:
 3682 046e 0191     		str	r1, [sp, #4]
 3683              	.LBB78:
 3684              	.LBB75:
 3685              		.loc 1 908 0
 3686 0470 0BB1     		cbz	r3, .L187
 3687              	.LBE75:
 3688              	.LBE78:
 3689              		.loc 1 736 0
 3690 0472 02B0     		add	sp, sp, #8
 3691              		.cfi_remember_state
 3692              		.cfi_def_cfa_offset 16
 3693              		@ sp needed
 3694 0474 70BD     		pop	{r4, r5, r6, pc}
 3695              	.LVL315:
 3696              	.L187:
 3697              		.cfi_restore_state
 3698              	.LBB79:
 3699              	.LBB76:
 3700 0476 2046     		mov	r0, r4
 3701 0478 FFF7FEFF 		bl	send_packet_no_fwd.part.0
 3702              	.LVL316:
 3703              	.LBE76:
 3704              	.LBE79:
 3705 047c 02B0     		add	sp, sp, #8
ARM GAS  /tmp/cczXzW7i.s 			page 66


 3706              		.cfi_def_cfa_offset 16
 3707              		@ sp needed
 3708 047e 70BD     		pop	{r4, r5, r6, pc}
 3709              	.LVL317:
 3710              	.L192:
 3711              		.align	2
 3712              	.L191:
 3713 0480 00000000 		.word	.LANCHOR1
 3714              		.cfi_endproc
 3715              	.LFE255:
 3716              		.size	bldc_interface_set_mcconf, .-bldc_interface_set_mcconf
 3717              		.section	.text.bldc_interface_set_appconf,"ax",%progbits
 3718              		.align	1
 3719              		.p2align 4,,15
 3720              		.global	bldc_interface_set_appconf
 3721              		.syntax unified
 3722              		.thumb
 3723              		.thumb_func
 3724              		.fpu fpv4-sp-d16
 3725              		.type	bldc_interface_set_appconf, %function
 3726              	bldc_interface_set_appconf:
 3727              	.LFB256:
 3728              		.loc 1 738 0
 3729              		.cfi_startproc
 3730              		@ args = 0, pretend = 0, frame = 8
 3731              		@ frame_needed = 0, uses_anonymous_args = 0
 3732              	.LVL318:
 3733 0000 F0B5     		push	{r4, r5, r6, r7, lr}
 3734              		.cfi_def_cfa_offset 20
 3735              		.cfi_offset 4, -20
 3736              		.cfi_offset 5, -16
 3737              		.cfi_offset 6, -12
 3738              		.cfi_offset 7, -8
 3739              		.cfi_offset 14, -4
 3740              		.loc 1 740 0
 3741 0002 B14D     		ldr	r5, .L197
 3742              	.LBB80:
 3743              	.LBB81:
 3744              		.loc 1 908 0
 3745 0004 B14F     		ldr	r7, .L197+4
 3746              	.LBE81:
 3747              	.LBE80:
 3748              		.loc 1 738 0
 3749 0006 83B0     		sub	sp, sp, #12
 3750              		.cfi_def_cfa_offset 32
 3751              		.loc 1 741 0
 3752 0008 02AE     		add	r6, sp, #8
 3753              		.loc 1 740 0
 3754 000a 1023     		movs	r3, #16
 3755 000c 2B70     		strb	r3, [r5]
 3756              		.loc 1 741 0
 3757 000e 0222     		movs	r2, #2
 3758 0010 46F8042D 		str	r2, [r6, #-4]!
 3759 0014 0378     		ldrb	r3, [r0]	@ zero_extendqisi2
 3760 0016 6B70     		strb	r3, [r5, #1]
 3761              		.loc 1 738 0
 3762 0018 0446     		mov	r4, r0
ARM GAS  /tmp/cczXzW7i.s 			page 67


 3763              		.loc 1 742 0
 3764 001a 3246     		mov	r2, r6
 3765 001c 4168     		ldr	r1, [r0, #4]
 3766 001e 2846     		mov	r0, r5
 3767              	.LVL319:
 3768 0020 FFF7FEFF 		bl	buffer_append_uint32
 3769              	.LVL320:
 3770              		.loc 1 743 0
 3771 0024 3146     		mov	r1, r6
 3772 0026 94ED020A 		vldr.32	s0, [r4, #8]
 3773 002a 2846     		mov	r0, r5
 3774 002c FFF7FEFF 		bl	buffer_append_float32_auto
 3775              	.LVL321:
 3776              		.loc 1 744 0
 3777 0030 019B     		ldr	r3, [sp, #4]
 3778 0032 227B     		ldrb	r2, [r4, #12]	@ zero_extendqisi2
 3779 0034 EA54     		strb	r2, [r5, r3]
 3780              		.loc 1 745 0
 3781 0036 2846     		mov	r0, r5
 3782              		.loc 1 744 0
 3783 0038 0133     		adds	r3, r3, #1
 3784              		.loc 1 745 0
 3785 003a 3246     		mov	r2, r6
 3786 003c 218A     		ldrh	r1, [r4, #16]
 3787              		.loc 1 744 0
 3788 003e 0193     		str	r3, [sp, #4]
 3789              		.loc 1 745 0
 3790 0040 FFF7FEFF 		bl	buffer_append_uint16
 3791              	.LVL322:
 3792              		.loc 1 746 0
 3793 0044 019B     		ldr	r3, [sp, #4]
 3794 0046 227D     		ldrb	r2, [r4, #20]	@ zero_extendqisi2
 3795 0048 EA54     		strb	r2, [r5, r3]
 3796              		.loc 1 748 0
 3797 004a EA18     		adds	r2, r5, r3
 3798 004c 617D     		ldrb	r1, [r4, #21]	@ zero_extendqisi2
 3799 004e 5170     		strb	r1, [r2, #1]
 3800              		.loc 1 750 0
 3801 0050 217E     		ldrb	r1, [r4, #24]	@ zero_extendqisi2
 3802 0052 9170     		strb	r1, [r2, #2]
 3803 0054 0333     		adds	r3, r3, #3
 3804              		.loc 1 751 0
 3805 0056 3146     		mov	r1, r6
 3806 0058 94ED070A 		vldr.32	s0, [r4, #28]
 3807              		.loc 1 750 0
 3808 005c 0193     		str	r3, [sp, #4]
 3809              		.loc 1 751 0
 3810 005e 2846     		mov	r0, r5
 3811 0060 FFF7FEFF 		bl	buffer_append_float32_auto
 3812              	.LVL323:
 3813              		.loc 1 752 0
 3814 0064 3146     		mov	r1, r6
 3815 0066 94ED080A 		vldr.32	s0, [r4, #32]
 3816 006a 2846     		mov	r0, r5
 3817 006c FFF7FEFF 		bl	buffer_append_float32_auto
 3818              	.LVL324:
 3819              		.loc 1 753 0
ARM GAS  /tmp/cczXzW7i.s 			page 68


 3820 0070 3146     		mov	r1, r6
 3821 0072 94ED090A 		vldr.32	s0, [r4, #36]
 3822 0076 2846     		mov	r0, r5
 3823 0078 FFF7FEFF 		bl	buffer_append_float32_auto
 3824              	.LVL325:
 3825              		.loc 1 754 0
 3826 007c 3146     		mov	r1, r6
 3827 007e 94ED0A0A 		vldr.32	s0, [r4, #40]
 3828 0082 2846     		mov	r0, r5
 3829 0084 FFF7FEFF 		bl	buffer_append_float32_auto
 3830              	.LVL326:
 3831              		.loc 1 755 0
 3832 0088 3146     		mov	r1, r6
 3833 008a 94ED0B0A 		vldr.32	s0, [r4, #44]
 3834 008e 2846     		mov	r0, r5
 3835 0090 FFF7FEFF 		bl	buffer_append_float32_auto
 3836              	.LVL327:
 3837              		.loc 1 756 0
 3838 0094 019B     		ldr	r3, [sp, #4]
 3839 0096 94F83020 		ldrb	r2, [r4, #48]	@ zero_extendqisi2
 3840 009a EA54     		strb	r2, [r5, r3]
 3841              		.loc 1 757 0
 3842 009c EA18     		adds	r2, r5, r3
 3843 009e 94F83110 		ldrb	r1, [r4, #49]	@ zero_extendqisi2
 3844 00a2 5170     		strb	r1, [r2, #1]
 3845 00a4 0233     		adds	r3, r3, #2
 3846              		.loc 1 758 0
 3847 00a6 3146     		mov	r1, r6
 3848 00a8 94ED0D0A 		vldr.32	s0, [r4, #52]
 3849              		.loc 1 757 0
 3850 00ac 0193     		str	r3, [sp, #4]
 3851              		.loc 1 758 0
 3852 00ae 2846     		mov	r0, r5
 3853 00b0 FFF7FEFF 		bl	buffer_append_float32_auto
 3854              	.LVL328:
 3855              		.loc 1 759 0
 3856 00b4 3146     		mov	r1, r6
 3857 00b6 94ED0E0A 		vldr.32	s0, [r4, #56]
 3858 00ba 2846     		mov	r0, r5
 3859 00bc FFF7FEFF 		bl	buffer_append_float32_auto
 3860              	.LVL329:
 3861              		.loc 1 760 0
 3862 00c0 019B     		ldr	r3, [sp, #4]
 3863 00c2 94F83C20 		ldrb	r2, [r4, #60]	@ zero_extendqisi2
 3864 00c6 EA54     		strb	r2, [r5, r3]
 3865              		.loc 1 761 0
 3866 00c8 3146     		mov	r1, r6
 3867              		.loc 1 760 0
 3868 00ca 0133     		adds	r3, r3, #1
 3869              		.loc 1 761 0
 3870 00cc 94ED100A 		vldr.32	s0, [r4, #64]
 3871              		.loc 1 760 0
 3872 00d0 0193     		str	r3, [sp, #4]
 3873              		.loc 1 761 0
 3874 00d2 2846     		mov	r0, r5
 3875 00d4 FFF7FEFF 		bl	buffer_append_float32_auto
 3876              	.LVL330:
ARM GAS  /tmp/cczXzW7i.s 			page 69


 3877              		.loc 1 762 0
 3878 00d8 3146     		mov	r1, r6
 3879 00da 94ED110A 		vldr.32	s0, [r4, #68]
 3880 00de 2846     		mov	r0, r5
 3881 00e0 FFF7FEFF 		bl	buffer_append_float32_auto
 3882              	.LVL331:
 3883              		.loc 1 763 0
 3884 00e4 019B     		ldr	r3, [sp, #4]
 3885 00e6 94F84820 		ldrb	r2, [r4, #72]	@ zero_extendqisi2
 3886 00ea EA54     		strb	r2, [r5, r3]
 3887              		.loc 1 764 0
 3888 00ec EA18     		adds	r2, r5, r3
 3889 00ee 94F84910 		ldrb	r1, [r4, #73]	@ zero_extendqisi2
 3890 00f2 5170     		strb	r1, [r2, #1]
 3891 00f4 0233     		adds	r3, r3, #2
 3892              		.loc 1 765 0
 3893 00f6 3146     		mov	r1, r6
 3894 00f8 94ED130A 		vldr.32	s0, [r4, #76]
 3895              		.loc 1 764 0
 3896 00fc 0193     		str	r3, [sp, #4]
 3897              		.loc 1 765 0
 3898 00fe 2846     		mov	r0, r5
 3899 0100 FFF7FEFF 		bl	buffer_append_float32_auto
 3900              	.LVL332:
 3901              		.loc 1 767 0
 3902 0104 019B     		ldr	r3, [sp, #4]
 3903 0106 94F85020 		ldrb	r2, [r4, #80]	@ zero_extendqisi2
 3904 010a EA54     		strb	r2, [r5, r3]
 3905              		.loc 1 768 0
 3906 010c 3146     		mov	r1, r6
 3907              		.loc 1 767 0
 3908 010e 0133     		adds	r3, r3, #1
 3909              		.loc 1 768 0
 3910 0110 94ED150A 		vldr.32	s0, [r4, #84]
 3911              		.loc 1 767 0
 3912 0114 0193     		str	r3, [sp, #4]
 3913              		.loc 1 768 0
 3914 0116 2846     		mov	r0, r5
 3915 0118 FFF7FEFF 		bl	buffer_append_float32_auto
 3916              	.LVL333:
 3917              		.loc 1 769 0
 3918 011c 3146     		mov	r1, r6
 3919 011e 94ED160A 		vldr.32	s0, [r4, #88]
 3920 0122 2846     		mov	r0, r5
 3921 0124 FFF7FEFF 		bl	buffer_append_float32_auto
 3922              	.LVL334:
 3923              		.loc 1 770 0
 3924 0128 3146     		mov	r1, r6
 3925 012a 94ED170A 		vldr.32	s0, [r4, #92]
 3926 012e 2846     		mov	r0, r5
 3927 0130 FFF7FEFF 		bl	buffer_append_float32_auto
 3928              	.LVL335:
 3929              		.loc 1 771 0
 3930 0134 3146     		mov	r1, r6
 3931 0136 94ED180A 		vldr.32	s0, [r4, #96]
 3932 013a 2846     		mov	r0, r5
 3933 013c FFF7FEFF 		bl	buffer_append_float32_auto
ARM GAS  /tmp/cczXzW7i.s 			page 70


 3934              	.LVL336:
 3935              		.loc 1 772 0
 3936 0140 3146     		mov	r1, r6
 3937 0142 94ED190A 		vldr.32	s0, [r4, #100]
 3938 0146 2846     		mov	r0, r5
 3939 0148 FFF7FEFF 		bl	buffer_append_float32_auto
 3940              	.LVL337:
 3941              		.loc 1 773 0
 3942 014c 3146     		mov	r1, r6
 3943 014e 94ED1A0A 		vldr.32	s0, [r4, #104]
 3944 0152 2846     		mov	r0, r5
 3945 0154 FFF7FEFF 		bl	buffer_append_float32_auto
 3946              	.LVL338:
 3947              		.loc 1 774 0
 3948 0158 019B     		ldr	r3, [sp, #4]
 3949 015a 94F86C20 		ldrb	r2, [r4, #108]	@ zero_extendqisi2
 3950 015e EA54     		strb	r2, [r5, r3]
 3951              		.loc 1 775 0
 3952 0160 EA18     		adds	r2, r5, r3
 3953 0162 94F86D10 		ldrb	r1, [r4, #109]	@ zero_extendqisi2
 3954 0166 5170     		strb	r1, [r2, #1]
 3955              		.loc 1 776 0
 3956 0168 94F86E10 		ldrb	r1, [r4, #110]	@ zero_extendqisi2
 3957 016c 9170     		strb	r1, [r2, #2]
 3958              		.loc 1 777 0
 3959 016e 94F86F10 		ldrb	r1, [r4, #111]	@ zero_extendqisi2
 3960 0172 D170     		strb	r1, [r2, #3]
 3961              		.loc 1 778 0
 3962 0174 94F87010 		ldrb	r1, [r4, #112]	@ zero_extendqisi2
 3963 0178 1171     		strb	r1, [r2, #4]
 3964              		.loc 1 779 0
 3965 017a 94F87110 		ldrb	r1, [r4, #113]	@ zero_extendqisi2
 3966 017e 5171     		strb	r1, [r2, #5]
 3967 0180 0633     		adds	r3, r3, #6
 3968              		.loc 1 780 0
 3969 0182 3146     		mov	r1, r6
 3970 0184 94ED1D0A 		vldr.32	s0, [r4, #116]
 3971              		.loc 1 779 0
 3972 0188 0193     		str	r3, [sp, #4]
 3973              		.loc 1 780 0
 3974 018a 2846     		mov	r0, r5
 3975 018c FFF7FEFF 		bl	buffer_append_float32_auto
 3976              	.LVL339:
 3977              		.loc 1 781 0
 3978 0190 3146     		mov	r1, r6
 3979 0192 94ED1E0A 		vldr.32	s0, [r4, #120]
 3980 0196 2846     		mov	r0, r5
 3981 0198 FFF7FEFF 		bl	buffer_append_float32_auto
 3982              	.LVL340:
 3983              		.loc 1 782 0
 3984 019c 019B     		ldr	r3, [sp, #4]
 3985 019e 94F87C20 		ldrb	r2, [r4, #124]	@ zero_extendqisi2
 3986 01a2 EA54     		strb	r2, [r5, r3]
 3987              		.loc 1 783 0
 3988 01a4 3146     		mov	r1, r6
 3989              		.loc 1 782 0
 3990 01a6 0133     		adds	r3, r3, #1
ARM GAS  /tmp/cczXzW7i.s 			page 71


 3991              		.loc 1 783 0
 3992 01a8 94ED200A 		vldr.32	s0, [r4, #128]
 3993              		.loc 1 782 0
 3994 01ac 0193     		str	r3, [sp, #4]
 3995              		.loc 1 783 0
 3996 01ae 2846     		mov	r0, r5
 3997 01b0 FFF7FEFF 		bl	buffer_append_float32_auto
 3998              	.LVL341:
 3999              		.loc 1 784 0
 4000 01b4 3146     		mov	r1, r6
 4001 01b6 94ED210A 		vldr.32	s0, [r4, #132]
 4002 01ba 2846     		mov	r0, r5
 4003 01bc FFF7FEFF 		bl	buffer_append_float32_auto
 4004              	.LVL342:
 4005              		.loc 1 785 0
 4006 01c0 019B     		ldr	r3, [sp, #4]
 4007 01c2 94F88820 		ldrb	r2, [r4, #136]	@ zero_extendqisi2
 4008 01c6 EA54     		strb	r2, [r5, r3]
 4009              		.loc 1 786 0
 4010 01c8 EA18     		adds	r2, r5, r3
 4011 01ca 94F88910 		ldrb	r1, [r4, #137]	@ zero_extendqisi2
 4012 01ce 5170     		strb	r1, [r2, #1]
 4013 01d0 0233     		adds	r3, r3, #2
 4014              		.loc 1 787 0
 4015 01d2 94ED230A 		vldr.32	s0, [r4, #140]
 4016              		.loc 1 786 0
 4017 01d6 0193     		str	r3, [sp, #4]
 4018              		.loc 1 787 0
 4019 01d8 3146     		mov	r1, r6
 4020 01da 2846     		mov	r0, r5
 4021 01dc FFF7FEFF 		bl	buffer_append_float32_auto
 4022              	.LVL343:
 4023              		.loc 1 788 0
 4024 01e0 3246     		mov	r2, r6
 4025 01e2 B4F89010 		ldrh	r1, [r4, #144]
 4026 01e6 2846     		mov	r0, r5
 4027 01e8 FFF7FEFF 		bl	buffer_append_uint16
 4028              	.LVL344:
 4029              		.loc 1 790 0
 4030 01ec 3246     		mov	r2, r6
 4031 01ee D4F89410 		ldr	r1, [r4, #148]
 4032 01f2 2846     		mov	r0, r5
 4033 01f4 FFF7FEFF 		bl	buffer_append_uint32
 4034              	.LVL345:
 4035              		.loc 1 792 0
 4036 01f8 019B     		ldr	r3, [sp, #4]
 4037 01fa 94F89820 		ldrb	r2, [r4, #152]	@ zero_extendqisi2
 4038 01fe EA54     		strb	r2, [r5, r3]
 4039              		.loc 1 793 0
 4040 0200 3146     		mov	r1, r6
 4041              		.loc 1 792 0
 4042 0202 0133     		adds	r3, r3, #1
 4043              		.loc 1 793 0
 4044 0204 94ED270A 		vldr.32	s0, [r4, #156]
 4045              		.loc 1 792 0
 4046 0208 0193     		str	r3, [sp, #4]
 4047              		.loc 1 793 0
ARM GAS  /tmp/cczXzW7i.s 			page 72


 4048 020a 2846     		mov	r0, r5
 4049 020c FFF7FEFF 		bl	buffer_append_float32_auto
 4050              	.LVL346:
 4051              		.loc 1 794 0
 4052 0210 3146     		mov	r1, r6
 4053 0212 94ED280A 		vldr.32	s0, [r4, #160]
 4054 0216 2846     		mov	r0, r5
 4055 0218 FFF7FEFF 		bl	buffer_append_float32_auto
 4056              	.LVL347:
 4057              		.loc 1 795 0
 4058 021c 3146     		mov	r1, r6
 4059 021e 94ED290A 		vldr.32	s0, [r4, #164]
 4060 0222 2846     		mov	r0, r5
 4061 0224 FFF7FEFF 		bl	buffer_append_float32_auto
 4062              	.LVL348:
 4063              		.loc 1 796 0
 4064 0228 3146     		mov	r1, r6
 4065 022a 94ED2A0A 		vldr.32	s0, [r4, #168]
 4066 022e 2846     		mov	r0, r5
 4067 0230 FFF7FEFF 		bl	buffer_append_float32_auto
 4068              	.LVL349:
 4069              		.loc 1 797 0
 4070 0234 3146     		mov	r1, r6
 4071 0236 94ED2B0A 		vldr.32	s0, [r4, #172]
 4072 023a 2846     		mov	r0, r5
 4073 023c FFF7FEFF 		bl	buffer_append_float32_auto
 4074              	.LVL350:
 4075              		.loc 1 798 0
 4076 0240 3146     		mov	r1, r6
 4077 0242 94ED2C0A 		vldr.32	s0, [r4, #176]
 4078 0246 2846     		mov	r0, r5
 4079 0248 FFF7FEFF 		bl	buffer_append_float32_auto
 4080              	.LVL351:
 4081              		.loc 1 799 0
 4082 024c 019B     		ldr	r3, [sp, #4]
 4083 024e 94F8B420 		ldrb	r2, [r4, #180]	@ zero_extendqisi2
 4084 0252 EA54     		strb	r2, [r5, r3]
 4085              		.loc 1 800 0
 4086 0254 EA18     		adds	r2, r5, r3
 4087 0256 94F8B510 		ldrb	r1, [r4, #181]	@ zero_extendqisi2
 4088 025a 5170     		strb	r1, [r2, #1]
 4089              		.loc 1 801 0
 4090 025c 94F8B610 		ldrb	r1, [r4, #182]	@ zero_extendqisi2
 4091 0260 9170     		strb	r1, [r2, #2]
 4092 0262 0333     		adds	r3, r3, #3
 4093              		.loc 1 802 0
 4094 0264 3146     		mov	r1, r6
 4095 0266 2846     		mov	r0, r5
 4096 0268 94ED2E0A 		vldr.32	s0, [r4, #184]
 4097              		.loc 1 801 0
 4098 026c 0193     		str	r3, [sp, #4]
 4099              		.loc 1 802 0
 4100 026e FFF7FEFF 		bl	buffer_append_float32_auto
 4101              	.LVL352:
 4102              		.loc 1 804 0
 4103 0272 0199     		ldr	r1, [sp, #4]
 4104 0274 94F8BC30 		ldrb	r3, [r4, #188]	@ zero_extendqisi2
ARM GAS  /tmp/cczXzW7i.s 			page 73


 4105 0278 6B54     		strb	r3, [r5, r1]
 4106              		.loc 1 805 0
 4107 027a 6B18     		adds	r3, r5, r1
 4108 027c 94F8BD20 		ldrb	r2, [r4, #189]	@ zero_extendqisi2
 4109 0280 5A70     		strb	r2, [r3, #1]
 4110              		.loc 1 806 0
 4111 0282 94F8BE20 		ldrb	r2, [r4, #190]	@ zero_extendqisi2
 4112 0286 9A70     		strb	r2, [r3, #2]
 4113              		.loc 1 807 0
 4114 0288 94F8BF20 		ldrb	r2, [r4, #191]	@ zero_extendqisi2
 4115 028c DA70     		strb	r2, [r3, #3]
 4116              		.loc 1 808 0
 4117 028e 94F8C020 		ldrb	r2, [r4, #192]	@ zero_extendqisi2
 4118 0292 1A71     		strb	r2, [r3, #4]
 4119              		.loc 1 809 0
 4120 0294 94F8C120 		ldrb	r2, [r4, #193]	@ zero_extendqisi2
 4121 0298 5A71     		strb	r2, [r3, #5]
 4122              		.loc 1 810 0
 4123 029a 2046     		mov	r0, r4
 4124              		.loc 1 809 0
 4125 029c 8A1D     		adds	r2, r1, #6
 4126              		.loc 1 810 0
 4127 029e 30F8C2CF 		ldrh	ip, [r0, #194]!	@ unaligned
 4128 02a2 8678     		ldrb	r6, [r0, #2]	@ zero_extendqisi2
 4129 02a4 25F802C0 		strh	ip, [r5, r2]	@ unaligned
 4130 02a8 2A44     		add	r2, r2, r5
 4131              	.LBB85:
 4132              	.LBB82:
 4133              		.loc 1 908 0
 4134 02aa 3868     		ldr	r0, [r7]
 4135              	.LBE82:
 4136              	.LBE85:
 4137              		.loc 1 810 0
 4138 02ac 9670     		strb	r6, [r2, #2]
 4139              		.loc 1 812 0
 4140 02ae 94F8C520 		ldrb	r2, [r4, #197]	@ zero_extendqisi2
 4141 02b2 5A72     		strb	r2, [r3, #9]
 4142              	.LVL353:
 4143 02b4 0A31     		adds	r1, r1, #10
 4144              	.LVL354:
 4145 02b6 0191     		str	r1, [sp, #4]
 4146              	.LBB86:
 4147              	.LBB83:
 4148              		.loc 1 908 0
 4149 02b8 08B1     		cbz	r0, .L196
 4150              	.LBE83:
 4151              	.LBE86:
 4152              		.loc 1 815 0
 4153 02ba 03B0     		add	sp, sp, #12
 4154              		.cfi_remember_state
 4155              		.cfi_def_cfa_offset 20
 4156              		@ sp needed
 4157 02bc F0BD     		pop	{r4, r5, r6, r7, pc}
 4158              	.LVL355:
 4159              	.L196:
 4160              		.cfi_restore_state
 4161              	.LBB87:
ARM GAS  /tmp/cczXzW7i.s 			page 74


 4162              	.LBB84:
 4163 02be 2846     		mov	r0, r5
 4164 02c0 FFF7FEFF 		bl	send_packet_no_fwd.part.0
 4165              	.LVL356:
 4166              	.LBE84:
 4167              	.LBE87:
 4168 02c4 03B0     		add	sp, sp, #12
 4169              		.cfi_def_cfa_offset 20
 4170              		@ sp needed
 4171 02c6 F0BD     		pop	{r4, r5, r6, r7, pc}
 4172              	.LVL357:
 4173              	.L198:
 4174              		.align	2
 4175              	.L197:
 4176 02c8 00000000 		.word	.LANCHOR22
 4177 02cc 00000000 		.word	.LANCHOR1
 4178              		.cfi_endproc
 4179              	.LFE256:
 4180              		.size	bldc_interface_set_appconf, .-bldc_interface_set_appconf
 4181              		.section	.text.bldc_interface_get_fw_version,"ax",%progbits
 4182              		.align	1
 4183              		.p2align 4,,15
 4184              		.global	bldc_interface_get_fw_version
 4185              		.syntax unified
 4186              		.thumb
 4187              		.thumb_func
 4188              		.fpu fpv4-sp-d16
 4189              		.type	bldc_interface_get_fw_version, %function
 4190              	bldc_interface_get_fw_version:
 4191              	.LFB257:
 4192              		.loc 1 818 0
 4193              		.cfi_startproc
 4194              		@ args = 0, pretend = 0, frame = 0
 4195              		@ frame_needed = 0, uses_anonymous_args = 0
 4196              		@ link register save eliminated.
 4197              	.LVL358:
 4198              	.LBB88:
 4199              	.LBB89:
 4200              		.loc 1 908 0
 4201 0000 044B     		ldr	r3, .L202
 4202              	.LBE89:
 4203              	.LBE88:
 4204              		.loc 1 820 0
 4205 0002 0548     		ldr	r0, .L202+4
 4206              	.LBB93:
 4207              	.LBB90:
 4208              		.loc 1 908 0
 4209 0004 1B68     		ldr	r3, [r3]
 4210              	.LBE90:
 4211              	.LBE93:
 4212              		.loc 1 820 0
 4213 0006 0022     		movs	r2, #0
 4214 0008 0270     		strb	r2, [r0]
 4215              	.LVL359:
 4216              	.LBB94:
 4217              	.LBB91:
 4218              		.loc 1 908 0
ARM GAS  /tmp/cczXzW7i.s 			page 75


 4219 000a 03B1     		cbz	r3, .L201
 4220              	.LBE91:
 4221              	.LBE94:
 4222              		.loc 1 822 0
 4223 000c 7047     		bx	lr
 4224              	.L201:
 4225              	.LBB95:
 4226              	.LBB92:
 4227 000e 0121     		movs	r1, #1
 4228 0010 FFF7FEBF 		b	send_packet_no_fwd.part.0
 4229              	.LVL360:
 4230              	.L203:
 4231              		.align	2
 4232              	.L202:
 4233 0014 00000000 		.word	.LANCHOR1
 4234 0018 00000000 		.word	.LANCHOR22
 4235              	.LBE92:
 4236              	.LBE95:
 4237              		.cfi_endproc
 4238              	.LFE257:
 4239              		.size	bldc_interface_get_fw_version, .-bldc_interface_get_fw_version
 4240              		.section	.text.bldc_interface_get_values,"ax",%progbits
 4241              		.align	1
 4242              		.p2align 4,,15
 4243              		.global	bldc_interface_get_values
 4244              		.syntax unified
 4245              		.thumb
 4246              		.thumb_func
 4247              		.fpu fpv4-sp-d16
 4248              		.type	bldc_interface_get_values, %function
 4249              	bldc_interface_get_values:
 4250              	.LFB258:
 4251              		.loc 1 824 0
 4252              		.cfi_startproc
 4253              		@ args = 0, pretend = 0, frame = 0
 4254              		@ frame_needed = 0, uses_anonymous_args = 0
 4255              		@ link register save eliminated.
 4256              		.loc 1 825 0
 4257 0000 064B     		ldr	r3, .L208
 4258 0002 1B68     		ldr	r3, [r3]
 4259 0004 03B1     		cbz	r3, .L205
 4260              		.loc 1 826 0
 4261 0006 1847     		bx	r3	@ indirect register sibling call
 4262              	.LVL361:
 4263              	.L205:
 4264              	.LBB96:
 4265              	.LBB97:
 4266              		.loc 1 908 0
 4267 0008 054B     		ldr	r3, .L208+4
 4268              	.LBE97:
 4269              	.LBE96:
 4270              		.loc 1 830 0
 4271 000a 0648     		ldr	r0, .L208+8
 4272              	.LBB101:
 4273              	.LBB98:
 4274              		.loc 1 908 0
 4275 000c 1B68     		ldr	r3, [r3]
ARM GAS  /tmp/cczXzW7i.s 			page 76


 4276              	.LBE98:
 4277              	.LBE101:
 4278              		.loc 1 830 0
 4279 000e 0422     		movs	r2, #4
 4280 0010 0270     		strb	r2, [r0]
 4281              	.LVL362:
 4282              	.LBB102:
 4283              	.LBB99:
 4284              		.loc 1 908 0
 4285 0012 03B1     		cbz	r3, .L207
 4286              	.LBE99:
 4287              	.LBE102:
 4288              		.loc 1 832 0
 4289 0014 7047     		bx	lr
 4290              	.L207:
 4291              	.LBB103:
 4292              	.LBB100:
 4293 0016 0121     		movs	r1, #1
 4294 0018 FFF7FEBF 		b	send_packet_no_fwd.part.0
 4295              	.LVL363:
 4296              	.L209:
 4297              		.align	2
 4298              	.L208:
 4299 001c 00000000 		.word	.LANCHOR21
 4300 0020 00000000 		.word	.LANCHOR1
 4301 0024 00000000 		.word	.LANCHOR22
 4302              	.LBE100:
 4303              	.LBE103:
 4304              		.cfi_endproc
 4305              	.LFE258:
 4306              		.size	bldc_interface_get_values, .-bldc_interface_get_values
 4307              		.section	.text.bldc_interface_get_mcconf,"ax",%progbits
 4308              		.align	1
 4309              		.p2align 4,,15
 4310              		.global	bldc_interface_get_mcconf
 4311              		.syntax unified
 4312              		.thumb
 4313              		.thumb_func
 4314              		.fpu fpv4-sp-d16
 4315              		.type	bldc_interface_get_mcconf, %function
 4316              	bldc_interface_get_mcconf:
 4317              	.LFB259:
 4318              		.loc 1 834 0
 4319              		.cfi_startproc
 4320              		@ args = 0, pretend = 0, frame = 0
 4321              		@ frame_needed = 0, uses_anonymous_args = 0
 4322              		@ link register save eliminated.
 4323              	.LVL364:
 4324              	.LBB104:
 4325              	.LBB105:
 4326              		.loc 1 908 0
 4327 0000 044B     		ldr	r3, .L213
 4328              	.LBE105:
 4329              	.LBE104:
 4330              		.loc 1 836 0
 4331 0002 0548     		ldr	r0, .L213+4
 4332              	.LBB109:
ARM GAS  /tmp/cczXzW7i.s 			page 77


 4333              	.LBB106:
 4334              		.loc 1 908 0
 4335 0004 1B68     		ldr	r3, [r3]
 4336              	.LBE106:
 4337              	.LBE109:
 4338              		.loc 1 836 0
 4339 0006 0E22     		movs	r2, #14
 4340 0008 0270     		strb	r2, [r0]
 4341              	.LVL365:
 4342              	.LBB110:
 4343              	.LBB107:
 4344              		.loc 1 908 0
 4345 000a 03B1     		cbz	r3, .L212
 4346              	.LBE107:
 4347              	.LBE110:
 4348              		.loc 1 838 0
 4349 000c 7047     		bx	lr
 4350              	.L212:
 4351              	.LBB111:
 4352              	.LBB108:
 4353 000e 0121     		movs	r1, #1
 4354 0010 FFF7FEBF 		b	send_packet_no_fwd.part.0
 4355              	.LVL366:
 4356              	.L214:
 4357              		.align	2
 4358              	.L213:
 4359 0014 00000000 		.word	.LANCHOR1
 4360 0018 00000000 		.word	.LANCHOR22
 4361              	.LBE108:
 4362              	.LBE111:
 4363              		.cfi_endproc
 4364              	.LFE259:
 4365              		.size	bldc_interface_get_mcconf, .-bldc_interface_get_mcconf
 4366              		.section	.text.bldc_interface_get_appconf,"ax",%progbits
 4367              		.align	1
 4368              		.p2align 4,,15
 4369              		.global	bldc_interface_get_appconf
 4370              		.syntax unified
 4371              		.thumb
 4372              		.thumb_func
 4373              		.fpu fpv4-sp-d16
 4374              		.type	bldc_interface_get_appconf, %function
 4375              	bldc_interface_get_appconf:
 4376              	.LFB260:
 4377              		.loc 1 840 0
 4378              		.cfi_startproc
 4379              		@ args = 0, pretend = 0, frame = 0
 4380              		@ frame_needed = 0, uses_anonymous_args = 0
 4381              		@ link register save eliminated.
 4382              	.LVL367:
 4383              	.LBB112:
 4384              	.LBB113:
 4385              		.loc 1 908 0
 4386 0000 044B     		ldr	r3, .L218
 4387              	.LBE113:
 4388              	.LBE112:
 4389              		.loc 1 842 0
ARM GAS  /tmp/cczXzW7i.s 			page 78


 4390 0002 0548     		ldr	r0, .L218+4
 4391              	.LBB117:
 4392              	.LBB114:
 4393              		.loc 1 908 0
 4394 0004 1B68     		ldr	r3, [r3]
 4395              	.LBE114:
 4396              	.LBE117:
 4397              		.loc 1 842 0
 4398 0006 1122     		movs	r2, #17
 4399 0008 0270     		strb	r2, [r0]
 4400              	.LVL368:
 4401              	.LBB118:
 4402              	.LBB115:
 4403              		.loc 1 908 0
 4404 000a 03B1     		cbz	r3, .L217
 4405              	.LBE115:
 4406              	.LBE118:
 4407              		.loc 1 844 0
 4408 000c 7047     		bx	lr
 4409              	.L217:
 4410              	.LBB119:
 4411              	.LBB116:
 4412 000e 0121     		movs	r1, #1
 4413 0010 FFF7FEBF 		b	send_packet_no_fwd.part.0
 4414              	.LVL369:
 4415              	.L219:
 4416              		.align	2
 4417              	.L218:
 4418 0014 00000000 		.word	.LANCHOR1
 4419 0018 00000000 		.word	.LANCHOR22
 4420              	.LBE116:
 4421              	.LBE119:
 4422              		.cfi_endproc
 4423              	.LFE260:
 4424              		.size	bldc_interface_get_appconf, .-bldc_interface_get_appconf
 4425              		.section	.text.bldc_interface_get_decoded_ppm,"ax",%progbits
 4426              		.align	1
 4427              		.p2align 4,,15
 4428              		.global	bldc_interface_get_decoded_ppm
 4429              		.syntax unified
 4430              		.thumb
 4431              		.thumb_func
 4432              		.fpu fpv4-sp-d16
 4433              		.type	bldc_interface_get_decoded_ppm, %function
 4434              	bldc_interface_get_decoded_ppm:
 4435              	.LFB261:
 4436              		.loc 1 846 0
 4437              		.cfi_startproc
 4438              		@ args = 0, pretend = 0, frame = 0
 4439              		@ frame_needed = 0, uses_anonymous_args = 0
 4440              		@ link register save eliminated.
 4441              	.LVL370:
 4442              	.LBB120:
 4443              	.LBB121:
 4444              		.loc 1 908 0
 4445 0000 044B     		ldr	r3, .L223
 4446              	.LBE121:
ARM GAS  /tmp/cczXzW7i.s 			page 79


 4447              	.LBE120:
 4448              		.loc 1 848 0
 4449 0002 0548     		ldr	r0, .L223+4
 4450              	.LBB125:
 4451              	.LBB122:
 4452              		.loc 1 908 0
 4453 0004 1B68     		ldr	r3, [r3]
 4454              	.LBE122:
 4455              	.LBE125:
 4456              		.loc 1 848 0
 4457 0006 1F22     		movs	r2, #31
 4458 0008 0270     		strb	r2, [r0]
 4459              	.LVL371:
 4460              	.LBB126:
 4461              	.LBB123:
 4462              		.loc 1 908 0
 4463 000a 03B1     		cbz	r3, .L222
 4464              	.LBE123:
 4465              	.LBE126:
 4466              		.loc 1 850 0
 4467 000c 7047     		bx	lr
 4468              	.L222:
 4469              	.LBB127:
 4470              	.LBB124:
 4471 000e 0121     		movs	r1, #1
 4472 0010 FFF7FEBF 		b	send_packet_no_fwd.part.0
 4473              	.LVL372:
 4474              	.L224:
 4475              		.align	2
 4476              	.L223:
 4477 0014 00000000 		.word	.LANCHOR1
 4478 0018 00000000 		.word	.LANCHOR22
 4479              	.LBE124:
 4480              	.LBE127:
 4481              		.cfi_endproc
 4482              	.LFE261:
 4483              		.size	bldc_interface_get_decoded_ppm, .-bldc_interface_get_decoded_ppm
 4484              		.section	.text.bldc_interface_get_decoded_adc,"ax",%progbits
 4485              		.align	1
 4486              		.p2align 4,,15
 4487              		.global	bldc_interface_get_decoded_adc
 4488              		.syntax unified
 4489              		.thumb
 4490              		.thumb_func
 4491              		.fpu fpv4-sp-d16
 4492              		.type	bldc_interface_get_decoded_adc, %function
 4493              	bldc_interface_get_decoded_adc:
 4494              	.LFB262:
 4495              		.loc 1 852 0
 4496              		.cfi_startproc
 4497              		@ args = 0, pretend = 0, frame = 0
 4498              		@ frame_needed = 0, uses_anonymous_args = 0
 4499              		@ link register save eliminated.
 4500              	.LVL373:
 4501              	.LBB128:
 4502              	.LBB129:
 4503              		.loc 1 908 0
ARM GAS  /tmp/cczXzW7i.s 			page 80


 4504 0000 044B     		ldr	r3, .L228
 4505              	.LBE129:
 4506              	.LBE128:
 4507              		.loc 1 854 0
 4508 0002 0548     		ldr	r0, .L228+4
 4509              	.LBB133:
 4510              	.LBB130:
 4511              		.loc 1 908 0
 4512 0004 1B68     		ldr	r3, [r3]
 4513              	.LBE130:
 4514              	.LBE133:
 4515              		.loc 1 854 0
 4516 0006 2022     		movs	r2, #32
 4517 0008 0270     		strb	r2, [r0]
 4518              	.LVL374:
 4519              	.LBB134:
 4520              	.LBB131:
 4521              		.loc 1 908 0
 4522 000a 03B1     		cbz	r3, .L227
 4523              	.LBE131:
 4524              	.LBE134:
 4525              		.loc 1 856 0
 4526 000c 7047     		bx	lr
 4527              	.L227:
 4528              	.LBB135:
 4529              	.LBB132:
 4530 000e 0121     		movs	r1, #1
 4531 0010 FFF7FEBF 		b	send_packet_no_fwd.part.0
 4532              	.LVL375:
 4533              	.L229:
 4534              		.align	2
 4535              	.L228:
 4536 0014 00000000 		.word	.LANCHOR1
 4537 0018 00000000 		.word	.LANCHOR22
 4538              	.LBE132:
 4539              	.LBE135:
 4540              		.cfi_endproc
 4541              	.LFE262:
 4542              		.size	bldc_interface_get_decoded_adc, .-bldc_interface_get_decoded_adc
 4543              		.section	.text.bldc_interface_get_decoded_chuk,"ax",%progbits
 4544              		.align	1
 4545              		.p2align 4,,15
 4546              		.global	bldc_interface_get_decoded_chuk
 4547              		.syntax unified
 4548              		.thumb
 4549              		.thumb_func
 4550              		.fpu fpv4-sp-d16
 4551              		.type	bldc_interface_get_decoded_chuk, %function
 4552              	bldc_interface_get_decoded_chuk:
 4553              	.LFB263:
 4554              		.loc 1 858 0
 4555              		.cfi_startproc
 4556              		@ args = 0, pretend = 0, frame = 0
 4557              		@ frame_needed = 0, uses_anonymous_args = 0
 4558              		@ link register save eliminated.
 4559              	.LVL376:
 4560              	.LBB136:
ARM GAS  /tmp/cczXzW7i.s 			page 81


 4561              	.LBB137:
 4562              		.loc 1 908 0
 4563 0000 044B     		ldr	r3, .L233
 4564              	.LBE137:
 4565              	.LBE136:
 4566              		.loc 1 860 0
 4567 0002 0548     		ldr	r0, .L233+4
 4568              	.LBB141:
 4569              	.LBB138:
 4570              		.loc 1 908 0
 4571 0004 1B68     		ldr	r3, [r3]
 4572              	.LBE138:
 4573              	.LBE141:
 4574              		.loc 1 860 0
 4575 0006 2122     		movs	r2, #33
 4576 0008 0270     		strb	r2, [r0]
 4577              	.LVL377:
 4578              	.LBB142:
 4579              	.LBB139:
 4580              		.loc 1 908 0
 4581 000a 03B1     		cbz	r3, .L232
 4582              	.LBE139:
 4583              	.LBE142:
 4584              		.loc 1 862 0
 4585 000c 7047     		bx	lr
 4586              	.L232:
 4587              	.LBB143:
 4588              	.LBB140:
 4589 000e 0121     		movs	r1, #1
 4590 0010 FFF7FEBF 		b	send_packet_no_fwd.part.0
 4591              	.LVL378:
 4592              	.L234:
 4593              		.align	2
 4594              	.L233:
 4595 0014 00000000 		.word	.LANCHOR1
 4596 0018 00000000 		.word	.LANCHOR22
 4597              	.LBE140:
 4598              	.LBE143:
 4599              		.cfi_endproc
 4600              	.LFE263:
 4601              		.size	bldc_interface_get_decoded_chuk, .-bldc_interface_get_decoded_chuk
 4602              		.section	.text.bldc_interface_detect_motor_param,"ax",%progbits
 4603              		.align	1
 4604              		.p2align 4,,15
 4605              		.global	bldc_interface_detect_motor_param
 4606              		.syntax unified
 4607              		.thumb
 4608              		.thumb_func
 4609              		.fpu fpv4-sp-d16
 4610              		.type	bldc_interface_detect_motor_param, %function
 4611              	bldc_interface_detect_motor_param:
 4612              	.LFB264:
 4613              		.loc 1 865 0
 4614              		.cfi_startproc
 4615              		@ args = 0, pretend = 0, frame = 8
 4616              		@ frame_needed = 0, uses_anonymous_args = 0
 4617              	.LVL379:
ARM GAS  /tmp/cczXzW7i.s 			page 82


 4618 0000 30B5     		push	{r4, r5, lr}
 4619              		.cfi_def_cfa_offset 12
 4620              		.cfi_offset 4, -12
 4621              		.cfi_offset 5, -8
 4622              		.cfi_offset 14, -4
 4623 0002 2DED028B 		vpush.64	{d8}
 4624              		.cfi_def_cfa_offset 20
 4625              		.cfi_offset 80, -20
 4626              		.cfi_offset 81, -16
 4627 0006 83B0     		sub	sp, sp, #12
 4628              		.cfi_def_cfa_offset 32
 4629              		.loc 1 867 0
 4630 0008 02AC     		add	r4, sp, #8
 4631 000a 0123     		movs	r3, #1
 4632 000c 44F8043D 		str	r3, [r4, #-4]!
 4633 0010 154D     		ldr	r5, .L239
 4634 0012 1823     		movs	r3, #24
 4635              		.loc 1 865 0
 4636 0014 F0EE608A 		vmov.f32	s17, s1
 4637              		.loc 1 868 0
 4638 0018 2146     		mov	r1, r4
 4639 001a 2846     		mov	r0, r5
 4640 001c DFED130A 		vldr.32	s1, .L239+4
 4641              	.LVL380:
 4642              		.loc 1 867 0
 4643 0020 2B70     		strb	r3, [r5]
 4644              		.loc 1 865 0
 4645 0022 B0EE418A 		vmov.f32	s16, s2
 4646              		.loc 1 868 0
 4647 0026 FFF7FEFF 		bl	buffer_append_float32
 4648              	.LVL381:
 4649              		.loc 1 869 0
 4650 002a 2146     		mov	r1, r4
 4651 002c B0EE680A 		vmov.f32	s0, s17
 4652 0030 2846     		mov	r0, r5
 4653 0032 DFED0E0A 		vldr.32	s1, .L239+4
 4654 0036 FFF7FEFF 		bl	buffer_append_float32
 4655              	.LVL382:
 4656              		.loc 1 870 0
 4657 003a 2146     		mov	r1, r4
 4658 003c B0EE480A 		vmov.f32	s0, s16
 4659 0040 2846     		mov	r0, r5
 4660 0042 DFED0A0A 		vldr.32	s1, .L239+4
 4661 0046 FFF7FEFF 		bl	buffer_append_float32
 4662              	.LVL383:
 4663              	.LBB144:
 4664              	.LBB145:
 4665              		.loc 1 908 0
 4666 004a 094B     		ldr	r3, .L239+8
 4667 004c 1B68     		ldr	r3, [r3]
 4668 004e 1BB1     		cbz	r3, .L238
 4669              	.LBE145:
 4670              	.LBE144:
 4671              		.loc 1 872 0
 4672 0050 03B0     		add	sp, sp, #12
 4673              		.cfi_remember_state
 4674              		.cfi_def_cfa_offset 20
ARM GAS  /tmp/cczXzW7i.s 			page 83


 4675              		@ sp needed
 4676 0052 BDEC028B 		vldm	sp!, {d8}
 4677              		.cfi_restore 80
 4678              		.cfi_restore 81
 4679              		.cfi_def_cfa_offset 12
 4680              	.LVL384:
 4681 0056 30BD     		pop	{r4, r5, pc}
 4682              	.LVL385:
 4683              	.L238:
 4684              		.cfi_restore_state
 4685              	.LBB147:
 4686              	.LBB146:
 4687 0058 2846     		mov	r0, r5
 4688 005a 0199     		ldr	r1, [sp, #4]
 4689 005c FFF7FEFF 		bl	send_packet_no_fwd.part.0
 4690              	.LVL386:
 4691              	.LBE146:
 4692              	.LBE147:
 4693 0060 03B0     		add	sp, sp, #12
 4694              		.cfi_def_cfa_offset 20
 4695              		@ sp needed
 4696 0062 BDEC028B 		vldm	sp!, {d8}
 4697              		.cfi_restore 80
 4698              		.cfi_restore 81
 4699              		.cfi_def_cfa_offset 12
 4700              	.LVL387:
 4701 0066 30BD     		pop	{r4, r5, pc}
 4702              	.L240:
 4703              		.align	2
 4704              	.L239:
 4705 0068 00000000 		.word	.LANCHOR22
 4706 006c 00007A44 		.word	1148846080
 4707 0070 00000000 		.word	.LANCHOR1
 4708              		.cfi_endproc
 4709              	.LFE264:
 4710              		.size	bldc_interface_detect_motor_param, .-bldc_interface_detect_motor_param
 4711              		.section	.text.bldc_interface_reboot,"ax",%progbits
 4712              		.align	1
 4713              		.p2align 4,,15
 4714              		.global	bldc_interface_reboot
 4715              		.syntax unified
 4716              		.thumb
 4717              		.thumb_func
 4718              		.fpu fpv4-sp-d16
 4719              		.type	bldc_interface_reboot, %function
 4720              	bldc_interface_reboot:
 4721              	.LFB265:
 4722              		.loc 1 874 0
 4723              		.cfi_startproc
 4724              		@ args = 0, pretend = 0, frame = 0
 4725              		@ frame_needed = 0, uses_anonymous_args = 0
 4726              		@ link register save eliminated.
 4727              	.LVL388:
 4728              	.LBB148:
 4729              	.LBB149:
 4730              		.loc 1 908 0
 4731 0000 044B     		ldr	r3, .L244
ARM GAS  /tmp/cczXzW7i.s 			page 84


 4732              	.LBE149:
 4733              	.LBE148:
 4734              		.loc 1 876 0
 4735 0002 0548     		ldr	r0, .L244+4
 4736              	.LBB153:
 4737              	.LBB150:
 4738              		.loc 1 908 0
 4739 0004 1B68     		ldr	r3, [r3]
 4740              	.LBE150:
 4741              	.LBE153:
 4742              		.loc 1 876 0
 4743 0006 1D22     		movs	r2, #29
 4744 0008 0270     		strb	r2, [r0]
 4745              	.LVL389:
 4746              	.LBB154:
 4747              	.LBB151:
 4748              		.loc 1 908 0
 4749 000a 03B1     		cbz	r3, .L243
 4750              	.LBE151:
 4751              	.LBE154:
 4752              		.loc 1 878 0
 4753 000c 7047     		bx	lr
 4754              	.L243:
 4755              	.LBB155:
 4756              	.LBB152:
 4757 000e 0121     		movs	r1, #1
 4758 0010 FFF7FEBF 		b	send_packet_no_fwd.part.0
 4759              	.LVL390:
 4760              	.L245:
 4761              		.align	2
 4762              	.L244:
 4763 0014 00000000 		.word	.LANCHOR1
 4764 0018 00000000 		.word	.LANCHOR22
 4765              	.LBE152:
 4766              	.LBE155:
 4767              		.cfi_endproc
 4768              	.LFE265:
 4769              		.size	bldc_interface_reboot, .-bldc_interface_reboot
 4770              		.section	.text.bldc_interface_send_alive,"ax",%progbits
 4771              		.align	1
 4772              		.p2align 4,,15
 4773              		.global	bldc_interface_send_alive
 4774              		.syntax unified
 4775              		.thumb
 4776              		.thumb_func
 4777              		.fpu fpv4-sp-d16
 4778              		.type	bldc_interface_send_alive, %function
 4779              	bldc_interface_send_alive:
 4780              	.LFB266:
 4781              		.loc 1 880 0
 4782              		.cfi_startproc
 4783              		@ args = 0, pretend = 0, frame = 0
 4784              		@ frame_needed = 0, uses_anonymous_args = 0
 4785              		@ link register save eliminated.
 4786              	.LVL391:
 4787              	.LBB156:
 4788              	.LBB157:
ARM GAS  /tmp/cczXzW7i.s 			page 85


 4789              		.loc 1 908 0
 4790 0000 044B     		ldr	r3, .L249
 4791              	.LBE157:
 4792              	.LBE156:
 4793              		.loc 1 882 0
 4794 0002 0548     		ldr	r0, .L249+4
 4795              	.LBB161:
 4796              	.LBB158:
 4797              		.loc 1 908 0
 4798 0004 1B68     		ldr	r3, [r3]
 4799              	.LBE158:
 4800              	.LBE161:
 4801              		.loc 1 882 0
 4802 0006 1E22     		movs	r2, #30
 4803 0008 0270     		strb	r2, [r0]
 4804              	.LVL392:
 4805              	.LBB162:
 4806              	.LBB159:
 4807              		.loc 1 908 0
 4808 000a 03B1     		cbz	r3, .L248
 4809              	.LBE159:
 4810              	.LBE162:
 4811              		.loc 1 884 0
 4812 000c 7047     		bx	lr
 4813              	.L248:
 4814              	.LBB163:
 4815              	.LBB160:
 4816 000e 0121     		movs	r1, #1
 4817 0010 FFF7FEBF 		b	send_packet_no_fwd.part.0
 4818              	.LVL393:
 4819              	.L250:
 4820              		.align	2
 4821              	.L249:
 4822 0014 00000000 		.word	.LANCHOR1
 4823 0018 00000000 		.word	.LANCHOR22
 4824              	.LBE160:
 4825              	.LBE163:
 4826              		.cfi_endproc
 4827              	.LFE266:
 4828              		.size	bldc_interface_send_alive, .-bldc_interface_send_alive
 4829              		.section	.text.send_values_to_receiver,"ax",%progbits
 4830              		.align	1
 4831              		.p2align 4,,15
 4832              		.global	send_values_to_receiver
 4833              		.syntax unified
 4834              		.thumb
 4835              		.thumb_func
 4836              		.fpu fpv4-sp-d16
 4837              		.type	send_values_to_receiver, %function
 4838              	send_values_to_receiver:
 4839              	.LFB267:
 4840              		.loc 1 886 0
 4841              		.cfi_startproc
 4842              		@ args = 0, pretend = 0, frame = 0
 4843              		@ frame_needed = 0, uses_anonymous_args = 0
 4844              		@ link register save eliminated.
 4845              	.LVL394:
ARM GAS  /tmp/cczXzW7i.s 			page 86


 4846              		.loc 1 887 0
 4847 0000 024B     		ldr	r3, .L253
 4848 0002 1B68     		ldr	r3, [r3]
 4849 0004 03B1     		cbz	r3, .L251
 4850              		.loc 1 888 0
 4851 0006 1847     		bx	r3	@ indirect register sibling call
 4852              	.LVL395:
 4853              	.L251:
 4854              		.loc 1 890 0
 4855 0008 7047     		bx	lr
 4856              	.L254:
 4857 000a 00BF     		.align	2
 4858              	.L253:
 4859 000c 00000000 		.word	.LANCHOR3
 4860              		.cfi_endproc
 4861              	.LFE267:
 4862              		.size	send_values_to_receiver, .-send_values_to_receiver
 4863              		.section	.text.bldc_interface_fault_to_string,"ax",%progbits
 4864              		.align	1
 4865              		.p2align 4,,15
 4866              		.global	bldc_interface_fault_to_string
 4867              		.syntax unified
 4868              		.thumb
 4869              		.thumb_func
 4870              		.fpu fpv4-sp-d16
 4871              		.type	bldc_interface_fault_to_string, %function
 4872              	bldc_interface_fault_to_string:
 4873              	.LFB268:
 4874              		.loc 1 893 0
 4875              		.cfi_startproc
 4876              		@ args = 0, pretend = 0, frame = 0
 4877              		@ frame_needed = 0, uses_anonymous_args = 0
 4878              		@ link register save eliminated.
 4879              	.LVL396:
 4880 0000 0628     		cmp	r0, #6
 4881 0002 9ABF     		itte	ls
 4882 0004 024B     		ldrls	r3, .L258
 4883 0006 53F82000 		ldrls	r0, [r3, r0, lsl #2]
 4884              	.LVL397:
 4885              		.loc 1 893 0
 4886 000a 0248     		ldrhi	r0, .L258+4
 4887              		.loc 1 904 0
 4888 000c 7047     		bx	lr
 4889              	.L259:
 4890 000e 00BF     		.align	2
 4891              	.L258:
 4892 0010 00000000 		.word	.LANCHOR23
 4893 0014 00000000 		.word	.LC0
 4894              		.cfi_endproc
 4895              	.LFE268:
 4896              		.size	bldc_interface_fault_to_string, .-bldc_interface_fault_to_string
 4897              		.section	.text.send_packet_no_fwd,"ax",%progbits
 4898              		.align	1
 4899              		.p2align 4,,15
 4900              		.global	send_packet_no_fwd
 4901              		.syntax unified
 4902              		.thumb
ARM GAS  /tmp/cczXzW7i.s 			page 87


 4903              		.thumb_func
 4904              		.fpu fpv4-sp-d16
 4905              		.type	send_packet_no_fwd, %function
 4906              	send_packet_no_fwd:
 4907              	.LFB269:
 4908              		.loc 1 907 0
 4909              		.cfi_startproc
 4910              		@ args = 0, pretend = 0, frame = 0
 4911              		@ frame_needed = 0, uses_anonymous_args = 0
 4912              		@ link register save eliminated.
 4913              	.LVL398:
 4914              		.loc 1 908 0
 4915 0000 024B     		ldr	r3, .L263
 4916 0002 1B68     		ldr	r3, [r3]
 4917 0004 03B1     		cbz	r3, .L262
 4918              		.loc 1 911 0
 4919 0006 7047     		bx	lr
 4920              	.L262:
 4921 0008 FFF7FEBF 		b	send_packet_no_fwd.part.0
 4922              	.LVL399:
 4923              	.L264:
 4924              		.align	2
 4925              	.L263:
 4926 000c 00000000 		.word	.LANCHOR1
 4927              		.cfi_endproc
 4928              	.LFE269:
 4929              		.size	send_packet_no_fwd, .-send_packet_no_fwd
 4930              		.section	.bss.appconf,"aw",%nobits
 4931              		.align	2
 4932              		.set	.LANCHOR8,. + 0
 4933              		.type	appconf, %object
 4934              		.size	appconf, 200
 4935              	appconf:
 4936 0000 00000000 		.space	200
 4936      00000000 
 4936      00000000 
 4936      00000000 
 4936      00000000 
 4937              		.section	.bss.dec_adc,"aw",%nobits
 4938              		.align	2
 4939              		.set	.LANCHOR15,. + 0
 4940              		.type	dec_adc, %object
 4941              		.size	dec_adc, 4
 4942              	dec_adc:
 4943 0000 00000000 		.space	4
 4944              		.section	.bss.dec_ppm,"aw",%nobits
 4945              		.align	2
 4946              		.set	.LANCHOR13,. + 0
 4947              		.type	dec_ppm, %object
 4948              		.size	dec_ppm, 4
 4949              	dec_ppm:
 4950 0000 00000000 		.space	4
 4951              		.section	.bss.detect_cycle_int_limit,"aw",%nobits
 4952              		.align	2
 4953              		.set	.LANCHOR10,. + 0
 4954              		.type	detect_cycle_int_limit, %object
 4955              		.size	detect_cycle_int_limit, 4
ARM GAS  /tmp/cczXzW7i.s 			page 88


 4956              	detect_cycle_int_limit:
 4957 0000 00000000 		.space	4
 4958              		.section	.bss.detect_hall_table,"aw",%nobits
 4959              		.align	2
 4960              		.set	.LANCHOR11,. + 0
 4961              		.type	detect_hall_table, %object
 4962              		.size	detect_hall_table, 8
 4963              	detect_hall_table:
 4964 0000 00000000 		.space	8
 4964      00000000 
 4965              		.section	.bss.forward_func,"aw",%nobits
 4966              		.align	2
 4967              		.set	.LANCHOR1,. + 0
 4968              		.type	forward_func, %object
 4969              		.size	forward_func, 4
 4970              	forward_func:
 4971 0000 00000000 		.space	4
 4972              		.section	.bss.mcconf,"aw",%nobits
 4973              		.align	2
 4974              		.set	.LANCHOR6,. + 0
 4975              		.type	mcconf, %object
 4976              		.size	mcconf, 388
 4977              	mcconf:
 4978 0000 00000000 		.space	388
 4978      00000000 
 4978      00000000 
 4978      00000000 
 4978      00000000 
 4979              		.section	.bss.motor_control_set_func,"aw",%nobits
 4980              		.align	2
 4981              		.set	.LANCHOR20,. + 0
 4982              		.type	motor_control_set_func, %object
 4983              		.size	motor_control_set_func, 4
 4984              	motor_control_set_func:
 4985 0000 00000000 		.space	4
 4986              		.section	.bss.rx_appconf_func,"aw",%nobits
 4987              		.align	2
 4988              		.set	.LANCHOR9,. + 0
 4989              		.type	rx_appconf_func, %object
 4990              		.size	rx_appconf_func, 4
 4991              	rx_appconf_func:
 4992 0000 00000000 		.space	4
 4993              		.section	.bss.rx_appconf_received_func,"aw",%nobits
 4994              		.align	2
 4995              		.set	.LANCHOR19,. + 0
 4996              		.type	rx_appconf_received_func, %object
 4997              		.size	rx_appconf_received_func, 4
 4998              	rx_appconf_received_func:
 4999 0000 00000000 		.space	4
 5000              		.section	.bss.rx_dec_adc_func,"aw",%nobits
 5001              		.align	2
 5002              		.set	.LANCHOR16,. + 0
 5003              		.type	rx_dec_adc_func, %object
 5004              		.size	rx_dec_adc_func, 4
 5005              	rx_dec_adc_func:
 5006 0000 00000000 		.space	4
 5007              		.section	.bss.rx_dec_chuk_func,"aw",%nobits
ARM GAS  /tmp/cczXzW7i.s 			page 89


 5008              		.align	2
 5009              		.set	.LANCHOR17,. + 0
 5010              		.type	rx_dec_chuk_func, %object
 5011              		.size	rx_dec_chuk_func, 4
 5012              	rx_dec_chuk_func:
 5013 0000 00000000 		.space	4
 5014              		.section	.bss.rx_dec_ppm_func,"aw",%nobits
 5015              		.align	2
 5016              		.set	.LANCHOR14,. + 0
 5017              		.type	rx_dec_ppm_func, %object
 5018              		.size	rx_dec_ppm_func, 4
 5019              	rx_dec_ppm_func:
 5020 0000 00000000 		.space	4
 5021              		.section	.bss.rx_detect_func,"aw",%nobits
 5022              		.align	2
 5023              		.set	.LANCHOR12,. + 0
 5024              		.type	rx_detect_func, %object
 5025              		.size	rx_detect_func, 4
 5026              	rx_detect_func:
 5027 0000 00000000 		.space	4
 5028              		.section	.bss.rx_mcconf_func,"aw",%nobits
 5029              		.align	2
 5030              		.set	.LANCHOR7,. + 0
 5031              		.type	rx_mcconf_func, %object
 5032              		.size	rx_mcconf_func, 4
 5033              	rx_mcconf_func:
 5034 0000 00000000 		.space	4
 5035              		.section	.bss.rx_mcconf_received_func,"aw",%nobits
 5036              		.align	2
 5037              		.set	.LANCHOR18,. + 0
 5038              		.type	rx_mcconf_received_func, %object
 5039              		.size	rx_mcconf_received_func, 4
 5040              	rx_mcconf_received_func:
 5041 0000 00000000 		.space	4
 5042              		.section	.bss.rx_printf_func,"aw",%nobits
 5043              		.align	2
 5044              		.set	.LANCHOR4,. + 0
 5045              		.type	rx_printf_func, %object
 5046              		.size	rx_printf_func, 4
 5047              	rx_printf_func:
 5048 0000 00000000 		.space	4
 5049              		.section	.bss.rx_rotor_pos_func,"aw",%nobits
 5050              		.align	2
 5051              		.set	.LANCHOR5,. + 0
 5052              		.type	rx_rotor_pos_func, %object
 5053              		.size	rx_rotor_pos_func, 4
 5054              	rx_rotor_pos_func:
 5055 0000 00000000 		.space	4
 5056              		.section	.bss.rx_value_func,"aw",%nobits
 5057              		.align	2
 5058              		.set	.LANCHOR3,. + 0
 5059              		.type	rx_value_func, %object
 5060              		.size	rx_value_func, 4
 5061              	rx_value_func:
 5062 0000 00000000 		.space	4
 5063              		.section	.bss.send_buffer,"aw",%nobits
 5064              		.align	2
ARM GAS  /tmp/cczXzW7i.s 			page 90


 5065              		.set	.LANCHOR22,. + 0
 5066              		.type	send_buffer, %object
 5067              		.size	send_buffer, 1024
 5068              	send_buffer:
 5069 0000 00000000 		.space	1024
 5069      00000000 
 5069      00000000 
 5069      00000000 
 5069      00000000 
 5070              		.section	.bss.send_func,"aw",%nobits
 5071              		.align	2
 5072              		.set	.LANCHOR0,. + 0
 5073              		.type	send_func, %object
 5074              		.size	send_func, 4
 5075              	send_func:
 5076 0000 00000000 		.space	4
 5077              		.section	.bss.values,"aw",%nobits
 5078              		.align	2
 5079              		.set	.LANCHOR2,. + 0
 5080              		.type	values, %object
 5081              		.size	values, 72
 5082              	values:
 5083 0000 00000000 		.space	72
 5083      00000000 
 5083      00000000 
 5083      00000000 
 5083      00000000 
 5084              		.section	.bss.values_requested_func,"aw",%nobits
 5085              		.align	2
 5086              		.set	.LANCHOR21,. + 0
 5087              		.type	values_requested_func, %object
 5088              		.size	values_requested_func, 4
 5089              	values_requested_func:
 5090 0000 00000000 		.space	4
 5091              		.section	.rodata.CSWTCH.404,"a",%progbits
 5092              		.align	2
 5093              		.set	.LANCHOR23,. + 0
 5094              		.type	CSWTCH.404, %object
 5095              		.size	CSWTCH.404, 28
 5096              	CSWTCH.404:
 5097 0000 00000000 		.word	.LC1
 5098 0004 10000000 		.word	.LC2
 5099 0008 28000000 		.word	.LC3
 5100 000c 44000000 		.word	.LC4
 5101 0010 54000000 		.word	.LC5
 5102 0014 70000000 		.word	.LC6
 5103 0018 8C000000 		.word	.LC7
 5104              		.section	.rodata.bldc_interface_fault_to_string.str1.4,"aMS",%progbits,1
 5105              		.align	2
 5106              	.LC0:
 5107 0000 556E6B6E 		.ascii	"Unknown fault\000"
 5107      6F776E20 
 5107      6661756C 
 5107      7400
 5108              		.section	.rodata.str1.4,"aMS",%progbits,1
 5109              		.align	2
 5110              	.LC1:
ARM GAS  /tmp/cczXzW7i.s 			page 91


 5111 0000 4641554C 		.ascii	"FAULT_CODE_NONE\000"
 5111      545F434F 
 5111      44455F4E 
 5111      4F4E4500 
 5112              	.LC2:
 5113 0010 4641554C 		.ascii	"FAULT_CODE_OVER_VOLTAGE\000"
 5113      545F434F 
 5113      44455F4F 
 5113      5645525F 
 5113      564F4C54 
 5114              	.LC3:
 5115 0028 4641554C 		.ascii	"FAULT_CODE_UNDER_VOLTAGE\000"
 5115      545F434F 
 5115      44455F55 
 5115      4E444552 
 5115      5F564F4C 
 5116 0041 000000   		.space	3
 5117              	.LC4:
 5118 0044 4641554C 		.ascii	"FAULT_CODE_DRV\000"
 5118      545F434F 
 5118      44455F44 
 5118      525600
 5119 0053 00       		.space	1
 5120              	.LC5:
 5121 0054 4641554C 		.ascii	"FAULT_CODE_ABS_OVER_CURRENT\000"
 5121      545F434F 
 5121      44455F41 
 5121      42535F4F 
 5121      5645525F 
 5122              	.LC6:
 5123 0070 4641554C 		.ascii	"FAULT_CODE_OVER_TEMP_FET\000"
 5123      545F434F 
 5123      44455F4F 
 5123      5645525F 
 5123      54454D50 
 5124 0089 000000   		.space	3
 5125              	.LC7:
 5126 008c 4641554C 		.ascii	"FAULT_CODE_OVER_TEMP_MOTOR\000"
 5126      545F434F 
 5126      44455F4F 
 5126      5645525F 
 5126      54454D50 
 5127              		.text
 5128              	.Letext0:
 5129              		.file 2 "/usr/arm-none-eabi/include/machine/_default_types.h"
 5130              		.file 3 "/usr/arm-none-eabi/include/sys/_stdint.h"
 5131              		.file 4 "/usr/lib/gcc/arm-none-eabi/7.3.1/include/stddef.h"
 5132              		.file 5 "ChibiOS_3.0.2/os/rt/ports/ARMCMx/compilers/GCC/chtypes.h"
 5133              		.file 6 "ChibiOS_3.0.2/os/rt/include/chsystypes.h"
 5134              		.file 7 "ChibiOS_3.0.2/os/rt/include/chschd.h"
 5135              		.file 8 "ChibiOS_3.0.2/os/ext/CMSIS/include/core_cm4.h"
 5136              		.file 9 "ChibiOS_3.0.2/os/ext/CMSIS/ST/system_stm32f4xx.h"
 5137              		.file 10 "ChibiOS_3.0.2/os/rt/ports/ARMCMx/chcore.h"
 5138              		.file 11 "ChibiOS_3.0.2/os/rt/ports/ARMCMx/chcore_v7m.h"
 5139              		.file 12 "ChibiOS_3.0.2/os/rt/include/chtm.h"
 5140              		.file 13 "ChibiOS_3.0.2/os/rt/include/chsem.h"
 5141              		.file 14 "ChibiOS_3.0.2/os/rt/include/chmtx.h"
ARM GAS  /tmp/cczXzW7i.s 			page 92


 5142              		.file 15 "ChibiOS_3.0.2/os/rt/include/chregistry.h"
 5143              		.file 16 "datatypes.h"
 5144              		.file 17 "/usr/arm-none-eabi/include/sys/lock.h"
 5145              		.file 18 "/usr/arm-none-eabi/include/sys/_types.h"
 5146              		.file 19 "/usr/arm-none-eabi/include/sys/reent.h"
 5147              		.file 20 "buffer.h"
 5148              		.file 21 "/usr/arm-none-eabi/include/string.h"
 5149              		.file 22 "<built-in>"