ARM GAS  /tmp/ccsfnBTQ.s 			page 1


   1              		.cpu cortex-m4
   2              		.eabi_attribute 27, 1
   3              		.eabi_attribute 28, 1
   4              		.eabi_attribute 20, 1
   5              		.eabi_attribute 21, 1
   6              		.eabi_attribute 23, 3
   7              		.eabi_attribute 24, 1
   8              		.eabi_attribute 25, 1
   9              		.eabi_attribute 26, 1
  10              		.eabi_attribute 30, 2
  11              		.eabi_attribute 34, 1
  12              		.eabi_attribute 18, 4
  13              		.file	"bldc_interface_uart.c"
  14              		.text
  15              	.Ltext0:
  16              		.cfi_sections	.debug_frame
  17              		.section	.text.send_packet_bldc_interface,"ax",%progbits
  18              		.align	1
  19              		.p2align 4,,15
  20              		.syntax unified
  21              		.thumb
  22              		.thumb_func
  23              		.fpu fpv4-sp-d16
  24              		.type	send_packet_bldc_interface, %function
  25              	send_packet_bldc_interface:
  26              	.LFB264:
  27              		.file 1 "bldc_interface_uart.c"
  28              		.loc 1 93 0
  29              		.cfi_startproc
  30              		@ args = 0, pretend = 0, frame = 0
  31              		@ frame_needed = 0, uses_anonymous_args = 0
  32              		@ link register save eliminated.
  33              	.LVL0:
  34              		.loc 1 95 0
  35 0000 0022     		movs	r2, #0
  36 0002 FFF7FEBF 		b	packet_send_packet
  37              	.LVL1:
  38              		.cfi_endproc
  39              	.LFE264:
  40              		.size	send_packet_bldc_interface, .-send_packet_bldc_interface
  41 0006 00BF     		.section	.text.process_packet,"ax",%progbits
  42              		.align	1
  43              		.p2align 4,,15
  44              		.syntax unified
  45              		.thumb
  46              		.thumb_func
  47              		.fpu fpv4-sp-d16
  48              		.type	process_packet, %function
  49              	process_packet:
  50              	.LFB263:
  51              		.loc 1 80 0
  52              		.cfi_startproc
  53              		@ args = 0, pretend = 0, frame = 0
  54              		@ frame_needed = 0, uses_anonymous_args = 0
  55              		@ link register save eliminated.
  56              	.LVL2:
  57              		.loc 1 82 0
ARM GAS  /tmp/ccsfnBTQ.s 			page 2


  58 0000 FFF7FEBF 		b	bldc_interface_process_packet
  59              	.LVL3:
  60              		.cfi_endproc
  61              	.LFE263:
  62              		.size	process_packet, .-process_packet
  63              		.section	.text.bldc_interface_uart_init,"ax",%progbits
  64              		.align	1
  65              		.p2align 4,,15
  66              		.global	bldc_interface_uart_init
  67              		.syntax unified
  68              		.thumb
  69              		.thumb_func
  70              		.fpu fpv4-sp-d16
  71              		.type	bldc_interface_uart_init, %function
  72              	bldc_interface_uart_init:
  73              	.LFB260:
  74              		.loc 1 44 0
  75              		.cfi_startproc
  76              		@ args = 0, pretend = 0, frame = 0
  77              		@ frame_needed = 0, uses_anonymous_args = 0
  78              	.LVL4:
  79 0000 08B5     		push	{r3, lr}
  80              		.cfi_def_cfa_offset 8
  81              		.cfi_offset 3, -8
  82              		.cfi_offset 14, -4
  83              		.loc 1 46 0
  84 0002 0022     		movs	r2, #0
  85 0004 0349     		ldr	r1, .L6
  86 0006 FFF7FEFF 		bl	packet_init
  87              	.LVL5:
  88              		.loc 1 49 0
  89 000a 0348     		ldr	r0, .L6+4
  90              		.loc 1 50 0
  91 000c BDE80840 		pop	{r3, lr}
  92              		.cfi_restore 14
  93              		.cfi_restore 3
  94              		.cfi_def_cfa_offset 0
  95              		.loc 1 49 0
  96 0010 FFF7FEBF 		b	bldc_interface_init
  97              	.LVL6:
  98              	.L7:
  99              		.align	2
 100              	.L6:
 101 0014 00000000 		.word	process_packet
 102 0018 00000000 		.word	send_packet_bldc_interface
 103              		.cfi_endproc
 104              	.LFE260:
 105              		.size	bldc_interface_uart_init, .-bldc_interface_uart_init
 106              		.section	.text.bldc_interface_uart_process_byte,"ax",%progbits
 107              		.align	1
 108              		.p2align 4,,15
 109              		.global	bldc_interface_uart_process_byte
 110              		.syntax unified
 111              		.thumb
 112              		.thumb_func
 113              		.fpu fpv4-sp-d16
 114              		.type	bldc_interface_uart_process_byte, %function
ARM GAS  /tmp/ccsfnBTQ.s 			page 3


 115              	bldc_interface_uart_process_byte:
 116              	.LFB261:
 117              		.loc 1 59 0
 118              		.cfi_startproc
 119              		@ args = 0, pretend = 0, frame = 0
 120              		@ frame_needed = 0, uses_anonymous_args = 0
 121              		@ link register save eliminated.
 122              	.LVL7:
 123              		.loc 1 60 0
 124 0000 0021     		movs	r1, #0
 125 0002 FFF7FEBF 		b	packet_process_byte
 126              	.LVL8:
 127              		.cfi_endproc
 128              	.LFE261:
 129              		.size	bldc_interface_uart_process_byte, .-bldc_interface_uart_process_byte
 130 0006 00BF     		.section	.text.bldc_interface_uart_run_timer,"ax",%progbits
 131              		.align	1
 132              		.p2align 4,,15
 133              		.global	bldc_interface_uart_run_timer
 134              		.syntax unified
 135              		.thumb
 136              		.thumb_func
 137              		.fpu fpv4-sp-d16
 138              		.type	bldc_interface_uart_run_timer, %function
 139              	bldc_interface_uart_run_timer:
 140              	.LFB262:
 141              		.loc 1 67 0
 142              		.cfi_startproc
 143              		@ args = 0, pretend = 0, frame = 0
 144              		@ frame_needed = 0, uses_anonymous_args = 0
 145              		@ link register save eliminated.
 146              		.loc 1 68 0
 147 0000 FFF7FEBF 		b	packet_timerfunc
 148              	.LVL9:
 149              		.cfi_endproc
 150              	.LFE262:
 151              		.size	bldc_interface_uart_run_timer, .-bldc_interface_uart_run_timer
 152              		.text
 153              	.Letext0:
 154              		.file 2 "/usr/arm-none-eabi/include/machine/_default_types.h"
 155              		.file 3 "/usr/arm-none-eabi/include/sys/_stdint.h"
 156              		.file 4 "/usr/lib/gcc/arm-none-eabi/7.3.1/include/stddef.h"
 157              		.file 5 "ChibiOS_3.0.2/os/rt/ports/ARMCMx/compilers/GCC/chtypes.h"
 158              		.file 6 "ChibiOS_3.0.2/os/rt/include/chsystypes.h"
 159              		.file 7 "ChibiOS_3.0.2/os/rt/include/chschd.h"
 160              		.file 8 "ChibiOS_3.0.2/os/ext/CMSIS/include/core_cm4.h"
 161              		.file 9 "ChibiOS_3.0.2/os/ext/CMSIS/ST/system_stm32f4xx.h"
 162              		.file 10 "ChibiOS_3.0.2/os/ext/CMSIS/ST/stm32f407xx.h"
 163              		.file 11 "ChibiOS_3.0.2/os/rt/ports/ARMCMx/chcore.h"
 164              		.file 12 "ChibiOS_3.0.2/os/rt/ports/ARMCMx/chcore_v7m.h"
 165              		.file 13 "ChibiOS_3.0.2/os/rt/include/chtm.h"
 166              		.file 14 "ChibiOS_3.0.2/os/rt/include/chsem.h"
 167              		.file 15 "ChibiOS_3.0.2/os/rt/include/chmtx.h"
 168              		.file 16 "ChibiOS_3.0.2/os/rt/include/chregistry.h"
 169              		.file 17 "ChibiOS_3.0.2/os/rt/include/chqueues.h"
 170              		.file 18 "ChibiOS_3.0.2/os/hal/ports/STM32/STM32F4xx/stm32_dma.h"
 171              		.file 19 "ChibiOS_3.0.2/os/hal/ports/STM32/LLD/GPIOv2/pal_lld.h"
ARM GAS  /tmp/ccsfnBTQ.s 			page 4


 172              		.file 20 "ChibiOS_3.0.2/os/hal/include/uart.h"
 173              		.file 21 "ChibiOS_3.0.2/os/hal/ports/STM32/LLD/USARTv1/uart_lld.h"
 174              		.file 22 "ChibiOS_3.0.2/os/hal/include/usb.h"
 175              		.file 23 "ChibiOS_3.0.2/os/hal/ports/STM32/LLD/OTGv1/usb_lld.h"
 176              		.file 24 "ChibiOS_3.0.2/os/hal/ports/STM32/LLD/OTGv1/stm32_otg.h"
 177              		.file 25 "packet.h"
 178              		.file 26 "bldc_interface.h"
 179              		.section	.debug_info,"",%progbits
 180              	.Ldebug_info0:
 181 0000 3B1A0000 		.4byte	0x1a3b
 182 0004 0400     		.2byte	0x4
 183 0006 00000000 		.4byte	.Ldebug_abbrev0
 184 000a 04       		.byte	0x4
 185 000b 01       		.uleb128 0x1
 186 000c 680C0000 		.4byte	.LASF378
 187 0010 0C       		.byte	0xc
 188 0011 B5060000 		.4byte	.LASF379
 189 0015 B7020000 		.4byte	.LASF380
 190 0019 00000000 		.4byte	.Ldebug_ranges0+0
 191 001d 00000000 		.4byte	0
 192 0021 00000000 		.4byte	.Ldebug_line0
 193 0025 02       		.uleb128 0x2
 194 0026 01       		.byte	0x1
 195 0027 06       		.byte	0x6
 196 0028 30030000 		.4byte	.LASF0
 197 002c 03       		.uleb128 0x3
 198 002d A10B0000 		.4byte	.LASF3
 199 0031 02       		.byte	0x2
 200 0032 2B       		.byte	0x2b
 201 0033 37000000 		.4byte	0x37
 202 0037 02       		.uleb128 0x2
 203 0038 01       		.byte	0x1
 204 0039 08       		.byte	0x8
 205 003a ED0D0000 		.4byte	.LASF1
 206 003e 02       		.uleb128 0x2
 207 003f 02       		.byte	0x2
 208 0040 05       		.byte	0x5
 209 0041 03020000 		.4byte	.LASF2
 210 0045 03       		.uleb128 0x3
 211 0046 83040000 		.4byte	.LASF4
 212 004a 02       		.byte	0x2
 213 004b 39       		.byte	0x39
 214 004c 50000000 		.4byte	0x50
 215 0050 02       		.uleb128 0x2
 216 0051 02       		.byte	0x2
 217 0052 07       		.byte	0x7
 218 0053 650F0000 		.4byte	.LASF5
 219 0057 03       		.uleb128 0x3
 220 0058 AB060000 		.4byte	.LASF6
 221 005c 02       		.byte	0x2
 222 005d 4D       		.byte	0x4d
 223 005e 62000000 		.4byte	0x62
 224 0062 02       		.uleb128 0x2
 225 0063 04       		.byte	0x4
 226 0064 05       		.byte	0x5
 227 0065 8F0A0000 		.4byte	.LASF7
 228 0069 03       		.uleb128 0x3
ARM GAS  /tmp/ccsfnBTQ.s 			page 5


 229 006a 4F070000 		.4byte	.LASF8
 230 006e 02       		.byte	0x2
 231 006f 4F       		.byte	0x4f
 232 0070 74000000 		.4byte	0x74
 233 0074 02       		.uleb128 0x2
 234 0075 04       		.byte	0x4
 235 0076 07       		.byte	0x7
 236 0077 2B0C0000 		.4byte	.LASF9
 237 007b 02       		.uleb128 0x2
 238 007c 08       		.byte	0x8
 239 007d 05       		.byte	0x5
 240 007e 20070000 		.4byte	.LASF10
 241 0082 03       		.uleb128 0x3
 242 0083 C3050000 		.4byte	.LASF11
 243 0087 02       		.byte	0x2
 244 0088 69       		.byte	0x69
 245 0089 8D000000 		.4byte	0x8d
 246 008d 02       		.uleb128 0x2
 247 008e 08       		.byte	0x8
 248 008f 07       		.byte	0x7
 249 0090 06040000 		.4byte	.LASF12
 250 0094 04       		.uleb128 0x4
 251 0095 04       		.byte	0x4
 252 0096 05       		.byte	0x5
 253 0097 696E7400 		.ascii	"int\000"
 254 009b 02       		.uleb128 0x2
 255 009c 04       		.byte	0x4
 256 009d 07       		.byte	0x7
 257 009e 28010000 		.4byte	.LASF13
 258 00a2 03       		.uleb128 0x3
 259 00a3 5A070000 		.4byte	.LASF14
 260 00a7 03       		.byte	0x3
 261 00a8 18       		.byte	0x18
 262 00a9 2C000000 		.4byte	0x2c
 263 00ad 05       		.uleb128 0x5
 264 00ae A2000000 		.4byte	0xa2
 265 00b2 03       		.uleb128 0x3
 266 00b3 DB090000 		.4byte	.LASF15
 267 00b7 03       		.byte	0x3
 268 00b8 24       		.byte	0x24
 269 00b9 45000000 		.4byte	0x45
 270 00bd 06       		.uleb128 0x6
 271 00be B2000000 		.4byte	0xb2
 272 00c2 03       		.uleb128 0x3
 273 00c3 810D0000 		.4byte	.LASF16
 274 00c7 03       		.byte	0x3
 275 00c8 2C       		.byte	0x2c
 276 00c9 57000000 		.4byte	0x57
 277 00cd 06       		.uleb128 0x6
 278 00ce C2000000 		.4byte	0xc2
 279 00d2 03       		.uleb128 0x3
 280 00d3 53030000 		.4byte	.LASF17
 281 00d7 03       		.byte	0x3
 282 00d8 30       		.byte	0x30
 283 00d9 69000000 		.4byte	0x69
 284 00dd 06       		.uleb128 0x6
 285 00de D2000000 		.4byte	0xd2
ARM GAS  /tmp/ccsfnBTQ.s 			page 6


 286 00e2 03       		.uleb128 0x3
 287 00e3 400B0000 		.4byte	.LASF18
 288 00e7 03       		.byte	0x3
 289 00e8 3C       		.byte	0x3c
 290 00e9 82000000 		.4byte	0x82
 291 00ed 03       		.uleb128 0x3
 292 00ee 3C050000 		.4byte	.LASF19
 293 00f2 04       		.byte	0x4
 294 00f3 D8       		.byte	0xd8
 295 00f4 9B000000 		.4byte	0x9b
 296 00f8 06       		.uleb128 0x6
 297 00f9 ED000000 		.4byte	0xed
 298 00fd 02       		.uleb128 0x2
 299 00fe 08       		.byte	0x8
 300 00ff 04       		.byte	0x4
 301 0100 30090000 		.4byte	.LASF20
 302 0104 03       		.uleb128 0x3
 303 0105 260A0000 		.4byte	.LASF21
 304 0109 05       		.byte	0x5
 305 010a 45       		.byte	0x45
 306 010b D2000000 		.4byte	0xd2
 307 010f 03       		.uleb128 0x3
 308 0110 45030000 		.4byte	.LASF22
 309 0114 05       		.byte	0x5
 310 0115 48       		.byte	0x48
 311 0116 A2000000 		.4byte	0xa2
 312 011a 03       		.uleb128 0x3
 313 011b F7060000 		.4byte	.LASF23
 314 011f 05       		.byte	0x5
 315 0120 49       		.byte	0x49
 316 0121 A2000000 		.4byte	0xa2
 317 0125 03       		.uleb128 0x3
 318 0126 230C0000 		.4byte	.LASF24
 319 012a 05       		.byte	0x5
 320 012b 4A       		.byte	0x4a
 321 012c A2000000 		.4byte	0xa2
 322 0130 03       		.uleb128 0x3
 323 0131 BE030000 		.4byte	.LASF25
 324 0135 05       		.byte	0x5
 325 0136 4C       		.byte	0x4c
 326 0137 D2000000 		.4byte	0xd2
 327 013b 03       		.uleb128 0x3
 328 013c 39080000 		.4byte	.LASF26
 329 0140 05       		.byte	0x5
 330 0141 4D       		.byte	0x4d
 331 0142 C2000000 		.4byte	0xc2
 332 0146 03       		.uleb128 0x3
 333 0147 77030000 		.4byte	.LASF27
 334 014b 05       		.byte	0x5
 335 014c 4F       		.byte	0x4f
 336 014d D2000000 		.4byte	0xd2
 337 0151 03       		.uleb128 0x3
 338 0152 8E040000 		.4byte	.LASF28
 339 0156 05       		.byte	0x5
 340 0157 51       		.byte	0x51
 341 0158 C2000000 		.4byte	0xc2
 342 015c 03       		.uleb128 0x3
ARM GAS  /tmp/ccsfnBTQ.s 			page 7


 343 015d 3A060000 		.4byte	.LASF29
 344 0161 06       		.byte	0x6
 345 0162 33       		.byte	0x33
 346 0163 D2000000 		.4byte	0xd2
 347 0167 03       		.uleb128 0x3
 348 0168 0C050000 		.4byte	.LASF30
 349 016c 06       		.byte	0x6
 350 016d 3F       		.byte	0x3f
 351 016e 72010000 		.4byte	0x172
 352 0172 07       		.uleb128 0x7
 353 0173 B7070000 		.4byte	.LASF50
 354 0177 44       		.byte	0x44
 355 0178 07       		.byte	0x7
 356 0179 C2       		.byte	0xc2
 357 017a 5F020000 		.4byte	0x25f
 358 017e 08       		.uleb128 0x8
 359 017f 2A0B0000 		.4byte	.LASF31
 360 0183 07       		.byte	0x7
 361 0184 C3       		.byte	0xc3
 362 0185 6A020000 		.4byte	0x26a
 363 0189 00       		.byte	0
 364 018a 08       		.uleb128 0x8
 365 018b 020B0000 		.4byte	.LASF32
 366 018f 07       		.byte	0x7
 367 0190 C5       		.byte	0xc5
 368 0191 6A020000 		.4byte	0x26a
 369 0195 04       		.byte	0x4
 370 0196 08       		.uleb128 0x8
 371 0197 7F000000 		.4byte	.LASF33
 372 019b 07       		.byte	0x7
 373 019c C7       		.byte	0xc7
 374 019d 30010000 		.4byte	0x130
 375 01a1 08       		.byte	0x8
 376 01a2 08       		.uleb128 0x8
 377 01a3 490B0000 		.4byte	.LASF34
 378 01a7 07       		.byte	0x7
 379 01a8 C8       		.byte	0xc8
 380 01a9 91050000 		.4byte	0x591
 381 01ad 0C       		.byte	0xc
 382 01ae 08       		.uleb128 0x8
 383 01af CF040000 		.4byte	.LASF35
 384 01b3 07       		.byte	0x7
 385 01b4 CA       		.byte	0xca
 386 01b5 6A020000 		.4byte	0x26a
 387 01b9 10       		.byte	0x10
 388 01ba 08       		.uleb128 0x8
 389 01bb 19060000 		.4byte	.LASF36
 390 01bf 07       		.byte	0x7
 391 01c0 CB       		.byte	0xcb
 392 01c1 6A020000 		.4byte	0x26a
 393 01c5 14       		.byte	0x14
 394 01c6 08       		.uleb128 0x8
 395 01c7 5F060000 		.4byte	.LASF37
 396 01cb 07       		.byte	0x7
 397 01cc D2       		.byte	0xd2
 398 01cd D6070000 		.4byte	0x7d6
 399 01d1 18       		.byte	0x18
ARM GAS  /tmp/ccsfnBTQ.s 			page 8


 400 01d2 08       		.uleb128 0x8
 401 01d3 38070000 		.4byte	.LASF38
 402 01d7 07       		.byte	0x7
 403 01d8 DD       		.byte	0xdd
 404 01d9 1A010000 		.4byte	0x11a
 405 01dd 1C       		.byte	0x1c
 406 01de 08       		.uleb128 0x8
 407 01df 86080000 		.4byte	.LASF39
 408 01e3 07       		.byte	0x7
 409 01e4 E1       		.byte	0xe1
 410 01e5 0F010000 		.4byte	0x10f
 411 01e9 1D       		.byte	0x1d
 412 01ea 08       		.uleb128 0x8
 413 01eb 3A0E0000 		.4byte	.LASF40
 414 01ef 07       		.byte	0x7
 415 01f0 E6       		.byte	0xe6
 416 01f1 25010000 		.4byte	0x125
 417 01f5 1E       		.byte	0x1e
 418 01f6 09       		.uleb128 0x9
 419 01f7 705F7500 		.ascii	"p_u\000"
 420 01fb 07       		.byte	0x7
 421 01fc 3101     		.2byte	0x131
 422 01fe 11070000 		.4byte	0x711
 423 0202 20       		.byte	0x20
 424 0203 0A       		.uleb128 0xa
 425 0204 69010000 		.4byte	.LASF41
 426 0208 07       		.byte	0x7
 427 0209 3601     		.2byte	0x136
 428 020b 70020000 		.4byte	0x270
 429 020f 24       		.byte	0x24
 430 0210 0A       		.uleb128 0xa
 431 0211 12010000 		.4byte	.LASF42
 432 0215 07       		.byte	0x7
 433 0216 3C01     		.2byte	0x13c
 434 0218 94020000 		.4byte	0x294
 435 021c 28       		.byte	0x28
 436 021d 0A       		.uleb128 0xa
 437 021e 97090000 		.4byte	.LASF43
 438 0222 07       		.byte	0x7
 439 0223 4001     		.2byte	0x140
 440 0225 3B010000 		.4byte	0x13b
 441 0229 30       		.byte	0x30
 442 022a 0A       		.uleb128 0xa
 443 022b BE0E0000 		.4byte	.LASF44
 444 022f 07       		.byte	0x7
 445 0230 4601     		.2byte	0x146
 446 0232 46010000 		.4byte	0x146
 447 0236 34       		.byte	0x34
 448 0237 0A       		.uleb128 0xa
 449 0238 4D0C0000 		.4byte	.LASF45
 450 023c 07       		.byte	0x7
 451 023d 4D01     		.2byte	0x14d
 452 023f D0070000 		.4byte	0x7d0
 453 0243 38       		.byte	0x38
 454 0244 0A       		.uleb128 0xa
 455 0245 450A0000 		.4byte	.LASF46
 456 0249 07       		.byte	0x7
ARM GAS  /tmp/ccsfnBTQ.s 			page 9


 457 024a 5101     		.2byte	0x151
 458 024c 30010000 		.4byte	0x130
 459 0250 3C       		.byte	0x3c
 460 0251 0A       		.uleb128 0xa
 461 0252 9B070000 		.4byte	.LASF47
 462 0256 07       		.byte	0x7
 463 0257 5801     		.2byte	0x158
 464 0259 47030000 		.4byte	0x347
 465 025d 40       		.byte	0x40
 466 025e 00       		.byte	0
 467 025f 03       		.uleb128 0x3
 468 0260 56000000 		.4byte	.LASF48
 469 0264 06       		.byte	0x6
 470 0265 44       		.byte	0x44
 471 0266 6A020000 		.4byte	0x26a
 472 026a 0B       		.uleb128 0xb
 473 026b 04       		.byte	0x4
 474 026c 67010000 		.4byte	0x167
 475 0270 03       		.uleb128 0x3
 476 0271 4C010000 		.4byte	.LASF49
 477 0275 06       		.byte	0x6
 478 0276 49       		.byte	0x49
 479 0277 7B020000 		.4byte	0x27b
 480 027b 07       		.uleb128 0x7
 481 027c 0D000000 		.4byte	.LASF51
 482 0280 04       		.byte	0x4
 483 0281 07       		.byte	0x7
 484 0282 B0       		.byte	0xb0
 485 0283 94020000 		.4byte	0x294
 486 0287 08       		.uleb128 0x8
 487 0288 2A0B0000 		.4byte	.LASF31
 488 028c 07       		.byte	0x7
 489 028d B1       		.byte	0xb1
 490 028e 6A020000 		.4byte	0x26a
 491 0292 00       		.byte	0
 492 0293 00       		.byte	0
 493 0294 03       		.uleb128 0x3
 494 0295 BF040000 		.4byte	.LASF52
 495 0299 06       		.byte	0x6
 496 029a 50       		.byte	0x50
 497 029b 9F020000 		.4byte	0x29f
 498 029f 07       		.uleb128 0x7
 499 02a0 FD070000 		.4byte	.LASF53
 500 02a4 08       		.byte	0x8
 501 02a5 07       		.byte	0x7
 502 02a6 B7       		.byte	0xb7
 503 02a7 C4020000 		.4byte	0x2c4
 504 02ab 08       		.uleb128 0x8
 505 02ac 2A0B0000 		.4byte	.LASF31
 506 02b0 07       		.byte	0x7
 507 02b1 B8       		.byte	0xb8
 508 02b2 6A020000 		.4byte	0x26a
 509 02b6 00       		.byte	0
 510 02b7 08       		.uleb128 0x8
 511 02b8 020B0000 		.4byte	.LASF32
 512 02bc 07       		.byte	0x7
 513 02bd B9       		.byte	0xb9
ARM GAS  /tmp/ccsfnBTQ.s 			page 10


 514 02be 6A020000 		.4byte	0x26a
 515 02c2 04       		.byte	0x4
 516 02c3 00       		.byte	0
 517 02c4 03       		.uleb128 0x3
 518 02c5 100E0000 		.4byte	.LASF54
 519 02c9 06       		.byte	0x6
 520 02ca 57       		.byte	0x57
 521 02cb CF020000 		.4byte	0x2cf
 522 02cf 0C       		.uleb128 0xc
 523 02d0 0D020000 		.4byte	.LASF55
 524 02d4 1C       		.byte	0x1c
 525 02d5 07       		.byte	0x7
 526 02d6 9001     		.2byte	0x190
 527 02d8 2B030000 		.4byte	0x32b
 528 02dc 0A       		.uleb128 0xa
 529 02dd 8D100000 		.4byte	.LASF56
 530 02e1 07       		.byte	0x7
 531 02e2 9101     		.2byte	0x191
 532 02e4 94020000 		.4byte	0x294
 533 02e8 00       		.byte	0
 534 02e9 0A       		.uleb128 0xa
 535 02ea 83030000 		.4byte	.LASF57
 536 02ee 07       		.byte	0x7
 537 02ef 9201     		.2byte	0x192
 538 02f1 30010000 		.4byte	0x130
 539 02f5 08       		.byte	0x8
 540 02f6 0A       		.uleb128 0xa
 541 02f7 780F0000 		.4byte	.LASF58
 542 02fb 07       		.byte	0x7
 543 02fc 9401     		.2byte	0x194
 544 02fe 91050000 		.4byte	0x591
 545 0302 0C       		.byte	0xc
 546 0303 0A       		.uleb128 0xa
 547 0304 31080000 		.4byte	.LASF59
 548 0308 07       		.byte	0x7
 549 0309 9701     		.2byte	0x197
 550 030b 6A020000 		.4byte	0x26a
 551 030f 10       		.byte	0x10
 552 0310 0A       		.uleb128 0xa
 553 0311 5B090000 		.4byte	.LASF60
 554 0315 07       		.byte	0x7
 555 0316 9801     		.2byte	0x198
 556 0318 6A020000 		.4byte	0x26a
 557 031c 14       		.byte	0x14
 558 031d 0A       		.uleb128 0xa
 559 031e 720A0000 		.4byte	.LASF61
 560 0322 07       		.byte	0x7
 561 0323 9B01     		.2byte	0x19b
 562 0325 6A020000 		.4byte	0x26a
 563 0329 18       		.byte	0x18
 564 032a 00       		.byte	0
 565 032b 03       		.uleb128 0x3
 566 032c AE020000 		.4byte	.LASF62
 567 0330 06       		.byte	0x6
 568 0331 5C       		.byte	0x5c
 569 0332 36030000 		.4byte	0x336
 570 0336 0B       		.uleb128 0xb
ARM GAS  /tmp/ccsfnBTQ.s 			page 11


 571 0337 04       		.byte	0x4
 572 0338 3C030000 		.4byte	0x33c
 573 033c 0D       		.uleb128 0xd
 574 033d 47030000 		.4byte	0x347
 575 0341 0E       		.uleb128 0xe
 576 0342 47030000 		.4byte	0x347
 577 0346 00       		.byte	0
 578 0347 0F       		.uleb128 0xf
 579 0348 04       		.byte	0x4
 580 0349 03       		.uleb128 0x3
 581 034a 93080000 		.4byte	.LASF63
 582 034e 06       		.byte	0x6
 583 034f 61       		.byte	0x61
 584 0350 54030000 		.4byte	0x354
 585 0354 0C       		.uleb128 0xc
 586 0355 D5030000 		.4byte	.LASF64
 587 0359 14       		.byte	0x14
 588 035a 07       		.byte	0x7
 589 035b 6B01     		.2byte	0x16b
 590 035d A3030000 		.4byte	0x3a3
 591 0361 0A       		.uleb128 0xa
 592 0362 C90E0000 		.4byte	.LASF65
 593 0366 07       		.byte	0x7
 594 0367 6C01     		.2byte	0x16c
 595 0369 ED070000 		.4byte	0x7ed
 596 036d 00       		.byte	0
 597 036e 0A       		.uleb128 0xa
 598 036f DA0F0000 		.4byte	.LASF66
 599 0373 07       		.byte	0x7
 600 0374 6D01     		.2byte	0x16d
 601 0376 ED070000 		.4byte	0x7ed
 602 037a 04       		.byte	0x4
 603 037b 0A       		.uleb128 0xa
 604 037c A2060000 		.4byte	.LASF67
 605 0380 07       		.byte	0x7
 606 0381 6E01     		.2byte	0x16e
 607 0383 5C010000 		.4byte	0x15c
 608 0387 08       		.byte	0x8
 609 0388 0A       		.uleb128 0xa
 610 0389 B80F0000 		.4byte	.LASF68
 611 038d 07       		.byte	0x7
 612 038e 6F01     		.2byte	0x16f
 613 0390 2B030000 		.4byte	0x32b
 614 0394 0C       		.byte	0xc
 615 0395 0A       		.uleb128 0xa
 616 0396 9A030000 		.4byte	.LASF69
 617 039a 07       		.byte	0x7
 618 039b 7101     		.2byte	0x171
 619 039d 47030000 		.4byte	0x347
 620 03a1 10       		.byte	0x10
 621 03a2 00       		.byte	0
 622 03a3 03       		.uleb128 0x3
 623 03a4 100A0000 		.4byte	.LASF70
 624 03a8 06       		.byte	0x6
 625 03a9 66       		.byte	0x66
 626 03aa AE030000 		.4byte	0x3ae
 627 03ae 0C       		.uleb128 0xc
ARM GAS  /tmp/ccsfnBTQ.s 			page 12


 628 03af E0040000 		.4byte	.LASF71
 629 03b3 10       		.byte	0x10
 630 03b4 07       		.byte	0x7
 631 03b5 7B01     		.2byte	0x17b
 632 03b7 F0030000 		.4byte	0x3f0
 633 03bb 0A       		.uleb128 0xa
 634 03bc C90E0000 		.4byte	.LASF65
 635 03c0 07       		.byte	0x7
 636 03c1 7C01     		.2byte	0x17c
 637 03c3 ED070000 		.4byte	0x7ed
 638 03c7 00       		.byte	0
 639 03c8 0A       		.uleb128 0xa
 640 03c9 DA0F0000 		.4byte	.LASF66
 641 03cd 07       		.byte	0x7
 642 03ce 7E01     		.2byte	0x17e
 643 03d0 ED070000 		.4byte	0x7ed
 644 03d4 04       		.byte	0x4
 645 03d5 0A       		.uleb128 0xa
 646 03d6 A2060000 		.4byte	.LASF67
 647 03da 07       		.byte	0x7
 648 03db 8001     		.2byte	0x180
 649 03dd 5C010000 		.4byte	0x15c
 650 03e1 08       		.byte	0x8
 651 03e2 0A       		.uleb128 0xa
 652 03e3 CB060000 		.4byte	.LASF72
 653 03e7 07       		.byte	0x7
 654 03e8 8801     		.2byte	0x188
 655 03ea 5C010000 		.4byte	0x15c
 656 03ee 0C       		.byte	0xc
 657 03ef 00       		.byte	0
 658 03f0 03       		.uleb128 0x3
 659 03f1 EE070000 		.4byte	.LASF73
 660 03f5 06       		.byte	0x6
 661 03f6 6B       		.byte	0x6b
 662 03f7 FB030000 		.4byte	0x3fb
 663 03fb 0C       		.uleb128 0xc
 664 03fc F1020000 		.4byte	.LASF74
 665 0400 04       		.byte	0x4
 666 0401 07       		.byte	0x7
 667 0402 A201     		.2byte	0x1a2
 668 0404 16040000 		.4byte	0x416
 669 0408 0A       		.uleb128 0xa
 670 0409 490E0000 		.4byte	.LASF75
 671 040d 07       		.byte	0x7
 672 040e AA01     		.2byte	0x1aa
 673 0410 DC070000 		.4byte	0x7dc
 674 0414 00       		.byte	0
 675 0415 00       		.byte	0
 676 0416 03       		.uleb128 0x3
 677 0417 DE0E0000 		.4byte	.LASF76
 678 041b 06       		.byte	0x6
 679 041c 70       		.byte	0x70
 680 041d 21040000 		.4byte	0x421
 681 0421 10       		.uleb128 0x10
 682 0422 F80A0000 		.4byte	.LASF77
 683 0426 D801     		.2byte	0x1d8
 684 0428 07       		.byte	0x7
ARM GAS  /tmp/ccsfnBTQ.s 			page 13


 685 0429 C201     		.2byte	0x1c2
 686 042b 7D040000 		.4byte	0x47d
 687 042f 0A       		.uleb128 0xa
 688 0430 4F0B0000 		.4byte	.LASF78
 689 0434 07       		.byte	0x7
 690 0435 C601     		.2byte	0x1c6
 691 0437 C4020000 		.4byte	0x2c4
 692 043b 00       		.byte	0
 693 043c 0A       		.uleb128 0xa
 694 043d EF010000 		.4byte	.LASF79
 695 0441 07       		.byte	0x7
 696 0442 CA01     		.2byte	0x1ca
 697 0444 A3030000 		.4byte	0x3a3
 698 0448 1C       		.byte	0x1c
 699 0449 09       		.uleb128 0x9
 700 044a 64626700 		.ascii	"dbg\000"
 701 044e 07       		.byte	0x7
 702 044f CE01     		.2byte	0x1ce
 703 0451 F0030000 		.4byte	0x3f0
 704 0455 2C       		.byte	0x2c
 705 0456 0A       		.uleb128 0xa
 706 0457 B5090000 		.4byte	.LASF80
 707 045b 07       		.byte	0x7
 708 045c D201     		.2byte	0x1d2
 709 045e 67010000 		.4byte	0x167
 710 0462 30       		.byte	0x30
 711 0463 09       		.uleb128 0x9
 712 0464 746D00   		.ascii	"tm\000"
 713 0467 07       		.byte	0x7
 714 0468 D701     		.2byte	0x1d7
 715 046a 06070000 		.4byte	0x706
 716 046e 74       		.byte	0x74
 717 046f 0A       		.uleb128 0xa
 718 0470 1B020000 		.4byte	.LASF81
 719 0474 07       		.byte	0x7
 720 0475 E301     		.2byte	0x1e3
 721 0477 F3070000 		.4byte	0x7f3
 722 047b 78       		.byte	0x78
 723 047c 00       		.byte	0
 724 047d 11       		.uleb128 0x11
 725 047e B80A0000 		.4byte	.LASF82
 726 0482 08       		.byte	0x8
 727 0483 A706     		.2byte	0x6a7
 728 0485 CD000000 		.4byte	0xcd
 729 0489 12       		.uleb128 0x12
 730 048a 24000000 		.4byte	.LASF83
 731 048e 09       		.byte	0x9
 732 048f 4C       		.byte	0x4c
 733 0490 D2000000 		.4byte	0xd2
 734 0494 13       		.uleb128 0x13
 735 0495 18       		.byte	0x18
 736 0496 0A       		.byte	0xa
 737 0497 6B01     		.2byte	0x16b
 738 0499 EB040000 		.4byte	0x4eb
 739 049d 09       		.uleb128 0x9
 740 049e 435200   		.ascii	"CR\000"
 741 04a1 0A       		.byte	0xa
ARM GAS  /tmp/ccsfnBTQ.s 			page 14


 742 04a2 6D01     		.2byte	0x16d
 743 04a4 DD000000 		.4byte	0xdd
 744 04a8 00       		.byte	0
 745 04a9 0A       		.uleb128 0xa
 746 04aa 2A020000 		.4byte	.LASF84
 747 04ae 0A       		.byte	0xa
 748 04af 6E01     		.2byte	0x16e
 749 04b1 DD000000 		.4byte	0xdd
 750 04b5 04       		.byte	0x4
 751 04b6 09       		.uleb128 0x9
 752 04b7 50415200 		.ascii	"PAR\000"
 753 04bb 0A       		.byte	0xa
 754 04bc 6F01     		.2byte	0x16f
 755 04be DD000000 		.4byte	0xdd
 756 04c2 08       		.byte	0x8
 757 04c3 0A       		.uleb128 0xa
 758 04c4 0B060000 		.4byte	.LASF85
 759 04c8 0A       		.byte	0xa
 760 04c9 7001     		.2byte	0x170
 761 04cb DD000000 		.4byte	0xdd
 762 04cf 0C       		.byte	0xc
 763 04d0 0A       		.uleb128 0xa
 764 04d1 DB080000 		.4byte	.LASF86
 765 04d5 0A       		.byte	0xa
 766 04d6 7101     		.2byte	0x171
 767 04d8 DD000000 		.4byte	0xdd
 768 04dc 10       		.byte	0x10
 769 04dd 09       		.uleb128 0x9
 770 04de 46435200 		.ascii	"FCR\000"
 771 04e2 0A       		.byte	0xa
 772 04e3 7201     		.2byte	0x172
 773 04e5 DD000000 		.4byte	0xdd
 774 04e9 14       		.byte	0x14
 775 04ea 00       		.byte	0
 776 04eb 14       		.uleb128 0x14
 777 04ec 08090000 		.4byte	.LASF87
 778 04f0 0A       		.byte	0xa
 779 04f1 7301     		.2byte	0x173
 780 04f3 94040000 		.4byte	0x494
 781 04f7 13       		.uleb128 0x13
 782 04f8 1C       		.byte	0x1c
 783 04f9 0A       		.byte	0xa
 784 04fa 0903     		.2byte	0x309
 785 04fc 5A050000 		.4byte	0x55a
 786 0500 09       		.uleb128 0x9
 787 0501 535200   		.ascii	"SR\000"
 788 0504 0A       		.byte	0xa
 789 0505 0B03     		.2byte	0x30b
 790 0507 DD000000 		.4byte	0xdd
 791 050b 00       		.byte	0
 792 050c 09       		.uleb128 0x9
 793 050d 445200   		.ascii	"DR\000"
 794 0510 0A       		.byte	0xa
 795 0511 0C03     		.2byte	0x30c
 796 0513 DD000000 		.4byte	0xdd
 797 0517 04       		.byte	0x4
 798 0518 09       		.uleb128 0x9
ARM GAS  /tmp/ccsfnBTQ.s 			page 15


 799 0519 42525200 		.ascii	"BRR\000"
 800 051d 0A       		.byte	0xa
 801 051e 0D03     		.2byte	0x30d
 802 0520 DD000000 		.4byte	0xdd
 803 0524 08       		.byte	0x8
 804 0525 09       		.uleb128 0x9
 805 0526 43523100 		.ascii	"CR1\000"
 806 052a 0A       		.byte	0xa
 807 052b 0E03     		.2byte	0x30e
 808 052d DD000000 		.4byte	0xdd
 809 0531 0C       		.byte	0xc
 810 0532 09       		.uleb128 0x9
 811 0533 43523200 		.ascii	"CR2\000"
 812 0537 0A       		.byte	0xa
 813 0538 0F03     		.2byte	0x30f
 814 053a DD000000 		.4byte	0xdd
 815 053e 10       		.byte	0x10
 816 053f 09       		.uleb128 0x9
 817 0540 43523300 		.ascii	"CR3\000"
 818 0544 0A       		.byte	0xa
 819 0545 1003     		.2byte	0x310
 820 0547 DD000000 		.4byte	0xdd
 821 054b 14       		.byte	0x14
 822 054c 0A       		.uleb128 0xa
 823 054d 72030000 		.4byte	.LASF88
 824 0551 0A       		.byte	0xa
 825 0552 1103     		.2byte	0x311
 826 0554 DD000000 		.4byte	0xdd
 827 0558 18       		.byte	0x18
 828 0559 00       		.byte	0
 829 055a 14       		.uleb128 0x14
 830 055b FD050000 		.4byte	.LASF89
 831 055f 0A       		.byte	0xa
 832 0560 1203     		.2byte	0x312
 833 0562 F7040000 		.4byte	0x4f7
 834 0566 15       		.uleb128 0x15
 835 0567 DD000000 		.4byte	0xdd
 836 056b 76050000 		.4byte	0x576
 837 056f 16       		.uleb128 0x16
 838 0570 9B000000 		.4byte	0x9b
 839 0574 0E       		.byte	0xe
 840 0575 00       		.byte	0
 841 0576 06       		.uleb128 0x6
 842 0577 66050000 		.4byte	0x566
 843 057b 03       		.uleb128 0x3
 844 057c 6E000000 		.4byte	.LASF90
 845 0580 0B       		.byte	0xb
 846 0581 65       		.byte	0x65
 847 0582 47030000 		.4byte	0x347
 848 0586 03       		.uleb128 0x3
 849 0587 7E0F0000 		.4byte	.LASF91
 850 058b 0B       		.byte	0xb
 851 058c 6D       		.byte	0x6d
 852 058d E2000000 		.4byte	0xe2
 853 0591 07       		.uleb128 0x7
 854 0592 56080000 		.4byte	.LASF92
 855 0596 04       		.byte	0x4
ARM GAS  /tmp/ccsfnBTQ.s 			page 16


 856 0597 0B       		.byte	0xb
 857 0598 89       		.byte	0x89
 858 0599 AA050000 		.4byte	0x5aa
 859 059d 17       		.uleb128 0x17
 860 059e 72313300 		.ascii	"r13\000"
 861 05a2 0B       		.byte	0xb
 862 05a3 8A       		.byte	0x8a
 863 05a4 EB060000 		.4byte	0x6eb
 864 05a8 00       		.byte	0
 865 05a9 00       		.byte	0
 866 05aa 07       		.uleb128 0x7
 867 05ab 980A0000 		.4byte	.LASF93
 868 05af 64       		.byte	0x64
 869 05b0 0C       		.byte	0xc
 870 05b1 F4       		.byte	0xf4
 871 05b2 EB060000 		.4byte	0x6eb
 872 05b6 17       		.uleb128 0x17
 873 05b7 73313600 		.ascii	"s16\000"
 874 05bb 0C       		.byte	0xc
 875 05bc F6       		.byte	0xf6
 876 05bd 7B050000 		.4byte	0x57b
 877 05c1 00       		.byte	0
 878 05c2 17       		.uleb128 0x17
 879 05c3 73313700 		.ascii	"s17\000"
 880 05c7 0C       		.byte	0xc
 881 05c8 F7       		.byte	0xf7
 882 05c9 7B050000 		.4byte	0x57b
 883 05cd 04       		.byte	0x4
 884 05ce 17       		.uleb128 0x17
 885 05cf 73313800 		.ascii	"s18\000"
 886 05d3 0C       		.byte	0xc
 887 05d4 F8       		.byte	0xf8
 888 05d5 7B050000 		.4byte	0x57b
 889 05d9 08       		.byte	0x8
 890 05da 17       		.uleb128 0x17
 891 05db 73313900 		.ascii	"s19\000"
 892 05df 0C       		.byte	0xc
 893 05e0 F9       		.byte	0xf9
 894 05e1 7B050000 		.4byte	0x57b
 895 05e5 0C       		.byte	0xc
 896 05e6 17       		.uleb128 0x17
 897 05e7 73323000 		.ascii	"s20\000"
 898 05eb 0C       		.byte	0xc
 899 05ec FA       		.byte	0xfa
 900 05ed 7B050000 		.4byte	0x57b
 901 05f1 10       		.byte	0x10
 902 05f2 17       		.uleb128 0x17
 903 05f3 73323100 		.ascii	"s21\000"
 904 05f7 0C       		.byte	0xc
 905 05f8 FB       		.byte	0xfb
 906 05f9 7B050000 		.4byte	0x57b
 907 05fd 14       		.byte	0x14
 908 05fe 17       		.uleb128 0x17
 909 05ff 73323200 		.ascii	"s22\000"
 910 0603 0C       		.byte	0xc
 911 0604 FC       		.byte	0xfc
 912 0605 7B050000 		.4byte	0x57b
ARM GAS  /tmp/ccsfnBTQ.s 			page 17


 913 0609 18       		.byte	0x18
 914 060a 17       		.uleb128 0x17
 915 060b 73323300 		.ascii	"s23\000"
 916 060f 0C       		.byte	0xc
 917 0610 FD       		.byte	0xfd
 918 0611 7B050000 		.4byte	0x57b
 919 0615 1C       		.byte	0x1c
 920 0616 17       		.uleb128 0x17
 921 0617 73323400 		.ascii	"s24\000"
 922 061b 0C       		.byte	0xc
 923 061c FE       		.byte	0xfe
 924 061d 7B050000 		.4byte	0x57b
 925 0621 20       		.byte	0x20
 926 0622 17       		.uleb128 0x17
 927 0623 73323500 		.ascii	"s25\000"
 928 0627 0C       		.byte	0xc
 929 0628 FF       		.byte	0xff
 930 0629 7B050000 		.4byte	0x57b
 931 062d 24       		.byte	0x24
 932 062e 09       		.uleb128 0x9
 933 062f 73323600 		.ascii	"s26\000"
 934 0633 0C       		.byte	0xc
 935 0634 0001     		.2byte	0x100
 936 0636 7B050000 		.4byte	0x57b
 937 063a 28       		.byte	0x28
 938 063b 09       		.uleb128 0x9
 939 063c 73323700 		.ascii	"s27\000"
 940 0640 0C       		.byte	0xc
 941 0641 0101     		.2byte	0x101
 942 0643 7B050000 		.4byte	0x57b
 943 0647 2C       		.byte	0x2c
 944 0648 09       		.uleb128 0x9
 945 0649 73323800 		.ascii	"s28\000"
 946 064d 0C       		.byte	0xc
 947 064e 0201     		.2byte	0x102
 948 0650 7B050000 		.4byte	0x57b
 949 0654 30       		.byte	0x30
 950 0655 09       		.uleb128 0x9
 951 0656 73323900 		.ascii	"s29\000"
 952 065a 0C       		.byte	0xc
 953 065b 0301     		.2byte	0x103
 954 065d 7B050000 		.4byte	0x57b
 955 0661 34       		.byte	0x34
 956 0662 09       		.uleb128 0x9
 957 0663 73333000 		.ascii	"s30\000"
 958 0667 0C       		.byte	0xc
 959 0668 0401     		.2byte	0x104
 960 066a 7B050000 		.4byte	0x57b
 961 066e 38       		.byte	0x38
 962 066f 09       		.uleb128 0x9
 963 0670 73333100 		.ascii	"s31\000"
 964 0674 0C       		.byte	0xc
 965 0675 0501     		.2byte	0x105
 966 0677 7B050000 		.4byte	0x57b
 967 067b 3C       		.byte	0x3c
 968 067c 09       		.uleb128 0x9
 969 067d 723400   		.ascii	"r4\000"
ARM GAS  /tmp/ccsfnBTQ.s 			page 18


 970 0680 0C       		.byte	0xc
 971 0681 0701     		.2byte	0x107
 972 0683 7B050000 		.4byte	0x57b
 973 0687 40       		.byte	0x40
 974 0688 09       		.uleb128 0x9
 975 0689 723500   		.ascii	"r5\000"
 976 068c 0C       		.byte	0xc
 977 068d 0801     		.2byte	0x108
 978 068f 7B050000 		.4byte	0x57b
 979 0693 44       		.byte	0x44
 980 0694 09       		.uleb128 0x9
 981 0695 723600   		.ascii	"r6\000"
 982 0698 0C       		.byte	0xc
 983 0699 0901     		.2byte	0x109
 984 069b 7B050000 		.4byte	0x57b
 985 069f 48       		.byte	0x48
 986 06a0 09       		.uleb128 0x9
 987 06a1 723700   		.ascii	"r7\000"
 988 06a4 0C       		.byte	0xc
 989 06a5 0A01     		.2byte	0x10a
 990 06a7 7B050000 		.4byte	0x57b
 991 06ab 4C       		.byte	0x4c
 992 06ac 09       		.uleb128 0x9
 993 06ad 723800   		.ascii	"r8\000"
 994 06b0 0C       		.byte	0xc
 995 06b1 0B01     		.2byte	0x10b
 996 06b3 7B050000 		.4byte	0x57b
 997 06b7 50       		.byte	0x50
 998 06b8 09       		.uleb128 0x9
 999 06b9 723900   		.ascii	"r9\000"
 1000 06bc 0C       		.byte	0xc
 1001 06bd 0C01     		.2byte	0x10c
 1002 06bf 7B050000 		.4byte	0x57b
 1003 06c3 54       		.byte	0x54
 1004 06c4 09       		.uleb128 0x9
 1005 06c5 72313000 		.ascii	"r10\000"
 1006 06c9 0C       		.byte	0xc
 1007 06ca 0D01     		.2byte	0x10d
 1008 06cc 7B050000 		.4byte	0x57b
 1009 06d0 58       		.byte	0x58
 1010 06d1 09       		.uleb128 0x9
 1011 06d2 72313100 		.ascii	"r11\000"
 1012 06d6 0C       		.byte	0xc
 1013 06d7 0E01     		.2byte	0x10e
 1014 06d9 7B050000 		.4byte	0x57b
 1015 06dd 5C       		.byte	0x5c
 1016 06de 09       		.uleb128 0x9
 1017 06df 6C7200   		.ascii	"lr\000"
 1018 06e2 0C       		.byte	0xc
 1019 06e3 0F01     		.2byte	0x10f
 1020 06e5 7B050000 		.4byte	0x57b
 1021 06e9 60       		.byte	0x60
 1022 06ea 00       		.byte	0
 1023 06eb 0B       		.uleb128 0xb
 1024 06ec 04       		.byte	0x4
 1025 06ed AA050000 		.4byte	0x5aa
 1026 06f1 18       		.uleb128 0x18
ARM GAS  /tmp/ccsfnBTQ.s 			page 19


 1027 06f2 04       		.byte	0x4
 1028 06f3 0D       		.byte	0xd
 1029 06f4 38       		.byte	0x38
 1030 06f5 06070000 		.4byte	0x706
 1031 06f9 08       		.uleb128 0x8
 1032 06fa 58050000 		.4byte	.LASF94
 1033 06fe 0D       		.byte	0xd
 1034 06ff 3C       		.byte	0x3c
 1035 0700 04010000 		.4byte	0x104
 1036 0704 00       		.byte	0
 1037 0705 00       		.byte	0
 1038 0706 03       		.uleb128 0x3
 1039 0707 45000000 		.4byte	.LASF95
 1040 070b 0D       		.byte	0xd
 1041 070c 3D       		.byte	0x3d
 1042 070d F1060000 		.4byte	0x6f1
 1043 0711 19       		.uleb128 0x19
 1044 0712 04       		.byte	0x4
 1045 0713 07       		.byte	0x7
 1046 0714 FA       		.byte	0xfa
 1047 0715 6E070000 		.4byte	0x76e
 1048 0719 1A       		.uleb128 0x1a
 1049 071a 43050000 		.4byte	.LASF96
 1050 071e 07       		.byte	0x7
 1051 071f 0101     		.2byte	0x101
 1052 0721 3B010000 		.4byte	0x13b
 1053 0725 1A       		.uleb128 0x1a
 1054 0726 95100000 		.4byte	.LASF97
 1055 072a 07       		.byte	0x7
 1056 072b 0801     		.2byte	0x108
 1057 072d 3B010000 		.4byte	0x13b
 1058 0731 1A       		.uleb128 0x1a
 1059 0732 DF010000 		.4byte	.LASF98
 1060 0736 07       		.byte	0x7
 1061 0737 0F01     		.2byte	0x10f
 1062 0739 47030000 		.4byte	0x347
 1063 073d 1A       		.uleb128 0x1a
 1064 073e EA0E0000 		.4byte	.LASF99
 1065 0742 07       		.byte	0x7
 1066 0743 1601     		.2byte	0x116
 1067 0745 6E070000 		.4byte	0x76e
 1068 0749 1A       		.uleb128 0x1a
 1069 074a A20D0000 		.4byte	.LASF100
 1070 074e 07       		.byte	0x7
 1071 074f 1E01     		.2byte	0x11e
 1072 0751 99070000 		.4byte	0x799
 1073 0755 1A       		.uleb128 0x1a
 1074 0756 34000000 		.4byte	.LASF101
 1075 075a 07       		.byte	0x7
 1076 075b 2701     		.2byte	0x127
 1077 075d D0070000 		.4byte	0x7d0
 1078 0761 1A       		.uleb128 0x1a
 1079 0762 38020000 		.4byte	.LASF102
 1080 0766 07       		.byte	0x7
 1081 0767 2F01     		.2byte	0x12f
 1082 0769 46010000 		.4byte	0x146
 1083 076d 00       		.byte	0
ARM GAS  /tmp/ccsfnBTQ.s 			page 20


 1084 076e 0B       		.uleb128 0xb
 1085 076f 04       		.byte	0x4
 1086 0770 5F020000 		.4byte	0x25f
 1087 0774 07       		.uleb128 0x7
 1088 0775 A90D0000 		.4byte	.LASF103
 1089 0779 0C       		.byte	0xc
 1090 077a 0E       		.byte	0xe
 1091 077b 34       		.byte	0x34
 1092 077c 99070000 		.4byte	0x799
 1093 0780 08       		.uleb128 0x8
 1094 0781 6C0B0000 		.4byte	.LASF104
 1095 0785 0E       		.byte	0xe
 1096 0786 35       		.byte	0x35
 1097 0787 94020000 		.4byte	0x294
 1098 078b 00       		.byte	0
 1099 078c 08       		.uleb128 0x8
 1100 078d 17030000 		.4byte	.LASF105
 1101 0791 0E       		.byte	0xe
 1102 0792 37       		.byte	0x37
 1103 0793 51010000 		.4byte	0x151
 1104 0797 08       		.byte	0x8
 1105 0798 00       		.byte	0
 1106 0799 0B       		.uleb128 0xb
 1107 079a 04       		.byte	0x4
 1108 079b 74070000 		.4byte	0x774
 1109 079f 07       		.uleb128 0x7
 1110 07a0 B3050000 		.4byte	.LASF106
 1111 07a4 10       		.byte	0x10
 1112 07a5 0F       		.byte	0xf
 1113 07a6 39       		.byte	0x39
 1114 07a7 D0070000 		.4byte	0x7d0
 1115 07ab 08       		.uleb128 0x8
 1116 07ac 870A0000 		.4byte	.LASF107
 1117 07b0 0F       		.byte	0xf
 1118 07b1 3A       		.byte	0x3a
 1119 07b2 94020000 		.4byte	0x294
 1120 07b6 00       		.byte	0
 1121 07b7 08       		.uleb128 0x8
 1122 07b8 090B0000 		.4byte	.LASF108
 1123 07bc 0F       		.byte	0xf
 1124 07bd 3C       		.byte	0x3c
 1125 07be 6A020000 		.4byte	0x26a
 1126 07c2 08       		.byte	0x8
 1127 07c3 08       		.uleb128 0x8
 1128 07c4 130F0000 		.4byte	.LASF109
 1129 07c8 0F       		.byte	0xf
 1130 07c9 3E       		.byte	0x3e
 1131 07ca 25090000 		.4byte	0x925
 1132 07ce 0C       		.byte	0xc
 1133 07cf 00       		.byte	0
 1134 07d0 0B       		.uleb128 0xb
 1135 07d1 04       		.byte	0x4
 1136 07d2 9F070000 		.4byte	0x79f
 1137 07d6 0B       		.uleb128 0xb
 1138 07d7 04       		.byte	0x4
 1139 07d8 E8070000 		.4byte	0x7e8
 1140 07dc 06       		.uleb128 0x6
ARM GAS  /tmp/ccsfnBTQ.s 			page 21


 1141 07dd D6070000 		.4byte	0x7d6
 1142 07e1 02       		.uleb128 0x2
 1143 07e2 01       		.byte	0x1
 1144 07e3 08       		.byte	0x8
 1145 07e4 69000000 		.4byte	.LASF110
 1146 07e8 05       		.uleb128 0x5
 1147 07e9 E1070000 		.4byte	0x7e1
 1148 07ed 0B       		.uleb128 0xb
 1149 07ee 04       		.byte	0x4
 1150 07ef 49030000 		.4byte	0x349
 1151 07f3 15       		.uleb128 0x15
 1152 07f4 86050000 		.4byte	0x586
 1153 07f8 03080000 		.4byte	0x803
 1154 07fc 16       		.uleb128 0x16
 1155 07fd 9B000000 		.4byte	0x9b
 1156 0801 2B       		.byte	0x2b
 1157 0802 00       		.byte	0
 1158 0803 1B       		.uleb128 0x1b
 1159 0804 636800   		.ascii	"ch\000"
 1160 0807 07       		.byte	0x7
 1161 0808 0902     		.2byte	0x209
 1162 080a 16040000 		.4byte	0x416
 1163 080e 18       		.uleb128 0x18
 1164 080f 16       		.byte	0x16
 1165 0810 10       		.byte	0x10
 1166 0811 34       		.byte	0x34
 1167 0812 EF080000 		.4byte	0x8ef
 1168 0816 08       		.uleb128 0x8
 1169 0817 E20B0000 		.4byte	.LASF111
 1170 081b 10       		.byte	0x10
 1171 081c 35       		.byte	0x35
 1172 081d EF080000 		.4byte	0x8ef
 1173 0821 00       		.byte	0
 1174 0822 08       		.uleb128 0x8
 1175 0823 D3080000 		.4byte	.LASF112
 1176 0827 10       		.byte	0x10
 1177 0828 36       		.byte	0x36
 1178 0829 A2000000 		.4byte	0xa2
 1179 082d 04       		.byte	0x4
 1180 082e 08       		.uleb128 0x8
 1181 082f AD090000 		.4byte	.LASF113
 1182 0833 10       		.byte	0x10
 1183 0834 37       		.byte	0x37
 1184 0835 A2000000 		.4byte	0xa2
 1185 0839 05       		.byte	0x5
 1186 083a 08       		.uleb128 0x8
 1187 083b 5A0A0000 		.4byte	.LASF114
 1188 083f 10       		.byte	0x10
 1189 0840 38       		.byte	0x38
 1190 0841 B2000000 		.4byte	0xb2
 1191 0845 06       		.byte	0x6
 1192 0846 08       		.uleb128 0x8
 1193 0847 72020000 		.4byte	.LASF115
 1194 084b 10       		.byte	0x10
 1195 084c 39       		.byte	0x39
 1196 084d A2000000 		.4byte	0xa2
 1197 0851 08       		.byte	0x8
ARM GAS  /tmp/ccsfnBTQ.s 			page 22


 1198 0852 08       		.uleb128 0x8
 1199 0853 66030000 		.4byte	.LASF116
 1200 0857 10       		.byte	0x10
 1201 0858 3A       		.byte	0x3a
 1202 0859 A2000000 		.4byte	0xa2
 1203 085d 09       		.byte	0x9
 1204 085e 08       		.uleb128 0x8
 1205 085f 4A050000 		.4byte	.LASF117
 1206 0863 10       		.byte	0x10
 1207 0864 3B       		.byte	0x3b
 1208 0865 A2000000 		.4byte	0xa2
 1209 0869 0A       		.byte	0xa
 1210 086a 08       		.uleb128 0x8
 1211 086b 950B0000 		.4byte	.LASF118
 1212 086f 10       		.byte	0x10
 1213 0870 3C       		.byte	0x3c
 1214 0871 A2000000 		.4byte	0xa2
 1215 0875 0B       		.byte	0xb
 1216 0876 08       		.uleb128 0x8
 1217 0877 44060000 		.4byte	.LASF119
 1218 087b 10       		.byte	0x10
 1219 087c 3D       		.byte	0x3d
 1220 087d A2000000 		.4byte	0xa2
 1221 0881 0C       		.byte	0xc
 1222 0882 08       		.uleb128 0x8
 1223 0883 2D0F0000 		.4byte	.LASF120
 1224 0887 10       		.byte	0x10
 1225 0888 3E       		.byte	0x3e
 1226 0889 A2000000 		.4byte	0xa2
 1227 088d 0D       		.byte	0xd
 1228 088e 08       		.uleb128 0x8
 1229 088f DC000000 		.4byte	.LASF121
 1230 0893 10       		.byte	0x10
 1231 0894 3F       		.byte	0x3f
 1232 0895 A2000000 		.4byte	0xa2
 1233 0899 0E       		.byte	0xe
 1234 089a 08       		.uleb128 0x8
 1235 089b A6010000 		.4byte	.LASF122
 1236 089f 10       		.byte	0x10
 1237 08a0 40       		.byte	0x40
 1238 08a1 A2000000 		.4byte	0xa2
 1239 08a5 0F       		.byte	0xf
 1240 08a6 08       		.uleb128 0x8
 1241 08a7 4F060000 		.4byte	.LASF123
 1242 08ab 10       		.byte	0x10
 1243 08ac 41       		.byte	0x41
 1244 08ad A2000000 		.4byte	0xa2
 1245 08b1 10       		.byte	0x10
 1246 08b2 08       		.uleb128 0x8
 1247 08b3 E9000000 		.4byte	.LASF124
 1248 08b7 10       		.byte	0x10
 1249 08b8 43       		.byte	0x43
 1250 08b9 A2000000 		.4byte	0xa2
 1251 08bd 11       		.byte	0x11
 1252 08be 08       		.uleb128 0x8
 1253 08bf 54020000 		.4byte	.LASF125
 1254 08c3 10       		.byte	0x10
ARM GAS  /tmp/ccsfnBTQ.s 			page 23


 1255 08c4 44       		.byte	0x44
 1256 08c5 A2000000 		.4byte	0xa2
 1257 08c9 12       		.byte	0x12
 1258 08ca 08       		.uleb128 0x8
 1259 08cb C7080000 		.4byte	.LASF126
 1260 08cf 10       		.byte	0x10
 1261 08d0 45       		.byte	0x45
 1262 08d1 A2000000 		.4byte	0xa2
 1263 08d5 13       		.byte	0x13
 1264 08d6 08       		.uleb128 0x8
 1265 08d7 5F050000 		.4byte	.LASF127
 1266 08db 10       		.byte	0x10
 1267 08dc 46       		.byte	0x46
 1268 08dd A2000000 		.4byte	0xa2
 1269 08e1 14       		.byte	0x14
 1270 08e2 08       		.uleb128 0x8
 1271 08e3 600B0000 		.4byte	.LASF128
 1272 08e7 10       		.byte	0x10
 1273 08e8 48       		.byte	0x48
 1274 08e9 A2000000 		.4byte	0xa2
 1275 08ed 15       		.byte	0x15
 1276 08ee 00       		.byte	0
 1277 08ef 15       		.uleb128 0x15
 1278 08f0 E1070000 		.4byte	0x7e1
 1279 08f4 FF080000 		.4byte	0x8ff
 1280 08f8 16       		.uleb128 0x16
 1281 08f9 9B000000 		.4byte	0x9b
 1282 08fd 03       		.byte	0x3
 1283 08fe 00       		.byte	0
 1284 08ff 03       		.uleb128 0x3
 1285 0900 060A0000 		.4byte	.LASF129
 1286 0904 10       		.byte	0x10
 1287 0905 49       		.byte	0x49
 1288 0906 0E080000 		.4byte	0x80e
 1289 090a 05       		.uleb128 0x5
 1290 090b FF080000 		.4byte	0x8ff
 1291 090f 12       		.uleb128 0x12
 1292 0910 AF0F0000 		.4byte	.LASF130
 1293 0914 10       		.byte	0x10
 1294 0915 6E       		.byte	0x6e
 1295 0916 0A090000 		.4byte	0x90a
 1296 091a 03       		.uleb128 0x3
 1297 091b D40D0000 		.4byte	.LASF131
 1298 091f 0F       		.byte	0xf
 1299 0920 34       		.byte	0x34
 1300 0921 9F070000 		.4byte	0x79f
 1301 0925 0B       		.uleb128 0xb
 1302 0926 04       		.byte	0x4
 1303 0927 1A090000 		.4byte	0x91a
 1304 092b 03       		.uleb128 0x3
 1305 092c 07010000 		.4byte	.LASF132
 1306 0930 11       		.byte	0x11
 1307 0931 3F       		.byte	0x3f
 1308 0932 36090000 		.4byte	0x936
 1309 0936 07       		.uleb128 0x7
 1310 0937 530F0000 		.4byte	.LASF133
 1311 093b 24       		.byte	0x24
ARM GAS  /tmp/ccsfnBTQ.s 			page 24


 1312 093c 11       		.byte	0x11
 1313 093d 4D       		.byte	0x4d
 1314 093e A3090000 		.4byte	0x9a3
 1315 0942 08       		.uleb128 0x8
 1316 0943 5C030000 		.4byte	.LASF134
 1317 0947 11       		.byte	0x11
 1318 0948 4E       		.byte	0x4e
 1319 0949 94020000 		.4byte	0x294
 1320 094d 00       		.byte	0
 1321 094e 08       		.uleb128 0x8
 1322 094f 010C0000 		.4byte	.LASF135
 1323 0953 11       		.byte	0x11
 1324 0954 4F       		.byte	0x4f
 1325 0955 F8000000 		.4byte	0xf8
 1326 0959 08       		.byte	0x8
 1327 095a 08       		.uleb128 0x8
 1328 095b B1100000 		.4byte	.LASF136
 1329 095f 11       		.byte	0x11
 1330 0960 50       		.byte	0x50
 1331 0961 C5090000 		.4byte	0x9c5
 1332 0965 0C       		.byte	0xc
 1333 0966 08       		.uleb128 0x8
 1334 0967 150C0000 		.4byte	.LASF137
 1335 096b 11       		.byte	0x11
 1336 096c 51       		.byte	0x51
 1337 096d C5090000 		.4byte	0x9c5
 1338 0971 10       		.byte	0x10
 1339 0972 08       		.uleb128 0x8
 1340 0973 E0060000 		.4byte	.LASF138
 1341 0977 11       		.byte	0x11
 1342 0978 53       		.byte	0x53
 1343 0979 C5090000 		.4byte	0x9c5
 1344 097d 14       		.byte	0x14
 1345 097e 08       		.uleb128 0x8
 1346 097f 5C100000 		.4byte	.LASF139
 1347 0983 11       		.byte	0x11
 1348 0984 54       		.byte	0x54
 1349 0985 C5090000 		.4byte	0x9c5
 1350 0989 18       		.byte	0x18
 1351 098a 08       		.uleb128 0x8
 1352 098b 10060000 		.4byte	.LASF140
 1353 098f 11       		.byte	0x11
 1354 0990 55       		.byte	0x55
 1355 0991 A3090000 		.4byte	0x9a3
 1356 0995 1C       		.byte	0x1c
 1357 0996 08       		.uleb128 0x8
 1358 0997 650A0000 		.4byte	.LASF141
 1359 099b 11       		.byte	0x11
 1360 099c 56       		.byte	0x56
 1361 099d 47030000 		.4byte	0x347
 1362 09a1 20       		.byte	0x20
 1363 09a2 00       		.byte	0
 1364 09a3 03       		.uleb128 0x3
 1365 09a4 B2010000 		.4byte	.LASF142
 1366 09a8 11       		.byte	0x11
 1367 09a9 42       		.byte	0x42
 1368 09aa AE090000 		.4byte	0x9ae
ARM GAS  /tmp/ccsfnBTQ.s 			page 25


 1369 09ae 0B       		.uleb128 0xb
 1370 09af 04       		.byte	0x4
 1371 09b0 B4090000 		.4byte	0x9b4
 1372 09b4 0D       		.uleb128 0xd
 1373 09b5 BF090000 		.4byte	0x9bf
 1374 09b9 0E       		.uleb128 0xe
 1375 09ba BF090000 		.4byte	0x9bf
 1376 09be 00       		.byte	0
 1377 09bf 0B       		.uleb128 0xb
 1378 09c0 04       		.byte	0x4
 1379 09c1 2B090000 		.4byte	0x92b
 1380 09c5 0B       		.uleb128 0xb
 1381 09c6 04       		.byte	0x4
 1382 09c7 A2000000 		.4byte	0xa2
 1383 09cb 03       		.uleb128 0x3
 1384 09cc 8D070000 		.4byte	.LASF143
 1385 09d0 11       		.byte	0x11
 1386 09d1 64       		.byte	0x64
 1387 09d2 2B090000 		.4byte	0x92b
 1388 09d6 03       		.uleb128 0x3
 1389 09d7 1B0B0000 		.4byte	.LASF144
 1390 09db 11       		.byte	0x11
 1391 09dc 71       		.byte	0x71
 1392 09dd 2B090000 		.4byte	0x92b
 1393 09e1 0B       		.uleb128 0xb
 1394 09e2 04       		.byte	0x4
 1395 09e3 AD000000 		.4byte	0xad
 1396 09e7 18       		.uleb128 0x18
 1397 09e8 0C       		.byte	0xc
 1398 09e9 12       		.byte	0x12
 1399 09ea DA       		.byte	0xda
 1400 09eb 2C0A0000 		.4byte	0xa2c
 1401 09ef 08       		.uleb128 0x8
 1402 09f0 C0100000 		.4byte	.LASF145
 1403 09f4 12       		.byte	0x12
 1404 09f5 DB       		.byte	0xdb
 1405 09f6 2C0A0000 		.4byte	0xa2c
 1406 09fa 00       		.byte	0
 1407 09fb 08       		.uleb128 0x8
 1408 09fc 95030000 		.4byte	.LASF146
 1409 0a00 12       		.byte	0x12
 1410 0a01 DC       		.byte	0xdc
 1411 0a02 320A0000 		.4byte	0xa32
 1412 0a06 04       		.byte	0x4
 1413 0a07 08       		.uleb128 0x8
 1414 0a08 E8060000 		.4byte	.LASF147
 1415 0a0c 12       		.byte	0x12
 1416 0a0d DD       		.byte	0xdd
 1417 0a0e A2000000 		.4byte	0xa2
 1418 0a12 08       		.byte	0x8
 1419 0a13 08       		.uleb128 0x8
 1420 0a14 A7100000 		.4byte	.LASF148
 1421 0a18 12       		.byte	0x12
 1422 0a19 DF       		.byte	0xdf
 1423 0a1a A2000000 		.4byte	0xa2
 1424 0a1e 09       		.byte	0x9
 1425 0a1f 08       		.uleb128 0x8
ARM GAS  /tmp/ccsfnBTQ.s 			page 26


 1426 0a20 62040000 		.4byte	.LASF149
 1427 0a24 12       		.byte	0x12
 1428 0a25 E0       		.byte	0xe0
 1429 0a26 A2000000 		.4byte	0xa2
 1430 0a2a 0A       		.byte	0xa
 1431 0a2b 00       		.byte	0
 1432 0a2c 0B       		.uleb128 0xb
 1433 0a2d 04       		.byte	0x4
 1434 0a2e EB040000 		.4byte	0x4eb
 1435 0a32 0B       		.uleb128 0xb
 1436 0a33 04       		.byte	0x4
 1437 0a34 DD000000 		.4byte	0xdd
 1438 0a38 03       		.uleb128 0x3
 1439 0a39 0D070000 		.4byte	.LASF150
 1440 0a3d 12       		.byte	0x12
 1441 0a3e E1       		.byte	0xe1
 1442 0a3f E7090000 		.4byte	0x9e7
 1443 0a43 05       		.uleb128 0x5
 1444 0a44 380A0000 		.4byte	0xa38
 1445 0a48 15       		.uleb128 0x15
 1446 0a49 430A0000 		.4byte	0xa43
 1447 0a4d 580A0000 		.4byte	0xa58
 1448 0a51 16       		.uleb128 0x16
 1449 0a52 9B000000 		.4byte	0x9b
 1450 0a56 0F       		.byte	0xf
 1451 0a57 00       		.byte	0
 1452 0a58 05       		.uleb128 0x5
 1453 0a59 480A0000 		.4byte	0xa48
 1454 0a5d 11       		.uleb128 0x11
 1455 0a5e 1A100000 		.4byte	.LASF151
 1456 0a62 12       		.byte	0x12
 1457 0a63 BB01     		.2byte	0x1bb
 1458 0a65 580A0000 		.4byte	0xa58
 1459 0a69 02       		.uleb128 0x2
 1460 0a6a 01       		.byte	0x1
 1461 0a6b 02       		.byte	0x2
 1462 0a6c 94050000 		.4byte	.LASF152
 1463 0a70 18       		.uleb128 0x18
 1464 0a71 1C       		.byte	0x1c
 1465 0a72 13       		.byte	0x13
 1466 0a73 C1       		.byte	0xc1
 1467 0a74 CD0A0000 		.4byte	0xacd
 1468 0a78 08       		.uleb128 0x8
 1469 0a79 77060000 		.4byte	.LASF153
 1470 0a7d 13       		.byte	0x13
 1471 0a7e C3       		.byte	0xc3
 1472 0a7f D2000000 		.4byte	0xd2
 1473 0a83 00       		.byte	0
 1474 0a84 08       		.uleb128 0x8
 1475 0a85 A9030000 		.4byte	.LASF154
 1476 0a89 13       		.byte	0x13
 1477 0a8a C5       		.byte	0xc5
 1478 0a8b D2000000 		.4byte	0xd2
 1479 0a8f 04       		.byte	0x4
 1480 0a90 08       		.uleb128 0x8
 1481 0a91 32100000 		.4byte	.LASF155
 1482 0a95 13       		.byte	0x13
ARM GAS  /tmp/ccsfnBTQ.s 			page 27


 1483 0a96 C7       		.byte	0xc7
 1484 0a97 D2000000 		.4byte	0xd2
 1485 0a9b 08       		.byte	0x8
 1486 0a9c 08       		.uleb128 0x8
 1487 0a9d 87100000 		.4byte	.LASF156
 1488 0aa1 13       		.byte	0x13
 1489 0aa2 C9       		.byte	0xc9
 1490 0aa3 D2000000 		.4byte	0xd2
 1491 0aa7 0C       		.byte	0xc
 1492 0aa8 17       		.uleb128 0x17
 1493 0aa9 6F647200 		.ascii	"odr\000"
 1494 0aad 13       		.byte	0x13
 1495 0aae CB       		.byte	0xcb
 1496 0aaf D2000000 		.4byte	0xd2
 1497 0ab3 10       		.byte	0x10
 1498 0ab4 08       		.uleb128 0x8
 1499 0ab5 56090000 		.4byte	.LASF157
 1500 0ab9 13       		.byte	0x13
 1501 0aba CD       		.byte	0xcd
 1502 0abb D2000000 		.4byte	0xd2
 1503 0abf 14       		.byte	0x14
 1504 0ac0 08       		.uleb128 0x8
 1505 0ac1 2B030000 		.4byte	.LASF158
 1506 0ac5 13       		.byte	0x13
 1507 0ac6 CF       		.byte	0xcf
 1508 0ac7 D2000000 		.4byte	0xd2
 1509 0acb 18       		.byte	0x18
 1510 0acc 00       		.byte	0
 1511 0acd 03       		.uleb128 0x3
 1512 0ace 69080000 		.4byte	.LASF159
 1513 0ad2 13       		.byte	0x13
 1514 0ad3 D0       		.byte	0xd0
 1515 0ad4 700A0000 		.4byte	0xa70
 1516 0ad8 18       		.uleb128 0x18
 1517 0ad9 FC       		.byte	0xfc
 1518 0ada 13       		.byte	0x13
 1519 0adb D9       		.byte	0xd9
 1520 0adc 4D0B0000 		.4byte	0xb4d
 1521 0ae0 08       		.uleb128 0x8
 1522 0ae1 DE0A0000 		.4byte	.LASF160
 1523 0ae5 13       		.byte	0x13
 1524 0ae6 DC       		.byte	0xdc
 1525 0ae7 CD0A0000 		.4byte	0xacd
 1526 0aeb 00       		.byte	0
 1527 0aec 08       		.uleb128 0x8
 1528 0aed AC050000 		.4byte	.LASF161
 1529 0af1 13       		.byte	0x13
 1530 0af2 E0       		.byte	0xe0
 1531 0af3 CD0A0000 		.4byte	0xacd
 1532 0af7 1C       		.byte	0x1c
 1533 0af8 08       		.uleb128 0x8
 1534 0af9 1D000000 		.4byte	.LASF162
 1535 0afd 13       		.byte	0x13
 1536 0afe E4       		.byte	0xe4
 1537 0aff CD0A0000 		.4byte	0xacd
 1538 0b03 38       		.byte	0x38
 1539 0b04 08       		.uleb128 0x8
ARM GAS  /tmp/ccsfnBTQ.s 			page 28


 1540 0b05 370A0000 		.4byte	.LASF163
 1541 0b09 13       		.byte	0x13
 1542 0b0a E8       		.byte	0xe8
 1543 0b0b CD0A0000 		.4byte	0xacd
 1544 0b0f 54       		.byte	0x54
 1545 0b10 08       		.uleb128 0x8
 1546 0b11 15050000 		.4byte	.LASF164
 1547 0b15 13       		.byte	0x13
 1548 0b16 EC       		.byte	0xec
 1549 0b17 CD0A0000 		.4byte	0xacd
 1550 0b1b 70       		.byte	0x70
 1551 0b1c 08       		.uleb128 0x8
 1552 0b1d 13100000 		.4byte	.LASF165
 1553 0b21 13       		.byte	0x13
 1554 0b22 F0       		.byte	0xf0
 1555 0b23 CD0A0000 		.4byte	0xacd
 1556 0b27 8C       		.byte	0x8c
 1557 0b28 08       		.uleb128 0x8
 1558 0b29 9D090000 		.4byte	.LASF166
 1559 0b2d 13       		.byte	0x13
 1560 0b2e F4       		.byte	0xf4
 1561 0b2f CD0A0000 		.4byte	0xacd
 1562 0b33 A8       		.byte	0xa8
 1563 0b34 08       		.uleb128 0x8
 1564 0b35 73040000 		.4byte	.LASF167
 1565 0b39 13       		.byte	0x13
 1566 0b3a F8       		.byte	0xf8
 1567 0b3b CD0A0000 		.4byte	0xacd
 1568 0b3f C4       		.byte	0xc4
 1569 0b40 08       		.uleb128 0x8
 1570 0b41 5B040000 		.4byte	.LASF168
 1571 0b45 13       		.byte	0x13
 1572 0b46 FC       		.byte	0xfc
 1573 0b47 CD0A0000 		.4byte	0xacd
 1574 0b4b E0       		.byte	0xe0
 1575 0b4c 00       		.byte	0
 1576 0b4d 03       		.uleb128 0x3
 1577 0b4e 0B0C0000 		.4byte	.LASF169
 1578 0b52 13       		.byte	0x13
 1579 0b53 FE       		.byte	0xfe
 1580 0b54 D80A0000 		.4byte	0xad8
 1581 0b58 05       		.uleb128 0x5
 1582 0b59 4D0B0000 		.4byte	0xb4d
 1583 0b5d 11       		.uleb128 0x11
 1584 0b5e D6050000 		.4byte	.LASF170
 1585 0b62 13       		.byte	0x13
 1586 0b63 DA01     		.2byte	0x1da
 1587 0b65 580B0000 		.4byte	0xb58
 1588 0b69 1C       		.uleb128 0x1c
 1589 0b6a 07       		.byte	0x7
 1590 0b6b 01       		.byte	0x1
 1591 0b6c 37000000 		.4byte	0x37
 1592 0b70 14       		.byte	0x14
 1593 0b71 3D       		.byte	0x3d
 1594 0b72 890B0000 		.4byte	0xb89
 1595 0b76 1D       		.uleb128 0x1d
 1596 0b77 040E0000 		.4byte	.LASF171
ARM GAS  /tmp/ccsfnBTQ.s 			page 29


 1597 0b7b 00       		.byte	0
 1598 0b7c 1D       		.uleb128 0x1d
 1599 0b7d F30F0000 		.4byte	.LASF172
 1600 0b81 01       		.byte	0x1
 1601 0b82 1D       		.uleb128 0x1d
 1602 0b83 740B0000 		.4byte	.LASF173
 1603 0b87 02       		.byte	0x2
 1604 0b88 00       		.byte	0
 1605 0b89 03       		.uleb128 0x3
 1606 0b8a B3040000 		.4byte	.LASF174
 1607 0b8e 14       		.byte	0x14
 1608 0b8f 41       		.byte	0x41
 1609 0b90 690B0000 		.4byte	0xb69
 1610 0b94 1C       		.uleb128 0x1c
 1611 0b95 07       		.byte	0x7
 1612 0b96 01       		.byte	0x1
 1613 0b97 37000000 		.4byte	0x37
 1614 0b9b 14       		.byte	0x14
 1615 0b9c 46       		.byte	0x46
 1616 0b9d B40B0000 		.4byte	0xbb4
 1617 0ba1 1D       		.uleb128 0x1d
 1618 0ba2 00000000 		.4byte	.LASF175
 1619 0ba6 00       		.byte	0
 1620 0ba7 1D       		.uleb128 0x1d
 1621 0ba8 3A0F0000 		.4byte	.LASF176
 1622 0bac 01       		.byte	0x1
 1623 0bad 1D       		.uleb128 0x1d
 1624 0bae 61020000 		.4byte	.LASF177
 1625 0bb2 02       		.byte	0x2
 1626 0bb3 00       		.byte	0
 1627 0bb4 03       		.uleb128 0x3
 1628 0bb5 CC0B0000 		.4byte	.LASF178
 1629 0bb9 14       		.byte	0x14
 1630 0bba 4A       		.byte	0x4a
 1631 0bbb 940B0000 		.4byte	0xb94
 1632 0bbf 1C       		.uleb128 0x1c
 1633 0bc0 07       		.byte	0x7
 1634 0bc1 01       		.byte	0x1
 1635 0bc2 37000000 		.4byte	0x37
 1636 0bc6 14       		.byte	0x14
 1637 0bc7 4F       		.byte	0x4f
 1638 0bc8 DF0B0000 		.4byte	0xbdf
 1639 0bcc 1D       		.uleb128 0x1d
 1640 0bcd A90E0000 		.4byte	.LASF179
 1641 0bd1 00       		.byte	0
 1642 0bd2 1D       		.uleb128 0x1d
 1643 0bd3 85050000 		.4byte	.LASF180
 1644 0bd7 01       		.byte	0x1
 1645 0bd8 1D       		.uleb128 0x1d
 1646 0bd9 38040000 		.4byte	.LASF181
 1647 0bdd 02       		.byte	0x2
 1648 0bde 00       		.byte	0
 1649 0bdf 03       		.uleb128 0x3
 1650 0be0 5B010000 		.4byte	.LASF182
 1651 0be4 14       		.byte	0x14
 1652 0be5 53       		.byte	0x53
 1653 0be6 BF0B0000 		.4byte	0xbbf
ARM GAS  /tmp/ccsfnBTQ.s 			page 30


 1654 0bea 14       		.uleb128 0x14
 1655 0beb FA030000 		.4byte	.LASF183
 1656 0bef 15       		.byte	0x15
 1657 0bf0 B101     		.2byte	0x1b1
 1658 0bf2 D2000000 		.4byte	0xd2
 1659 0bf6 14       		.uleb128 0x14
 1660 0bf7 A8040000 		.4byte	.LASF184
 1661 0bfb 15       		.byte	0x15
 1662 0bfc B601     		.2byte	0x1b6
 1663 0bfe 020C0000 		.4byte	0xc02
 1664 0c02 0C       		.uleb128 0xc
 1665 0c03 A8040000 		.4byte	.LASF184
 1666 0c07 1C       		.byte	0x1c
 1667 0c08 15       		.byte	0x15
 1668 0c09 FE01     		.2byte	0x1fe
 1669 0c0b 850C0000 		.4byte	0xc85
 1670 0c0f 0A       		.uleb128 0xa
 1671 0c10 A30E0000 		.4byte	.LASF185
 1672 0c14 15       		.byte	0x15
 1673 0c15 0202     		.2byte	0x202
 1674 0c17 890B0000 		.4byte	0xb89
 1675 0c1b 00       		.byte	0
 1676 0c1c 0A       		.uleb128 0xa
 1677 0c1d DC0D0000 		.4byte	.LASF186
 1678 0c21 15       		.byte	0x15
 1679 0c22 0602     		.2byte	0x206
 1680 0c24 B40B0000 		.4byte	0xbb4
 1681 0c28 01       		.byte	0x1
 1682 0c29 0A       		.uleb128 0xa
 1683 0c2a CD0A0000 		.4byte	.LASF187
 1684 0c2e 15       		.byte	0x15
 1685 0c2f 0A02     		.2byte	0x20a
 1686 0c31 DF0B0000 		.4byte	0xbdf
 1687 0c35 02       		.byte	0x2
 1688 0c36 0A       		.uleb128 0xa
 1689 0c37 3E0A0000 		.4byte	.LASF188
 1690 0c3b 15       		.byte	0x15
 1691 0c3c 0E02     		.2byte	0x20e
 1692 0c3e 7C0D0000 		.4byte	0xd7c
 1693 0c42 04       		.byte	0x4
 1694 0c43 0A       		.uleb128 0xa
 1695 0c44 D4070000 		.4byte	.LASF189
 1696 0c48 15       		.byte	0x15
 1697 0c49 1602     		.2byte	0x216
 1698 0c4b 820D0000 		.4byte	0xd82
 1699 0c4f 08       		.byte	0x8
 1700 0c50 0A       		.uleb128 0xa
 1701 0c51 96000000 		.4byte	.LASF190
 1702 0c55 15       		.byte	0x15
 1703 0c56 1A02     		.2byte	0x21a
 1704 0c58 D2000000 		.4byte	0xd2
 1705 0c5c 0C       		.byte	0xc
 1706 0c5d 0A       		.uleb128 0xa
 1707 0c5e C8000000 		.4byte	.LASF191
 1708 0c62 15       		.byte	0x15
 1709 0c63 1E02     		.2byte	0x21e
 1710 0c65 880D0000 		.4byte	0xd88
ARM GAS  /tmp/ccsfnBTQ.s 			page 31


 1711 0c69 10       		.byte	0x10
 1712 0c6a 0A       		.uleb128 0xa
 1713 0c6b 4D030000 		.4byte	.LASF192
 1714 0c6f 15       		.byte	0x15
 1715 0c70 2202     		.2byte	0x222
 1716 0c72 880D0000 		.4byte	0xd88
 1717 0c76 14       		.byte	0x14
 1718 0c77 0A       		.uleb128 0xa
 1719 0c78 BA100000 		.4byte	.LASF193
 1720 0c7c 15       		.byte	0x15
 1721 0c7d 2602     		.2byte	0x226
 1722 0c7f BD000000 		.4byte	0xbd
 1723 0c83 18       		.byte	0x18
 1724 0c84 00       		.byte	0
 1725 0c85 14       		.uleb128 0x14
 1726 0c86 45100000 		.4byte	.LASF194
 1727 0c8a 15       		.byte	0x15
 1728 0c8b BD01     		.2byte	0x1bd
 1729 0c8d 910C0000 		.4byte	0xc91
 1730 0c91 0B       		.uleb128 0xb
 1731 0c92 04       		.byte	0x4
 1732 0c93 970C0000 		.4byte	0xc97
 1733 0c97 0D       		.uleb128 0xd
 1734 0c98 A20C0000 		.4byte	0xca2
 1735 0c9c 0E       		.uleb128 0xe
 1736 0c9d A20C0000 		.4byte	0xca2
 1737 0ca1 00       		.byte	0
 1738 0ca2 0B       		.uleb128 0xb
 1739 0ca3 04       		.byte	0x4
 1740 0ca4 F60B0000 		.4byte	0xbf6
 1741 0ca8 14       		.uleb128 0x14
 1742 0ca9 98060000 		.4byte	.LASF195
 1743 0cad 15       		.byte	0x15
 1744 0cae C501     		.2byte	0x1c5
 1745 0cb0 B40C0000 		.4byte	0xcb4
 1746 0cb4 0B       		.uleb128 0xb
 1747 0cb5 04       		.byte	0x4
 1748 0cb6 BA0C0000 		.4byte	0xcba
 1749 0cba 0D       		.uleb128 0xd
 1750 0cbb CA0C0000 		.4byte	0xcca
 1751 0cbf 0E       		.uleb128 0xe
 1752 0cc0 A20C0000 		.4byte	0xca2
 1753 0cc4 0E       		.uleb128 0xe
 1754 0cc5 B2000000 		.4byte	0xb2
 1755 0cc9 00       		.byte	0
 1756 0cca 14       		.uleb128 0x14
 1757 0ccb 110B0000 		.4byte	.LASF196
 1758 0ccf 15       		.byte	0x15
 1759 0cd0 CD01     		.2byte	0x1cd
 1760 0cd2 D60C0000 		.4byte	0xcd6
 1761 0cd6 0B       		.uleb128 0xb
 1762 0cd7 04       		.byte	0x4
 1763 0cd8 DC0C0000 		.4byte	0xcdc
 1764 0cdc 0D       		.uleb128 0xd
 1765 0cdd EC0C0000 		.4byte	0xcec
 1766 0ce1 0E       		.uleb128 0xe
 1767 0ce2 A20C0000 		.4byte	0xca2
ARM GAS  /tmp/ccsfnBTQ.s 			page 32


 1768 0ce6 0E       		.uleb128 0xe
 1769 0ce7 EA0B0000 		.4byte	0xbea
 1770 0ceb 00       		.byte	0
 1771 0cec 13       		.uleb128 0x13
 1772 0ced 20       		.byte	0x20
 1773 0cee 15       		.byte	0x15
 1774 0cef D301     		.2byte	0x1d3
 1775 0cf1 6B0D0000 		.4byte	0xd6b
 1776 0cf5 0A       		.uleb128 0xa
 1777 0cf6 2E070000 		.4byte	.LASF197
 1778 0cfa 15       		.byte	0x15
 1779 0cfb D701     		.2byte	0x1d7
 1780 0cfd 850C0000 		.4byte	0xc85
 1781 0d01 00       		.byte	0
 1782 0d02 0A       		.uleb128 0xa
 1783 0d03 3B000000 		.4byte	.LASF198
 1784 0d07 15       		.byte	0x15
 1785 0d08 DB01     		.2byte	0x1db
 1786 0d0a 850C0000 		.4byte	0xc85
 1787 0d0e 04       		.byte	0x4
 1788 0d0f 0A       		.uleb128 0xa
 1789 0d10 35010000 		.4byte	.LASF199
 1790 0d14 15       		.byte	0x15
 1791 0d15 DF01     		.2byte	0x1df
 1792 0d17 850C0000 		.4byte	0xc85
 1793 0d1b 08       		.byte	0x8
 1794 0d1c 0A       		.uleb128 0xa
 1795 0d1d 500A0000 		.4byte	.LASF200
 1796 0d21 15       		.byte	0x15
 1797 0d22 E301     		.2byte	0x1e3
 1798 0d24 A80C0000 		.4byte	0xca8
 1799 0d28 0C       		.byte	0xc
 1800 0d29 0A       		.uleb128 0xa
 1801 0d2a E5070000 		.4byte	.LASF201
 1802 0d2e 15       		.byte	0x15
 1803 0d2f E701     		.2byte	0x1e7
 1804 0d31 CA0C0000 		.4byte	0xcca
 1805 0d35 10       		.byte	0x10
 1806 0d36 0A       		.uleb128 0xa
 1807 0d37 3E010000 		.4byte	.LASF202
 1808 0d3b 15       		.byte	0x15
 1809 0d3c EC01     		.2byte	0x1ec
 1810 0d3e D2000000 		.4byte	0xd2
 1811 0d42 14       		.byte	0x14
 1812 0d43 09       		.uleb128 0x9
 1813 0d44 63723100 		.ascii	"cr1\000"
 1814 0d48 15       		.byte	0x15
 1815 0d49 F001     		.2byte	0x1f0
 1816 0d4b B2000000 		.4byte	0xb2
 1817 0d4f 18       		.byte	0x18
 1818 0d50 09       		.uleb128 0x9
 1819 0d51 63723200 		.ascii	"cr2\000"
 1820 0d55 15       		.byte	0x15
 1821 0d56 F401     		.2byte	0x1f4
 1822 0d58 B2000000 		.4byte	0xb2
 1823 0d5c 1A       		.byte	0x1a
 1824 0d5d 09       		.uleb128 0x9
ARM GAS  /tmp/ccsfnBTQ.s 			page 33


 1825 0d5e 63723300 		.ascii	"cr3\000"
 1826 0d62 15       		.byte	0x15
 1827 0d63 F801     		.2byte	0x1f8
 1828 0d65 B2000000 		.4byte	0xb2
 1829 0d69 1C       		.byte	0x1c
 1830 0d6a 00       		.byte	0
 1831 0d6b 14       		.uleb128 0x14
 1832 0d6c 550B0000 		.4byte	.LASF203
 1833 0d70 15       		.byte	0x15
 1834 0d71 F901     		.2byte	0x1f9
 1835 0d73 EC0C0000 		.4byte	0xcec
 1836 0d77 05       		.uleb128 0x5
 1837 0d78 6B0D0000 		.4byte	0xd6b
 1838 0d7c 0B       		.uleb128 0xb
 1839 0d7d 04       		.byte	0x4
 1840 0d7e 770D0000 		.4byte	0xd77
 1841 0d82 0B       		.uleb128 0xb
 1842 0d83 04       		.byte	0x4
 1843 0d84 5A050000 		.4byte	0x55a
 1844 0d88 0B       		.uleb128 0xb
 1845 0d89 04       		.byte	0x4
 1846 0d8a 430A0000 		.4byte	0xa43
 1847 0d8e 11       		.uleb128 0x11
 1848 0d8f 48080000 		.4byte	.LASF204
 1849 0d93 15       		.byte	0x15
 1850 0d94 3A02     		.2byte	0x23a
 1851 0d96 F60B0000 		.4byte	0xbf6
 1852 0d9a 03       		.uleb128 0x3
 1853 0d9b 490F0000 		.4byte	.LASF205
 1854 0d9f 16       		.byte	0x16
 1855 0da0 FA       		.byte	0xfa
 1856 0da1 A50D0000 		.4byte	0xda5
 1857 0da5 10       		.uleb128 0x10
 1858 0da6 490F0000 		.4byte	.LASF205
 1859 0daa 3802     		.2byte	0x238
 1860 0dac 17       		.byte	0x17
 1861 0dad 7701     		.2byte	0x177
 1862 0daf D10E0000 		.4byte	0xed1
 1863 0db3 0A       		.uleb128 0xa
 1864 0db4 A30E0000 		.4byte	.LASF185
 1865 0db8 17       		.byte	0x17
 1866 0db9 7B01     		.2byte	0x17b
 1867 0dbb 090F0000 		.4byte	0xf09
 1868 0dbf 00       		.byte	0
 1869 0dc0 0A       		.uleb128 0xa
 1870 0dc1 3E0A0000 		.4byte	.LASF188
 1871 0dc5 17       		.byte	0x17
 1872 0dc6 7F01     		.2byte	0x17f
 1873 0dc8 2C180000 		.4byte	0x182c
 1874 0dcc 04       		.byte	0x4
 1875 0dcd 0A       		.uleb128 0xa
 1876 0dce 2B040000 		.4byte	.LASF206
 1877 0dd2 17       		.byte	0x17
 1878 0dd3 8301     		.2byte	0x183
 1879 0dd5 B2000000 		.4byte	0xb2
 1880 0dd9 08       		.byte	0x8
 1881 0dda 0A       		.uleb128 0xa
ARM GAS  /tmp/ccsfnBTQ.s 			page 34


 1882 0ddb 69040000 		.4byte	.LASF207
 1883 0ddf 17       		.byte	0x17
 1884 0de0 8701     		.2byte	0x187
 1885 0de2 B2000000 		.4byte	0xb2
 1886 0de6 0A       		.byte	0xa
 1887 0de7 09       		.uleb128 0x9
 1888 0de8 65706300 		.ascii	"epc\000"
 1889 0dec 17       		.byte	0x17
 1890 0ded 8B01     		.2byte	0x18b
 1891 0def 32180000 		.4byte	0x1832
 1892 0df3 0C       		.byte	0xc
 1893 0df4 0A       		.uleb128 0xa
 1894 0df5 B5080000 		.4byte	.LASF208
 1895 0df9 17       		.byte	0x17
 1896 0dfa 9201     		.2byte	0x192
 1897 0dfc 48180000 		.4byte	0x1848
 1898 0e00 1C       		.byte	0x1c
 1899 0e01 0A       		.uleb128 0xa
 1900 0e02 7C0A0000 		.4byte	.LASF209
 1901 0e06 17       		.byte	0x17
 1902 0e07 9901     		.2byte	0x199
 1903 0e09 48180000 		.4byte	0x1848
 1904 0e0d 28       		.byte	0x28
 1905 0e0e 0A       		.uleb128 0xa
 1906 0e0f C8090000 		.4byte	.LASF210
 1907 0e13 17       		.byte	0x17
 1908 0e14 9D01     		.2byte	0x19d
 1909 0e16 4E0F0000 		.4byte	0xf4e
 1910 0e1a 34       		.byte	0x34
 1911 0e1b 0A       		.uleb128 0xa
 1912 0e1c 00070000 		.4byte	.LASF211
 1913 0e20 17       		.byte	0x17
 1914 0e21 A101     		.2byte	0x1a1
 1915 0e23 C5090000 		.4byte	0x9c5
 1916 0e27 38       		.byte	0x38
 1917 0e28 0A       		.uleb128 0xa
 1918 0e29 5E080000 		.4byte	.LASF212
 1919 0e2d 17       		.byte	0x17
 1920 0e2e A501     		.2byte	0x1a5
 1921 0e30 ED000000 		.4byte	0xed
 1922 0e34 3C       		.byte	0x3c
 1923 0e35 0A       		.uleb128 0xa
 1924 0e36 E6010000 		.4byte	.LASF213
 1925 0e3a 17       		.byte	0x17
 1926 0e3b A901     		.2byte	0x1a9
 1927 0e3d CE0F0000 		.4byte	0xfce
 1928 0e41 40       		.byte	0x40
 1929 0e42 0A       		.uleb128 0xa
 1930 0e43 CF030000 		.4byte	.LASF214
 1931 0e47 17       		.byte	0x17
 1932 0e48 AD01     		.2byte	0x1ad
 1933 0e4a 58180000 		.4byte	0x1858
 1934 0e4e 44       		.byte	0x44
 1935 0e4f 0A       		.uleb128 0xa
 1936 0e50 62070000 		.4byte	.LASF215
 1937 0e54 17       		.byte	0x17
 1938 0e55 B101     		.2byte	0x1b1
ARM GAS  /tmp/ccsfnBTQ.s 			page 35


 1939 0e57 B2000000 		.4byte	0xb2
 1940 0e5b 4C       		.byte	0x4c
 1941 0e5c 0A       		.uleb128 0xa
 1942 0e5d 3D0C0000 		.4byte	.LASF216
 1943 0e61 17       		.byte	0x17
 1944 0e62 B501     		.2byte	0x1b5
 1945 0e64 A2000000 		.4byte	0xa2
 1946 0e68 4E       		.byte	0x4e
 1947 0e69 0A       		.uleb128 0xa
 1948 0e6a 6F090000 		.4byte	.LASF217
 1949 0e6e 17       		.byte	0x17
 1950 0e6f B901     		.2byte	0x1b9
 1951 0e71 A2000000 		.4byte	0xa2
 1952 0e75 4F       		.byte	0x4f
 1953 0e76 09       		.uleb128 0x9
 1954 0e77 6F746700 		.ascii	"otg\000"
 1955 0e7b 17       		.byte	0x17
 1956 0e7c C101     		.2byte	0x1c1
 1957 0e7e 68180000 		.4byte	0x1868
 1958 0e82 50       		.byte	0x50
 1959 0e83 0A       		.uleb128 0xa
 1960 0e84 890F0000 		.4byte	.LASF218
 1961 0e88 17       		.byte	0x17
 1962 0e89 C501     		.2byte	0x1c5
 1963 0e8b 6E180000 		.4byte	0x186e
 1964 0e8f 54       		.byte	0x54
 1965 0e90 0A       		.uleb128 0xa
 1966 0e91 8B0E0000 		.4byte	.LASF219
 1967 0e95 17       		.byte	0x17
 1968 0e96 C901     		.2byte	0x1c9
 1969 0e98 D2000000 		.4byte	0xd2
 1970 0e9c 58       		.byte	0x58
 1971 0e9d 0A       		.uleb128 0xa
 1972 0e9e 530E0000 		.4byte	.LASF220
 1973 0ea2 17       		.byte	0x17
 1974 0ea3 CD01     		.2byte	0x1cd
 1975 0ea5 D2000000 		.4byte	0xd2
 1976 0ea9 5C       		.byte	0x5c
 1977 0eaa 0A       		.uleb128 0xa
 1978 0eab 92090000 		.4byte	.LASF221
 1979 0eaf 17       		.byte	0x17
 1980 0eb0 D101     		.2byte	0x1d1
 1981 0eb2 5F020000 		.4byte	0x25f
 1982 0eb6 60       		.byte	0x60
 1983 0eb7 09       		.uleb128 0x9
 1984 0eb8 747200   		.ascii	"tr\000"
 1985 0ebb 17       		.byte	0x17
 1986 0ebc D601     		.2byte	0x1d6
 1987 0ebe 5F020000 		.4byte	0x25f
 1988 0ec2 64       		.byte	0x64
 1989 0ec3 0A       		.uleb128 0xa
 1990 0ec4 EB0F0000 		.4byte	.LASF222
 1991 0ec8 17       		.byte	0x17
 1992 0ec9 DA01     		.2byte	0x1da
 1993 0ecb 74180000 		.4byte	0x1874
 1994 0ecf 68       		.byte	0x68
 1995 0ed0 00       		.byte	0
ARM GAS  /tmp/ccsfnBTQ.s 			page 36


 1996 0ed1 03       		.uleb128 0x3
 1997 0ed2 410E0000 		.4byte	.LASF223
 1998 0ed6 16       		.byte	0x16
 1999 0ed7 FF       		.byte	0xff
 2000 0ed8 A2000000 		.4byte	0xa2
 2001 0edc 1E       		.uleb128 0x1e
 2002 0edd 07       		.byte	0x7
 2003 0ede 01       		.byte	0x1
 2004 0edf 37000000 		.4byte	0x37
 2005 0ee3 16       		.byte	0x16
 2006 0ee4 0401     		.2byte	0x104
 2007 0ee6 090F0000 		.4byte	0xf09
 2008 0eea 1D       		.uleb128 0x1d
 2009 0eeb 8B000000 		.4byte	.LASF224
 2010 0eef 00       		.byte	0
 2011 0ef0 1D       		.uleb128 0x1d
 2012 0ef1 9E100000 		.4byte	.LASF225
 2013 0ef5 01       		.byte	0x1
 2014 0ef6 1D       		.uleb128 0x1d
 2015 0ef7 A5000000 		.4byte	.LASF226
 2016 0efb 02       		.byte	0x2
 2017 0efc 1D       		.uleb128 0x1d
 2018 0efd 7F0B0000 		.4byte	.LASF227
 2019 0f01 03       		.byte	0x3
 2020 0f02 1D       		.uleb128 0x1d
 2021 0f03 7A050000 		.4byte	.LASF228
 2022 0f07 04       		.byte	0x4
 2023 0f08 00       		.byte	0
 2024 0f09 14       		.uleb128 0x14
 2025 0f0a DA070000 		.4byte	.LASF229
 2026 0f0e 16       		.byte	0x16
 2027 0f0f 0A01     		.2byte	0x10a
 2028 0f11 DC0E0000 		.4byte	0xedc
 2029 0f15 1E       		.uleb128 0x1e
 2030 0f16 07       		.byte	0x7
 2031 0f17 01       		.byte	0x1
 2032 0f18 37000000 		.4byte	0x37
 2033 0f1c 16       		.byte	0x16
 2034 0f1d 1801     		.2byte	0x118
 2035 0f1f 4E0F0000 		.4byte	0xf4e
 2036 0f23 1D       		.uleb128 0x1d
 2037 0f24 01030000 		.4byte	.LASF230
 2038 0f28 00       		.byte	0
 2039 0f29 1D       		.uleb128 0x1d
 2040 0f2a 1D010000 		.4byte	.LASF231
 2041 0f2e 01       		.byte	0x1
 2042 0f2f 1D       		.uleb128 0x1d
 2043 0f30 E6030000 		.4byte	.LASF232
 2044 0f34 02       		.byte	0x2
 2045 0f35 1D       		.uleb128 0x1d
 2046 0f36 E9050000 		.4byte	.LASF233
 2047 0f3a 03       		.byte	0x3
 2048 0f3b 1D       		.uleb128 0x1d
 2049 0f3c 3A100000 		.4byte	.LASF234
 2050 0f40 04       		.byte	0x4
 2051 0f41 1D       		.uleb128 0x1d
 2052 0f42 C00F0000 		.4byte	.LASF235
ARM GAS  /tmp/ccsfnBTQ.s 			page 37


 2053 0f46 05       		.byte	0x5
 2054 0f47 1D       		.uleb128 0x1d
 2055 0f48 260E0000 		.4byte	.LASF236
 2056 0f4c 06       		.byte	0x6
 2057 0f4d 00       		.byte	0
 2058 0f4e 14       		.uleb128 0x14
 2059 0f4f 4E100000 		.4byte	.LASF237
 2060 0f53 16       		.byte	0x16
 2061 0f54 2001     		.2byte	0x120
 2062 0f56 150F0000 		.4byte	0xf15
 2063 0f5a 1E       		.uleb128 0x1e
 2064 0f5b 07       		.byte	0x7
 2065 0f5c 01       		.byte	0x1
 2066 0f5d 37000000 		.4byte	0x37
 2067 0f61 16       		.byte	0x16
 2068 0f62 2501     		.2byte	0x125
 2069 0f64 8D0F0000 		.4byte	0xf8d
 2070 0f68 1D       		.uleb128 0x1d
 2071 0f69 97020000 		.4byte	.LASF238
 2072 0f6d 00       		.byte	0
 2073 0f6e 1D       		.uleb128 0x1d
 2074 0f6f 7D060000 		.4byte	.LASF239
 2075 0f73 01       		.byte	0x1
 2076 0f74 1D       		.uleb128 0x1d
 2077 0f75 64100000 		.4byte	.LASF240
 2078 0f79 02       		.byte	0x2
 2079 0f7a 1D       		.uleb128 0x1d
 2080 0f7b B6000000 		.4byte	.LASF241
 2081 0f7f 03       		.byte	0x3
 2082 0f80 1D       		.uleb128 0x1d
 2083 0f81 920E0000 		.4byte	.LASF242
 2084 0f85 04       		.byte	0x4
 2085 0f86 1D       		.uleb128 0x1d
 2086 0f87 44090000 		.4byte	.LASF243
 2087 0f8b 05       		.byte	0x5
 2088 0f8c 00       		.byte	0
 2089 0f8d 14       		.uleb128 0x14
 2090 0f8e 08100000 		.4byte	.LASF244
 2091 0f92 16       		.byte	0x16
 2092 0f93 2C01     		.2byte	0x12c
 2093 0f95 5A0F0000 		.4byte	0xf5a
 2094 0f99 13       		.uleb128 0x13
 2095 0f9a 08       		.byte	0x8
 2096 0f9b 16       		.byte	0x16
 2097 0f9c 3101     		.2byte	0x131
 2098 0f9e BD0F0000 		.4byte	0xfbd
 2099 0fa2 0A       		.uleb128 0xa
 2100 0fa3 A1030000 		.4byte	.LASF245
 2101 0fa7 16       		.byte	0x16
 2102 0fa8 3501     		.2byte	0x135
 2103 0faa ED000000 		.4byte	0xed
 2104 0fae 00       		.byte	0
 2105 0faf 0A       		.uleb128 0xa
 2106 0fb0 810E0000 		.4byte	.LASF246
 2107 0fb4 16       		.byte	0x16
 2108 0fb5 3901     		.2byte	0x139
 2109 0fb7 E1090000 		.4byte	0x9e1
ARM GAS  /tmp/ccsfnBTQ.s 			page 38


 2110 0fbb 04       		.byte	0x4
 2111 0fbc 00       		.byte	0
 2112 0fbd 14       		.uleb128 0x14
 2113 0fbe F8090000 		.4byte	.LASF247
 2114 0fc2 16       		.byte	0x16
 2115 0fc3 3A01     		.2byte	0x13a
 2116 0fc5 990F0000 		.4byte	0xf99
 2117 0fc9 05       		.uleb128 0x5
 2118 0fca BD0F0000 		.4byte	0xfbd
 2119 0fce 14       		.uleb128 0x14
 2120 0fcf 79100000 		.4byte	.LASF248
 2121 0fd3 16       		.byte	0x16
 2122 0fd4 4201     		.2byte	0x142
 2123 0fd6 DA0F0000 		.4byte	0xfda
 2124 0fda 0B       		.uleb128 0xb
 2125 0fdb 04       		.byte	0x4
 2126 0fdc E00F0000 		.4byte	0xfe0
 2127 0fe0 0D       		.uleb128 0xd
 2128 0fe1 EB0F0000 		.4byte	0xfeb
 2129 0fe5 0E       		.uleb128 0xe
 2130 0fe6 EB0F0000 		.4byte	0xfeb
 2131 0fea 00       		.byte	0
 2132 0feb 0B       		.uleb128 0xb
 2133 0fec 04       		.byte	0x4
 2134 0fed 9A0D0000 		.4byte	0xd9a
 2135 0ff1 14       		.uleb128 0x14
 2136 0ff2 B30B0000 		.4byte	.LASF249
 2137 0ff6 16       		.byte	0x16
 2138 0ff7 4B01     		.2byte	0x14b
 2139 0ff9 FD0F0000 		.4byte	0xffd
 2140 0ffd 0B       		.uleb128 0xb
 2141 0ffe 04       		.byte	0x4
 2142 0fff 03100000 		.4byte	0x1003
 2143 1003 0D       		.uleb128 0xd
 2144 1004 13100000 		.4byte	0x1013
 2145 1008 0E       		.uleb128 0xe
 2146 1009 EB0F0000 		.4byte	0xfeb
 2147 100d 0E       		.uleb128 0xe
 2148 100e D10E0000 		.4byte	0xed1
 2149 1012 00       		.byte	0
 2150 1013 14       		.uleb128 0x14
 2151 1014 F6010000 		.4byte	.LASF250
 2152 1018 16       		.byte	0x16
 2153 1019 5401     		.2byte	0x154
 2154 101b 1F100000 		.4byte	0x101f
 2155 101f 0B       		.uleb128 0xb
 2156 1020 04       		.byte	0x4
 2157 1021 25100000 		.4byte	0x1025
 2158 1025 0D       		.uleb128 0xd
 2159 1026 35100000 		.4byte	0x1035
 2160 102a 0E       		.uleb128 0xe
 2161 102b EB0F0000 		.4byte	0xfeb
 2162 102f 0E       		.uleb128 0xe
 2163 1030 8D0F0000 		.4byte	0xf8d
 2164 1034 00       		.byte	0
 2165 1035 14       		.uleb128 0x14
 2166 1036 C7100000 		.4byte	.LASF251
ARM GAS  /tmp/ccsfnBTQ.s 			page 39


 2167 103a 16       		.byte	0x16
 2168 103b 6001     		.2byte	0x160
 2169 103d 41100000 		.4byte	0x1041
 2170 1041 0B       		.uleb128 0xb
 2171 1042 04       		.byte	0x4
 2172 1043 47100000 		.4byte	0x1047
 2173 1047 1F       		.uleb128 0x1f
 2174 1048 690A0000 		.4byte	0xa69
 2175 104c 56100000 		.4byte	0x1056
 2176 1050 0E       		.uleb128 0xe
 2177 1051 EB0F0000 		.4byte	0xfeb
 2178 1055 00       		.byte	0
 2179 1056 14       		.uleb128 0x14
 2180 1057 E50A0000 		.4byte	.LASF252
 2181 105b 16       		.byte	0x16
 2182 105c 6501     		.2byte	0x165
 2183 105e 62100000 		.4byte	0x1062
 2184 1062 0B       		.uleb128 0xb
 2185 1063 04       		.byte	0x4
 2186 1064 68100000 		.4byte	0x1068
 2187 1068 1F       		.uleb128 0x1f
 2188 1069 86100000 		.4byte	0x1086
 2189 106d 86100000 		.4byte	0x1086
 2190 1071 0E       		.uleb128 0xe
 2191 1072 EB0F0000 		.4byte	0xfeb
 2192 1076 0E       		.uleb128 0xe
 2193 1077 A2000000 		.4byte	0xa2
 2194 107b 0E       		.uleb128 0xe
 2195 107c A2000000 		.4byte	0xa2
 2196 1080 0E       		.uleb128 0xe
 2197 1081 B2000000 		.4byte	0xb2
 2198 1085 00       		.byte	0
 2199 1086 0B       		.uleb128 0xb
 2200 1087 04       		.byte	0x4
 2201 1088 C90F0000 		.4byte	0xfc9
 2202 108c 18       		.uleb128 0x18
 2203 108d 20       		.byte	0x20
 2204 108e 18       		.byte	0x18
 2205 108f 35       		.byte	0x35
 2206 1090 F5100000 		.4byte	0x10f5
 2207 1094 08       		.uleb128 0x8
 2208 1095 BC050000 		.4byte	.LASF253
 2209 1099 18       		.byte	0x18
 2210 109a 36       		.byte	0x36
 2211 109b DD000000 		.4byte	0xdd
 2212 109f 00       		.byte	0
 2213 10a0 08       		.uleb128 0x8
 2214 10a1 AF000000 		.4byte	.LASF254
 2215 10a5 18       		.byte	0x18
 2216 10a6 38       		.byte	0x38
 2217 10a7 DD000000 		.4byte	0xdd
 2218 10ab 04       		.byte	0x4
 2219 10ac 08       		.uleb128 0x8
 2220 10ad 6C0A0000 		.4byte	.LASF255
 2221 10b1 18       		.byte	0x18
 2222 10b2 39       		.byte	0x39
 2223 10b3 DD000000 		.4byte	0xdd
ARM GAS  /tmp/ccsfnBTQ.s 			page 40


 2224 10b7 08       		.byte	0x8
 2225 10b8 08       		.uleb128 0x8
 2226 10b9 A3080000 		.4byte	.LASF256
 2227 10bd 18       		.byte	0x18
 2228 10be 3A       		.byte	0x3a
 2229 10bf DD000000 		.4byte	0xdd
 2230 10c3 0C       		.byte	0xc
 2231 10c4 08       		.uleb128 0x8
 2232 10c5 CE000000 		.4byte	.LASF257
 2233 10c9 18       		.byte	0x18
 2234 10ca 3C       		.byte	0x3c
 2235 10cb DD000000 		.4byte	0xdd
 2236 10cf 10       		.byte	0x10
 2237 10d0 08       		.uleb128 0x8
 2238 10d1 8E010000 		.4byte	.LASF258
 2239 10d5 18       		.byte	0x18
 2240 10d6 3E       		.byte	0x3e
 2241 10d7 DD000000 		.4byte	0xdd
 2242 10db 14       		.byte	0x14
 2243 10dc 08       		.uleb128 0x8
 2244 10dd 9E010000 		.4byte	.LASF259
 2245 10e1 18       		.byte	0x18
 2246 10e2 3F       		.byte	0x3f
 2247 10e3 DD000000 		.4byte	0xdd
 2248 10e7 18       		.byte	0x18
 2249 10e8 08       		.uleb128 0x8
 2250 10e9 44020000 		.4byte	.LASF260
 2251 10ed 18       		.byte	0x18
 2252 10ee 40       		.byte	0x40
 2253 10ef DD000000 		.4byte	0xdd
 2254 10f3 1C       		.byte	0x1c
 2255 10f4 00       		.byte	0
 2256 10f5 03       		.uleb128 0x3
 2257 10f6 1B090000 		.4byte	.LASF261
 2258 10fa 18       		.byte	0x18
 2259 10fb 41       		.byte	0x41
 2260 10fc 8C100000 		.4byte	0x108c
 2261 1100 18       		.uleb128 0x18
 2262 1101 20       		.byte	0x20
 2263 1102 18       		.byte	0x18
 2264 1103 46       		.byte	0x46
 2265 1104 69110000 		.4byte	0x1169
 2266 1108 08       		.uleb128 0x8
 2267 1109 C50A0000 		.4byte	.LASF262
 2268 110d 18       		.byte	0x18
 2269 110e 47       		.byte	0x47
 2270 110f DD000000 		.4byte	0xdd
 2271 1113 00       		.byte	0
 2272 1114 08       		.uleb128 0x8
 2273 1115 9E000000 		.4byte	.LASF263
 2274 1119 18       		.byte	0x18
 2275 111a 49       		.byte	0x49
 2276 111b DD000000 		.4byte	0xdd
 2277 111f 04       		.byte	0x4
 2278 1120 08       		.uleb128 0x8
 2279 1121 B60E0000 		.4byte	.LASF264
 2280 1125 18       		.byte	0x18
ARM GAS  /tmp/ccsfnBTQ.s 			page 41


 2281 1126 4A       		.byte	0x4a
 2282 1127 DD000000 		.4byte	0xdd
 2283 112b 08       		.byte	0x8
 2284 112c 08       		.uleb128 0x8
 2285 112d D5000000 		.4byte	.LASF265
 2286 1131 18       		.byte	0x18
 2287 1132 4C       		.byte	0x4c
 2288 1133 DD000000 		.4byte	0xdd
 2289 1137 0C       		.byte	0xc
 2290 1138 08       		.uleb128 0x8
 2291 1139 8C0B0000 		.4byte	.LASF266
 2292 113d 18       		.byte	0x18
 2293 113e 4D       		.byte	0x4d
 2294 113f DD000000 		.4byte	0xdd
 2295 1143 10       		.byte	0x10
 2296 1144 08       		.uleb128 0x8
 2297 1145 8E010000 		.4byte	.LASF258
 2298 1149 18       		.byte	0x18
 2299 114a 4F       		.byte	0x4f
 2300 114b DD000000 		.4byte	0xdd
 2301 114f 14       		.byte	0x14
 2302 1150 08       		.uleb128 0x8
 2303 1151 BF080000 		.4byte	.LASF267
 2304 1155 18       		.byte	0x18
 2305 1156 50       		.byte	0x50
 2306 1157 DD000000 		.4byte	0xdd
 2307 115b 18       		.byte	0x18
 2308 115c 08       		.uleb128 0x8
 2309 115d C2010000 		.4byte	.LASF268
 2310 1161 18       		.byte	0x18
 2311 1162 52       		.byte	0x52
 2312 1163 DD000000 		.4byte	0xdd
 2313 1167 1C       		.byte	0x1c
 2314 1168 00       		.byte	0
 2315 1169 03       		.uleb128 0x3
 2316 116a 1C050000 		.4byte	.LASF269
 2317 116e 18       		.byte	0x18
 2318 116f 53       		.byte	0x53
 2319 1170 00110000 		.4byte	0x1100
 2320 1174 18       		.uleb128 0x18
 2321 1175 20       		.byte	0x20
 2322 1176 18       		.byte	0x18
 2323 1177 58       		.byte	0x58
 2324 1178 DD110000 		.4byte	0x11dd
 2325 117c 08       		.uleb128 0x8
 2326 117d 16080000 		.4byte	.LASF270
 2327 1181 18       		.byte	0x18
 2328 1182 59       		.byte	0x59
 2329 1183 DD000000 		.4byte	0xdd
 2330 1187 00       		.byte	0
 2331 1188 08       		.uleb128 0x8
 2332 1189 9E000000 		.4byte	.LASF263
 2333 118d 18       		.byte	0x18
 2334 118e 5B       		.byte	0x5b
 2335 118f DD000000 		.4byte	0xdd
 2336 1193 04       		.byte	0x4
 2337 1194 08       		.uleb128 0x8
ARM GAS  /tmp/ccsfnBTQ.s 			page 42


 2338 1195 0E080000 		.4byte	.LASF271
 2339 1199 18       		.byte	0x18
 2340 119a 5C       		.byte	0x5c
 2341 119b DD000000 		.4byte	0xdd
 2342 119f 08       		.byte	0x8
 2343 11a0 08       		.uleb128 0x8
 2344 11a1 D5000000 		.4byte	.LASF265
 2345 11a5 18       		.byte	0x18
 2346 11a6 5E       		.byte	0x5e
 2347 11a7 DD000000 		.4byte	0xdd
 2348 11ab 0C       		.byte	0xc
 2349 11ac 08       		.uleb128 0x8
 2350 11ad D7040000 		.4byte	.LASF272
 2351 11b1 18       		.byte	0x18
 2352 11b2 5F       		.byte	0x5f
 2353 11b3 DD000000 		.4byte	0xdd
 2354 11b7 10       		.byte	0x10
 2355 11b8 08       		.uleb128 0x8
 2356 11b9 8E010000 		.4byte	.LASF258
 2357 11bd 18       		.byte	0x18
 2358 11be 61       		.byte	0x61
 2359 11bf DD000000 		.4byte	0xdd
 2360 11c3 14       		.byte	0x14
 2361 11c4 08       		.uleb128 0x8
 2362 11c5 9E010000 		.4byte	.LASF259
 2363 11c9 18       		.byte	0x18
 2364 11ca 62       		.byte	0x62
 2365 11cb DD000000 		.4byte	0xdd
 2366 11cf 18       		.byte	0x18
 2367 11d0 08       		.uleb128 0x8
 2368 11d1 C2010000 		.4byte	.LASF268
 2369 11d5 18       		.byte	0x18
 2370 11d6 63       		.byte	0x63
 2371 11d7 DD000000 		.4byte	0xdd
 2372 11db 1C       		.byte	0x1c
 2373 11dc 00       		.byte	0
 2374 11dd 03       		.uleb128 0x3
 2375 11de 890D0000 		.4byte	.LASF273
 2376 11e2 18       		.byte	0x18
 2377 11e3 64       		.byte	0x64
 2378 11e4 74110000 		.4byte	0x1174
 2379 11e8 20       		.uleb128 0x20
 2380 11e9 00100100 		.4byte	0x11000
 2381 11ed 18       		.byte	0x18
 2382 11ee 69       		.byte	0x69
 2383 11ef C5140000 		.4byte	0x14c5
 2384 11f3 08       		.uleb128 0x8
 2385 11f4 F00B0000 		.4byte	.LASF274
 2386 11f8 18       		.byte	0x18
 2387 11f9 6A       		.byte	0x6a
 2388 11fa DD000000 		.4byte	0xdd
 2389 11fe 00       		.byte	0
 2390 11ff 08       		.uleb128 0x8
 2391 1200 DA0B0000 		.4byte	.LASF275
 2392 1204 18       		.byte	0x18
 2393 1205 6B       		.byte	0x6b
 2394 1206 DD000000 		.4byte	0xdd
ARM GAS  /tmp/ccsfnBTQ.s 			page 43


 2395 120a 04       		.byte	0x4
 2396 120b 08       		.uleb128 0x8
 2397 120c E4090000 		.4byte	.LASF276
 2398 1210 18       		.byte	0x18
 2399 1211 6C       		.byte	0x6c
 2400 1212 DD000000 		.4byte	0xdd
 2401 1216 08       		.byte	0x8
 2402 1217 08       		.uleb128 0x8
 2403 1218 A10F0000 		.4byte	.LASF277
 2404 121c 18       		.byte	0x18
 2405 121d 6D       		.byte	0x6d
 2406 121e DD000000 		.4byte	0xdd
 2407 1222 0C       		.byte	0xc
 2408 1223 08       		.uleb128 0x8
 2409 1224 EF060000 		.4byte	.LASF278
 2410 1228 18       		.byte	0x18
 2411 1229 6E       		.byte	0x6e
 2412 122a DD000000 		.4byte	0xdd
 2413 122e 10       		.byte	0x10
 2414 122f 08       		.uleb128 0x8
 2415 1230 96010000 		.4byte	.LASF279
 2416 1234 18       		.byte	0x18
 2417 1235 6F       		.byte	0x6f
 2418 1236 DD000000 		.4byte	0xdd
 2419 123a 14       		.byte	0x14
 2420 123b 08       		.uleb128 0x8
 2421 123c 4C020000 		.4byte	.LASF280
 2422 1240 18       		.byte	0x18
 2423 1241 70       		.byte	0x70
 2424 1242 DD000000 		.4byte	0xdd
 2425 1246 18       		.byte	0x18
 2426 1247 08       		.uleb128 0x8
 2427 1248 570C0000 		.4byte	.LASF281
 2428 124c 18       		.byte	0x18
 2429 124d 71       		.byte	0x71
 2430 124e DD000000 		.4byte	0xdd
 2431 1252 1C       		.byte	0x1c
 2432 1253 08       		.uleb128 0x8
 2433 1254 450C0000 		.4byte	.LASF282
 2434 1258 18       		.byte	0x18
 2435 1259 73       		.byte	0x73
 2436 125a DD000000 		.4byte	0xdd
 2437 125e 20       		.byte	0x20
 2438 125f 08       		.uleb128 0x8
 2439 1260 23040000 		.4byte	.LASF283
 2440 1264 18       		.byte	0x18
 2441 1265 75       		.byte	0x75
 2442 1266 DD000000 		.4byte	0xdd
 2443 126a 24       		.byte	0x24
 2444 126b 08       		.uleb128 0x8
 2445 126c C30B0000 		.4byte	.LASF284
 2446 1270 18       		.byte	0x18
 2447 1271 76       		.byte	0x76
 2448 1272 DD000000 		.4byte	0xdd
 2449 1276 28       		.byte	0x28
 2450 1277 08       		.uleb128 0x8
 2451 1278 E40D0000 		.4byte	.LASF285
ARM GAS  /tmp/ccsfnBTQ.s 			page 44


 2452 127c 18       		.byte	0x18
 2453 127d 78       		.byte	0x78
 2454 127e DD000000 		.4byte	0xdd
 2455 1282 2C       		.byte	0x2c
 2456 1283 08       		.uleb128 0x8
 2457 1284 B6030000 		.4byte	.LASF286
 2458 1288 18       		.byte	0x18
 2459 1289 7A       		.byte	0x7a
 2460 128a DD000000 		.4byte	0xdd
 2461 128e 30       		.byte	0x30
 2462 128f 08       		.uleb128 0x8
 2463 1290 44010000 		.4byte	.LASF287
 2464 1294 18       		.byte	0x18
 2465 1295 7B       		.byte	0x7b
 2466 1296 DD000000 		.4byte	0xdd
 2467 129a 34       		.byte	0x34
 2468 129b 08       		.uleb128 0x8
 2469 129c BC010000 		.4byte	.LASF288
 2470 12a0 18       		.byte	0x18
 2471 12a1 7C       		.byte	0x7c
 2472 12a2 DD000000 		.4byte	0xdd
 2473 12a6 38       		.byte	0x38
 2474 12a7 17       		.uleb128 0x17
 2475 12a8 43494400 		.ascii	"CID\000"
 2476 12ac 18       		.byte	0x18
 2477 12ad 7D       		.byte	0x7d
 2478 12ae DD000000 		.4byte	0xdd
 2479 12b2 3C       		.byte	0x3c
 2480 12b3 08       		.uleb128 0x8
 2481 12b4 CE050000 		.4byte	.LASF289
 2482 12b8 18       		.byte	0x18
 2483 12b9 7E       		.byte	0x7e
 2484 12ba D5140000 		.4byte	0x14d5
 2485 12be 40       		.byte	0x40
 2486 12bf 21       		.uleb128 0x21
 2487 12c0 2E0A0000 		.4byte	.LASF290
 2488 12c4 18       		.byte	0x18
 2489 12c5 7F       		.byte	0x7f
 2490 12c6 DD000000 		.4byte	0xdd
 2491 12ca 0001     		.2byte	0x100
 2492 12cc 21       		.uleb128 0x21
 2493 12cd D60E0000 		.4byte	.LASF291
 2494 12d1 18       		.byte	0x18
 2495 12d2 81       		.byte	0x81
 2496 12d3 76050000 		.4byte	0x576
 2497 12d7 0401     		.2byte	0x104
 2498 12d9 21       		.uleb128 0x21
 2499 12da 3C030000 		.4byte	.LASF292
 2500 12de 18       		.byte	0x18
 2501 12df 83       		.byte	0x83
 2502 12e0 EA140000 		.4byte	0x14ea
 2503 12e4 4001     		.2byte	0x140
 2504 12e6 21       		.uleb128 0x21
 2505 12e7 A7050000 		.4byte	.LASF293
 2506 12eb 18       		.byte	0x18
 2507 12ec 84       		.byte	0x84
 2508 12ed DD000000 		.4byte	0xdd
ARM GAS  /tmp/ccsfnBTQ.s 			page 45


 2509 12f1 0004     		.2byte	0x400
 2510 12f3 21       		.uleb128 0x21
 2511 12f4 D10E0000 		.4byte	.LASF294
 2512 12f8 18       		.byte	0x18
 2513 12f9 85       		.byte	0x85
 2514 12fa DD000000 		.4byte	0xdd
 2515 12fe 0404     		.2byte	0x404
 2516 1300 21       		.uleb128 0x21
 2517 1301 340E0000 		.4byte	.LASF295
 2518 1305 18       		.byte	0x18
 2519 1306 86       		.byte	0x86
 2520 1307 DD000000 		.4byte	0xdd
 2521 130b 0804     		.2byte	0x408
 2522 130d 21       		.uleb128 0x21
 2523 130e 2F020000 		.4byte	.LASF296
 2524 1312 18       		.byte	0x18
 2525 1313 88       		.byte	0x88
 2526 1314 DD000000 		.4byte	0xdd
 2527 1318 0C04     		.2byte	0x40c
 2528 131a 21       		.uleb128 0x21
 2529 131b 3C090000 		.4byte	.LASF297
 2530 131f 18       		.byte	0x18
 2531 1320 89       		.byte	0x89
 2532 1321 DD000000 		.4byte	0xdd
 2533 1325 1004     		.2byte	0x410
 2534 1327 21       		.uleb128 0x21
 2535 1328 63080000 		.4byte	.LASF298
 2536 132c 18       		.byte	0x18
 2537 132d 8B       		.byte	0x8b
 2538 132e DD000000 		.4byte	0xdd
 2539 1332 1404     		.2byte	0x414
 2540 1334 21       		.uleb128 0x21
 2541 1335 8F060000 		.4byte	.LASF299
 2542 1339 18       		.byte	0x18
 2543 133a 8D       		.byte	0x8d
 2544 133b DD000000 		.4byte	0xdd
 2545 133f 1804     		.2byte	0x418
 2546 1341 21       		.uleb128 0x21
 2547 1342 D50A0000 		.4byte	.LASF300
 2548 1346 18       		.byte	0x18
 2549 1347 8F       		.byte	0x8f
 2550 1348 FF140000 		.4byte	0x14ff
 2551 134c 1C04     		.2byte	0x41c
 2552 134e 21       		.uleb128 0x21
 2553 134f FE040000 		.4byte	.LASF301
 2554 1353 18       		.byte	0x18
 2555 1354 90       		.byte	0x90
 2556 1355 DD000000 		.4byte	0xdd
 2557 1359 4004     		.2byte	0x440
 2558 135b 21       		.uleb128 0x21
 2559 135c 2E050000 		.4byte	.LASF302
 2560 1360 18       		.byte	0x18
 2561 1361 92       		.byte	0x92
 2562 1362 14150000 		.4byte	0x1514
 2563 1366 4404     		.2byte	0x444
 2564 1368 22       		.uleb128 0x22
 2565 1369 686300   		.ascii	"hc\000"
ARM GAS  /tmp/ccsfnBTQ.s 			page 46


 2566 136c 18       		.byte	0x18
 2567 136d 93       		.byte	0x93
 2568 136e 19150000 		.4byte	0x1519
 2569 1372 0005     		.2byte	0x500
 2570 1374 21       		.uleb128 0x21
 2571 1375 03050000 		.4byte	.LASF303
 2572 1379 18       		.byte	0x18
 2573 137a 94       		.byte	0x94
 2574 137b 39150000 		.4byte	0x1539
 2575 137f 0007     		.2byte	0x700
 2576 1381 21       		.uleb128 0x21
 2577 1382 86000000 		.4byte	.LASF304
 2578 1386 18       		.byte	0x18
 2579 1387 95       		.byte	0x95
 2580 1388 DD000000 		.4byte	0xdd
 2581 138c 0008     		.2byte	0x800
 2582 138e 21       		.uleb128 0x21
 2583 138f 2D100000 		.4byte	.LASF305
 2584 1393 18       		.byte	0x18
 2585 1394 96       		.byte	0x96
 2586 1395 DD000000 		.4byte	0xdd
 2587 1399 0408     		.2byte	0x804
 2588 139b 21       		.uleb128 0x21
 2589 139c 37050000 		.4byte	.LASF306
 2590 13a0 18       		.byte	0x18
 2591 13a1 97       		.byte	0x97
 2592 13a2 DD000000 		.4byte	0xdd
 2593 13a6 0808     		.2byte	0x808
 2594 13a8 21       		.uleb128 0x21
 2595 13a9 370B0000 		.4byte	.LASF307
 2596 13ad 18       		.byte	0x18
 2597 13ae 98       		.byte	0x98
 2598 13af DD000000 		.4byte	0xdd
 2599 13b3 0C08     		.2byte	0x80c
 2600 13b5 21       		.uleb128 0x21
 2601 13b6 1B0C0000 		.4byte	.LASF308
 2602 13ba 18       		.byte	0x18
 2603 13bb 99       		.byte	0x99
 2604 13bc DD000000 		.4byte	0xdd
 2605 13c0 1008     		.2byte	0x810
 2606 13c2 21       		.uleb128 0x21
 2607 13c3 6F060000 		.4byte	.LASF309
 2608 13c7 18       		.byte	0x18
 2609 13c8 9B       		.byte	0x9b
 2610 13c9 DD000000 		.4byte	0xdd
 2611 13cd 1408     		.2byte	0x814
 2612 13cf 21       		.uleb128 0x21
 2613 13d0 A90F0000 		.4byte	.LASF310
 2614 13d4 18       		.byte	0x18
 2615 13d5 9D       		.byte	0x9d
 2616 13d6 DD000000 		.4byte	0xdd
 2617 13da 1808     		.2byte	0x818
 2618 13dc 21       		.uleb128 0x21
 2619 13dd F80B0000 		.4byte	.LASF311
 2620 13e1 18       		.byte	0x18
 2621 13e2 9F       		.byte	0x9f
 2622 13e3 DD000000 		.4byte	0xdd
ARM GAS  /tmp/ccsfnBTQ.s 			page 47


 2623 13e7 1C08     		.2byte	0x81c
 2624 13e9 21       		.uleb128 0x21
 2625 13ea FB0D0000 		.4byte	.LASF312
 2626 13ee 18       		.byte	0x18
 2627 13ef A1       		.byte	0xa1
 2628 13f0 DD000000 		.4byte	0xdd
 2629 13f4 2008     		.2byte	0x820
 2630 13f6 21       		.uleb128 0x21
 2631 13f7 1D0E0000 		.4byte	.LASF313
 2632 13fb 18       		.byte	0x18
 2633 13fc A2       		.byte	0xa2
 2634 13fd DD000000 		.4byte	0xdd
 2635 1401 2408     		.2byte	0x824
 2636 1403 21       		.uleb128 0x21
 2637 1404 7D020000 		.4byte	.LASF314
 2638 1408 18       		.byte	0x18
 2639 1409 A3       		.byte	0xa3
 2640 140a DD000000 		.4byte	0xdd
 2641 140e 2808     		.2byte	0x828
 2642 1410 21       		.uleb128 0x21
 2643 1411 87090000 		.4byte	.LASF315
 2644 1415 18       		.byte	0x18
 2645 1416 A5       		.byte	0xa5
 2646 1417 DD000000 		.4byte	0xdd
 2647 141b 2C08     		.2byte	0x82c
 2648 141d 21       		.uleb128 0x21
 2649 141e FC0E0000 		.4byte	.LASF316
 2650 1422 18       		.byte	0x18
 2651 1423 A7       		.byte	0xa7
 2652 1424 DD000000 		.4byte	0xdd
 2653 1428 3008     		.2byte	0x830
 2654 142a 21       		.uleb128 0x21
 2655 142b 8A030000 		.4byte	.LASF317
 2656 142f 18       		.byte	0x18
 2657 1430 A8       		.byte	0xa8
 2658 1431 DD000000 		.4byte	0xdd
 2659 1435 3408     		.2byte	0x834
 2660 1437 21       		.uleb128 0x21
 2661 1438 66060000 		.4byte	.LASF318
 2662 143c 18       		.byte	0x18
 2663 143d AA       		.byte	0xaa
 2664 143e DD000000 		.4byte	0xdd
 2665 1442 3808     		.2byte	0x838
 2666 1444 21       		.uleb128 0x21
 2667 1445 5C0F0000 		.4byte	.LASF319
 2668 1449 18       		.byte	0x18
 2669 144a AB       		.byte	0xab
 2670 144b DD000000 		.4byte	0xdd
 2671 144f 3C08     		.2byte	0x83c
 2672 1451 21       		.uleb128 0x21
 2673 1452 3F080000 		.4byte	.LASF320
 2674 1456 18       		.byte	0x18
 2675 1457 AC       		.byte	0xac
 2676 1458 4E150000 		.4byte	0x154e
 2677 145c 4008     		.2byte	0x840
 2678 145e 21       		.uleb128 0x21
 2679 145f C6030000 		.4byte	.LASF321
ARM GAS  /tmp/ccsfnBTQ.s 			page 48


 2680 1463 18       		.byte	0x18
 2681 1464 AD       		.byte	0xad
 2682 1465 4E150000 		.4byte	0x154e
 2683 1469 8008     		.2byte	0x880
 2684 146b 21       		.uleb128 0x21
 2685 146c E20F0000 		.4byte	.LASF322
 2686 1470 18       		.byte	0x18
 2687 1471 AE       		.byte	0xae
 2688 1472 4E150000 		.4byte	0x154e
 2689 1476 C008     		.2byte	0x8c0
 2690 1478 22       		.uleb128 0x22
 2691 1479 696500   		.ascii	"ie\000"
 2692 147c 18       		.byte	0x18
 2693 147d AF       		.byte	0xaf
 2694 147e 53150000 		.4byte	0x1553
 2695 1482 0009     		.2byte	0x900
 2696 1484 22       		.uleb128 0x22
 2697 1485 6F6500   		.ascii	"oe\000"
 2698 1488 18       		.byte	0x18
 2699 1489 B0       		.byte	0xb0
 2700 148a 63150000 		.4byte	0x1563
 2701 148e 000B     		.2byte	0xb00
 2702 1490 21       		.uleb128 0x21
 2703 1491 A4090000 		.4byte	.LASF323
 2704 1495 18       		.byte	0x18
 2705 1496 B1       		.byte	0xb1
 2706 1497 39150000 		.4byte	0x1539
 2707 149b 000D     		.2byte	0xd00
 2708 149d 21       		.uleb128 0x21
 2709 149e 050F0000 		.4byte	.LASF324
 2710 14a2 18       		.byte	0x18
 2711 14a3 B2       		.byte	0xb2
 2712 14a4 DD000000 		.4byte	0xdd
 2713 14a8 000E     		.2byte	0xe00
 2714 14aa 21       		.uleb128 0x21
 2715 14ab 780E0000 		.4byte	.LASF325
 2716 14af 18       		.byte	0x18
 2717 14b0 B4       		.byte	0xb4
 2718 14b1 83150000 		.4byte	0x1583
 2719 14b5 040E     		.2byte	0xe04
 2720 14b7 21       		.uleb128 0x21
 2721 14b8 6A090000 		.4byte	.LASF326
 2722 14bc 18       		.byte	0x18
 2723 14bd B5       		.byte	0xb5
 2724 14be 9F150000 		.4byte	0x159f
 2725 14c2 0010     		.2byte	0x1000
 2726 14c4 00       		.byte	0
 2727 14c5 15       		.uleb128 0x15
 2728 14c6 DD000000 		.4byte	0xdd
 2729 14ca D5140000 		.4byte	0x14d5
 2730 14ce 16       		.uleb128 0x16
 2731 14cf 9B000000 		.4byte	0x9b
 2732 14d3 2F       		.byte	0x2f
 2733 14d4 00       		.byte	0
 2734 14d5 06       		.uleb128 0x6
 2735 14d6 C5140000 		.4byte	0x14c5
 2736 14da 15       		.uleb128 0x15
ARM GAS  /tmp/ccsfnBTQ.s 			page 49


 2737 14db DD000000 		.4byte	0xdd
 2738 14df EA140000 		.4byte	0x14ea
 2739 14e3 16       		.uleb128 0x16
 2740 14e4 9B000000 		.4byte	0x9b
 2741 14e8 AF       		.byte	0xaf
 2742 14e9 00       		.byte	0
 2743 14ea 06       		.uleb128 0x6
 2744 14eb DA140000 		.4byte	0x14da
 2745 14ef 15       		.uleb128 0x15
 2746 14f0 DD000000 		.4byte	0xdd
 2747 14f4 FF140000 		.4byte	0x14ff
 2748 14f8 16       		.uleb128 0x16
 2749 14f9 9B000000 		.4byte	0x9b
 2750 14fd 08       		.byte	0x8
 2751 14fe 00       		.byte	0
 2752 14ff 06       		.uleb128 0x6
 2753 1500 EF140000 		.4byte	0x14ef
 2754 1504 15       		.uleb128 0x15
 2755 1505 DD000000 		.4byte	0xdd
 2756 1509 14150000 		.4byte	0x1514
 2757 150d 16       		.uleb128 0x16
 2758 150e 9B000000 		.4byte	0x9b
 2759 1512 2E       		.byte	0x2e
 2760 1513 00       		.byte	0
 2761 1514 06       		.uleb128 0x6
 2762 1515 04150000 		.4byte	0x1504
 2763 1519 15       		.uleb128 0x15
 2764 151a F5100000 		.4byte	0x10f5
 2765 151e 29150000 		.4byte	0x1529
 2766 1522 16       		.uleb128 0x16
 2767 1523 9B000000 		.4byte	0x9b
 2768 1527 0F       		.byte	0xf
 2769 1528 00       		.byte	0
 2770 1529 15       		.uleb128 0x15
 2771 152a DD000000 		.4byte	0xdd
 2772 152e 39150000 		.4byte	0x1539
 2773 1532 16       		.uleb128 0x16
 2774 1533 9B000000 		.4byte	0x9b
 2775 1537 3F       		.byte	0x3f
 2776 1538 00       		.byte	0
 2777 1539 06       		.uleb128 0x6
 2778 153a 29150000 		.4byte	0x1529
 2779 153e 15       		.uleb128 0x15
 2780 153f DD000000 		.4byte	0xdd
 2781 1543 4E150000 		.4byte	0x154e
 2782 1547 16       		.uleb128 0x16
 2783 1548 9B000000 		.4byte	0x9b
 2784 154c 0F       		.byte	0xf
 2785 154d 00       		.byte	0
 2786 154e 06       		.uleb128 0x6
 2787 154f 3E150000 		.4byte	0x153e
 2788 1553 15       		.uleb128 0x15
 2789 1554 69110000 		.4byte	0x1169
 2790 1558 63150000 		.4byte	0x1563
 2791 155c 16       		.uleb128 0x16
 2792 155d 9B000000 		.4byte	0x9b
 2793 1561 0F       		.byte	0xf
ARM GAS  /tmp/ccsfnBTQ.s 			page 50


 2794 1562 00       		.byte	0
 2795 1563 15       		.uleb128 0x15
 2796 1564 DD110000 		.4byte	0x11dd
 2797 1568 73150000 		.4byte	0x1573
 2798 156c 16       		.uleb128 0x16
 2799 156d 9B000000 		.4byte	0x9b
 2800 1571 0F       		.byte	0xf
 2801 1572 00       		.byte	0
 2802 1573 15       		.uleb128 0x15
 2803 1574 DD000000 		.4byte	0xdd
 2804 1578 83150000 		.4byte	0x1583
 2805 157c 16       		.uleb128 0x16
 2806 157d 9B000000 		.4byte	0x9b
 2807 1581 7E       		.byte	0x7e
 2808 1582 00       		.byte	0
 2809 1583 06       		.uleb128 0x6
 2810 1584 73150000 		.4byte	0x1573
 2811 1588 15       		.uleb128 0x15
 2812 1589 DD000000 		.4byte	0xdd
 2813 158d 9F150000 		.4byte	0x159f
 2814 1591 16       		.uleb128 0x16
 2815 1592 9B000000 		.4byte	0x9b
 2816 1596 0F       		.byte	0xf
 2817 1597 23       		.uleb128 0x23
 2818 1598 9B000000 		.4byte	0x9b
 2819 159c FF03     		.2byte	0x3ff
 2820 159e 00       		.byte	0
 2821 159f 06       		.uleb128 0x6
 2822 15a0 88150000 		.4byte	0x1588
 2823 15a4 03       		.uleb128 0x3
 2824 15a5 EC090000 		.4byte	.LASF327
 2825 15a9 18       		.byte	0x18
 2826 15aa B6       		.byte	0xb6
 2827 15ab E8110000 		.4byte	0x11e8
 2828 15af 18       		.uleb128 0x18
 2829 15b0 0C       		.byte	0xc
 2830 15b1 17       		.byte	0x17
 2831 15b2 C6       		.byte	0xc6
 2832 15b3 DC150000 		.4byte	0x15dc
 2833 15b7 08       		.uleb128 0x8
 2834 15b8 9A050000 		.4byte	.LASF328
 2835 15bc 17       		.byte	0x17
 2836 15bd C7       		.byte	0xc7
 2837 15be D2000000 		.4byte	0xd2
 2838 15c2 00       		.byte	0
 2839 15c3 08       		.uleb128 0x8
 2840 15c4 CA010000 		.4byte	.LASF329
 2841 15c8 17       		.byte	0x17
 2842 15c9 C8       		.byte	0xc8
 2843 15ca D2000000 		.4byte	0xd2
 2844 15ce 04       		.byte	0x4
 2845 15cf 08       		.uleb128 0x8
 2846 15d0 1D030000 		.4byte	.LASF330
 2847 15d4 17       		.byte	0x17
 2848 15d5 C9       		.byte	0xc9
 2849 15d6 D2000000 		.4byte	0xd2
 2850 15da 08       		.byte	0x8
ARM GAS  /tmp/ccsfnBTQ.s 			page 51


 2851 15db 00       		.byte	0
 2852 15dc 03       		.uleb128 0x3
 2853 15dd 1E080000 		.4byte	.LASF331
 2854 15e1 17       		.byte	0x17
 2855 15e2 CA       		.byte	0xca
 2856 15e3 AF150000 		.4byte	0x15af
 2857 15e7 05       		.uleb128 0x5
 2858 15e8 DC150000 		.4byte	0x15dc
 2859 15ec 18       		.uleb128 0x18
 2860 15ed 04       		.byte	0x4
 2861 15ee 17       		.byte	0x17
 2862 15ef DD       		.byte	0xdd
 2863 15f0 01160000 		.4byte	0x1601
 2864 15f4 08       		.uleb128 0x8
 2865 15f5 310B0000 		.4byte	.LASF332
 2866 15f9 17       		.byte	0x17
 2867 15fa E1       		.byte	0xe1
 2868 15fb E1090000 		.4byte	0x9e1
 2869 15ff 00       		.byte	0
 2870 1600 00       		.byte	0
 2871 1601 18       		.uleb128 0x18
 2872 1602 04       		.byte	0x4
 2873 1603 17       		.byte	0x17
 2874 1604 E3       		.byte	0xe3
 2875 1605 16160000 		.4byte	0x1616
 2876 1609 08       		.uleb128 0x8
 2877 160a AB0B0000 		.4byte	.LASF333
 2878 160e 17       		.byte	0x17
 2879 160f E7       		.byte	0xe7
 2880 1610 16160000 		.4byte	0x1616
 2881 1614 00       		.byte	0
 2882 1615 00       		.byte	0
 2883 1616 0B       		.uleb128 0xb
 2884 1617 04       		.byte	0x4
 2885 1618 D6090000 		.4byte	0x9d6
 2886 161c 19       		.uleb128 0x19
 2887 161d 04       		.byte	0x4
 2888 161e 17       		.byte	0x17
 2889 161f DC       		.byte	0xdc
 2890 1620 3B160000 		.4byte	0x163b
 2891 1624 24       		.uleb128 0x24
 2892 1625 63090000 		.4byte	.LASF334
 2893 1629 17       		.byte	0x17
 2894 162a E2       		.byte	0xe2
 2895 162b EC150000 		.4byte	0x15ec
 2896 162f 24       		.uleb128 0x24
 2897 1630 9C0D0000 		.4byte	.LASF335
 2898 1634 17       		.byte	0x17
 2899 1635 E8       		.byte	0xe8
 2900 1636 01160000 		.4byte	0x1601
 2901 163a 00       		.byte	0
 2902 163b 18       		.uleb128 0x18
 2903 163c 14       		.byte	0x14
 2904 163d 17       		.byte	0x17
 2905 163e CF       		.byte	0xcf
 2906 163f 80160000 		.4byte	0x1680
 2907 1643 08       		.uleb128 0x8
ARM GAS  /tmp/ccsfnBTQ.s 			page 52


 2908 1644 AC080000 		.4byte	.LASF336
 2909 1648 17       		.byte	0x17
 2910 1649 D3       		.byte	0xd3
 2911 164a 690A0000 		.4byte	0xa69
 2912 164e 00       		.byte	0
 2913 164f 08       		.uleb128 0x8
 2914 1650 4F080000 		.4byte	.LASF337
 2915 1654 17       		.byte	0x17
 2916 1655 D7       		.byte	0xd7
 2917 1656 ED000000 		.4byte	0xed
 2918 165a 04       		.byte	0x4
 2919 165b 08       		.uleb128 0x8
 2920 165c 1D040000 		.4byte	.LASF338
 2921 1660 17       		.byte	0x17
 2922 1661 DB       		.byte	0xdb
 2923 1662 ED000000 		.4byte	0xed
 2924 1666 08       		.byte	0x8
 2925 1667 08       		.uleb128 0x8
 2926 1668 3F020000 		.4byte	.LASF339
 2927 166c 17       		.byte	0x17
 2928 166d E9       		.byte	0xe9
 2929 166e 1C160000 		.4byte	0x161c
 2930 1672 0C       		.byte	0xc
 2931 1673 08       		.uleb128 0x8
 2932 1674 77000000 		.4byte	.LASF340
 2933 1678 17       		.byte	0x17
 2934 1679 ED       		.byte	0xed
 2935 167a ED000000 		.4byte	0xed
 2936 167e 10       		.byte	0x10
 2937 167f 00       		.byte	0
 2938 1680 03       		.uleb128 0x3
 2939 1681 1A0F0000 		.4byte	.LASF341
 2940 1685 17       		.byte	0x17
 2941 1686 EE       		.byte	0xee
 2942 1687 3B160000 		.4byte	0x163b
 2943 168b 13       		.uleb128 0x13
 2944 168c 04       		.byte	0x4
 2945 168d 17       		.byte	0x17
 2946 168e 0101     		.2byte	0x101
 2947 1690 A2160000 		.4byte	0x16a2
 2948 1694 0A       		.uleb128 0xa
 2949 1695 BA100000 		.4byte	.LASF193
 2950 1699 17       		.byte	0x17
 2951 169a 0501     		.2byte	0x105
 2952 169c C5090000 		.4byte	0x9c5
 2953 16a0 00       		.byte	0
 2954 16a1 00       		.byte	0
 2955 16a2 13       		.uleb128 0x13
 2956 16a3 04       		.byte	0x4
 2957 16a4 17       		.byte	0x17
 2958 16a5 0701     		.2byte	0x107
 2959 16a7 B9160000 		.4byte	0x16b9
 2960 16ab 0A       		.uleb128 0xa
 2961 16ac C0090000 		.4byte	.LASF342
 2962 16b0 17       		.byte	0x17
 2963 16b1 0B01     		.2byte	0x10b
 2964 16b3 B9160000 		.4byte	0x16b9
ARM GAS  /tmp/ccsfnBTQ.s 			page 53


 2965 16b7 00       		.byte	0
 2966 16b8 00       		.byte	0
 2967 16b9 0B       		.uleb128 0xb
 2968 16ba 04       		.byte	0x4
 2969 16bb CB090000 		.4byte	0x9cb
 2970 16bf 25       		.uleb128 0x25
 2971 16c0 04       		.byte	0x4
 2972 16c1 17       		.byte	0x17
 2973 16c2 0001     		.2byte	0x100
 2974 16c4 E1160000 		.4byte	0x16e1
 2975 16c8 1A       		.uleb128 0x1a
 2976 16c9 63090000 		.4byte	.LASF334
 2977 16cd 17       		.byte	0x17
 2978 16ce 0601     		.2byte	0x106
 2979 16d0 8B160000 		.4byte	0x168b
 2980 16d4 1A       		.uleb128 0x1a
 2981 16d5 9C0D0000 		.4byte	.LASF335
 2982 16d9 17       		.byte	0x17
 2983 16da 0C01     		.2byte	0x10c
 2984 16dc A2160000 		.4byte	0x16a2
 2985 16e0 00       		.byte	0
 2986 16e1 18       		.uleb128 0x18
 2987 16e2 14       		.byte	0x14
 2988 16e3 17       		.byte	0x17
 2989 16e4 F3       		.byte	0xf3
 2990 16e5 28170000 		.4byte	0x1728
 2991 16e9 08       		.uleb128 0x8
 2992 16ea 5F0C0000 		.4byte	.LASF343
 2993 16ee 17       		.byte	0x17
 2994 16ef F7       		.byte	0xf7
 2995 16f0 690A0000 		.4byte	0xa69
 2996 16f4 00       		.byte	0
 2997 16f5 08       		.uleb128 0x8
 2998 16f6 A7020000 		.4byte	.LASF344
 2999 16fa 17       		.byte	0x17
 3000 16fb FB       		.byte	0xfb
 3001 16fc ED000000 		.4byte	0xed
 3002 1700 04       		.byte	0x4
 3003 1701 08       		.uleb128 0x8
 3004 1702 D40F0000 		.4byte	.LASF345
 3005 1706 17       		.byte	0x17
 3006 1707 FF       		.byte	0xff
 3007 1708 ED000000 		.4byte	0xed
 3008 170c 08       		.byte	0x8
 3009 170d 0A       		.uleb128 0xa
 3010 170e 3F020000 		.4byte	.LASF339
 3011 1712 17       		.byte	0x17
 3012 1713 0D01     		.2byte	0x10d
 3013 1715 BF160000 		.4byte	0x16bf
 3014 1719 0C       		.byte	0xc
 3015 171a 0A       		.uleb128 0xa
 3016 171b 77000000 		.4byte	.LASF340
 3017 171f 17       		.byte	0x17
 3018 1720 1101     		.2byte	0x111
 3019 1722 ED000000 		.4byte	0xed
 3020 1726 10       		.byte	0x10
 3021 1727 00       		.byte	0
ARM GAS  /tmp/ccsfnBTQ.s 			page 54


 3022 1728 14       		.uleb128 0x14
 3023 1729 A40A0000 		.4byte	.LASF346
 3024 172d 17       		.byte	0x17
 3025 172e 1201     		.2byte	0x112
 3026 1730 E1160000 		.4byte	0x16e1
 3027 1734 13       		.uleb128 0x13
 3028 1735 24       		.byte	0x24
 3029 1736 17       		.byte	0x17
 3030 1737 1801     		.2byte	0x118
 3031 1739 C0170000 		.4byte	0x17c0
 3032 173d 0A       		.uleb128 0xa
 3033 173e D7010000 		.4byte	.LASF347
 3034 1742 17       		.byte	0x17
 3035 1743 1C01     		.2byte	0x11c
 3036 1745 D2000000 		.4byte	0xd2
 3037 1749 00       		.byte	0
 3038 174a 0A       		.uleb128 0xa
 3039 174b 5D0E0000 		.4byte	.LASF348
 3040 174f 17       		.byte	0x17
 3041 1750 2701     		.2byte	0x127
 3042 1752 F10F0000 		.4byte	0xff1
 3043 1756 04       		.byte	0x4
 3044 1757 0A       		.uleb128 0xa
 3045 1758 87070000 		.4byte	.LASF349
 3046 175c 17       		.byte	0x17
 3047 175d 2D01     		.2byte	0x12d
 3048 175f F10F0000 		.4byte	0xff1
 3049 1763 08       		.byte	0x8
 3050 1764 0A       		.uleb128 0xa
 3051 1765 F7040000 		.4byte	.LASF350
 3052 1769 17       		.byte	0x17
 3053 176a 3301     		.2byte	0x133
 3054 176c F10F0000 		.4byte	0xff1
 3055 1770 0C       		.byte	0xc
 3056 1771 0A       		.uleb128 0xa
 3057 1772 FD0F0000 		.4byte	.LASF351
 3058 1776 17       		.byte	0x17
 3059 1777 3901     		.2byte	0x139
 3060 1779 B2000000 		.4byte	0xb2
 3061 177d 10       		.byte	0x10
 3062 177e 0A       		.uleb128 0xa
 3063 177f F00E0000 		.4byte	.LASF352
 3064 1783 17       		.byte	0x17
 3065 1784 3F01     		.2byte	0x13f
 3066 1786 B2000000 		.4byte	0xb2
 3067 178a 12       		.byte	0x12
 3068 178b 0A       		.uleb128 0xa
 3069 178c D7060000 		.4byte	.LASF353
 3070 1790 17       		.byte	0x17
 3071 1791 4401     		.2byte	0x144
 3072 1793 C0170000 		.4byte	0x17c0
 3073 1797 14       		.byte	0x14
 3074 1798 0A       		.uleb128 0xa
 3075 1799 7C080000 		.4byte	.LASF354
 3076 179d 17       		.byte	0x17
 3077 179e 4901     		.2byte	0x149
 3078 17a0 C6170000 		.4byte	0x17c6
ARM GAS  /tmp/ccsfnBTQ.s 			page 55


 3079 17a4 18       		.byte	0x18
 3080 17a5 0A       		.uleb128 0xa
 3081 17a6 930F0000 		.4byte	.LASF355
 3082 17aa 17       		.byte	0x17
 3083 17ab 5001     		.2byte	0x150
 3084 17ad B2000000 		.4byte	0xb2
 3085 17b1 1C       		.byte	0x1c
 3086 17b2 0A       		.uleb128 0xa
 3087 17b3 7D090000 		.4byte	.LASF356
 3088 17b7 17       		.byte	0x17
 3089 17b8 5601     		.2byte	0x156
 3090 17ba C5090000 		.4byte	0x9c5
 3091 17be 20       		.byte	0x20
 3092 17bf 00       		.byte	0
 3093 17c0 0B       		.uleb128 0xb
 3094 17c1 04       		.byte	0x4
 3095 17c2 80160000 		.4byte	0x1680
 3096 17c6 0B       		.uleb128 0xb
 3097 17c7 04       		.byte	0x4
 3098 17c8 28170000 		.4byte	0x1728
 3099 17cc 14       		.uleb128 0x14
 3100 17cd 49040000 		.4byte	.LASF357
 3101 17d1 17       		.byte	0x17
 3102 17d2 5701     		.2byte	0x157
 3103 17d4 34170000 		.4byte	0x1734
 3104 17d8 05       		.uleb128 0x5
 3105 17d9 CC170000 		.4byte	0x17cc
 3106 17dd 13       		.uleb128 0x13
 3107 17de 10       		.byte	0x10
 3108 17df 17       		.byte	0x17
 3109 17e0 5C01     		.2byte	0x15c
 3110 17e2 1B180000 		.4byte	0x181b
 3111 17e6 0A       		.uleb128 0xa
 3112 17e7 7A040000 		.4byte	.LASF358
 3113 17eb 17       		.byte	0x17
 3114 17ec 6101     		.2byte	0x161
 3115 17ee 13100000 		.4byte	0x1013
 3116 17f2 00       		.byte	0
 3117 17f3 0A       		.uleb128 0xa
 3118 17f4 660E0000 		.4byte	.LASF359
 3119 17f8 17       		.byte	0x17
 3120 17f9 6601     		.2byte	0x166
 3121 17fb 56100000 		.4byte	0x1056
 3122 17ff 04       		.byte	0x4
 3123 1800 0A       		.uleb128 0xa
 3124 1801 F6000000 		.4byte	.LASF360
 3125 1805 17       		.byte	0x17
 3126 1806 6C01     		.2byte	0x16c
 3127 1808 35100000 		.4byte	0x1035
 3128 180c 08       		.byte	0x8
 3129 180d 0A       		.uleb128 0xa
 3130 180e 01090000 		.4byte	.LASF361
 3131 1812 17       		.byte	0x17
 3132 1813 7001     		.2byte	0x170
 3133 1815 CE0F0000 		.4byte	0xfce
 3134 1819 0C       		.byte	0xc
 3135 181a 00       		.byte	0
ARM GAS  /tmp/ccsfnBTQ.s 			page 56


 3136 181b 14       		.uleb128 0x14
 3137 181c D1090000 		.4byte	.LASF362
 3138 1820 17       		.byte	0x17
 3139 1821 7201     		.2byte	0x172
 3140 1823 DD170000 		.4byte	0x17dd
 3141 1827 05       		.uleb128 0x5
 3142 1828 1B180000 		.4byte	0x181b
 3143 182c 0B       		.uleb128 0xb
 3144 182d 04       		.byte	0x4
 3145 182e 27180000 		.4byte	0x1827
 3146 1832 15       		.uleb128 0x15
 3147 1833 42180000 		.4byte	0x1842
 3148 1837 42180000 		.4byte	0x1842
 3149 183b 16       		.uleb128 0x16
 3150 183c 9B000000 		.4byte	0x9b
 3151 1840 03       		.byte	0x3
 3152 1841 00       		.byte	0
 3153 1842 0B       		.uleb128 0xb
 3154 1843 04       		.byte	0x4
 3155 1844 D8170000 		.4byte	0x17d8
 3156 1848 15       		.uleb128 0x15
 3157 1849 47030000 		.4byte	0x347
 3158 184d 58180000 		.4byte	0x1858
 3159 1851 16       		.uleb128 0x16
 3160 1852 9B000000 		.4byte	0x9b
 3161 1856 02       		.byte	0x2
 3162 1857 00       		.byte	0
 3163 1858 15       		.uleb128 0x15
 3164 1859 A2000000 		.4byte	0xa2
 3165 185d 68180000 		.4byte	0x1868
 3166 1861 16       		.uleb128 0x16
 3167 1862 9B000000 		.4byte	0x9b
 3168 1866 07       		.byte	0x7
 3169 1867 00       		.byte	0
 3170 1868 0B       		.uleb128 0xb
 3171 1869 04       		.byte	0x4
 3172 186a A4150000 		.4byte	0x15a4
 3173 186e 0B       		.uleb128 0xb
 3174 186f 04       		.byte	0x4
 3175 1870 E7150000 		.4byte	0x15e7
 3176 1874 15       		.uleb128 0x15
 3177 1875 86050000 		.4byte	0x586
 3178 1879 84180000 		.4byte	0x1884
 3179 187d 16       		.uleb128 0x16
 3180 187e 9B000000 		.4byte	0x9b
 3181 1882 39       		.byte	0x39
 3182 1883 00       		.byte	0
 3183 1884 11       		.uleb128 0x11
 3184 1885 0D0F0000 		.4byte	.LASF363
 3185 1889 17       		.byte	0x17
 3186 188a 0602     		.2byte	0x206
 3187 188c 9A0D0000 		.4byte	0xd9a
 3188 1890 02       		.uleb128 0x2
 3189 1891 04       		.byte	0x4
 3190 1892 04       		.byte	0x4
 3191 1893 B0030000 		.4byte	.LASF364
 3192 1897 26       		.uleb128 0x26
ARM GAS  /tmp/ccsfnBTQ.s 			page 57


 3193 1898 73010000 		.4byte	.LASF366
 3194 189c 01       		.byte	0x1
 3195 189d 5D       		.byte	0x5d
 3196 189e 00000000 		.4byte	.LFB264
 3197 18a2 06000000 		.4byte	.LFE264-.LFB264
 3198 18a6 01       		.uleb128 0x1
 3199 18a7 9C       		.byte	0x9c
 3200 18a8 E8180000 		.4byte	0x18e8
 3201 18ac 27       		.uleb128 0x27
 3202 18ad 08070000 		.4byte	.LASF365
 3203 18b1 01       		.byte	0x1
 3204 18b2 5D       		.byte	0x5d
 3205 18b3 E8180000 		.4byte	0x18e8
 3206 18b7 00000000 		.4byte	.LLST0
 3207 18bb 28       		.uleb128 0x28
 3208 18bc 6C656E00 		.ascii	"len\000"
 3209 18c0 01       		.byte	0x1
 3210 18c1 5D       		.byte	0x5d
 3211 18c2 9B000000 		.4byte	0x9b
 3212 18c6 21000000 		.4byte	.LLST1
 3213 18ca 29       		.uleb128 0x29
 3214 18cb 06000000 		.4byte	.LVL1
 3215 18cf FC190000 		.4byte	0x19fc
 3216 18d3 2A       		.uleb128 0x2a
 3217 18d4 01       		.uleb128 0x1
 3218 18d5 50       		.byte	0x50
 3219 18d6 03       		.uleb128 0x3
 3220 18d7 F3       		.byte	0xf3
 3221 18d8 01       		.uleb128 0x1
 3222 18d9 50       		.byte	0x50
 3223 18da 2A       		.uleb128 0x2a
 3224 18db 01       		.uleb128 0x1
 3225 18dc 51       		.byte	0x51
 3226 18dd 03       		.uleb128 0x3
 3227 18de F3       		.byte	0xf3
 3228 18df 01       		.uleb128 0x1
 3229 18e0 51       		.byte	0x51
 3230 18e1 2A       		.uleb128 0x2a
 3231 18e2 01       		.uleb128 0x1
 3232 18e3 52       		.byte	0x52
 3233 18e4 01       		.uleb128 0x1
 3234 18e5 30       		.byte	0x30
 3235 18e6 00       		.byte	0
 3236 18e7 00       		.byte	0
 3237 18e8 0B       		.uleb128 0xb
 3238 18e9 04       		.byte	0x4
 3239 18ea 37000000 		.4byte	0x37
 3240 18ee 26       		.uleb128 0x26
 3241 18ef 40070000 		.4byte	.LASF367
 3242 18f3 01       		.byte	0x1
 3243 18f4 50       		.byte	0x50
 3244 18f5 00000000 		.4byte	.LFB263
 3245 18f9 04000000 		.4byte	.LFE263-.LFB263
 3246 18fd 01       		.uleb128 0x1
 3247 18fe 9C       		.byte	0x9c
 3248 18ff 3A190000 		.4byte	0x193a
 3249 1903 27       		.uleb128 0x27
ARM GAS  /tmp/ccsfnBTQ.s 			page 58


 3250 1904 08070000 		.4byte	.LASF365
 3251 1908 01       		.byte	0x1
 3252 1909 50       		.byte	0x50
 3253 190a E8180000 		.4byte	0x18e8
 3254 190e 42000000 		.4byte	.LLST2
 3255 1912 28       		.uleb128 0x28
 3256 1913 6C656E00 		.ascii	"len\000"
 3257 1917 01       		.byte	0x1
 3258 1918 50       		.byte	0x50
 3259 1919 9B000000 		.4byte	0x9b
 3260 191d 63000000 		.4byte	.LLST3
 3261 1921 29       		.uleb128 0x29
 3262 1922 04000000 		.4byte	.LVL3
 3263 1926 071A0000 		.4byte	0x1a07
 3264 192a 2A       		.uleb128 0x2a
 3265 192b 01       		.uleb128 0x1
 3266 192c 50       		.byte	0x50
 3267 192d 03       		.uleb128 0x3
 3268 192e F3       		.byte	0xf3
 3269 192f 01       		.uleb128 0x1
 3270 1930 50       		.byte	0x50
 3271 1931 2A       		.uleb128 0x2a
 3272 1932 01       		.uleb128 0x1
 3273 1933 51       		.byte	0x51
 3274 1934 03       		.uleb128 0x3
 3275 1935 F3       		.byte	0xf3
 3276 1936 01       		.uleb128 0x1
 3277 1937 51       		.byte	0x51
 3278 1938 00       		.byte	0
 3279 1939 00       		.byte	0
 3280 193a 2B       		.uleb128 0x2b
 3281 193b B60D0000 		.4byte	.LASF368
 3282 193f 01       		.byte	0x1
 3283 1940 43       		.byte	0x43
 3284 1941 00000000 		.4byte	.LFB262
 3285 1945 04000000 		.4byte	.LFE262-.LFB262
 3286 1949 01       		.uleb128 0x1
 3287 194a 9C       		.byte	0x9c
 3288 194b 59190000 		.4byte	0x1959
 3289 194f 2C       		.uleb128 0x2c
 3290 1950 04000000 		.4byte	.LVL9
 3291 1954 121A0000 		.4byte	0x1a12
 3292 1958 00       		.byte	0
 3293 1959 2B       		.uleb128 0x2b
 3294 195a E0080000 		.4byte	.LASF369
 3295 195e 01       		.byte	0x1
 3296 195f 3B       		.byte	0x3b
 3297 1960 00000000 		.4byte	.LFB261
 3298 1964 06000000 		.4byte	.LFE261-.LFB261
 3299 1968 01       		.uleb128 0x1
 3300 1969 9C       		.byte	0x9c
 3301 196a 8B190000 		.4byte	0x198b
 3302 196e 28       		.uleb128 0x28
 3303 196f 6200     		.ascii	"b\000"
 3304 1971 01       		.byte	0x1
 3305 1972 3B       		.byte	0x3b
 3306 1973 37000000 		.4byte	0x37
ARM GAS  /tmp/ccsfnBTQ.s 			page 59


 3307 1977 84000000 		.4byte	.LLST5
 3308 197b 29       		.uleb128 0x29
 3309 197c 06000000 		.4byte	.LVL8
 3310 1980 1D1A0000 		.4byte	0x1a1d
 3311 1984 2A       		.uleb128 0x2a
 3312 1985 01       		.uleb128 0x1
 3313 1986 51       		.byte	0x51
 3314 1987 01       		.uleb128 0x1
 3315 1988 30       		.byte	0x30
 3316 1989 00       		.byte	0
 3317 198a 00       		.byte	0
 3318 198b 2B       		.uleb128 0x2b
 3319 198c 21060000 		.4byte	.LASF370
 3320 1990 01       		.byte	0x1
 3321 1991 2C       		.byte	0x2c
 3322 1992 00000000 		.4byte	.LFB260
 3323 1996 1C000000 		.4byte	.LFE260-.LFB260
 3324 199a 01       		.uleb128 0x1
 3325 199b 9C       		.byte	0x9c
 3326 199c E6190000 		.4byte	0x19e6
 3327 19a0 27       		.uleb128 0x27
 3328 19a1 8E080000 		.4byte	.LASF371
 3329 19a5 01       		.byte	0x1
 3330 19a6 2C       		.byte	0x2c
 3331 19a7 F6190000 		.4byte	0x19f6
 3332 19ab A5000000 		.4byte	.LLST4
 3333 19af 2D       		.uleb128 0x2d
 3334 19b0 0A000000 		.4byte	.LVL5
 3335 19b4 281A0000 		.4byte	0x1a28
 3336 19b8 D2190000 		.4byte	0x19d2
 3337 19bc 2A       		.uleb128 0x2a
 3338 19bd 01       		.uleb128 0x1
 3339 19be 50       		.byte	0x50
 3340 19bf 03       		.uleb128 0x3
 3341 19c0 F3       		.byte	0xf3
 3342 19c1 01       		.uleb128 0x1
 3343 19c2 50       		.byte	0x50
 3344 19c3 2A       		.uleb128 0x2a
 3345 19c4 01       		.uleb128 0x1
 3346 19c5 51       		.byte	0x51
 3347 19c6 05       		.uleb128 0x5
 3348 19c7 03       		.byte	0x3
 3349 19c8 00000000 		.4byte	process_packet
 3350 19cc 2A       		.uleb128 0x2a
 3351 19cd 01       		.uleb128 0x1
 3352 19ce 52       		.byte	0x52
 3353 19cf 01       		.uleb128 0x1
 3354 19d0 30       		.byte	0x30
 3355 19d1 00       		.byte	0
 3356 19d2 29       		.uleb128 0x29
 3357 19d3 14000000 		.4byte	.LVL6
 3358 19d7 331A0000 		.4byte	0x1a33
 3359 19db 2A       		.uleb128 0x2a
 3360 19dc 01       		.uleb128 0x1
 3361 19dd 50       		.byte	0x50
 3362 19de 05       		.uleb128 0x5
 3363 19df 03       		.byte	0x3
ARM GAS  /tmp/ccsfnBTQ.s 			page 60


 3364 19e0 00000000 		.4byte	send_packet_bldc_interface
 3365 19e4 00       		.byte	0
 3366 19e5 00       		.byte	0
 3367 19e6 0D       		.uleb128 0xd
 3368 19e7 F6190000 		.4byte	0x19f6
 3369 19eb 0E       		.uleb128 0xe
 3370 19ec E8180000 		.4byte	0x18e8
 3371 19f0 0E       		.uleb128 0xe
 3372 19f1 9B000000 		.4byte	0x9b
 3373 19f5 00       		.byte	0
 3374 19f6 0B       		.uleb128 0xb
 3375 19f7 04       		.byte	0x4
 3376 19f8 E6190000 		.4byte	0x19e6
 3377 19fc 2E       		.uleb128 0x2e
 3378 19fd C1070000 		.4byte	.LASF372
 3379 1a01 C1070000 		.4byte	.LASF372
 3380 1a05 19       		.byte	0x19
 3381 1a06 28       		.byte	0x28
 3382 1a07 2E       		.uleb128 0x2e
 3383 1a08 69070000 		.4byte	.LASF373
 3384 1a0c 69070000 		.4byte	.LASF373
 3385 1a10 1A       		.byte	0x1a
 3386 1a11 1B       		.byte	0x1b
 3387 1a12 2E       		.uleb128 0x2e
 3388 1a13 86020000 		.4byte	.LASF374
 3389 1a17 86020000 		.4byte	.LASF374
 3390 1a1b 19       		.byte	0x19
 3391 1a1c 27       		.byte	0x27
 3392 1a1d 2E       		.uleb128 0x2e
 3393 1a1e 94040000 		.4byte	.LASF375
 3394 1a22 94040000 		.4byte	.LASF375
 3395 1a26 19       		.byte	0x19
 3396 1a27 26       		.byte	0x26
 3397 1a28 2E       		.uleb128 0x2e
 3398 1a29 6E050000 		.4byte	.LASF376
 3399 1a2d 6E050000 		.4byte	.LASF376
 3400 1a31 19       		.byte	0x19
 3401 1a32 24       		.byte	0x24
 3402 1a33 2E       		.uleb128 0x2e
 3403 1a34 A3070000 		.4byte	.LASF377
 3404 1a38 A3070000 		.4byte	.LASF377
 3405 1a3c 1A       		.byte	0x1a
 3406 1a3d 18       		.byte	0x18
 3407 1a3e 00       		.byte	0
 3408              		.section	.debug_abbrev,"",%progbits
 3409              	.Ldebug_abbrev0:
 3410 0000 01       		.uleb128 0x1
 3411 0001 11       		.uleb128 0x11
 3412 0002 01       		.byte	0x1
 3413 0003 25       		.uleb128 0x25
 3414 0004 0E       		.uleb128 0xe
 3415 0005 13       		.uleb128 0x13
 3416 0006 0B       		.uleb128 0xb
 3417 0007 03       		.uleb128 0x3
 3418 0008 0E       		.uleb128 0xe
 3419 0009 1B       		.uleb128 0x1b
 3420 000a 0E       		.uleb128 0xe
ARM GAS  /tmp/ccsfnBTQ.s 			page 61


 3421 000b 55       		.uleb128 0x55
 3422 000c 17       		.uleb128 0x17
 3423 000d 11       		.uleb128 0x11
 3424 000e 01       		.uleb128 0x1
 3425 000f 10       		.uleb128 0x10
 3426 0010 17       		.uleb128 0x17
 3427 0011 00       		.byte	0
 3428 0012 00       		.byte	0
 3429 0013 02       		.uleb128 0x2
 3430 0014 24       		.uleb128 0x24
 3431 0015 00       		.byte	0
 3432 0016 0B       		.uleb128 0xb
 3433 0017 0B       		.uleb128 0xb
 3434 0018 3E       		.uleb128 0x3e
 3435 0019 0B       		.uleb128 0xb
 3436 001a 03       		.uleb128 0x3
 3437 001b 0E       		.uleb128 0xe
 3438 001c 00       		.byte	0
 3439 001d 00       		.byte	0
 3440 001e 03       		.uleb128 0x3
 3441 001f 16       		.uleb128 0x16
 3442 0020 00       		.byte	0
 3443 0021 03       		.uleb128 0x3
 3444 0022 0E       		.uleb128 0xe
 3445 0023 3A       		.uleb128 0x3a
 3446 0024 0B       		.uleb128 0xb
 3447 0025 3B       		.uleb128 0x3b
 3448 0026 0B       		.uleb128 0xb
 3449 0027 49       		.uleb128 0x49
 3450 0028 13       		.uleb128 0x13
 3451 0029 00       		.byte	0
 3452 002a 00       		.byte	0
 3453 002b 04       		.uleb128 0x4
 3454 002c 24       		.uleb128 0x24
 3455 002d 00       		.byte	0
 3456 002e 0B       		.uleb128 0xb
 3457 002f 0B       		.uleb128 0xb
 3458 0030 3E       		.uleb128 0x3e
 3459 0031 0B       		.uleb128 0xb
 3460 0032 03       		.uleb128 0x3
 3461 0033 08       		.uleb128 0x8
 3462 0034 00       		.byte	0
 3463 0035 00       		.byte	0
 3464 0036 05       		.uleb128 0x5
 3465 0037 26       		.uleb128 0x26
 3466 0038 00       		.byte	0
 3467 0039 49       		.uleb128 0x49
 3468 003a 13       		.uleb128 0x13
 3469 003b 00       		.byte	0
 3470 003c 00       		.byte	0
 3471 003d 06       		.uleb128 0x6
 3472 003e 35       		.uleb128 0x35
 3473 003f 00       		.byte	0
 3474 0040 49       		.uleb128 0x49
 3475 0041 13       		.uleb128 0x13
 3476 0042 00       		.byte	0
 3477 0043 00       		.byte	0
ARM GAS  /tmp/ccsfnBTQ.s 			page 62


 3478 0044 07       		.uleb128 0x7
 3479 0045 13       		.uleb128 0x13
 3480 0046 01       		.byte	0x1
 3481 0047 03       		.uleb128 0x3
 3482 0048 0E       		.uleb128 0xe
 3483 0049 0B       		.uleb128 0xb
 3484 004a 0B       		.uleb128 0xb
 3485 004b 3A       		.uleb128 0x3a
 3486 004c 0B       		.uleb128 0xb
 3487 004d 3B       		.uleb128 0x3b
 3488 004e 0B       		.uleb128 0xb
 3489 004f 01       		.uleb128 0x1
 3490 0050 13       		.uleb128 0x13
 3491 0051 00       		.byte	0
 3492 0052 00       		.byte	0
 3493 0053 08       		.uleb128 0x8
 3494 0054 0D       		.uleb128 0xd
 3495 0055 00       		.byte	0
 3496 0056 03       		.uleb128 0x3
 3497 0057 0E       		.uleb128 0xe
 3498 0058 3A       		.uleb128 0x3a
 3499 0059 0B       		.uleb128 0xb
 3500 005a 3B       		.uleb128 0x3b
 3501 005b 0B       		.uleb128 0xb
 3502 005c 49       		.uleb128 0x49
 3503 005d 13       		.uleb128 0x13
 3504 005e 38       		.uleb128 0x38
 3505 005f 0B       		.uleb128 0xb
 3506 0060 00       		.byte	0
 3507 0061 00       		.byte	0
 3508 0062 09       		.uleb128 0x9
 3509 0063 0D       		.uleb128 0xd
 3510 0064 00       		.byte	0
 3511 0065 03       		.uleb128 0x3
 3512 0066 08       		.uleb128 0x8
 3513 0067 3A       		.uleb128 0x3a
 3514 0068 0B       		.uleb128 0xb
 3515 0069 3B       		.uleb128 0x3b
 3516 006a 05       		.uleb128 0x5
 3517 006b 49       		.uleb128 0x49
 3518 006c 13       		.uleb128 0x13
 3519 006d 38       		.uleb128 0x38
 3520 006e 0B       		.uleb128 0xb
 3521 006f 00       		.byte	0
 3522 0070 00       		.byte	0
 3523 0071 0A       		.uleb128 0xa
 3524 0072 0D       		.uleb128 0xd
 3525 0073 00       		.byte	0
 3526 0074 03       		.uleb128 0x3
 3527 0075 0E       		.uleb128 0xe
 3528 0076 3A       		.uleb128 0x3a
 3529 0077 0B       		.uleb128 0xb
 3530 0078 3B       		.uleb128 0x3b
 3531 0079 05       		.uleb128 0x5
 3532 007a 49       		.uleb128 0x49
 3533 007b 13       		.uleb128 0x13
 3534 007c 38       		.uleb128 0x38
ARM GAS  /tmp/ccsfnBTQ.s 			page 63


 3535 007d 0B       		.uleb128 0xb
 3536 007e 00       		.byte	0
 3537 007f 00       		.byte	0
 3538 0080 0B       		.uleb128 0xb
 3539 0081 0F       		.uleb128 0xf
 3540 0082 00       		.byte	0
 3541 0083 0B       		.uleb128 0xb
 3542 0084 0B       		.uleb128 0xb
 3543 0085 49       		.uleb128 0x49
 3544 0086 13       		.uleb128 0x13
 3545 0087 00       		.byte	0
 3546 0088 00       		.byte	0
 3547 0089 0C       		.uleb128 0xc
 3548 008a 13       		.uleb128 0x13
 3549 008b 01       		.byte	0x1
 3550 008c 03       		.uleb128 0x3
 3551 008d 0E       		.uleb128 0xe
 3552 008e 0B       		.uleb128 0xb
 3553 008f 0B       		.uleb128 0xb
 3554 0090 3A       		.uleb128 0x3a
 3555 0091 0B       		.uleb128 0xb
 3556 0092 3B       		.uleb128 0x3b
 3557 0093 05       		.uleb128 0x5
 3558 0094 01       		.uleb128 0x1
 3559 0095 13       		.uleb128 0x13
 3560 0096 00       		.byte	0
 3561 0097 00       		.byte	0
 3562 0098 0D       		.uleb128 0xd
 3563 0099 15       		.uleb128 0x15
 3564 009a 01       		.byte	0x1
 3565 009b 27       		.uleb128 0x27
 3566 009c 19       		.uleb128 0x19
 3567 009d 01       		.uleb128 0x1
 3568 009e 13       		.uleb128 0x13
 3569 009f 00       		.byte	0
 3570 00a0 00       		.byte	0
 3571 00a1 0E       		.uleb128 0xe
 3572 00a2 05       		.uleb128 0x5
 3573 00a3 00       		.byte	0
 3574 00a4 49       		.uleb128 0x49
 3575 00a5 13       		.uleb128 0x13
 3576 00a6 00       		.byte	0
 3577 00a7 00       		.byte	0
 3578 00a8 0F       		.uleb128 0xf
 3579 00a9 0F       		.uleb128 0xf
 3580 00aa 00       		.byte	0
 3581 00ab 0B       		.uleb128 0xb
 3582 00ac 0B       		.uleb128 0xb
 3583 00ad 00       		.byte	0
 3584 00ae 00       		.byte	0
 3585 00af 10       		.uleb128 0x10
 3586 00b0 13       		.uleb128 0x13
 3587 00b1 01       		.byte	0x1
 3588 00b2 03       		.uleb128 0x3
 3589 00b3 0E       		.uleb128 0xe
 3590 00b4 0B       		.uleb128 0xb
 3591 00b5 05       		.uleb128 0x5
ARM GAS  /tmp/ccsfnBTQ.s 			page 64


 3592 00b6 3A       		.uleb128 0x3a
 3593 00b7 0B       		.uleb128 0xb
 3594 00b8 3B       		.uleb128 0x3b
 3595 00b9 05       		.uleb128 0x5
 3596 00ba 01       		.uleb128 0x1
 3597 00bb 13       		.uleb128 0x13
 3598 00bc 00       		.byte	0
 3599 00bd 00       		.byte	0
 3600 00be 11       		.uleb128 0x11
 3601 00bf 34       		.uleb128 0x34
 3602 00c0 00       		.byte	0
 3603 00c1 03       		.uleb128 0x3
 3604 00c2 0E       		.uleb128 0xe
 3605 00c3 3A       		.uleb128 0x3a
 3606 00c4 0B       		.uleb128 0xb
 3607 00c5 3B       		.uleb128 0x3b
 3608 00c6 05       		.uleb128 0x5
 3609 00c7 49       		.uleb128 0x49
 3610 00c8 13       		.uleb128 0x13
 3611 00c9 3F       		.uleb128 0x3f
 3612 00ca 19       		.uleb128 0x19
 3613 00cb 3C       		.uleb128 0x3c
 3614 00cc 19       		.uleb128 0x19
 3615 00cd 00       		.byte	0
 3616 00ce 00       		.byte	0
 3617 00cf 12       		.uleb128 0x12
 3618 00d0 34       		.uleb128 0x34
 3619 00d1 00       		.byte	0
 3620 00d2 03       		.uleb128 0x3
 3621 00d3 0E       		.uleb128 0xe
 3622 00d4 3A       		.uleb128 0x3a
 3623 00d5 0B       		.uleb128 0xb
 3624 00d6 3B       		.uleb128 0x3b
 3625 00d7 0B       		.uleb128 0xb
 3626 00d8 49       		.uleb128 0x49
 3627 00d9 13       		.uleb128 0x13
 3628 00da 3F       		.uleb128 0x3f
 3629 00db 19       		.uleb128 0x19
 3630 00dc 3C       		.uleb128 0x3c
 3631 00dd 19       		.uleb128 0x19
 3632 00de 00       		.byte	0
 3633 00df 00       		.byte	0
 3634 00e0 13       		.uleb128 0x13
 3635 00e1 13       		.uleb128 0x13
 3636 00e2 01       		.byte	0x1
 3637 00e3 0B       		.uleb128 0xb
 3638 00e4 0B       		.uleb128 0xb
 3639 00e5 3A       		.uleb128 0x3a
 3640 00e6 0B       		.uleb128 0xb
 3641 00e7 3B       		.uleb128 0x3b
 3642 00e8 05       		.uleb128 0x5
 3643 00e9 01       		.uleb128 0x1
 3644 00ea 13       		.uleb128 0x13
 3645 00eb 00       		.byte	0
 3646 00ec 00       		.byte	0
 3647 00ed 14       		.uleb128 0x14
 3648 00ee 16       		.uleb128 0x16
ARM GAS  /tmp/ccsfnBTQ.s 			page 65


 3649 00ef 00       		.byte	0
 3650 00f0 03       		.uleb128 0x3
 3651 00f1 0E       		.uleb128 0xe
 3652 00f2 3A       		.uleb128 0x3a
 3653 00f3 0B       		.uleb128 0xb
 3654 00f4 3B       		.uleb128 0x3b
 3655 00f5 05       		.uleb128 0x5
 3656 00f6 49       		.uleb128 0x49
 3657 00f7 13       		.uleb128 0x13
 3658 00f8 00       		.byte	0
 3659 00f9 00       		.byte	0
 3660 00fa 15       		.uleb128 0x15
 3661 00fb 01       		.uleb128 0x1
 3662 00fc 01       		.byte	0x1
 3663 00fd 49       		.uleb128 0x49
 3664 00fe 13       		.uleb128 0x13
 3665 00ff 01       		.uleb128 0x1
 3666 0100 13       		.uleb128 0x13
 3667 0101 00       		.byte	0
 3668 0102 00       		.byte	0
 3669 0103 16       		.uleb128 0x16
 3670 0104 21       		.uleb128 0x21
 3671 0105 00       		.byte	0
 3672 0106 49       		.uleb128 0x49
 3673 0107 13       		.uleb128 0x13
 3674 0108 2F       		.uleb128 0x2f
 3675 0109 0B       		.uleb128 0xb
 3676 010a 00       		.byte	0
 3677 010b 00       		.byte	0
 3678 010c 17       		.uleb128 0x17
 3679 010d 0D       		.uleb128 0xd
 3680 010e 00       		.byte	0
 3681 010f 03       		.uleb128 0x3
 3682 0110 08       		.uleb128 0x8
 3683 0111 3A       		.uleb128 0x3a
 3684 0112 0B       		.uleb128 0xb
 3685 0113 3B       		.uleb128 0x3b
 3686 0114 0B       		.uleb128 0xb
 3687 0115 49       		.uleb128 0x49
 3688 0116 13       		.uleb128 0x13
 3689 0117 38       		.uleb128 0x38
 3690 0118 0B       		.uleb128 0xb
 3691 0119 00       		.byte	0
 3692 011a 00       		.byte	0
 3693 011b 18       		.uleb128 0x18
 3694 011c 13       		.uleb128 0x13
 3695 011d 01       		.byte	0x1
 3696 011e 0B       		.uleb128 0xb
 3697 011f 0B       		.uleb128 0xb
 3698 0120 3A       		.uleb128 0x3a
 3699 0121 0B       		.uleb128 0xb
 3700 0122 3B       		.uleb128 0x3b
 3701 0123 0B       		.uleb128 0xb
 3702 0124 01       		.uleb128 0x1
 3703 0125 13       		.uleb128 0x13
 3704 0126 00       		.byte	0
 3705 0127 00       		.byte	0
ARM GAS  /tmp/ccsfnBTQ.s 			page 66


 3706 0128 19       		.uleb128 0x19
 3707 0129 17       		.uleb128 0x17
 3708 012a 01       		.byte	0x1
 3709 012b 0B       		.uleb128 0xb
 3710 012c 0B       		.uleb128 0xb
 3711 012d 3A       		.uleb128 0x3a
 3712 012e 0B       		.uleb128 0xb
 3713 012f 3B       		.uleb128 0x3b
 3714 0130 0B       		.uleb128 0xb
 3715 0131 01       		.uleb128 0x1
 3716 0132 13       		.uleb128 0x13
 3717 0133 00       		.byte	0
 3718 0134 00       		.byte	0
 3719 0135 1A       		.uleb128 0x1a
 3720 0136 0D       		.uleb128 0xd
 3721 0137 00       		.byte	0
 3722 0138 03       		.uleb128 0x3
 3723 0139 0E       		.uleb128 0xe
 3724 013a 3A       		.uleb128 0x3a
 3725 013b 0B       		.uleb128 0xb
 3726 013c 3B       		.uleb128 0x3b
 3727 013d 05       		.uleb128 0x5
 3728 013e 49       		.uleb128 0x49
 3729 013f 13       		.uleb128 0x13
 3730 0140 00       		.byte	0
 3731 0141 00       		.byte	0
 3732 0142 1B       		.uleb128 0x1b
 3733 0143 34       		.uleb128 0x34
 3734 0144 00       		.byte	0
 3735 0145 03       		.uleb128 0x3
 3736 0146 08       		.uleb128 0x8
 3737 0147 3A       		.uleb128 0x3a
 3738 0148 0B       		.uleb128 0xb
 3739 0149 3B       		.uleb128 0x3b
 3740 014a 05       		.uleb128 0x5
 3741 014b 49       		.uleb128 0x49
 3742 014c 13       		.uleb128 0x13
 3743 014d 3F       		.uleb128 0x3f
 3744 014e 19       		.uleb128 0x19
 3745 014f 3C       		.uleb128 0x3c
 3746 0150 19       		.uleb128 0x19
 3747 0151 00       		.byte	0
 3748 0152 00       		.byte	0
 3749 0153 1C       		.uleb128 0x1c
 3750 0154 04       		.uleb128 0x4
 3751 0155 01       		.byte	0x1
 3752 0156 3E       		.uleb128 0x3e
 3753 0157 0B       		.uleb128 0xb
 3754 0158 0B       		.uleb128 0xb
 3755 0159 0B       		.uleb128 0xb
 3756 015a 49       		.uleb128 0x49
 3757 015b 13       		.uleb128 0x13
 3758 015c 3A       		.uleb128 0x3a
 3759 015d 0B       		.uleb128 0xb
 3760 015e 3B       		.uleb128 0x3b
 3761 015f 0B       		.uleb128 0xb
 3762 0160 01       		.uleb128 0x1
ARM GAS  /tmp/ccsfnBTQ.s 			page 67


 3763 0161 13       		.uleb128 0x13
 3764 0162 00       		.byte	0
 3765 0163 00       		.byte	0
 3766 0164 1D       		.uleb128 0x1d
 3767 0165 28       		.uleb128 0x28
 3768 0166 00       		.byte	0
 3769 0167 03       		.uleb128 0x3
 3770 0168 0E       		.uleb128 0xe
 3771 0169 1C       		.uleb128 0x1c
 3772 016a 0B       		.uleb128 0xb
 3773 016b 00       		.byte	0
 3774 016c 00       		.byte	0
 3775 016d 1E       		.uleb128 0x1e
 3776 016e 04       		.uleb128 0x4
 3777 016f 01       		.byte	0x1
 3778 0170 3E       		.uleb128 0x3e
 3779 0171 0B       		.uleb128 0xb
 3780 0172 0B       		.uleb128 0xb
 3781 0173 0B       		.uleb128 0xb
 3782 0174 49       		.uleb128 0x49
 3783 0175 13       		.uleb128 0x13
 3784 0176 3A       		.uleb128 0x3a
 3785 0177 0B       		.uleb128 0xb
 3786 0178 3B       		.uleb128 0x3b
 3787 0179 05       		.uleb128 0x5
 3788 017a 01       		.uleb128 0x1
 3789 017b 13       		.uleb128 0x13
 3790 017c 00       		.byte	0
 3791 017d 00       		.byte	0
 3792 017e 1F       		.uleb128 0x1f
 3793 017f 15       		.uleb128 0x15
 3794 0180 01       		.byte	0x1
 3795 0181 27       		.uleb128 0x27
 3796 0182 19       		.uleb128 0x19
 3797 0183 49       		.uleb128 0x49
 3798 0184 13       		.uleb128 0x13
 3799 0185 01       		.uleb128 0x1
 3800 0186 13       		.uleb128 0x13
 3801 0187 00       		.byte	0
 3802 0188 00       		.byte	0
 3803 0189 20       		.uleb128 0x20
 3804 018a 13       		.uleb128 0x13
 3805 018b 01       		.byte	0x1
 3806 018c 0B       		.uleb128 0xb
 3807 018d 06       		.uleb128 0x6
 3808 018e 3A       		.uleb128 0x3a
 3809 018f 0B       		.uleb128 0xb
 3810 0190 3B       		.uleb128 0x3b
 3811 0191 0B       		.uleb128 0xb
 3812 0192 01       		.uleb128 0x1
 3813 0193 13       		.uleb128 0x13
 3814 0194 00       		.byte	0
 3815 0195 00       		.byte	0
 3816 0196 21       		.uleb128 0x21
 3817 0197 0D       		.uleb128 0xd
 3818 0198 00       		.byte	0
 3819 0199 03       		.uleb128 0x3
ARM GAS  /tmp/ccsfnBTQ.s 			page 68


 3820 019a 0E       		.uleb128 0xe
 3821 019b 3A       		.uleb128 0x3a
 3822 019c 0B       		.uleb128 0xb
 3823 019d 3B       		.uleb128 0x3b
 3824 019e 0B       		.uleb128 0xb
 3825 019f 49       		.uleb128 0x49
 3826 01a0 13       		.uleb128 0x13
 3827 01a1 38       		.uleb128 0x38
 3828 01a2 05       		.uleb128 0x5
 3829 01a3 00       		.byte	0
 3830 01a4 00       		.byte	0
 3831 01a5 22       		.uleb128 0x22
 3832 01a6 0D       		.uleb128 0xd
 3833 01a7 00       		.byte	0
 3834 01a8 03       		.uleb128 0x3
 3835 01a9 08       		.uleb128 0x8
 3836 01aa 3A       		.uleb128 0x3a
 3837 01ab 0B       		.uleb128 0xb
 3838 01ac 3B       		.uleb128 0x3b
 3839 01ad 0B       		.uleb128 0xb
 3840 01ae 49       		.uleb128 0x49
 3841 01af 13       		.uleb128 0x13
 3842 01b0 38       		.uleb128 0x38
 3843 01b1 05       		.uleb128 0x5
 3844 01b2 00       		.byte	0
 3845 01b3 00       		.byte	0
 3846 01b4 23       		.uleb128 0x23
 3847 01b5 21       		.uleb128 0x21
 3848 01b6 00       		.byte	0
 3849 01b7 49       		.uleb128 0x49
 3850 01b8 13       		.uleb128 0x13
 3851 01b9 2F       		.uleb128 0x2f
 3852 01ba 05       		.uleb128 0x5
 3853 01bb 00       		.byte	0
 3854 01bc 00       		.byte	0
 3855 01bd 24       		.uleb128 0x24
 3856 01be 0D       		.uleb128 0xd
 3857 01bf 00       		.byte	0
 3858 01c0 03       		.uleb128 0x3
 3859 01c1 0E       		.uleb128 0xe
 3860 01c2 3A       		.uleb128 0x3a
 3861 01c3 0B       		.uleb128 0xb
 3862 01c4 3B       		.uleb128 0x3b
 3863 01c5 0B       		.uleb128 0xb
 3864 01c6 49       		.uleb128 0x49
 3865 01c7 13       		.uleb128 0x13
 3866 01c8 00       		.byte	0
 3867 01c9 00       		.byte	0
 3868 01ca 25       		.uleb128 0x25
 3869 01cb 17       		.uleb128 0x17
 3870 01cc 01       		.byte	0x1
 3871 01cd 0B       		.uleb128 0xb
 3872 01ce 0B       		.uleb128 0xb
 3873 01cf 3A       		.uleb128 0x3a
 3874 01d0 0B       		.uleb128 0xb
 3875 01d1 3B       		.uleb128 0x3b
 3876 01d2 05       		.uleb128 0x5
ARM GAS  /tmp/ccsfnBTQ.s 			page 69


 3877 01d3 01       		.uleb128 0x1
 3878 01d4 13       		.uleb128 0x13
 3879 01d5 00       		.byte	0
 3880 01d6 00       		.byte	0
 3881 01d7 26       		.uleb128 0x26
 3882 01d8 2E       		.uleb128 0x2e
 3883 01d9 01       		.byte	0x1
 3884 01da 03       		.uleb128 0x3
 3885 01db 0E       		.uleb128 0xe
 3886 01dc 3A       		.uleb128 0x3a
 3887 01dd 0B       		.uleb128 0xb
 3888 01de 3B       		.uleb128 0x3b
 3889 01df 0B       		.uleb128 0xb
 3890 01e0 27       		.uleb128 0x27
 3891 01e1 19       		.uleb128 0x19
 3892 01e2 11       		.uleb128 0x11
 3893 01e3 01       		.uleb128 0x1
 3894 01e4 12       		.uleb128 0x12
 3895 01e5 06       		.uleb128 0x6
 3896 01e6 40       		.uleb128 0x40
 3897 01e7 18       		.uleb128 0x18
 3898 01e8 9742     		.uleb128 0x2117
 3899 01ea 19       		.uleb128 0x19
 3900 01eb 01       		.uleb128 0x1
 3901 01ec 13       		.uleb128 0x13
 3902 01ed 00       		.byte	0
 3903 01ee 00       		.byte	0
 3904 01ef 27       		.uleb128 0x27
 3905 01f0 05       		.uleb128 0x5
 3906 01f1 00       		.byte	0
 3907 01f2 03       		.uleb128 0x3
 3908 01f3 0E       		.uleb128 0xe
 3909 01f4 3A       		.uleb128 0x3a
 3910 01f5 0B       		.uleb128 0xb
 3911 01f6 3B       		.uleb128 0x3b
 3912 01f7 0B       		.uleb128 0xb
 3913 01f8 49       		.uleb128 0x49
 3914 01f9 13       		.uleb128 0x13
 3915 01fa 02       		.uleb128 0x2
 3916 01fb 17       		.uleb128 0x17
 3917 01fc 00       		.byte	0
 3918 01fd 00       		.byte	0
 3919 01fe 28       		.uleb128 0x28
 3920 01ff 05       		.uleb128 0x5
 3921 0200 00       		.byte	0
 3922 0201 03       		.uleb128 0x3
 3923 0202 08       		.uleb128 0x8
 3924 0203 3A       		.uleb128 0x3a
 3925 0204 0B       		.uleb128 0xb
 3926 0205 3B       		.uleb128 0x3b
 3927 0206 0B       		.uleb128 0xb
 3928 0207 49       		.uleb128 0x49
 3929 0208 13       		.uleb128 0x13
 3930 0209 02       		.uleb128 0x2
 3931 020a 17       		.uleb128 0x17
 3932 020b 00       		.byte	0
 3933 020c 00       		.byte	0
ARM GAS  /tmp/ccsfnBTQ.s 			page 70


 3934 020d 29       		.uleb128 0x29
 3935 020e 898201   		.uleb128 0x4109
 3936 0211 01       		.byte	0x1
 3937 0212 11       		.uleb128 0x11
 3938 0213 01       		.uleb128 0x1
 3939 0214 9542     		.uleb128 0x2115
 3940 0216 19       		.uleb128 0x19
 3941 0217 31       		.uleb128 0x31
 3942 0218 13       		.uleb128 0x13
 3943 0219 00       		.byte	0
 3944 021a 00       		.byte	0
 3945 021b 2A       		.uleb128 0x2a
 3946 021c 8A8201   		.uleb128 0x410a
 3947 021f 00       		.byte	0
 3948 0220 02       		.uleb128 0x2
 3949 0221 18       		.uleb128 0x18
 3950 0222 9142     		.uleb128 0x2111
 3951 0224 18       		.uleb128 0x18
 3952 0225 00       		.byte	0
 3953 0226 00       		.byte	0
 3954 0227 2B       		.uleb128 0x2b
 3955 0228 2E       		.uleb128 0x2e
 3956 0229 01       		.byte	0x1
 3957 022a 3F       		.uleb128 0x3f
 3958 022b 19       		.uleb128 0x19
 3959 022c 03       		.uleb128 0x3
 3960 022d 0E       		.uleb128 0xe
 3961 022e 3A       		.uleb128 0x3a
 3962 022f 0B       		.uleb128 0xb
 3963 0230 3B       		.uleb128 0x3b
 3964 0231 0B       		.uleb128 0xb
 3965 0232 27       		.uleb128 0x27
 3966 0233 19       		.uleb128 0x19
 3967 0234 11       		.uleb128 0x11
 3968 0235 01       		.uleb128 0x1
 3969 0236 12       		.uleb128 0x12
 3970 0237 06       		.uleb128 0x6
 3971 0238 40       		.uleb128 0x40
 3972 0239 18       		.uleb128 0x18
 3973 023a 9742     		.uleb128 0x2117
 3974 023c 19       		.uleb128 0x19
 3975 023d 01       		.uleb128 0x1
 3976 023e 13       		.uleb128 0x13
 3977 023f 00       		.byte	0
 3978 0240 00       		.byte	0
 3979 0241 2C       		.uleb128 0x2c
 3980 0242 898201   		.uleb128 0x4109
 3981 0245 00       		.byte	0
 3982 0246 11       		.uleb128 0x11
 3983 0247 01       		.uleb128 0x1
 3984 0248 9542     		.uleb128 0x2115
 3985 024a 19       		.uleb128 0x19
 3986 024b 31       		.uleb128 0x31
 3987 024c 13       		.uleb128 0x13
 3988 024d 00       		.byte	0
 3989 024e 00       		.byte	0
 3990 024f 2D       		.uleb128 0x2d
ARM GAS  /tmp/ccsfnBTQ.s 			page 71


 3991 0250 898201   		.uleb128 0x4109
 3992 0253 01       		.byte	0x1
 3993 0254 11       		.uleb128 0x11
 3994 0255 01       		.uleb128 0x1
 3995 0256 31       		.uleb128 0x31
 3996 0257 13       		.uleb128 0x13
 3997 0258 01       		.uleb128 0x1
 3998 0259 13       		.uleb128 0x13
 3999 025a 00       		.byte	0
 4000 025b 00       		.byte	0
 4001 025c 2E       		.uleb128 0x2e
 4002 025d 2E       		.uleb128 0x2e
 4003 025e 00       		.byte	0
 4004 025f 3F       		.uleb128 0x3f
 4005 0260 19       		.uleb128 0x19
 4006 0261 3C       		.uleb128 0x3c
 4007 0262 19       		.uleb128 0x19
 4008 0263 6E       		.uleb128 0x6e
 4009 0264 0E       		.uleb128 0xe
 4010 0265 03       		.uleb128 0x3
 4011 0266 0E       		.uleb128 0xe
 4012 0267 3A       		.uleb128 0x3a
 4013 0268 0B       		.uleb128 0xb
 4014 0269 3B       		.uleb128 0x3b
 4015 026a 0B       		.uleb128 0xb
 4016 026b 00       		.byte	0
 4017 026c 00       		.byte	0
 4018 026d 00       		.byte	0
 4019              		.section	.debug_loc,"",%progbits
 4020              	.Ldebug_loc0:
 4021              	.LLST0:
 4022 0000 00000000 		.4byte	.LVL0
 4023 0004 05000000 		.4byte	.LVL1-1
 4024 0008 0100     		.2byte	0x1
 4025 000a 50       		.byte	0x50
 4026 000b 05000000 		.4byte	.LVL1-1
 4027 000f 06000000 		.4byte	.LFE264
 4028 0013 0400     		.2byte	0x4
 4029 0015 F3       		.byte	0xf3
 4030 0016 01       		.uleb128 0x1
 4031 0017 50       		.byte	0x50
 4032 0018 9F       		.byte	0x9f
 4033 0019 00000000 		.4byte	0
 4034 001d 00000000 		.4byte	0
 4035              	.LLST1:
 4036 0021 00000000 		.4byte	.LVL0
 4037 0025 05000000 		.4byte	.LVL1-1
 4038 0029 0100     		.2byte	0x1
 4039 002b 51       		.byte	0x51
 4040 002c 05000000 		.4byte	.LVL1-1
 4041 0030 06000000 		.4byte	.LFE264
 4042 0034 0400     		.2byte	0x4
 4043 0036 F3       		.byte	0xf3
 4044 0037 01       		.uleb128 0x1
 4045 0038 51       		.byte	0x51
 4046 0039 9F       		.byte	0x9f
 4047 003a 00000000 		.4byte	0
ARM GAS  /tmp/ccsfnBTQ.s 			page 72


 4048 003e 00000000 		.4byte	0
 4049              	.LLST2:
 4050 0042 00000000 		.4byte	.LVL2
 4051 0046 03000000 		.4byte	.LVL3-1
 4052 004a 0100     		.2byte	0x1
 4053 004c 50       		.byte	0x50
 4054 004d 03000000 		.4byte	.LVL3-1
 4055 0051 04000000 		.4byte	.LFE263
 4056 0055 0400     		.2byte	0x4
 4057 0057 F3       		.byte	0xf3
 4058 0058 01       		.uleb128 0x1
 4059 0059 50       		.byte	0x50
 4060 005a 9F       		.byte	0x9f
 4061 005b 00000000 		.4byte	0
 4062 005f 00000000 		.4byte	0
 4063              	.LLST3:
 4064 0063 00000000 		.4byte	.LVL2
 4065 0067 03000000 		.4byte	.LVL3-1
 4066 006b 0100     		.2byte	0x1
 4067 006d 51       		.byte	0x51
 4068 006e 03000000 		.4byte	.LVL3-1
 4069 0072 04000000 		.4byte	.LFE263
 4070 0076 0400     		.2byte	0x4
 4071 0078 F3       		.byte	0xf3
 4072 0079 01       		.uleb128 0x1
 4073 007a 51       		.byte	0x51
 4074 007b 9F       		.byte	0x9f
 4075 007c 00000000 		.4byte	0
 4076 0080 00000000 		.4byte	0
 4077              	.LLST5:
 4078 0084 00000000 		.4byte	.LVL7
 4079 0088 05000000 		.4byte	.LVL8-1
 4080 008c 0100     		.2byte	0x1
 4081 008e 50       		.byte	0x50
 4082 008f 05000000 		.4byte	.LVL8-1
 4083 0093 06000000 		.4byte	.LFE261
 4084 0097 0400     		.2byte	0x4
 4085 0099 F3       		.byte	0xf3
 4086 009a 01       		.uleb128 0x1
 4087 009b 50       		.byte	0x50
 4088 009c 9F       		.byte	0x9f
 4089 009d 00000000 		.4byte	0
 4090 00a1 00000000 		.4byte	0
 4091              	.LLST4:
 4092 00a5 00000000 		.4byte	.LVL4
 4093 00a9 09000000 		.4byte	.LVL5-1
 4094 00ad 0100     		.2byte	0x1
 4095 00af 50       		.byte	0x50
 4096 00b0 09000000 		.4byte	.LVL5-1
 4097 00b4 1C000000 		.4byte	.LFE260
 4098 00b8 0400     		.2byte	0x4
 4099 00ba F3       		.byte	0xf3
 4100 00bb 01       		.uleb128 0x1
 4101 00bc 50       		.byte	0x50
 4102 00bd 9F       		.byte	0x9f
 4103 00be 00000000 		.4byte	0
 4104 00c2 00000000 		.4byte	0
ARM GAS  /tmp/ccsfnBTQ.s 			page 73


 4105              		.section	.debug_aranges,"",%progbits
 4106 0000 3C000000 		.4byte	0x3c
 4107 0004 0200     		.2byte	0x2
 4108 0006 00000000 		.4byte	.Ldebug_info0
 4109 000a 04       		.byte	0x4
 4110 000b 00       		.byte	0
 4111 000c 0000     		.2byte	0
 4112 000e 0000     		.2byte	0
 4113 0010 00000000 		.4byte	.LFB264
 4114 0014 06000000 		.4byte	.LFE264-.LFB264
 4115 0018 00000000 		.4byte	.LFB263
 4116 001c 04000000 		.4byte	.LFE263-.LFB263
 4117 0020 00000000 		.4byte	.LFB260
 4118 0024 1C000000 		.4byte	.LFE260-.LFB260
 4119 0028 00000000 		.4byte	.LFB261
 4120 002c 06000000 		.4byte	.LFE261-.LFB261
 4121 0030 00000000 		.4byte	.LFB262
 4122 0034 04000000 		.4byte	.LFE262-.LFB262
 4123 0038 00000000 		.4byte	0
 4124 003c 00000000 		.4byte	0
 4125              		.section	.debug_ranges,"",%progbits
 4126              	.Ldebug_ranges0:
 4127 0000 00000000 		.4byte	.LFB264
 4128 0004 06000000 		.4byte	.LFE264
 4129 0008 00000000 		.4byte	.LFB263
 4130 000c 04000000 		.4byte	.LFE263
 4131 0010 00000000 		.4byte	.LFB260
 4132 0014 1C000000 		.4byte	.LFE260
 4133 0018 00000000 		.4byte	.LFB261
 4134 001c 06000000 		.4byte	.LFE261
 4135 0020 00000000 		.4byte	.LFB262
 4136 0024 04000000 		.4byte	.LFE262
 4137 0028 00000000 		.4byte	0
 4138 002c 00000000 		.4byte	0
 4139              		.section	.debug_line,"",%progbits
 4140              	.Ldebug_line0:
 4141 0000 CA030000 		.section	.debug_str,"MS",%progbits,1
 4141      02006E03 
 4141      00000201 
 4141      FB0E0D00 
 4141      01010101 
 4142              	.LASF175:
 4143 0000 55415254 		.ascii	"UART_TX_IDLE\000"
 4143      5F54585F 
 4143      49444C45 
 4143      00
 4144              	.LASF51:
 4145 000d 63685F74 		.ascii	"ch_threads_list\000"
 4145      68726561 
 4145      64735F6C 
 4145      69737400 
 4146              	.LASF162:
 4147 001d 50434461 		.ascii	"PCData\000"
 4147      746100
 4148              	.LASF83:
 4149 0024 53797374 		.ascii	"SystemCoreClock\000"
 4149      656D436F 
ARM GAS  /tmp/ccsfnBTQ.s 			page 74


 4149      7265436C 
 4149      6F636B00 
 4150              	.LASF101:
 4151 0034 77746D74 		.ascii	"wtmtxp\000"
 4151      787000
 4152              	.LASF198:
 4153 003b 7478656E 		.ascii	"txend2_cb\000"
 4153      64325F63 
 4153      6200
 4154              	.LASF95:
 4155 0045 746D5F63 		.ascii	"tm_calibration_t\000"
 4155      616C6962 
 4155      72617469 
 4155      6F6E5F74 
 4155      00
 4156              	.LASF48:
 4157 0056 74687265 		.ascii	"thread_reference_t\000"
 4157      61645F72 
 4157      65666572 
 4157      656E6365 
 4157      5F7400
 4158              	.LASF110:
 4159 0069 63686172 		.ascii	"char\000"
 4159      00
 4160              	.LASF90:
 4161 006e 72656761 		.ascii	"regarm_t\000"
 4161      726D5F74 
 4161      00
 4162              	.LASF340:
 4163 0077 746F7473 		.ascii	"totsize\000"
 4163      697A6500 
 4164              	.LASF33:
 4165 007f 705F7072 		.ascii	"p_prio\000"
 4165      696F00
 4166              	.LASF304:
 4167 0086 44434647 		.ascii	"DCFG\000"
 4167      00
 4168              	.LASF224:
 4169 008b 5553425F 		.ascii	"USB_UNINIT\000"
 4169      554E494E 
 4169      495400
 4170              	.LASF190:
 4171 0096 646D616D 		.ascii	"dmamode\000"
 4171      6F646500 
 4172              	.LASF263:
 4173 009e 72657376 		.ascii	"resvd4\000"
 4173      643400
 4174              	.LASF226:
 4175 00a5 5553425F 		.ascii	"USB_READY\000"
 4175      52454144 
 4175      5900
 4176              	.LASF254:
 4177 00af 72657376 		.ascii	"resvd8\000"
 4177      643800
 4178              	.LASF241:
 4179 00b6 5553425F 		.ascii	"USB_EVENT_SUSPEND\000"
 4179      4556454E 
ARM GAS  /tmp/ccsfnBTQ.s 			page 75


 4179      545F5355 
 4179      5350454E 
 4179      4400
 4180              	.LASF191:
 4181 00c8 646D6172 		.ascii	"dmarx\000"
 4181      7800
 4182              	.LASF257:
 4183 00ce 48435453 		.ascii	"HCTSIZ\000"
 4183      495A00
 4184              	.LASF265:
 4185 00d5 72657376 		.ascii	"resvdC\000"
 4185      644300
 4186              	.LASF121:
 4187 00dc 63665F6F 		.ascii	"cf_off_older\000"
 4187      66665F6F 
 4187      6C646572 
 4187      00
 4188              	.LASF124:
 4189 00e9 63665F6F 		.ascii	"cf_off_state\000"
 4189      66665F73 
 4189      74617465 
 4189      00
 4190              	.LASF360:
 4191 00f6 72657175 		.ascii	"requests_hook_cb\000"
 4191      65737473 
 4191      5F686F6F 
 4191      6B5F6362 
 4191      00
 4192              	.LASF132:
 4193 0107 696F5F71 		.ascii	"io_queue_t\000"
 4193      75657565 
 4193      5F7400
 4194              	.LASF42:
 4195 0112 705F6D73 		.ascii	"p_msgqueue\000"
 4195      67717565 
 4195      756500
 4196              	.LASF231:
 4197 011d 5553425F 		.ascii	"USB_EP0_TX\000"
 4197      4550305F 
 4197      545800
 4198              	.LASF13:
 4199 0128 756E7369 		.ascii	"unsigned int\000"
 4199      676E6564 
 4199      20696E74 
 4199      00
 4200              	.LASF199:
 4201 0135 7278656E 		.ascii	"rxend_cb\000"
 4201      645F6362 
 4201      00
 4202              	.LASF202:
 4203 013e 73706565 		.ascii	"speed\000"
 4203      6400
 4204              	.LASF287:
 4205 0144 72657376 		.ascii	"resvd34\000"
 4205      64333400 
 4206              	.LASF49:
 4207 014c 74687265 		.ascii	"threads_list_t\000"
ARM GAS  /tmp/ccsfnBTQ.s 			page 76


 4207      6164735F 
 4207      6C697374 
 4207      5F7400
 4208              	.LASF182:
 4209 015b 75617274 		.ascii	"uartrxstate_t\000"
 4209      72787374 
 4209      6174655F 
 4209      7400
 4210              	.LASF41:
 4211 0169 705F7761 		.ascii	"p_waiting\000"
 4211      6974696E 
 4211      6700
 4212              	.LASF366:
 4213 0173 73656E64 		.ascii	"send_packet_bldc_interface\000"
 4213      5F706163 
 4213      6B65745F 
 4213      626C6463 
 4213      5F696E74 
 4214              	.LASF258:
 4215 018e 72657376 		.ascii	"resvd14\000"
 4215      64313400 
 4216              	.LASF279:
 4217 0196 47494E54 		.ascii	"GINTSTS\000"
 4217      53545300 
 4218              	.LASF259:
 4219 019e 72657376 		.ascii	"resvd18\000"
 4219      64313800 
 4220              	.LASF122:
 4221 01a6 63665F6F 		.ascii	"cf_off_name\000"
 4221      66665F6E 
 4221      616D6500 
 4222              	.LASF142:
 4223 01b2 716E6F74 		.ascii	"qnotify_t\000"
 4223      6966795F 
 4223      7400
 4224              	.LASF288:
 4225 01bc 47434346 		.ascii	"GCCFG\000"
 4225      4700
 4226              	.LASF268:
 4227 01c2 72657376 		.ascii	"resvd1C\000"
 4227      64314300 
 4228              	.LASF329:
 4229 01ca 6F74675F 		.ascii	"otg_ram_size\000"
 4229      72616D5F 
 4229      73697A65 
 4229      00
 4230              	.LASF347:
 4231 01d7 65705F6D 		.ascii	"ep_mode\000"
 4231      6F646500 
 4232              	.LASF98:
 4233 01df 77746F62 		.ascii	"wtobjp\000"
 4233      6A7000
 4234              	.LASF213:
 4235 01e6 65703065 		.ascii	"ep0endcb\000"
 4235      6E646362 
 4235      00
 4236              	.LASF79:
ARM GAS  /tmp/ccsfnBTQ.s 			page 77


 4237 01ef 76746C69 		.ascii	"vtlist\000"
 4237      737400
 4238              	.LASF250:
 4239 01f6 75736265 		.ascii	"usbeventcb_t\000"
 4239      76656E74 
 4239      63625F74 
 4239      00
 4240              	.LASF2:
 4241 0203 73686F72 		.ascii	"short int\000"
 4241      7420696E 
 4241      7400
 4242              	.LASF55:
 4243 020d 63685F72 		.ascii	"ch_ready_list\000"
 4243      65616479 
 4243      5F6C6973 
 4243      7400
 4244              	.LASF81:
 4245 021b 69646C65 		.ascii	"idle_thread_wa\000"
 4245      5F746872 
 4245      6561645F 
 4245      776100
 4246              	.LASF84:
 4247 022a 4E445452 		.ascii	"NDTR\000"
 4247      00
 4248              	.LASF296:
 4249 022f 72657376 		.ascii	"resvd40C\000"
 4249      64343043 
 4249      00
 4250              	.LASF102:
 4251 0238 65776D61 		.ascii	"ewmask\000"
 4251      736B00
 4252              	.LASF339:
 4253 023f 6D6F6465 		.ascii	"mode\000"
 4253      00
 4254              	.LASF260:
 4255 0244 72657376 		.ascii	"resvd1c\000"
 4255      64316300 
 4256              	.LASF280:
 4257 024c 47494E54 		.ascii	"GINTMSK\000"
 4257      4D534B00 
 4258              	.LASF125:
 4259 0254 63665F6F 		.ascii	"cf_off_flags\000"
 4259      66665F66 
 4259      6C616773 
 4259      00
 4260              	.LASF177:
 4261 0261 55415254 		.ascii	"UART_TX_COMPLETE\000"
 4261      5F54585F 
 4261      434F4D50 
 4261      4C455445 
 4261      00
 4262              	.LASF115:
 4263 0272 63685F70 		.ascii	"ch_ptrsize\000"
 4263      74727369 
 4263      7A6500
 4264              	.LASF314:
 4265 027d 44564255 		.ascii	"DVBUSDIS\000"
ARM GAS  /tmp/ccsfnBTQ.s 			page 78


 4265      53444953 
 4265      00
 4266              	.LASF374:
 4267 0286 7061636B 		.ascii	"packet_timerfunc\000"
 4267      65745F74 
 4267      696D6572 
 4267      66756E63 
 4267      00
 4268              	.LASF238:
 4269 0297 5553425F 		.ascii	"USB_EVENT_RESET\000"
 4269      4556454E 
 4269      545F5245 
 4269      53455400 
 4270              	.LASF344:
 4271 02a7 72787369 		.ascii	"rxsize\000"
 4271      7A6500
 4272              	.LASF62:
 4273 02ae 76746675 		.ascii	"vtfunc_t\000"
 4273      6E635F74 
 4273      00
 4274              	.LASF380:
 4275 02b7 2F686F6D 		.ascii	"/home/jhl/myprogram/vesc/bldc_uart_comm_stm32f4_dis"
 4275      652F6A68 
 4275      6C2F6D79 
 4275      70726F67 
 4275      72616D2F 
 4276 02ea 636F7665 		.ascii	"covery\000"
 4276      727900
 4277              	.LASF74:
 4278 02f1 63685F73 		.ascii	"ch_system_debug\000"
 4278      79737465 
 4278      6D5F6465 
 4278      62756700 
 4279              	.LASF230:
 4280 0301 5553425F 		.ascii	"USB_EP0_WAITING_SETUP\000"
 4280      4550305F 
 4280      57414954 
 4280      494E475F 
 4280      53455455 
 4281              	.LASF105:
 4282 0317 735F636E 		.ascii	"s_cnt\000"
 4282      7400
 4283              	.LASF330:
 4284 031d 6E756D5F 		.ascii	"num_endpoints\000"
 4284      656E6470 
 4284      6F696E74 
 4284      7300
 4285              	.LASF158:
 4286 032b 61667268 		.ascii	"afrh\000"
 4286      00
 4287              	.LASF0:
 4288 0330 7369676E 		.ascii	"signed char\000"
 4288      65642063 
 4288      68617200 
 4289              	.LASF292:
 4290 033c 72657376 		.ascii	"resvd140\000"
 4290      64313430 
ARM GAS  /tmp/ccsfnBTQ.s 			page 79


 4290      00
 4291              	.LASF22:
 4292 0345 746D6F64 		.ascii	"tmode_t\000"
 4292      655F7400 
 4293              	.LASF192:
 4294 034d 646D6174 		.ascii	"dmatx\000"
 4294      7800
 4295              	.LASF17:
 4296 0353 75696E74 		.ascii	"uint32_t\000"
 4296      33325F74 
 4296      00
 4297              	.LASF134:
 4298 035c 715F7761 		.ascii	"q_waiting\000"
 4298      6974696E 
 4298      6700
 4299              	.LASF116:
 4300 0366 63685F74 		.ascii	"ch_timesize\000"
 4300      696D6573 
 4300      697A6500 
 4301              	.LASF88:
 4302 0372 47545052 		.ascii	"GTPR\000"
 4302      00
 4303              	.LASF27:
 4304 0377 6576656E 		.ascii	"eventmask_t\000"
 4304      746D6173 
 4304      6B5F7400 
 4305              	.LASF57:
 4306 0383 725F7072 		.ascii	"r_prio\000"
 4306      696F00
 4307              	.LASF317:
 4308 038a 44494550 		.ascii	"DIEPEMPMSK\000"
 4308      454D504D 
 4308      534B00
 4309              	.LASF146:
 4310 0395 69666372 		.ascii	"ifcr\000"
 4310      00
 4311              	.LASF69:
 4312 039a 76745F70 		.ascii	"vt_par\000"
 4312      617200
 4313              	.LASF245:
 4314 03a1 75645F73 		.ascii	"ud_size\000"
 4314      697A6500 
 4315              	.LASF154:
 4316 03a9 6F747970 		.ascii	"otyper\000"
 4316      657200
 4317              	.LASF364:
 4318 03b0 666C6F61 		.ascii	"float\000"
 4318      7400
 4319              	.LASF286:
 4320 03b6 72657376 		.ascii	"resvd30\000"
 4320      64333000 
 4321              	.LASF25:
 4322 03be 74707269 		.ascii	"tprio_t\000"
 4322      6F5F7400 
 4323              	.LASF321:
 4324 03c6 72657376 		.ascii	"resvd880\000"
 4324      64383830 
ARM GAS  /tmp/ccsfnBTQ.s 			page 80


 4324      00
 4325              	.LASF214:
 4326 03cf 73657475 		.ascii	"setup\000"
 4326      7000
 4327              	.LASF64:
 4328 03d5 63685F76 		.ascii	"ch_virtual_timer\000"
 4328      69727475 
 4328      616C5F74 
 4328      696D6572 
 4328      00
 4329              	.LASF232:
 4330 03e6 5553425F 		.ascii	"USB_EP0_WAITING_TX0\000"
 4330      4550305F 
 4330      57414954 
 4330      494E475F 
 4330      54583000 
 4331              	.LASF183:
 4332 03fa 75617274 		.ascii	"uartflags_t\000"
 4332      666C6167 
 4332      735F7400 
 4333              	.LASF12:
 4334 0406 6C6F6E67 		.ascii	"long long unsigned int\000"
 4334      206C6F6E 
 4334      6720756E 
 4334      7369676E 
 4334      65642069 
 4335              	.LASF338:
 4336 041d 7478636E 		.ascii	"txcnt\000"
 4336      7400
 4337              	.LASF283:
 4338 0423 47525846 		.ascii	"GRXFSIZ\000"
 4338      53495A00 
 4339              	.LASF206:
 4340 042b 7472616E 		.ascii	"transmitting\000"
 4340      736D6974 
 4340      74696E67 
 4340      00
 4341              	.LASF181:
 4342 0438 55415254 		.ascii	"UART_RX_COMPLETE\000"
 4342      5F52585F 
 4342      434F4D50 
 4342      4C455445 
 4342      00
 4343              	.LASF357:
 4344 0449 55534245 		.ascii	"USBEndpointConfig\000"
 4344      6E64706F 
 4344      696E7443 
 4344      6F6E6669 
 4344      6700
 4345              	.LASF168:
 4346 045b 50494461 		.ascii	"PIData\000"
 4346      746100
 4347              	.LASF149:
 4348 0462 76656374 		.ascii	"vector\000"
 4348      6F7200
 4349              	.LASF207:
 4350 0469 72656365 		.ascii	"receiving\000"
ARM GAS  /tmp/ccsfnBTQ.s 			page 81


 4350      6976696E 
 4350      6700
 4351              	.LASF167:
 4352 0473 50484461 		.ascii	"PHData\000"
 4352      746100
 4353              	.LASF358:
 4354 047a 6576656E 		.ascii	"event_cb\000"
 4354      745F6362 
 4354      00
 4355              	.LASF4:
 4356 0483 5F5F7569 		.ascii	"__uint16_t\000"
 4356      6E743136 
 4356      5F7400
 4357              	.LASF28:
 4358 048e 636E745F 		.ascii	"cnt_t\000"
 4358      7400
 4359              	.LASF375:
 4360 0494 7061636B 		.ascii	"packet_process_byte\000"
 4360      65745F70 
 4360      726F6365 
 4360      73735F62 
 4360      79746500 
 4361              	.LASF184:
 4362 04a8 55415254 		.ascii	"UARTDriver\000"
 4362      44726976 
 4362      657200
 4363              	.LASF174:
 4364 04b3 75617274 		.ascii	"uartstate_t\000"
 4364      73746174 
 4364      655F7400 
 4365              	.LASF52:
 4366 04bf 74687265 		.ascii	"threads_queue_t\000"
 4366      6164735F 
 4366      71756575 
 4366      655F7400 
 4367              	.LASF35:
 4368 04cf 705F6E65 		.ascii	"p_newer\000"
 4368      77657200 
 4369              	.LASF272:
 4370 04d7 444F4550 		.ascii	"DOEPTSIZ\000"
 4370      5453495A 
 4370      00
 4371              	.LASF71:
 4372 04e0 63685F76 		.ascii	"ch_virtual_timers_list\000"
 4372      69727475 
 4372      616C5F74 
 4372      696D6572 
 4372      735F6C69 
 4373              	.LASF350:
 4374 04f7 6F75745F 		.ascii	"out_cb\000"
 4374      636200
 4375              	.LASF301:
 4376 04fe 48505254 		.ascii	"HPRT\000"
 4376      00
 4377              	.LASF303:
 4378 0503 72657376 		.ascii	"resvd700\000"
 4378      64373030 
ARM GAS  /tmp/ccsfnBTQ.s 			page 82


 4378      00
 4379              	.LASF30:
 4380 050c 74687265 		.ascii	"thread_t\000"
 4380      61645F74 
 4380      00
 4381              	.LASF164:
 4382 0515 50454461 		.ascii	"PEData\000"
 4382      746100
 4383              	.LASF269:
 4384 051c 73746D33 		.ascii	"stm32_otg_in_ep_t\000"
 4384      325F6F74 
 4384      675F696E 
 4384      5F65705F 
 4384      7400
 4385              	.LASF302:
 4386 052e 72657376 		.ascii	"resvd444\000"
 4386      64343434 
 4386      00
 4387              	.LASF306:
 4388 0537 44535453 		.ascii	"DSTS\000"
 4388      00
 4389              	.LASF19:
 4390 053c 73697A65 		.ascii	"size_t\000"
 4390      5F7400
 4391              	.LASF96:
 4392 0543 7264796D 		.ascii	"rdymsg\000"
 4392      736700
 4393              	.LASF117:
 4394 054a 63685F74 		.ascii	"ch_threadsize\000"
 4394      68726561 
 4394      6473697A 
 4394      6500
 4395              	.LASF94:
 4396 0558 6F666673 		.ascii	"offset\000"
 4396      657400
 4397              	.LASF127:
 4398 055f 63665F6F 		.ascii	"cf_off_preempt\000"
 4398      66665F70 
 4398      7265656D 
 4398      707400
 4399              	.LASF376:
 4400 056e 7061636B 		.ascii	"packet_init\000"
 4400      65745F69 
 4400      6E697400 
 4401              	.LASF228:
 4402 057a 5553425F 		.ascii	"USB_ACTIVE\000"
 4402      41435449 
 4402      564500
 4403              	.LASF180:
 4404 0585 55415254 		.ascii	"UART_RX_ACTIVE\000"
 4404      5F52585F 
 4404      41435449 
 4404      564500
 4405              	.LASF152:
 4406 0594 5F426F6F 		.ascii	"_Bool\000"
 4406      6C00
 4407              	.LASF328:
ARM GAS  /tmp/ccsfnBTQ.s 			page 83


 4408 059a 72785F66 		.ascii	"rx_fifo_size\000"
 4408      69666F5F 
 4408      73697A65 
 4408      00
 4409              	.LASF293:
 4410 05a7 48434647 		.ascii	"HCFG\000"
 4410      00
 4411              	.LASF161:
 4412 05ac 50424461 		.ascii	"PBData\000"
 4412      746100
 4413              	.LASF106:
 4414 05b3 63685F6D 		.ascii	"ch_mutex\000"
 4414      75746578 
 4414      00
 4415              	.LASF253:
 4416 05bc 48434348 		.ascii	"HCCHAR\000"
 4416      415200
 4417              	.LASF11:
 4418 05c3 5F5F7569 		.ascii	"__uint64_t\000"
 4418      6E743634 
 4418      5F7400
 4419              	.LASF289:
 4420 05ce 72657376 		.ascii	"resvd58\000"
 4420      64353800 
 4421              	.LASF170:
 4422 05d6 70616C5F 		.ascii	"pal_default_config\000"
 4422      64656661 
 4422      756C745F 
 4422      636F6E66 
 4422      696700
 4423              	.LASF233:
 4424 05e9 5553425F 		.ascii	"USB_EP0_WAITING_STS\000"
 4424      4550305F 
 4424      57414954 
 4424      494E475F 
 4424      53545300 
 4425              	.LASF89:
 4426 05fd 55534152 		.ascii	"USART_TypeDef\000"
 4426      545F5479 
 4426      70654465 
 4426      6600
 4427              	.LASF85:
 4428 060b 4D304152 		.ascii	"M0AR\000"
 4428      00
 4429              	.LASF140:
 4430 0610 715F6E6F 		.ascii	"q_notify\000"
 4430      74696679 
 4430      00
 4431              	.LASF36:
 4432 0619 705F6F6C 		.ascii	"p_older\000"
 4432      64657200 
 4433              	.LASF370:
 4434 0621 626C6463 		.ascii	"bldc_interface_uart_init\000"
 4434      5F696E74 
 4434      65726661 
 4434      63655F75 
 4434      6172745F 
ARM GAS  /tmp/ccsfnBTQ.s 			page 84


 4435              	.LASF29:
 4436 063a 73797374 		.ascii	"systime_t\000"
 4436      696D655F 
 4436      7400
 4437              	.LASF119:
 4438 0644 63665F6F 		.ascii	"cf_off_ctx\000"
 4438      66665F63 
 4438      747800
 4439              	.LASF123:
 4440 064f 63665F6F 		.ascii	"cf_off_stklimit\000"
 4440      66665F73 
 4440      746B6C69 
 4440      6D697400 
 4441              	.LASF37:
 4442 065f 705F6E61 		.ascii	"p_name\000"
 4442      6D6500
 4443              	.LASF318:
 4444 0666 72657376 		.ascii	"resvd838\000"
 4444      64383338 
 4444      00
 4445              	.LASF309:
 4446 066f 444F4550 		.ascii	"DOEPMSK\000"
 4446      4D534B00 
 4447              	.LASF153:
 4448 0677 6D6F6465 		.ascii	"moder\000"
 4448      7200
 4449              	.LASF239:
 4450 067d 5553425F 		.ascii	"USB_EVENT_ADDRESS\000"
 4450      4556454E 
 4450      545F4144 
 4450      44524553 
 4450      5300
 4451              	.LASF299:
 4452 068f 4841494E 		.ascii	"HAINTMSK\000"
 4452      544D534B 
 4452      00
 4453              	.LASF195:
 4454 0698 75617274 		.ascii	"uartccb_t\000"
 4454      6363625F 
 4454      7400
 4455              	.LASF67:
 4456 06a2 76745F64 		.ascii	"vt_delta\000"
 4456      656C7461 
 4456      00
 4457              	.LASF6:
 4458 06ab 5F5F696E 		.ascii	"__int32_t\000"
 4458      7433325F 
 4458      7400
 4459              	.LASF379:
 4460 06b5 626C6463 		.ascii	"bldc_interface_uart.c\000"
 4460      5F696E74 
 4460      65726661 
 4460      63655F75 
 4460      6172742E 
 4461              	.LASF72:
 4462 06cb 76745F6C 		.ascii	"vt_lasttime\000"
 4462      61737474 
ARM GAS  /tmp/ccsfnBTQ.s 			page 85


 4462      696D6500 
 4463              	.LASF353:
 4464 06d7 696E5F73 		.ascii	"in_state\000"
 4464      74617465 
 4464      00
 4465              	.LASF138:
 4466 06e0 715F7772 		.ascii	"q_wrptr\000"
 4466      70747200 
 4467              	.LASF147:
 4468 06e8 69736869 		.ascii	"ishift\000"
 4468      667400
 4469              	.LASF278:
 4470 06ef 47525354 		.ascii	"GRSTCTL\000"
 4470      43544C00 
 4471              	.LASF23:
 4472 06f7 74737461 		.ascii	"tstate_t\000"
 4472      74655F74 
 4472      00
 4473              	.LASF211:
 4474 0700 6570306E 		.ascii	"ep0next\000"
 4474      65787400 
 4475              	.LASF365:
 4476 0708 64617461 		.ascii	"data\000"
 4476      00
 4477              	.LASF150:
 4478 070d 73746D33 		.ascii	"stm32_dma_stream_t\000"
 4478      325F646D 
 4478      615F7374 
 4478      7265616D 
 4478      5F7400
 4479              	.LASF10:
 4480 0720 6C6F6E67 		.ascii	"long long int\000"
 4480      206C6F6E 
 4480      6720696E 
 4480      7400
 4481              	.LASF197:
 4482 072e 7478656E 		.ascii	"txend1_cb\000"
 4482      64315F63 
 4482      6200
 4483              	.LASF38:
 4484 0738 705F7374 		.ascii	"p_state\000"
 4484      61746500 
 4485              	.LASF367:
 4486 0740 70726F63 		.ascii	"process_packet\000"
 4486      6573735F 
 4486      7061636B 
 4486      657400
 4487              	.LASF8:
 4488 074f 5F5F7569 		.ascii	"__uint32_t\000"
 4488      6E743332 
 4488      5F7400
 4489              	.LASF14:
 4490 075a 75696E74 		.ascii	"uint8_t\000"
 4490      385F7400 
 4491              	.LASF215:
 4492 0762 73746174 		.ascii	"status\000"
 4492      757300
ARM GAS  /tmp/ccsfnBTQ.s 			page 86


 4493              	.LASF373:
 4494 0769 626C6463 		.ascii	"bldc_interface_process_packet\000"
 4494      5F696E74 
 4494      65726661 
 4494      63655F70 
 4494      726F6365 
 4495              	.LASF349:
 4496 0787 696E5F63 		.ascii	"in_cb\000"
 4496      6200
 4497              	.LASF143:
 4498 078d 696E7075 		.ascii	"input_queue_t\000"
 4498      745F7175 
 4498      6575655F 
 4498      7400
 4499              	.LASF47:
 4500 079b 705F6D70 		.ascii	"p_mpool\000"
 4500      6F6F6C00 
 4501              	.LASF377:
 4502 07a3 626C6463 		.ascii	"bldc_interface_init\000"
 4502      5F696E74 
 4502      65726661 
 4502      63655F69 
 4502      6E697400 
 4503              	.LASF50:
 4504 07b7 63685F74 		.ascii	"ch_thread\000"
 4504      68726561 
 4504      6400
 4505              	.LASF372:
 4506 07c1 7061636B 		.ascii	"packet_send_packet\000"
 4506      65745F73 
 4506      656E645F 
 4506      7061636B 
 4506      657400
 4507              	.LASF189:
 4508 07d4 75736172 		.ascii	"usart\000"
 4508      7400
 4509              	.LASF229:
 4510 07da 75736273 		.ascii	"usbstate_t\000"
 4510      74617465 
 4510      5F7400
 4511              	.LASF201:
 4512 07e5 72786572 		.ascii	"rxerr_cb\000"
 4512      725F6362 
 4512      00
 4513              	.LASF73:
 4514 07ee 73797374 		.ascii	"system_debug_t\000"
 4514      656D5F64 
 4514      65627567 
 4514      5F7400
 4515              	.LASF53:
 4516 07fd 63685F74 		.ascii	"ch_threads_queue\000"
 4516      68726561 
 4516      64735F71 
 4516      75657565 
 4516      00
 4517              	.LASF271:
 4518 080e 444F4550 		.ascii	"DOEPINT\000"
ARM GAS  /tmp/ccsfnBTQ.s 			page 87


 4518      494E5400 
 4519              	.LASF270:
 4520 0816 444F4550 		.ascii	"DOEPCTL\000"
 4520      43544C00 
 4521              	.LASF331:
 4522 081e 73746D33 		.ascii	"stm32_otg_params_t\000"
 4522      325F6F74 
 4522      675F7061 
 4522      72616D73 
 4522      5F7400
 4523              	.LASF59:
 4524 0831 725F6E65 		.ascii	"r_newer\000"
 4524      77657200 
 4525              	.LASF26:
 4526 0839 6D73675F 		.ascii	"msg_t\000"
 4526      7400
 4527              	.LASF320:
 4528 083f 72657376 		.ascii	"resvd840\000"
 4528      64383430 
 4528      00
 4529              	.LASF204:
 4530 0848 55415254 		.ascii	"UARTD3\000"
 4530      443300
 4531              	.LASF337:
 4532 084f 74787369 		.ascii	"txsize\000"
 4532      7A6500
 4533              	.LASF92:
 4534 0856 636F6E74 		.ascii	"context\000"
 4534      65787400 
 4535              	.LASF212:
 4536 085e 6570306E 		.ascii	"ep0n\000"
 4536      00
 4537              	.LASF298:
 4538 0863 4841494E 		.ascii	"HAINT\000"
 4538      5400
 4539              	.LASF159:
 4540 0869 73746D33 		.ascii	"stm32_gpio_setup_t\000"
 4540      325F6770 
 4540      696F5F73 
 4540      65747570 
 4540      5F7400
 4541              	.LASF354:
 4542 087c 6F75745F 		.ascii	"out_state\000"
 4542      73746174 
 4542      6500
 4543              	.LASF39:
 4544 0886 705F666C 		.ascii	"p_flags\000"
 4544      61677300 
 4545              	.LASF371:
 4546 088e 66756E63 		.ascii	"func\000"
 4546      00
 4547              	.LASF63:
 4548 0893 76697274 		.ascii	"virtual_timer_t\000"
 4548      75616C5F 
 4548      74696D65 
 4548      725F7400 
 4549              	.LASF256:
ARM GAS  /tmp/ccsfnBTQ.s 			page 88


 4550 08a3 4843494E 		.ascii	"HCINTMSK\000"
 4550      544D534B 
 4550      00
 4551              	.LASF336:
 4552 08ac 74787175 		.ascii	"txqueued\000"
 4552      65756564 
 4552      00
 4553              	.LASF208:
 4554 08b5 696E5F70 		.ascii	"in_params\000"
 4554      6172616D 
 4554      7300
 4555              	.LASF267:
 4556 08bf 44545846 		.ascii	"DTXFSTS\000"
 4556      53545300 
 4557              	.LASF126:
 4558 08c7 63665F6F 		.ascii	"cf_off_refs\000"
 4558      66665F72 
 4558      65667300 
 4559              	.LASF112:
 4560 08d3 63685F7A 		.ascii	"ch_zero\000"
 4560      65726F00 
 4561              	.LASF86:
 4562 08db 4D314152 		.ascii	"M1AR\000"
 4562      00
 4563              	.LASF369:
 4564 08e0 626C6463 		.ascii	"bldc_interface_uart_process_byte\000"
 4564      5F696E74 
 4564      65726661 
 4564      63655F75 
 4564      6172745F 
 4565              	.LASF361:
 4566 0901 736F665F 		.ascii	"sof_cb\000"
 4566      636200
 4567              	.LASF87:
 4568 0908 444D415F 		.ascii	"DMA_Stream_TypeDef\000"
 4568      53747265 
 4568      616D5F54 
 4568      79706544 
 4568      656600
 4569              	.LASF261:
 4570 091b 73746D33 		.ascii	"stm32_otg_host_chn_t\000"
 4570      325F6F74 
 4570      675F686F 
 4570      73745F63 
 4570      686E5F74 
 4571              	.LASF20:
 4572 0930 6C6F6E67 		.ascii	"long double\000"
 4572      20646F75 
 4572      626C6500 
 4573              	.LASF297:
 4574 093c 48505458 		.ascii	"HPTXSTS\000"
 4574      53545300 
 4575              	.LASF243:
 4576 0944 5553425F 		.ascii	"USB_EVENT_STALLED\000"
 4576      4556454E 
 4576      545F5354 
 4576      414C4C45 
ARM GAS  /tmp/ccsfnBTQ.s 			page 89


 4576      4400
 4577              	.LASF157:
 4578 0956 6166726C 		.ascii	"afrl\000"
 4578      00
 4579              	.LASF60:
 4580 095b 725F6F6C 		.ascii	"r_older\000"
 4580      64657200 
 4581              	.LASF334:
 4582 0963 6C696E65 		.ascii	"linear\000"
 4582      617200
 4583              	.LASF326:
 4584 096a 4649464F 		.ascii	"FIFO\000"
 4584      00
 4585              	.LASF217:
 4586 096f 636F6E66 		.ascii	"configuration\000"
 4586      69677572 
 4586      6174696F 
 4586      6E00
 4587              	.LASF356:
 4588 097d 73657475 		.ascii	"setup_buf\000"
 4588      705F6275 
 4588      6600
 4589              	.LASF315:
 4590 0987 44564255 		.ascii	"DVBUSPULSE\000"
 4590      5350554C 
 4590      534500
 4591              	.LASF221:
 4592 0992 77616974 		.ascii	"wait\000"
 4592      00
 4593              	.LASF43:
 4594 0997 705F6D73 		.ascii	"p_msg\000"
 4594      6700
 4595              	.LASF166:
 4596 099d 50474461 		.ascii	"PGData\000"
 4596      746100
 4597              	.LASF323:
 4598 09a4 72657376 		.ascii	"resvdD00\000"
 4598      64443030 
 4598      00
 4599              	.LASF113:
 4600 09ad 63685F73 		.ascii	"ch_size\000"
 4600      697A6500 
 4601              	.LASF80:
 4602 09b5 6D61696E 		.ascii	"mainthread\000"
 4602      74687265 
 4602      616400
 4603              	.LASF342:
 4604 09c0 72787175 		.ascii	"rxqueue\000"
 4604      65756500 
 4605              	.LASF210:
 4606 09c8 65703073 		.ascii	"ep0state\000"
 4606      74617465 
 4606      00
 4607              	.LASF362:
 4608 09d1 55534243 		.ascii	"USBConfig\000"
 4608      6F6E6669 
 4608      6700
ARM GAS  /tmp/ccsfnBTQ.s 			page 90


 4609              	.LASF15:
 4610 09db 75696E74 		.ascii	"uint16_t\000"
 4610      31365F74 
 4610      00
 4611              	.LASF276:
 4612 09e4 47414842 		.ascii	"GAHBCFG\000"
 4612      43464700 
 4613              	.LASF327:
 4614 09ec 73746D33 		.ascii	"stm32_otg_t\000"
 4614      325F6F74 
 4614      675F7400 
 4615              	.LASF247:
 4616 09f8 55534244 		.ascii	"USBDescriptor\000"
 4616      65736372 
 4616      6970746F 
 4616      7200
 4617              	.LASF129:
 4618 0a06 63686465 		.ascii	"chdebug_t\000"
 4618      6275675F 
 4618      7400
 4619              	.LASF70:
 4620 0a10 76697274 		.ascii	"virtual_timers_list_t\000"
 4620      75616C5F 
 4620      74696D65 
 4620      72735F6C 
 4620      6973745F 
 4621              	.LASF21:
 4622 0a26 7274636E 		.ascii	"rtcnt_t\000"
 4622      745F7400 
 4623              	.LASF290:
 4624 0a2e 48505458 		.ascii	"HPTXFSIZ\000"
 4624      4653495A 
 4624      00
 4625              	.LASF163:
 4626 0a37 50444461 		.ascii	"PDData\000"
 4626      746100
 4627              	.LASF188:
 4628 0a3e 636F6E66 		.ascii	"config\000"
 4628      696700
 4629              	.LASF46:
 4630 0a45 705F7265 		.ascii	"p_realprio\000"
 4630      616C7072 
 4630      696F00
 4631              	.LASF200:
 4632 0a50 72786368 		.ascii	"rxchar_cb\000"
 4632      61725F63 
 4632      6200
 4633              	.LASF114:
 4634 0a5a 63685F76 		.ascii	"ch_version\000"
 4634      65727369 
 4634      6F6E00
 4635              	.LASF141:
 4636 0a65 715F6C69 		.ascii	"q_link\000"
 4636      6E6B00
 4637              	.LASF255:
 4638 0a6c 4843494E 		.ascii	"HCINT\000"
 4638      5400
ARM GAS  /tmp/ccsfnBTQ.s 			page 91


 4639              	.LASF61:
 4640 0a72 725F6375 		.ascii	"r_current\000"
 4640      7272656E 
 4640      7400
 4641              	.LASF209:
 4642 0a7c 6F75745F 		.ascii	"out_params\000"
 4642      70617261 
 4642      6D7300
 4643              	.LASF107:
 4644 0a87 6D5F7175 		.ascii	"m_queue\000"
 4644      65756500 
 4645              	.LASF7:
 4646 0a8f 6C6F6E67 		.ascii	"long int\000"
 4646      20696E74 
 4646      00
 4647              	.LASF93:
 4648 0a98 706F7274 		.ascii	"port_intctx\000"
 4648      5F696E74 
 4648      63747800 
 4649              	.LASF346:
 4650 0aa4 5553424F 		.ascii	"USBOutEndpointState\000"
 4650      7574456E 
 4650      64706F69 
 4650      6E745374 
 4650      61746500 
 4651              	.LASF82:
 4652 0ab8 49544D5F 		.ascii	"ITM_RxBuffer\000"
 4652      52784275 
 4652      66666572 
 4652      00
 4653              	.LASF262:
 4654 0ac5 44494550 		.ascii	"DIEPCTL\000"
 4654      43544C00 
 4655              	.LASF187:
 4656 0acd 72787374 		.ascii	"rxstate\000"
 4656      61746500 
 4657              	.LASF300:
 4658 0ad5 72657376 		.ascii	"resvd41C\000"
 4658      64343143 
 4658      00
 4659              	.LASF160:
 4660 0ade 50414461 		.ascii	"PAData\000"
 4660      746100
 4661              	.LASF252:
 4662 0ae5 75736267 		.ascii	"usbgetdescriptor_t\000"
 4662      65746465 
 4662      73637269 
 4662      70746F72 
 4662      5F7400
 4663              	.LASF77:
 4664 0af8 63685F73 		.ascii	"ch_system\000"
 4664      79737465 
 4664      6D00
 4665              	.LASF32:
 4666 0b02 705F7072 		.ascii	"p_prev\000"
 4666      657600
 4667              	.LASF108:
ARM GAS  /tmp/ccsfnBTQ.s 			page 92


 4668 0b09 6D5F6F77 		.ascii	"m_owner\000"
 4668      6E657200 
 4669              	.LASF196:
 4670 0b11 75617274 		.ascii	"uartecb_t\000"
 4670      6563625F 
 4670      7400
 4671              	.LASF144:
 4672 0b1b 6F757470 		.ascii	"output_queue_t\000"
 4672      75745F71 
 4672      75657565 
 4672      5F7400
 4673              	.LASF31:
 4674 0b2a 705F6E65 		.ascii	"p_next\000"
 4674      787400
 4675              	.LASF332:
 4676 0b31 74786275 		.ascii	"txbuf\000"
 4676      6600
 4677              	.LASF307:
 4678 0b37 72657376 		.ascii	"resvd80C\000"
 4678      64383043 
 4678      00
 4679              	.LASF18:
 4680 0b40 75696E74 		.ascii	"uint64_t\000"
 4680      36345F74 
 4680      00
 4681              	.LASF34:
 4682 0b49 705F6374 		.ascii	"p_ctx\000"
 4682      7800
 4683              	.LASF78:
 4684 0b4f 726C6973 		.ascii	"rlist\000"
 4684      7400
 4685              	.LASF203:
 4686 0b55 55415254 		.ascii	"UARTConfig\000"
 4686      436F6E66 
 4686      696700
 4687              	.LASF128:
 4688 0b60 63665F6F 		.ascii	"cf_off_time\000"
 4688      66665F74 
 4688      696D6500 
 4689              	.LASF104:
 4690 0b6c 735F7175 		.ascii	"s_queue\000"
 4690      65756500 
 4691              	.LASF173:
 4692 0b74 55415254 		.ascii	"UART_READY\000"
 4692      5F524541 
 4692      445900
 4693              	.LASF227:
 4694 0b7f 5553425F 		.ascii	"USB_SELECTED\000"
 4694      53454C45 
 4694      43544544 
 4694      00
 4695              	.LASF266:
 4696 0b8c 44494550 		.ascii	"DIEPTSIZ\000"
 4696      5453495A 
 4696      00
 4697              	.LASF118:
 4698 0b95 63665F6F 		.ascii	"cf_off_prio\000"
ARM GAS  /tmp/ccsfnBTQ.s 			page 93


 4698      66665F70 
 4698      72696F00 
 4699              	.LASF3:
 4700 0ba1 5F5F7569 		.ascii	"__uint8_t\000"
 4700      6E74385F 
 4700      7400
 4701              	.LASF333:
 4702 0bab 74787175 		.ascii	"txqueue\000"
 4702      65756500 
 4703              	.LASF249:
 4704 0bb3 75736265 		.ascii	"usbepcallback_t\000"
 4704      7063616C 
 4704      6C626163 
 4704      6B5F7400 
 4705              	.LASF284:
 4706 0bc3 44494550 		.ascii	"DIEPTXF0\000"
 4706      54584630 
 4706      00
 4707              	.LASF178:
 4708 0bcc 75617274 		.ascii	"uarttxstate_t\000"
 4708      74787374 
 4708      6174655F 
 4708      7400
 4709              	.LASF275:
 4710 0bda 474F5447 		.ascii	"GOTGINT\000"
 4710      494E5400 
 4711              	.LASF111:
 4712 0be2 63685F69 		.ascii	"ch_identifier\000"
 4712      64656E74 
 4712      69666965 
 4712      7200
 4713              	.LASF274:
 4714 0bf0 474F5447 		.ascii	"GOTGCTL\000"
 4714      43544C00 
 4715              	.LASF311:
 4716 0bf8 4441494E 		.ascii	"DAINTMSK\000"
 4716      544D534B 
 4716      00
 4717              	.LASF135:
 4718 0c01 715F636F 		.ascii	"q_counter\000"
 4718      756E7465 
 4718      7200
 4719              	.LASF169:
 4720 0c0b 50414C43 		.ascii	"PALConfig\000"
 4720      6F6E6669 
 4720      6700
 4721              	.LASF137:
 4722 0c15 715F746F 		.ascii	"q_top\000"
 4722      7000
 4723              	.LASF308:
 4724 0c1b 44494550 		.ascii	"DIEPMSK\000"
 4724      4D534B00 
 4725              	.LASF24:
 4726 0c23 74726566 		.ascii	"trefs_t\000"
 4726      735F7400 
 4727              	.LASF9:
 4728 0c2b 6C6F6E67 		.ascii	"long unsigned int\000"
ARM GAS  /tmp/ccsfnBTQ.s 			page 94


 4728      20756E73 
 4728      69676E65 
 4728      6420696E 
 4728      7400
 4729              	.LASF216:
 4730 0c3d 61646472 		.ascii	"address\000"
 4730      65737300 
 4731              	.LASF282:
 4732 0c45 47525853 		.ascii	"GRXSTSP\000"
 4732      54535000 
 4733              	.LASF45:
 4734 0c4d 705F6D74 		.ascii	"p_mtxlist\000"
 4734      786C6973 
 4734      7400
 4735              	.LASF281:
 4736 0c57 47525853 		.ascii	"GRXSTSR\000"
 4736      54535200 
 4737              	.LASF343:
 4738 0c5f 72787175 		.ascii	"rxqueued\000"
 4738      65756564 
 4738      00
 4739              	.LASF378:
 4740 0c68 474E5520 		.ascii	"GNU C11 7.3.1 20180622 (release) [ARM/embedded-7-br"
 4740      43313120 
 4740      372E332E 
 4740      31203230 
 4740      31383036 
 4741 0c9b 616E6368 		.ascii	"anch revision 261907] -mcpu=cortex-m4 -mfloat-abi=h"
 4741      20726576 
 4741      6973696F 
 4741      6E203236 
 4741      31393037 
 4742 0cce 61726420 		.ascii	"ard -mfpu=fpv4-sp-d16 -mno-thumb-interwork -mthumb "
 4742      2D6D6670 
 4742      753D6670 
 4742      76342D73 
 4742      702D6431 
 4743 0d01 2D676764 		.ascii	"-ggdb -O2 -fomit-frame-pointer -falign-functions=16"
 4743      62202D4F 
 4743      32202D66 
 4743      6F6D6974 
 4743      2D667261 
 4744 0d34 202D6666 		.ascii	" -ffunction-sections -fdata-sections -fno-common -f"
 4744      756E6374 
 4744      696F6E2D 
 4744      73656374 
 4744      696F6E73 
 4745 0d67 73696E67 		.ascii	"single-precision-constant\000"
 4745      6C652D70 
 4745      72656369 
 4745      73696F6E 
 4745      2D636F6E 
 4746              	.LASF16:
 4747 0d81 696E7433 		.ascii	"int32_t\000"
 4747      325F7400 
 4748              	.LASF273:
 4749 0d89 73746D33 		.ascii	"stm32_otg_out_ep_t\000"
ARM GAS  /tmp/ccsfnBTQ.s 			page 95


 4749      325F6F74 
 4749      675F6F75 
 4749      745F6570 
 4749      5F7400
 4750              	.LASF335:
 4751 0d9c 71756575 		.ascii	"queue\000"
 4751      6500
 4752              	.LASF100:
 4753 0da2 77747365 		.ascii	"wtsemp\000"
 4753      6D7000
 4754              	.LASF103:
 4755 0da9 63685F73 		.ascii	"ch_semaphore\000"
 4755      656D6170 
 4755      686F7265 
 4755      00
 4756              	.LASF368:
 4757 0db6 626C6463 		.ascii	"bldc_interface_uart_run_timer\000"
 4757      5F696E74 
 4757      65726661 
 4757      63655F75 
 4757      6172745F 
 4758              	.LASF131:
 4759 0dd4 6D757465 		.ascii	"mutex_t\000"
 4759      785F7400 
 4760              	.LASF186:
 4761 0ddc 74787374 		.ascii	"txstate\000"
 4761      61746500 
 4762              	.LASF285:
 4763 0de4 484E5054 		.ascii	"HNPTXSTS\000"
 4763      58535453 
 4763      00
 4764              	.LASF1:
 4765 0ded 756E7369 		.ascii	"unsigned char\000"
 4765      676E6564 
 4765      20636861 
 4765      7200
 4766              	.LASF312:
 4767 0dfb 72657376 		.ascii	"resvd820\000"
 4767      64383230 
 4767      00
 4768              	.LASF171:
 4769 0e04 55415254 		.ascii	"UART_UNINIT\000"
 4769      5F554E49 
 4769      4E495400 
 4770              	.LASF54:
 4771 0e10 72656164 		.ascii	"ready_list_t\000"
 4771      795F6C69 
 4771      73745F74 
 4771      00
 4772              	.LASF313:
 4773 0e1d 72657376 		.ascii	"resvd824\000"
 4773      64383234 
 4773      00
 4774              	.LASF236:
 4775 0e26 5553425F 		.ascii	"USB_EP0_ERROR\000"
 4775      4550305F 
 4775      4552524F 
ARM GAS  /tmp/ccsfnBTQ.s 			page 96


 4775      5200
 4776              	.LASF295:
 4777 0e34 48464E55 		.ascii	"HFNUM\000"
 4777      4D00
 4778              	.LASF40:
 4779 0e3a 705F7265 		.ascii	"p_refs\000"
 4779      667300
 4780              	.LASF223:
 4781 0e41 75736265 		.ascii	"usbep_t\000"
 4781      705F7400 
 4782              	.LASF75:
 4783 0e49 70616E69 		.ascii	"panic_msg\000"
 4783      635F6D73 
 4783      6700
 4784              	.LASF220:
 4785 0e53 74787065 		.ascii	"txpending\000"
 4785      6E64696E 
 4785      6700
 4786              	.LASF348:
 4787 0e5d 73657475 		.ascii	"setup_cb\000"
 4787      705F6362 
 4787      00
 4788              	.LASF359:
 4789 0e66 6765745F 		.ascii	"get_descriptor_cb\000"
 4789      64657363 
 4789      72697074 
 4789      6F725F63 
 4789      6200
 4790              	.LASF325:
 4791 0e78 72657376 		.ascii	"resvdE04\000"
 4791      64453034 
 4791      00
 4792              	.LASF246:
 4793 0e81 75645F73 		.ascii	"ud_string\000"
 4793      7472696E 
 4793      6700
 4794              	.LASF219:
 4795 0e8b 706D6E65 		.ascii	"pmnext\000"
 4795      787400
 4796              	.LASF242:
 4797 0e92 5553425F 		.ascii	"USB_EVENT_WAKEUP\000"
 4797      4556454E 
 4797      545F5741 
 4797      4B455550 
 4797      00
 4798              	.LASF185:
 4799 0ea3 73746174 		.ascii	"state\000"
 4799      6500
 4800              	.LASF179:
 4801 0ea9 55415254 		.ascii	"UART_RX_IDLE\000"
 4801      5F52585F 
 4801      49444C45 
 4801      00
 4802              	.LASF264:
 4803 0eb6 44494550 		.ascii	"DIEPINT\000"
 4803      494E5400 
 4804              	.LASF44:
ARM GAS  /tmp/ccsfnBTQ.s 			page 97


 4805 0ebe 705F6570 		.ascii	"p_epending\000"
 4805      656E6469 
 4805      6E6700
 4806              	.LASF65:
 4807 0ec9 76745F6E 		.ascii	"vt_next\000"
 4807      65787400 
 4808              	.LASF294:
 4809 0ed1 48464952 		.ascii	"HFIR\000"
 4809      00
 4810              	.LASF291:
 4811 0ed6 44494550 		.ascii	"DIEPTXF\000"
 4811      54584600 
 4812              	.LASF76:
 4813 0ede 63685F73 		.ascii	"ch_system_t\000"
 4813      79737465 
 4813      6D5F7400 
 4814              	.LASF99:
 4815 0eea 77747472 		.ascii	"wttrp\000"
 4815      7000
 4816              	.LASF352:
 4817 0ef0 6F75745F 		.ascii	"out_maxsize\000"
 4817      6D617873 
 4817      697A6500 
 4818              	.LASF316:
 4819 0efc 72657376 		.ascii	"resvd830\000"
 4819      64383330 
 4819      00
 4820              	.LASF324:
 4821 0f05 50434743 		.ascii	"PCGCCTL\000"
 4821      43544C00 
 4822              	.LASF363:
 4823 0f0d 55534244 		.ascii	"USBD1\000"
 4823      3100
 4824              	.LASF109:
 4825 0f13 6D5F6E65 		.ascii	"m_next\000"
 4825      787400
 4826              	.LASF341:
 4827 0f1a 55534249 		.ascii	"USBInEndpointState\000"
 4827      6E456E64 
 4827      706F696E 
 4827      74537461 
 4827      746500
 4828              	.LASF120:
 4829 0f2d 63665F6F 		.ascii	"cf_off_newer\000"
 4829      66665F6E 
 4829      65776572 
 4829      00
 4830              	.LASF176:
 4831 0f3a 55415254 		.ascii	"UART_TX_ACTIVE\000"
 4831      5F54585F 
 4831      41435449 
 4831      564500
 4832              	.LASF205:
 4833 0f49 55534244 		.ascii	"USBDriver\000"
 4833      72697665 
 4833      7200
 4834              	.LASF133:
ARM GAS  /tmp/ccsfnBTQ.s 			page 98


 4835 0f53 696F5F71 		.ascii	"io_queue\000"
 4835      75657565 
 4835      00
 4836              	.LASF319:
 4837 0f5c 72657376 		.ascii	"resvd83C\000"
 4837      64383343 
 4837      00
 4838              	.LASF5:
 4839 0f65 73686F72 		.ascii	"short unsigned int\000"
 4839      7420756E 
 4839      7369676E 
 4839      65642069 
 4839      6E7400
 4840              	.LASF58:
 4841 0f78 725F6374 		.ascii	"r_ctx\000"
 4841      7800
 4842              	.LASF91:
 4843 0f7e 73746B61 		.ascii	"stkalign_t\000"
 4843      6C69676E 
 4843      5F7400
 4844              	.LASF218:
 4845 0f89 6F746770 		.ascii	"otgparams\000"
 4845      6172616D 
 4845      7300
 4846              	.LASF355:
 4847 0f93 696E5F6D 		.ascii	"in_multiplier\000"
 4847      756C7469 
 4847      706C6965 
 4847      7200
 4848              	.LASF277:
 4849 0fa1 47555342 		.ascii	"GUSBCFG\000"
 4849      43464700 
 4850              	.LASF310:
 4851 0fa9 4441494E 		.ascii	"DAINT\000"
 4851      5400
 4852              	.LASF130:
 4853 0faf 63685F64 		.ascii	"ch_debug\000"
 4853      65627567 
 4853      00
 4854              	.LASF68:
 4855 0fb8 76745F66 		.ascii	"vt_func\000"
 4855      756E6300 
 4856              	.LASF235:
 4857 0fc0 5553425F 		.ascii	"USB_EP0_SENDING_STS\000"
 4857      4550305F 
 4857      53454E44 
 4857      494E475F 
 4857      53545300 
 4858              	.LASF345:
 4859 0fd4 7278636E 		.ascii	"rxcnt\000"
 4859      7400
 4860              	.LASF66:
 4861 0fda 76745F70 		.ascii	"vt_prev\000"
 4861      72657600 
 4862              	.LASF322:
 4863 0fe2 72657376 		.ascii	"resvd8C0\000"
 4863      64384330 
ARM GAS  /tmp/ccsfnBTQ.s 			page 99


 4863      00
 4864              	.LASF222:
 4865 0feb 77615F70 		.ascii	"wa_pump\000"
 4865      756D7000 
 4866              	.LASF172:
 4867 0ff3 55415254 		.ascii	"UART_STOP\000"
 4867      5F53544F 
 4867      5000
 4868              	.LASF351:
 4869 0ffd 696E5F6D 		.ascii	"in_maxsize\000"
 4869      61787369 
 4869      7A6500
 4870              	.LASF244:
 4871 1008 75736265 		.ascii	"usbevent_t\000"
 4871      76656E74 
 4871      5F7400
 4872              	.LASF165:
 4873 1013 50464461 		.ascii	"PFData\000"
 4873      746100
 4874              	.LASF151:
 4875 101a 5F73746D 		.ascii	"_stm32_dma_streams\000"
 4875      33325F64 
 4875      6D615F73 
 4875      74726561 
 4875      6D7300
 4876              	.LASF305:
 4877 102d 4443544C 		.ascii	"DCTL\000"
 4877      00
 4878              	.LASF155:
 4879 1032 6F737065 		.ascii	"ospeedr\000"
 4879      65647200 
 4880              	.LASF234:
 4881 103a 5553425F 		.ascii	"USB_EP0_RX\000"
 4881      4550305F 
 4881      525800
 4882              	.LASF194:
 4883 1045 75617274 		.ascii	"uartcb_t\000"
 4883      63625F74 
 4883      00
 4884              	.LASF237:
 4885 104e 75736265 		.ascii	"usbep0state_t\000"
 4885      70307374 
 4885      6174655F 
 4885      7400
 4886              	.LASF139:
 4887 105c 715F7264 		.ascii	"q_rdptr\000"
 4887      70747200 
 4888              	.LASF240:
 4889 1064 5553425F 		.ascii	"USB_EVENT_CONFIGURED\000"
 4889      4556454E 
 4889      545F434F 
 4889      4E464947 
 4889      55524544 
 4890              	.LASF248:
 4891 1079 75736263 		.ascii	"usbcallback_t\000"
 4891      616C6C62 
 4891      61636B5F 
ARM GAS  /tmp/ccsfnBTQ.s 			page 100


 4891      7400
 4892              	.LASF156:
 4893 1087 70757064 		.ascii	"pupdr\000"
 4893      7200
 4894              	.LASF56:
 4895 108d 725F7175 		.ascii	"r_queue\000"
 4895      65756500 
 4896              	.LASF97:
 4897 1095 65786974 		.ascii	"exitcode\000"
 4897      636F6465 
 4897      00
 4898              	.LASF225:
 4899 109e 5553425F 		.ascii	"USB_STOP\000"
 4899      53544F50 
 4899      00
 4900              	.LASF148:
 4901 10a7 73656C66 		.ascii	"selfindex\000"
 4901      696E6465 
 4901      7800
 4902              	.LASF136:
 4903 10b1 715F6275 		.ascii	"q_buffer\000"
 4903      66666572 
 4903      00
 4904              	.LASF193:
 4905 10ba 72786275 		.ascii	"rxbuf\000"
 4905      6600
 4906              	.LASF145:
 4907 10c0 73747265 		.ascii	"stream\000"
 4907      616D00
 4908              	.LASF251:
 4909 10c7 75736272 		.ascii	"usbreqhandler_t\000"
 4909      65716861 
 4909      6E646C65 
 4909      725F7400 
 4910              		.ident	"GCC: (GNU Tools for Arm Embedded Processors 7-2018-q3-update) 7.3.1 20180622 (release) [AR
ARM GAS  /tmp/ccsfnBTQ.s 			page 101


DEFINED SYMBOLS
                            *ABS*:0000000000000000 bldc_interface_uart.c
     /tmp/ccsfnBTQ.s:18     .text.send_packet_bldc_interface:0000000000000000 $t
     /tmp/ccsfnBTQ.s:25     .text.send_packet_bldc_interface:0000000000000000 send_packet_bldc_interface
     /tmp/ccsfnBTQ.s:42     .text.process_packet:0000000000000000 $t
     /tmp/ccsfnBTQ.s:49     .text.process_packet:0000000000000000 process_packet
     /tmp/ccsfnBTQ.s:64     .text.bldc_interface_uart_init:0000000000000000 $t
     /tmp/ccsfnBTQ.s:72     .text.bldc_interface_uart_init:0000000000000000 bldc_interface_uart_init
     /tmp/ccsfnBTQ.s:101    .text.bldc_interface_uart_init:0000000000000014 $d
     /tmp/ccsfnBTQ.s:107    .text.bldc_interface_uart_process_byte:0000000000000000 $t
     /tmp/ccsfnBTQ.s:115    .text.bldc_interface_uart_process_byte:0000000000000000 bldc_interface_uart_process_byte
     /tmp/ccsfnBTQ.s:131    .text.bldc_interface_uart_run_timer:0000000000000000 $t
     /tmp/ccsfnBTQ.s:139    .text.bldc_interface_uart_run_timer:0000000000000000 bldc_interface_uart_run_timer

UNDEFINED SYMBOLS
packet_send_packet
bldc_interface_process_packet
packet_init
bldc_interface_init
packet_process_byte
packet_timerfunc
