ARM GAS  /tmp/ccZ2V6Xy.s 			page 1


   1              		.cpu cortex-m4
   2              		.eabi_attribute 27, 1
   3              		.eabi_attribute 28, 1
   4              		.eabi_attribute 20, 1
   5              		.eabi_attribute 21, 1
   6              		.eabi_attribute 23, 3
   7              		.eabi_attribute 24, 1
   8              		.eabi_attribute 25, 1
   9              		.eabi_attribute 26, 1
  10              		.eabi_attribute 30, 2
  11              		.eabi_attribute 34, 1
  12              		.eabi_attribute 18, 4
  13              		.file	"buffer.c"
  14              		.text
  15              	.Ltext0:
  16              		.cfi_sections	.debug_frame
  17              		.section	.text.buffer_append_int16,"ax",%progbits
  18              		.align	1
  19              		.p2align 4,,15
  20              		.global	buffer_append_int16
  21              		.syntax unified
  22              		.thumb
  23              		.thumb_func
  24              		.fpu fpv4-sp-d16
  25              		.type	buffer_append_int16, %function
  26              	buffer_append_int16:
  27              	.LFB0:
  28              		.file 1 "buffer.c"
  29              		.loc 1 22 0
  30              		.cfi_startproc
  31              		@ args = 0, pretend = 0, frame = 0
  32              		@ frame_needed = 0, uses_anonymous_args = 0
  33              		@ link register save eliminated.
  34              	.LVL0:
  35              		.loc 1 23 0
  36 0000 1368     		ldr	r3, [r2]
  37              		.loc 1 22 0
  38 0002 30B4     		push	{r4, r5}
  39              		.cfi_def_cfa_offset 8
  40              		.cfi_offset 4, -8
  41              		.cfi_offset 5, -4
  42              		.loc 1 23 0
  43 0004 5D1C     		adds	r5, r3, #1
  44 0006 0C12     		asrs	r4, r1, #8
  45 0008 1560     		str	r5, [r2]
  46 000a C454     		strb	r4, [r0, r3]
  47              		.loc 1 24 0
  48 000c 1368     		ldr	r3, [r2]
  49 000e 5C1C     		adds	r4, r3, #1
  50 0010 1460     		str	r4, [r2]
  51 0012 C154     		strb	r1, [r0, r3]
  52              		.loc 1 25 0
  53 0014 30BC     		pop	{r4, r5}
  54              		.cfi_restore 5
  55              		.cfi_restore 4
  56              		.cfi_def_cfa_offset 0
  57 0016 7047     		bx	lr
ARM GAS  /tmp/ccZ2V6Xy.s 			page 2


  58              		.cfi_endproc
  59              	.LFE0:
  60              		.size	buffer_append_int16, .-buffer_append_int16
  61              		.section	.text.buffer_append_uint16,"ax",%progbits
  62              		.align	1
  63              		.p2align 4,,15
  64              		.global	buffer_append_uint16
  65              		.syntax unified
  66              		.thumb
  67              		.thumb_func
  68              		.fpu fpv4-sp-d16
  69              		.type	buffer_append_uint16, %function
  70              	buffer_append_uint16:
  71              	.LFB1:
  72              		.loc 1 27 0
  73              		.cfi_startproc
  74              		@ args = 0, pretend = 0, frame = 0
  75              		@ frame_needed = 0, uses_anonymous_args = 0
  76              		@ link register save eliminated.
  77              	.LVL1:
  78              		.loc 1 28 0
  79 0000 1368     		ldr	r3, [r2]
  80              		.loc 1 27 0
  81 0002 30B4     		push	{r4, r5}
  82              		.cfi_def_cfa_offset 8
  83              		.cfi_offset 4, -8
  84              		.cfi_offset 5, -4
  85              		.loc 1 28 0
  86 0004 5D1C     		adds	r5, r3, #1
  87 0006 0C0A     		lsrs	r4, r1, #8
  88 0008 1560     		str	r5, [r2]
  89 000a C454     		strb	r4, [r0, r3]
  90              		.loc 1 29 0
  91 000c 1368     		ldr	r3, [r2]
  92 000e 5C1C     		adds	r4, r3, #1
  93 0010 1460     		str	r4, [r2]
  94 0012 C154     		strb	r1, [r0, r3]
  95              		.loc 1 30 0
  96 0014 30BC     		pop	{r4, r5}
  97              		.cfi_restore 5
  98              		.cfi_restore 4
  99              		.cfi_def_cfa_offset 0
 100 0016 7047     		bx	lr
 101              		.cfi_endproc
 102              	.LFE1:
 103              		.size	buffer_append_uint16, .-buffer_append_uint16
 104              		.section	.text.buffer_append_int32,"ax",%progbits
 105              		.align	1
 106              		.p2align 4,,15
 107              		.global	buffer_append_int32
 108              		.syntax unified
 109              		.thumb
 110              		.thumb_func
 111              		.fpu fpv4-sp-d16
 112              		.type	buffer_append_int32, %function
 113              	buffer_append_int32:
 114              	.LFB2:
ARM GAS  /tmp/ccZ2V6Xy.s 			page 3


 115              		.loc 1 32 0
 116              		.cfi_startproc
 117              		@ args = 0, pretend = 0, frame = 0
 118              		@ frame_needed = 0, uses_anonymous_args = 0
 119              		@ link register save eliminated.
 120              	.LVL2:
 121              		.loc 1 33 0
 122 0000 1368     		ldr	r3, [r2]
 123              		.loc 1 32 0
 124 0002 30B4     		push	{r4, r5}
 125              		.cfi_def_cfa_offset 8
 126              		.cfi_offset 4, -8
 127              		.cfi_offset 5, -4
 128              		.loc 1 33 0
 129 0004 5D1C     		adds	r5, r3, #1
 130 0006 0C16     		asrs	r4, r1, #24
 131 0008 1560     		str	r5, [r2]
 132 000a C454     		strb	r4, [r0, r3]
 133              		.loc 1 34 0
 134 000c 1368     		ldr	r3, [r2]
 135 000e 0C14     		asrs	r4, r1, #16
 136 0010 5D1C     		adds	r5, r3, #1
 137 0012 1560     		str	r5, [r2]
 138 0014 C454     		strb	r4, [r0, r3]
 139              		.loc 1 35 0
 140 0016 1368     		ldr	r3, [r2]
 141 0018 0C12     		asrs	r4, r1, #8
 142 001a 5D1C     		adds	r5, r3, #1
 143 001c 1560     		str	r5, [r2]
 144 001e C454     		strb	r4, [r0, r3]
 145              		.loc 1 36 0
 146 0020 1368     		ldr	r3, [r2]
 147 0022 5C1C     		adds	r4, r3, #1
 148 0024 1460     		str	r4, [r2]
 149 0026 C154     		strb	r1, [r0, r3]
 150              		.loc 1 37 0
 151 0028 30BC     		pop	{r4, r5}
 152              		.cfi_restore 5
 153              		.cfi_restore 4
 154              		.cfi_def_cfa_offset 0
 155 002a 7047     		bx	lr
 156              		.cfi_endproc
 157              	.LFE2:
 158              		.size	buffer_append_int32, .-buffer_append_int32
 159              		.section	.text.buffer_append_uint32,"ax",%progbits
 160              		.align	1
 161              		.p2align 4,,15
 162              		.global	buffer_append_uint32
 163              		.syntax unified
 164              		.thumb
 165              		.thumb_func
 166              		.fpu fpv4-sp-d16
 167              		.type	buffer_append_uint32, %function
 168              	buffer_append_uint32:
 169              	.LFB3:
 170              		.loc 1 39 0
 171              		.cfi_startproc
ARM GAS  /tmp/ccZ2V6Xy.s 			page 4


 172              		@ args = 0, pretend = 0, frame = 0
 173              		@ frame_needed = 0, uses_anonymous_args = 0
 174              		@ link register save eliminated.
 175              	.LVL3:
 176              		.loc 1 40 0
 177 0000 1368     		ldr	r3, [r2]
 178              		.loc 1 39 0
 179 0002 30B4     		push	{r4, r5}
 180              		.cfi_def_cfa_offset 8
 181              		.cfi_offset 4, -8
 182              		.cfi_offset 5, -4
 183              		.loc 1 40 0
 184 0004 5D1C     		adds	r5, r3, #1
 185 0006 0C0E     		lsrs	r4, r1, #24
 186 0008 1560     		str	r5, [r2]
 187 000a C454     		strb	r4, [r0, r3]
 188              		.loc 1 41 0
 189 000c 1368     		ldr	r3, [r2]
 190 000e 0C0C     		lsrs	r4, r1, #16
 191 0010 5D1C     		adds	r5, r3, #1
 192 0012 1560     		str	r5, [r2]
 193 0014 C454     		strb	r4, [r0, r3]
 194              		.loc 1 42 0
 195 0016 1368     		ldr	r3, [r2]
 196 0018 0C0A     		lsrs	r4, r1, #8
 197 001a 5D1C     		adds	r5, r3, #1
 198 001c 1560     		str	r5, [r2]
 199 001e C454     		strb	r4, [r0, r3]
 200              		.loc 1 43 0
 201 0020 1368     		ldr	r3, [r2]
 202 0022 5C1C     		adds	r4, r3, #1
 203 0024 1460     		str	r4, [r2]
 204 0026 C154     		strb	r1, [r0, r3]
 205              		.loc 1 44 0
 206 0028 30BC     		pop	{r4, r5}
 207              		.cfi_restore 5
 208              		.cfi_restore 4
 209              		.cfi_def_cfa_offset 0
 210 002a 7047     		bx	lr
 211              		.cfi_endproc
 212              	.LFE3:
 213              		.size	buffer_append_uint32, .-buffer_append_uint32
 214              		.section	.text.buffer_append_int64,"ax",%progbits
 215              		.align	1
 216              		.p2align 4,,15
 217              		.global	buffer_append_int64
 218              		.syntax unified
 219              		.thumb
 220              		.thumb_func
 221              		.fpu fpv4-sp-d16
 222              		.type	buffer_append_int64, %function
 223              	buffer_append_int64:
 224              	.LFB4:
 225              		.loc 1 46 0
 226              		.cfi_startproc
 227              		@ args = 4, pretend = 0, frame = 0
 228              		@ frame_needed = 0, uses_anonymous_args = 0
ARM GAS  /tmp/ccZ2V6Xy.s 			page 5


 229              		@ link register save eliminated.
 230              	.LVL4:
 231 0000 70B4     		push	{r4, r5, r6}
 232              		.cfi_def_cfa_offset 12
 233              		.cfi_offset 4, -12
 234              		.cfi_offset 5, -8
 235              		.cfi_offset 6, -4
 236              		.loc 1 46 0
 237 0002 0399     		ldr	r1, [sp, #12]
 238              		.loc 1 47 0
 239 0004 0C68     		ldr	r4, [r1]
 240 0006 1D16     		asrs	r5, r3, #24
 241 0008 661C     		adds	r6, r4, #1
 242 000a 0E60     		str	r6, [r1]
 243 000c 0555     		strb	r5, [r0, r4]
 244              		.loc 1 48 0
 245 000e 0C68     		ldr	r4, [r1]
 246 0010 1D14     		asrs	r5, r3, #16
 247 0012 661C     		adds	r6, r4, #1
 248 0014 0E60     		str	r6, [r1]
 249 0016 0555     		strb	r5, [r0, r4]
 250              		.loc 1 49 0
 251 0018 0C68     		ldr	r4, [r1]
 252 001a 1D12     		asrs	r5, r3, #8
 253 001c 661C     		adds	r6, r4, #1
 254 001e 0E60     		str	r6, [r1]
 255 0020 0555     		strb	r5, [r0, r4]
 256              		.loc 1 50 0
 257 0022 0C68     		ldr	r4, [r1]
 258 0024 651C     		adds	r5, r4, #1
 259 0026 0D60     		str	r5, [r1]
 260 0028 0355     		strb	r3, [r0, r4]
 261              		.loc 1 51 0
 262 002a 0B68     		ldr	r3, [r1]
 263 002c 140E     		lsrs	r4, r2, #24
 264 002e 5D1C     		adds	r5, r3, #1
 265 0030 0D60     		str	r5, [r1]
 266 0032 C454     		strb	r4, [r0, r3]
 267              		.loc 1 52 0
 268 0034 0B68     		ldr	r3, [r1]
 269 0036 140C     		lsrs	r4, r2, #16
 270 0038 5D1C     		adds	r5, r3, #1
 271 003a 0D60     		str	r5, [r1]
 272 003c C454     		strb	r4, [r0, r3]
 273              		.loc 1 53 0
 274 003e 0B68     		ldr	r3, [r1]
 275 0040 140A     		lsrs	r4, r2, #8
 276 0042 5D1C     		adds	r5, r3, #1
 277 0044 0D60     		str	r5, [r1]
 278 0046 C454     		strb	r4, [r0, r3]
 279              		.loc 1 54 0
 280 0048 0B68     		ldr	r3, [r1]
 281 004a 5C1C     		adds	r4, r3, #1
 282 004c 0C60     		str	r4, [r1]
 283 004e C254     		strb	r2, [r0, r3]
 284              		.loc 1 55 0
 285 0050 70BC     		pop	{r4, r5, r6}
ARM GAS  /tmp/ccZ2V6Xy.s 			page 6


 286              		.cfi_restore 6
 287              		.cfi_restore 5
 288              		.cfi_restore 4
 289              		.cfi_def_cfa_offset 0
 290              	.LVL5:
 291 0052 7047     		bx	lr
 292              		.cfi_endproc
 293              	.LFE4:
 294              		.size	buffer_append_int64, .-buffer_append_int64
 295              		.section	.text.buffer_append_uint64,"ax",%progbits
 296              		.align	1
 297              		.p2align 4,,15
 298              		.global	buffer_append_uint64
 299              		.syntax unified
 300              		.thumb
 301              		.thumb_func
 302              		.fpu fpv4-sp-d16
 303              		.type	buffer_append_uint64, %function
 304              	buffer_append_uint64:
 305              	.LFB5:
 306              		.loc 1 57 0
 307              		.cfi_startproc
 308              		@ args = 4, pretend = 0, frame = 0
 309              		@ frame_needed = 0, uses_anonymous_args = 0
 310              		@ link register save eliminated.
 311              	.LVL6:
 312 0000 70B4     		push	{r4, r5, r6}
 313              		.cfi_def_cfa_offset 12
 314              		.cfi_offset 4, -12
 315              		.cfi_offset 5, -8
 316              		.cfi_offset 6, -4
 317              		.loc 1 57 0
 318 0002 0399     		ldr	r1, [sp, #12]
 319              		.loc 1 58 0
 320 0004 0C68     		ldr	r4, [r1]
 321 0006 1D0E     		lsrs	r5, r3, #24
 322 0008 661C     		adds	r6, r4, #1
 323 000a 0E60     		str	r6, [r1]
 324 000c 0555     		strb	r5, [r0, r4]
 325              		.loc 1 59 0
 326 000e 0C68     		ldr	r4, [r1]
 327 0010 1D0C     		lsrs	r5, r3, #16
 328 0012 661C     		adds	r6, r4, #1
 329 0014 0E60     		str	r6, [r1]
 330 0016 0555     		strb	r5, [r0, r4]
 331              		.loc 1 60 0
 332 0018 0C68     		ldr	r4, [r1]
 333 001a 1D0A     		lsrs	r5, r3, #8
 334 001c 661C     		adds	r6, r4, #1
 335 001e 0E60     		str	r6, [r1]
 336 0020 0555     		strb	r5, [r0, r4]
 337              		.loc 1 61 0
 338 0022 0C68     		ldr	r4, [r1]
 339 0024 651C     		adds	r5, r4, #1
 340 0026 0D60     		str	r5, [r1]
 341 0028 0355     		strb	r3, [r0, r4]
 342              		.loc 1 62 0
ARM GAS  /tmp/ccZ2V6Xy.s 			page 7


 343 002a 0B68     		ldr	r3, [r1]
 344 002c 140E     		lsrs	r4, r2, #24
 345 002e 5D1C     		adds	r5, r3, #1
 346 0030 0D60     		str	r5, [r1]
 347 0032 C454     		strb	r4, [r0, r3]
 348              		.loc 1 63 0
 349 0034 0B68     		ldr	r3, [r1]
 350 0036 140C     		lsrs	r4, r2, #16
 351 0038 5D1C     		adds	r5, r3, #1
 352 003a 0D60     		str	r5, [r1]
 353 003c C454     		strb	r4, [r0, r3]
 354              		.loc 1 64 0
 355 003e 0B68     		ldr	r3, [r1]
 356 0040 140A     		lsrs	r4, r2, #8
 357 0042 5D1C     		adds	r5, r3, #1
 358 0044 0D60     		str	r5, [r1]
 359 0046 C454     		strb	r4, [r0, r3]
 360              		.loc 1 65 0
 361 0048 0B68     		ldr	r3, [r1]
 362 004a 5C1C     		adds	r4, r3, #1
 363 004c 0C60     		str	r4, [r1]
 364 004e C254     		strb	r2, [r0, r3]
 365              		.loc 1 66 0
 366 0050 70BC     		pop	{r4, r5, r6}
 367              		.cfi_restore 6
 368              		.cfi_restore 5
 369              		.cfi_restore 4
 370              		.cfi_def_cfa_offset 0
 371              	.LVL7:
 372 0052 7047     		bx	lr
 373              		.cfi_endproc
 374              	.LFE5:
 375              		.size	buffer_append_uint64, .-buffer_append_uint64
 376              		.section	.text.buffer_append_float16,"ax",%progbits
 377              		.align	1
 378              		.p2align 4,,15
 379              		.global	buffer_append_float16
 380              		.syntax unified
 381              		.thumb
 382              		.thumb_func
 383              		.fpu fpv4-sp-d16
 384              		.type	buffer_append_float16, %function
 385              	buffer_append_float16:
 386              	.LFB6:
 387              		.loc 1 68 0
 388              		.cfi_startproc
 389              		@ args = 0, pretend = 0, frame = 0
 390              		@ frame_needed = 0, uses_anonymous_args = 0
 391              		@ link register save eliminated.
 392              	.LVL8:
 393              		.loc 1 69 0
 394 0000 60EE200A 		vmul.f32	s1, s0, s1
 395              	.LVL9:
 396              	.LBB6:
 397              	.LBB7:
 398              		.loc 1 23 0
 399 0004 0A68     		ldr	r2, [r1]
ARM GAS  /tmp/ccZ2V6Xy.s 			page 8


 400              	.LBE7:
 401              	.LBE6:
 402              		.loc 1 69 0
 403 0006 FDEEE00A 		vcvt.s32.f32	s1, s1
 404              		.loc 1 68 0
 405 000a 30B4     		push	{r4, r5}
 406              		.cfi_def_cfa_offset 8
 407              		.cfi_offset 4, -8
 408              		.cfi_offset 5, -4
 409              		.loc 1 69 0
 410 000c 10EE903A 		vmov	r3, s1	@ int
 411 0010 1BB2     		sxth	r3, r3
 412              	.LVL10:
 413              	.LBB9:
 414              	.LBB8:
 415              		.loc 1 23 0
 416 0012 551C     		adds	r5, r2, #1
 417 0014 1C12     		asrs	r4, r3, #8
 418 0016 0D60     		str	r5, [r1]
 419 0018 8454     		strb	r4, [r0, r2]
 420              		.loc 1 24 0
 421 001a 0A68     		ldr	r2, [r1]
 422 001c 541C     		adds	r4, r2, #1
 423 001e 0C60     		str	r4, [r1]
 424 0020 8354     		strb	r3, [r0, r2]
 425              	.LVL11:
 426              	.LBE8:
 427              	.LBE9:
 428              		.loc 1 70 0
 429 0022 30BC     		pop	{r4, r5}
 430              		.cfi_restore 5
 431              		.cfi_restore 4
 432              		.cfi_def_cfa_offset 0
 433 0024 7047     		bx	lr
 434              		.cfi_endproc
 435              	.LFE6:
 436              		.size	buffer_append_float16, .-buffer_append_float16
 437 0026 00BF     		.section	.text.buffer_append_float32,"ax",%progbits
 438              		.align	1
 439              		.p2align 4,,15
 440              		.global	buffer_append_float32
 441              		.syntax unified
 442              		.thumb
 443              		.thumb_func
 444              		.fpu fpv4-sp-d16
 445              		.type	buffer_append_float32, %function
 446              	buffer_append_float32:
 447              	.LFB7:
 448              		.loc 1 72 0
 449              		.cfi_startproc
 450              		@ args = 0, pretend = 0, frame = 0
 451              		@ frame_needed = 0, uses_anonymous_args = 0
 452              		@ link register save eliminated.
 453              	.LVL12:
 454              		.loc 1 73 0
 455 0000 60EE200A 		vmul.f32	s1, s0, s1
 456              	.LVL13:
ARM GAS  /tmp/ccZ2V6Xy.s 			page 9


 457 0004 0A46     		mov	r2, r1
 458 0006 FDEEE07A 		vcvt.s32.f32	s15, s1
 459 000a 17EE901A 		vmov	r1, s15	@ int
 460              	.LVL14:
 461 000e FFF7FEBF 		b	buffer_append_int32
 462              	.LVL15:
 463              		.cfi_endproc
 464              	.LFE7:
 465              		.size	buffer_append_float32, .-buffer_append_float32
 466              		.global	__aeabi_dmul
 467              		.global	__aeabi_d2lz
 468 0012 00BF     		.section	.text.buffer_append_double64,"ax",%progbits
 469              		.align	1
 470              		.p2align 4,,15
 471              		.global	buffer_append_double64
 472              		.syntax unified
 473              		.thumb
 474              		.thumb_func
 475              		.fpu fpv4-sp-d16
 476              		.type	buffer_append_double64, %function
 477              	buffer_append_double64:
 478              	.LFB8:
 479              		.loc 1 76 0
 480              		.cfi_startproc
 481              		@ args = 0, pretend = 0, frame = 0
 482              		@ frame_needed = 0, uses_anonymous_args = 0
 483              	.LVL16:
 484 0000 30B5     		push	{r4, r5, lr}
 485              		.cfi_def_cfa_offset 12
 486              		.cfi_offset 4, -12
 487              		.cfi_offset 5, -8
 488              		.cfi_offset 14, -4
 489              		.loc 1 77 0
 490 0002 53EC112B 		vmov	r2, r3, d1
 491              		.loc 1 76 0
 492 0006 83B0     		sub	sp, sp, #12
 493              		.cfi_def_cfa_offset 24
 494              		.loc 1 76 0
 495 0008 0446     		mov	r4, r0
 496 000a 0D46     		mov	r5, r1
 497              		.loc 1 77 0
 498 000c 51EC100B 		vmov	r0, r1, d0
 499              	.LVL17:
 500 0010 FFF7FEFF 		bl	__aeabi_dmul
 501              	.LVL18:
 502 0014 FFF7FEFF 		bl	__aeabi_d2lz
 503              	.LVL19:
 504 0018 0095     		str	r5, [sp]
 505 001a 0246     		mov	r2, r0
 506 001c 0B46     		mov	r3, r1
 507 001e 2046     		mov	r0, r4
 508 0020 FFF7FEFF 		bl	buffer_append_int64
 509              	.LVL20:
 510              		.loc 1 78 0
 511 0024 03B0     		add	sp, sp, #12
 512              		.cfi_def_cfa_offset 12
 513              		@ sp needed
ARM GAS  /tmp/ccZ2V6Xy.s 			page 10


 514 0026 30BD     		pop	{r4, r5, pc}
 515              		.cfi_endproc
 516              	.LFE8:
 517              		.size	buffer_append_double64, .-buffer_append_double64
 518              		.section	.text.buffer_append_float32_auto,"ax",%progbits
 519              		.align	1
 520              		.p2align 4,,15
 521              		.global	buffer_append_float32_auto
 522              		.syntax unified
 523              		.thumb
 524              		.thumb_func
 525              		.fpu fpv4-sp-d16
 526              		.type	buffer_append_float32_auto, %function
 527              	buffer_append_float32_auto:
 528              	.LFB9:
 529              		.loc 1 80 0
 530              		.cfi_startproc
 531              		@ args = 0, pretend = 0, frame = 8
 532              		@ frame_needed = 0, uses_anonymous_args = 0
 533              	.LVL21:
 534 0000 70B5     		push	{r4, r5, r6, lr}
 535              		.cfi_def_cfa_offset 16
 536              		.cfi_offset 4, -16
 537              		.cfi_offset 5, -12
 538              		.cfi_offset 6, -8
 539              		.cfi_offset 14, -4
 540 0002 82B0     		sub	sp, sp, #8
 541              		.cfi_def_cfa_offset 24
 542              		.loc 1 81 0
 543 0004 02AB     		add	r3, sp, #8
 544 0006 0024     		movs	r4, #0
 545 0008 43F8044D 		str	r4, [r3, #-4]!
 546              		.loc 1 80 0
 547 000c 0546     		mov	r5, r0
 548              		.loc 1 82 0
 549 000e 1846     		mov	r0, r3
 550              	.LVL22:
 551              		.loc 1 80 0
 552 0010 0E46     		mov	r6, r1
 553              		.loc 1 82 0
 554 0012 FFF7FEFF 		bl	frexpf
 555              	.LVL23:
 556              		.loc 1 86 0
 557 0016 B6EE007A 		vmov.f32	s14, #5.0e-1
 558              		.loc 1 83 0
 559 001a F0EEC07A 		vabs.f32	s15, s0
 560              	.LVL24:
 561              		.loc 1 86 0
 562 001e F4EEC77A 		vcmpe.f32	s15, s14
 563 0022 F1EE10FA 		vmrs	APSR_nzcv, FPSCR
 564 0026 13DA     		bge	.L20
 565 0028 019B     		ldr	r3, [sp, #4]
 566              	.LVL25:
 567              	.L21:
 568              		.loc 1 91 0
 569 002a DB05     		lsls	r3, r3, #23
 570 002c 03F0FF43 		and	r3, r3, #2139095040
ARM GAS  /tmp/ccZ2V6Xy.s 			page 11


 571              		.loc 1 92 0
 572 0030 B5EEC00A 		vcmpe.f32	s0, #0
 573              		.loc 1 91 0
 574 0034 43EA0401 		orr	r1, r3, r4
 575              	.LVL26:
 576              		.loc 1 92 0
 577 0038 F1EE10FA 		vmrs	APSR_nzcv, FPSCR
 578              		.loc 1 93 0
 579 003c 48BF     		it	mi
 580 003e 41F00041 		orrmi	r1, r1, #-2147483648
 581              	.LVL27:
 582              		.loc 1 96 0
 583 0042 3246     		mov	r2, r6
 584 0044 2846     		mov	r0, r5
 585              		.loc 1 97 0
 586 0046 02B0     		add	sp, sp, #8
 587              		.cfi_remember_state
 588              		.cfi_def_cfa_offset 16
 589              		@ sp needed
 590 0048 BDE87040 		pop	{r4, r5, r6, lr}
 591              		.cfi_restore 14
 592              		.cfi_restore 6
 593              		.cfi_restore 5
 594              		.cfi_restore 4
 595              		.cfi_def_cfa_offset 0
 596              	.LVL28:
 597              		.loc 1 96 0
 598 004c FFF7FEBF 		b	buffer_append_uint32
 599              	.LVL29:
 600              	.L20:
 601              		.cfi_restore_state
 602              		.loc 1 87 0
 603 0050 77EEC77A 		vsub.f32	s15, s15, s14
 604              	.LVL30:
 605 0054 9FED077A 		vldr.32	s14, .L26
 606              		.loc 1 88 0
 607 0058 019B     		ldr	r3, [sp, #4]
 608              		.loc 1 87 0
 609 005a 77EEA77A 		vadd.f32	s15, s15, s15
 610              		.loc 1 88 0
 611 005e 7E33     		adds	r3, r3, #126
 612              		.loc 1 87 0
 613 0060 67EE877A 		vmul.f32	s15, s15, s14
 614 0064 FCEEE77A 		vcvt.u32.f32	s15, s15
 615 0068 17EE902A 		vmov	r2, s15	@ int
 616 006c C2F31604 		ubfx	r4, r2, #0, #23
 617 0070 DBE7     		b	.L21
 618              	.L27:
 619 0072 00BF     		.align	2
 620              	.L26:
 621 0074 0000004B 		.word	1258291200
 622              		.cfi_endproc
 623              	.LFE9:
 624              		.size	buffer_append_float32_auto, .-buffer_append_float32_auto
 625              		.section	.text.buffer_get_int16,"ax",%progbits
 626              		.align	1
 627              		.p2align 4,,15
ARM GAS  /tmp/ccZ2V6Xy.s 			page 12


 628              		.global	buffer_get_int16
 629              		.syntax unified
 630              		.thumb
 631              		.thumb_func
 632              		.fpu fpv4-sp-d16
 633              		.type	buffer_get_int16, %function
 634              	buffer_get_int16:
 635              	.LFB10:
 636              		.loc 1 99 0
 637              		.cfi_startproc
 638              		@ args = 0, pretend = 0, frame = 0
 639              		@ frame_needed = 0, uses_anonymous_args = 0
 640              		@ link register save eliminated.
 641              	.LVL31:
 642 0000 10B4     		push	{r4}
 643              		.cfi_def_cfa_offset 4
 644              		.cfi_offset 4, -4
 645              		.loc 1 100 0
 646 0002 0B68     		ldr	r3, [r1]
 647              		.loc 1 101 0
 648 0004 C418     		adds	r4, r0, r3
 649              		.loc 1 100 0
 650 0006 C25C     		ldrb	r2, [r0, r3]	@ zero_extendqisi2
 651              		.loc 1 101 0
 652 0008 6078     		ldrb	r0, [r4, #1]	@ zero_extendqisi2
 653              	.LVL32:
 654              		.loc 1 104 0
 655 000a 5DF8044B 		ldr	r4, [sp], #4
 656              		.cfi_restore 4
 657              		.cfi_def_cfa_offset 0
 658              		.loc 1 102 0
 659 000e 0233     		adds	r3, r3, #2
 660              		.loc 1 100 0
 661 0010 40EA0220 		orr	r0, r0, r2, lsl #8
 662              	.LVL33:
 663              		.loc 1 104 0
 664 0014 00B2     		sxth	r0, r0
 665              		.loc 1 102 0
 666 0016 0B60     		str	r3, [r1]
 667              		.loc 1 104 0
 668 0018 7047     		bx	lr
 669              		.cfi_endproc
 670              	.LFE10:
 671              		.size	buffer_get_int16, .-buffer_get_int16
 672              		.section	.text.buffer_get_uint16,"ax",%progbits
 673              		.align	1
 674              		.p2align 4,,15
 675              		.global	buffer_get_uint16
 676              		.syntax unified
 677              		.thumb
 678              		.thumb_func
 679              		.fpu fpv4-sp-d16
 680              		.type	buffer_get_uint16, %function
 681              	buffer_get_uint16:
 682              	.LFB11:
 683              		.loc 1 106 0
 684              		.cfi_startproc
ARM GAS  /tmp/ccZ2V6Xy.s 			page 13


 685              		@ args = 0, pretend = 0, frame = 0
 686              		@ frame_needed = 0, uses_anonymous_args = 0
 687              		@ link register save eliminated.
 688              	.LVL34:
 689              		.loc 1 107 0
 690 0000 0B68     		ldr	r3, [r1]
 691              		.loc 1 108 0
 692 0002 C218     		adds	r2, r0, r3
 693              		.loc 1 107 0
 694 0004 C05C     		ldrb	r0, [r0, r3]	@ zero_extendqisi2
 695              	.LVL35:
 696              		.loc 1 108 0
 697 0006 5278     		ldrb	r2, [r2, #1]	@ zero_extendqisi2
 698              	.LVL36:
 699              		.loc 1 109 0
 700 0008 0233     		adds	r3, r3, #2
 701 000a 0B60     		str	r3, [r1]
 702              		.loc 1 111 0
 703 000c 42EA0020 		orr	r0, r2, r0, lsl #8
 704              	.LVL37:
 705 0010 7047     		bx	lr
 706              		.cfi_endproc
 707              	.LFE11:
 708              		.size	buffer_get_uint16, .-buffer_get_uint16
 709 0012 00BF     		.section	.text.buffer_get_int32,"ax",%progbits
 710              		.align	1
 711              		.p2align 4,,15
 712              		.global	buffer_get_int32
 713              		.syntax unified
 714              		.thumb
 715              		.thumb_func
 716              		.fpu fpv4-sp-d16
 717              		.type	buffer_get_int32, %function
 718              	buffer_get_int32:
 719              	.LFB12:
 720              		.loc 1 113 0
 721              		.cfi_startproc
 722              		@ args = 0, pretend = 0, frame = 0
 723              		@ frame_needed = 0, uses_anonymous_args = 0
 724              		@ link register save eliminated.
 725              	.LVL38:
 726 0000 70B4     		push	{r4, r5, r6}
 727              		.cfi_def_cfa_offset 12
 728              		.cfi_offset 4, -12
 729              		.cfi_offset 5, -8
 730              		.cfi_offset 6, -4
 731              		.loc 1 114 0
 732 0002 0A68     		ldr	r2, [r1]
 733              		.loc 1 117 0
 734 0004 8418     		adds	r4, r0, r2
 735              		.loc 1 114 0
 736 0006 865C     		ldrb	r6, [r0, r2]	@ zero_extendqisi2
 737              		.loc 1 117 0
 738 0008 E378     		ldrb	r3, [r4, #3]	@ zero_extendqisi2
 739              		.loc 1 115 0
 740 000a 6578     		ldrb	r5, [r4, #1]	@ zero_extendqisi2
 741              		.loc 1 116 0
ARM GAS  /tmp/ccZ2V6Xy.s 			page 14


 742 000c A078     		ldrb	r0, [r4, #2]	@ zero_extendqisi2
 743              	.LVL39:
 744 000e 43EA0663 		orr	r3, r3, r6, lsl #24
 745 0012 43EA0543 		orr	r3, r3, r5, lsl #16
 746              	.LVL40:
 747              		.loc 1 118 0
 748 0016 0432     		adds	r2, r2, #4
 749              		.loc 1 120 0
 750 0018 43EA0020 		orr	r0, r3, r0, lsl #8
 751              	.LVL41:
 752              		.loc 1 118 0
 753 001c 0A60     		str	r2, [r1]
 754              		.loc 1 120 0
 755 001e 70BC     		pop	{r4, r5, r6}
 756              		.cfi_restore 6
 757              		.cfi_restore 5
 758              		.cfi_restore 4
 759              		.cfi_def_cfa_offset 0
 760 0020 7047     		bx	lr
 761              		.cfi_endproc
 762              	.LFE12:
 763              		.size	buffer_get_int32, .-buffer_get_int32
 764 0022 00BF     		.section	.text.buffer_get_uint32,"ax",%progbits
 765              		.align	1
 766              		.p2align 4,,15
 767              		.global	buffer_get_uint32
 768              		.syntax unified
 769              		.thumb
 770              		.thumb_func
 771              		.fpu fpv4-sp-d16
 772              		.type	buffer_get_uint32, %function
 773              	buffer_get_uint32:
 774              	.LFB13:
 775              		.loc 1 122 0
 776              		.cfi_startproc
 777              		@ args = 0, pretend = 0, frame = 0
 778              		@ frame_needed = 0, uses_anonymous_args = 0
 779              		@ link register save eliminated.
 780              	.LVL42:
 781 0000 70B4     		push	{r4, r5, r6}
 782              		.cfi_def_cfa_offset 12
 783              		.cfi_offset 4, -12
 784              		.cfi_offset 5, -8
 785              		.cfi_offset 6, -4
 786              		.loc 1 123 0
 787 0002 0A68     		ldr	r2, [r1]
 788              		.loc 1 126 0
 789 0004 8418     		adds	r4, r0, r2
 790              		.loc 1 123 0
 791 0006 865C     		ldrb	r6, [r0, r2]	@ zero_extendqisi2
 792              		.loc 1 126 0
 793 0008 E378     		ldrb	r3, [r4, #3]	@ zero_extendqisi2
 794              		.loc 1 124 0
 795 000a 6578     		ldrb	r5, [r4, #1]	@ zero_extendqisi2
 796              		.loc 1 125 0
 797 000c A078     		ldrb	r0, [r4, #2]	@ zero_extendqisi2
 798              	.LVL43:
ARM GAS  /tmp/ccZ2V6Xy.s 			page 15


 799              		.loc 1 123 0
 800 000e 43EA0663 		orr	r3, r3, r6, lsl #24
 801 0012 43EA0543 		orr	r3, r3, r5, lsl #16
 802              	.LVL44:
 803              		.loc 1 127 0
 804 0016 0432     		adds	r2, r2, #4
 805              		.loc 1 129 0
 806 0018 43EA0020 		orr	r0, r3, r0, lsl #8
 807              	.LVL45:
 808              		.loc 1 127 0
 809 001c 0A60     		str	r2, [r1]
 810              		.loc 1 129 0
 811 001e 70BC     		pop	{r4, r5, r6}
 812              		.cfi_restore 6
 813              		.cfi_restore 5
 814              		.cfi_restore 4
 815              		.cfi_def_cfa_offset 0
 816 0020 7047     		bx	lr
 817              		.cfi_endproc
 818              	.LFE13:
 819              		.size	buffer_get_uint32, .-buffer_get_uint32
 820 0022 00BF     		.section	.text.buffer_get_int64,"ax",%progbits
 821              		.align	1
 822              		.p2align 4,,15
 823              		.global	buffer_get_int64
 824              		.syntax unified
 825              		.thumb
 826              		.thumb_func
 827              		.fpu fpv4-sp-d16
 828              		.type	buffer_get_int64, %function
 829              	buffer_get_int64:
 830              	.LFB14:
 831              		.loc 1 131 0
 832              		.cfi_startproc
 833              		@ args = 0, pretend = 0, frame = 48
 834              		@ frame_needed = 0, uses_anonymous_args = 0
 835              		@ link register save eliminated.
 836              	.LVL46:
 837 0000 2DE9F00F 		push	{r4, r5, r6, r7, r8, r9, r10, fp}
 838              		.cfi_def_cfa_offset 32
 839              		.cfi_offset 4, -32
 840              		.cfi_offset 5, -28
 841              		.cfi_offset 6, -24
 842              		.cfi_offset 7, -20
 843              		.cfi_offset 8, -16
 844              		.cfi_offset 9, -12
 845              		.cfi_offset 10, -8
 846              		.cfi_offset 11, -4
 847              		.loc 1 132 0
 848 0004 D1F800C0 		ldr	ip, [r1]
 849 0008 10F80C40 		ldrb	r4, [r0, ip]	@ zero_extendqisi2
 850              		.loc 1 131 0
 851 000c 8CB0     		sub	sp, sp, #48
 852              		.cfi_def_cfa_offset 80
 853              		.loc 1 139 0
 854 000e 6044     		add	r0, r0, ip
 855              	.LVL47:
ARM GAS  /tmp/ccZ2V6Xy.s 			page 16


 856              		.loc 1 132 0
 857 0010 2306     		lsls	r3, r4, #24
 858 0012 0193     		str	r3, [sp, #4]
 859              		.loc 1 135 0
 860 0014 0023     		movs	r3, #0
 861              		.loc 1 132 0
 862 0016 0093     		str	r3, [sp]
 863              		.loc 1 135 0
 864 0018 C378     		ldrb	r3, [r0, #3]	@ zero_extendqisi2
 865 001a 0793     		str	r3, [sp, #28]
 866              		.loc 1 138 0
 867 001c DDE90023 		ldrd	r2, [sp]
 868              		.loc 1 133 0
 869 0020 90F801A0 		ldrb	r10, [r0, #1]	@ zero_extendqisi2
 870              		.loc 1 139 0
 871 0024 C679     		ldrb	r6, [r0, #7]	@ zero_extendqisi2
 872              		.loc 1 134 0
 873 0026 90F80280 		ldrb	r8, [r0, #2]	@ zero_extendqisi2
 874              		.loc 1 139 0
 875 002a 0027     		movs	r7, #0
 876              		.loc 1 133 0
 877 002c 4FEA0A45 		lsl	r5, r10, #16
 878              		.loc 1 138 0
 879 0030 43EA070B 		orr	fp, r3, r7
 880 0034 42EA060A 		orr	r10, r2, r6
 881              		.loc 1 133 0
 882 0038 1446     		mov	r4, r2
 883              		.loc 1 138 0
 884 003a 4AEA0406 		orr	r6, r10, r4
 885              		.loc 1 136 0
 886 003e 0279     		ldrb	r2, [r0, #4]	@ zero_extendqisi2
 887              		.loc 1 138 0
 888 0040 4BEA0507 		orr	r7, fp, r5
 889              		.loc 1 134 0
 890 0044 4FEA0823 		lsl	r3, r8, #8
 891 0048 DDE90045 		ldrd	r4, [sp]
 892 004c 0593     		str	r3, [sp, #20]
 893              		.loc 1 136 0
 894 004e 0023     		movs	r3, #0
 895 0050 CDE90823 		strd	r2, [sp, #32]
 896              		.loc 1 137 0
 897 0054 4279     		ldrb	r2, [r0, #5]	@ zero_extendqisi2
 898              		.loc 1 134 0
 899 0056 0494     		str	r4, [sp, #16]
 900              		.loc 1 137 0
 901 0058 0023     		movs	r3, #0
 902 005a CDE90A23 		strd	r2, [sp, #40]
 903              		.loc 1 138 0
 904 005e DDE904AB 		ldrd	r10, [sp, #16]
 905              		.loc 1 135 0
 906 0062 0694     		str	r4, [sp, #24]
 907              		.loc 1 136 0
 908 0064 089A     		ldr	r2, [sp, #32]
 909              		.loc 1 138 0
 910 0066 DDE90634 		ldrd	r3, [sp, #24]
 911              		.loc 1 136 0
 912 006a 120A     		lsrs	r2, r2, #8
ARM GAS  /tmp/ccZ2V6Xy.s 			page 17


 913 006c 0392     		str	r2, [sp, #12]
 914              		.loc 1 138 0
 915 006e 4AEA060A 		orr	r10, r10, r6
 916              		.loc 1 136 0
 917 0072 089A     		ldr	r2, [sp, #32]
 918              		.loc 1 138 0
 919 0074 8679     		ldrb	r6, [r0, #6]	@ zero_extendqisi2
 920 0076 43EA0A03 		orr	r3, r3, r10
 921 007a 4BEA070B 		orr	fp, fp, r7
 922 007e 9A46     		mov	r10, r3
 923              		.loc 1 136 0
 924 0080 1206     		lsls	r2, r2, #24
 925              		.loc 1 137 0
 926 0082 0A9B     		ldr	r3, [sp, #40]
 927              		.loc 1 136 0
 928 0084 0292     		str	r2, [sp, #8]
 929              		.loc 1 138 0
 930 0086 44EA0B04 		orr	r4, r4, fp
 931 008a A346     		mov	fp, r4
 932              		.loc 1 137 0
 933 008c 4FEA1349 		lsr	r9, r3, #16
 934              		.loc 1 138 0
 935 0090 DDE90234 		ldrd	r3, [sp, #8]
 936 0094 43EA0A03 		orr	r3, r3, r10
 937 0098 44EA0B04 		orr	r4, r4, fp
 938 009c 2546     		mov	r5, r4
 939 009e 1C46     		mov	r4, r3
 940              		.loc 1 137 0
 941 00a0 0A9B     		ldr	r3, [sp, #40]
 942              		.loc 1 138 0
 943 00a2 3202     		lsls	r2, r6, #8
 944              		.loc 1 137 0
 945 00a4 4FEA0348 		lsl	r8, r3, #16
 946              		.loc 1 138 0
 947 00a8 330E     		lsrs	r3, r6, #24
 948 00aa 0593     		str	r3, [sp, #20]
 949 00ac 0492     		str	r2, [sp, #16]
 950              		.loc 1 140 0
 951 00ae 0CF10803 		add	r3, ip, #8
 952 00b2 0B60     		str	r3, [r1]
 953              		.loc 1 142 0
 954 00b4 DDE90401 		ldrd	r0, [sp, #16]
 955              		.loc 1 138 0
 956 00b8 44EA080A 		orr	r10, r4, r8
 957 00bc 45EA090B 		orr	fp, r5, r9
 958              	.LVL48:
 959              		.loc 1 142 0
 960 00c0 40EA0A00 		orr	r0, r0, r10
 961 00c4 41EA0B01 		orr	r1, r1, fp
 962              	.LVL49:
 963 00c8 0CB0     		add	sp, sp, #48
 964              		.cfi_def_cfa_offset 32
 965              		@ sp needed
 966 00ca BDE8F00F 		pop	{r4, r5, r6, r7, r8, r9, r10, fp}
 967              		.cfi_restore 11
 968              		.cfi_restore 10
 969              		.cfi_restore 9
ARM GAS  /tmp/ccZ2V6Xy.s 			page 18


 970              		.cfi_restore 8
 971              		.cfi_restore 7
 972              		.cfi_restore 6
 973              		.cfi_restore 5
 974              		.cfi_restore 4
 975              		.cfi_def_cfa_offset 0
 976 00ce 7047     		bx	lr
 977              		.cfi_endproc
 978              	.LFE14:
 979              		.size	buffer_get_int64, .-buffer_get_int64
 980              		.section	.text.buffer_get_uint64,"ax",%progbits
 981              		.align	1
 982              		.p2align 4,,15
 983              		.global	buffer_get_uint64
 984              		.syntax unified
 985              		.thumb
 986              		.thumb_func
 987              		.fpu fpv4-sp-d16
 988              		.type	buffer_get_uint64, %function
 989              	buffer_get_uint64:
 990              	.LFB15:
 991              		.loc 1 144 0
 992              		.cfi_startproc
 993              		@ args = 0, pretend = 0, frame = 48
 994              		@ frame_needed = 0, uses_anonymous_args = 0
 995              		@ link register save eliminated.
 996              	.LVL50:
 997 0000 2DE9F00F 		push	{r4, r5, r6, r7, r8, r9, r10, fp}
 998              		.cfi_def_cfa_offset 32
 999              		.cfi_offset 4, -32
 1000              		.cfi_offset 5, -28
 1001              		.cfi_offset 6, -24
 1002              		.cfi_offset 7, -20
 1003              		.cfi_offset 8, -16
 1004              		.cfi_offset 9, -12
 1005              		.cfi_offset 10, -8
 1006              		.cfi_offset 11, -4
 1007              		.loc 1 145 0
 1008 0004 D1F800C0 		ldr	ip, [r1]
 1009 0008 10F80C40 		ldrb	r4, [r0, ip]	@ zero_extendqisi2
 1010              		.loc 1 144 0
 1011 000c 8CB0     		sub	sp, sp, #48
 1012              		.cfi_def_cfa_offset 80
 1013              		.loc 1 152 0
 1014 000e 6044     		add	r0, r0, ip
 1015              	.LVL51:
 1016              		.loc 1 145 0
 1017 0010 2306     		lsls	r3, r4, #24
 1018 0012 0193     		str	r3, [sp, #4]
 1019              		.loc 1 148 0
 1020 0014 0023     		movs	r3, #0
 1021              		.loc 1 145 0
 1022 0016 0093     		str	r3, [sp]
 1023              		.loc 1 148 0
 1024 0018 C378     		ldrb	r3, [r0, #3]	@ zero_extendqisi2
 1025 001a 0793     		str	r3, [sp, #28]
 1026              		.loc 1 145 0
ARM GAS  /tmp/ccZ2V6Xy.s 			page 19


 1027 001c DDE90023 		ldrd	r2, [sp]
 1028              		.loc 1 146 0
 1029 0020 90F801A0 		ldrb	r10, [r0, #1]	@ zero_extendqisi2
 1030              		.loc 1 152 0
 1031 0024 C679     		ldrb	r6, [r0, #7]	@ zero_extendqisi2
 1032              		.loc 1 147 0
 1033 0026 90F80280 		ldrb	r8, [r0, #2]	@ zero_extendqisi2
 1034              		.loc 1 152 0
 1035 002a 0027     		movs	r7, #0
 1036              		.loc 1 146 0
 1037 002c 4FEA0A45 		lsl	r5, r10, #16
 1038              		.loc 1 145 0
 1039 0030 43EA070B 		orr	fp, r3, r7
 1040 0034 42EA060A 		orr	r10, r2, r6
 1041              		.loc 1 146 0
 1042 0038 1446     		mov	r4, r2
 1043              		.loc 1 145 0
 1044 003a 4AEA0406 		orr	r6, r10, r4
 1045              		.loc 1 149 0
 1046 003e 0279     		ldrb	r2, [r0, #4]	@ zero_extendqisi2
 1047              		.loc 1 145 0
 1048 0040 4BEA0507 		orr	r7, fp, r5
 1049              		.loc 1 147 0
 1050 0044 4FEA0823 		lsl	r3, r8, #8
 1051 0048 DDE90045 		ldrd	r4, [sp]
 1052 004c 0593     		str	r3, [sp, #20]
 1053              		.loc 1 149 0
 1054 004e 0023     		movs	r3, #0
 1055 0050 CDE90823 		strd	r2, [sp, #32]
 1056              		.loc 1 150 0
 1057 0054 4279     		ldrb	r2, [r0, #5]	@ zero_extendqisi2
 1058              		.loc 1 147 0
 1059 0056 0494     		str	r4, [sp, #16]
 1060              		.loc 1 150 0
 1061 0058 0023     		movs	r3, #0
 1062 005a CDE90A23 		strd	r2, [sp, #40]
 1063              		.loc 1 145 0
 1064 005e DDE904AB 		ldrd	r10, [sp, #16]
 1065              		.loc 1 148 0
 1066 0062 0694     		str	r4, [sp, #24]
 1067              		.loc 1 149 0
 1068 0064 089A     		ldr	r2, [sp, #32]
 1069              		.loc 1 145 0
 1070 0066 DDE90634 		ldrd	r3, [sp, #24]
 1071              		.loc 1 149 0
 1072 006a 120A     		lsrs	r2, r2, #8
 1073 006c 0392     		str	r2, [sp, #12]
 1074              		.loc 1 145 0
 1075 006e 4AEA060A 		orr	r10, r10, r6
 1076              		.loc 1 149 0
 1077 0072 089A     		ldr	r2, [sp, #32]
 1078              		.loc 1 151 0
 1079 0074 8679     		ldrb	r6, [r0, #6]	@ zero_extendqisi2
 1080              		.loc 1 145 0
 1081 0076 43EA0A03 		orr	r3, r3, r10
 1082 007a 4BEA070B 		orr	fp, fp, r7
 1083 007e 9A46     		mov	r10, r3
ARM GAS  /tmp/ccZ2V6Xy.s 			page 20


 1084              		.loc 1 149 0
 1085 0080 1206     		lsls	r2, r2, #24
 1086              		.loc 1 150 0
 1087 0082 0A9B     		ldr	r3, [sp, #40]
 1088              		.loc 1 149 0
 1089 0084 0292     		str	r2, [sp, #8]
 1090              		.loc 1 145 0
 1091 0086 44EA0B04 		orr	r4, r4, fp
 1092 008a A346     		mov	fp, r4
 1093              		.loc 1 150 0
 1094 008c 4FEA1349 		lsr	r9, r3, #16
 1095              		.loc 1 145 0
 1096 0090 DDE90234 		ldrd	r3, [sp, #8]
 1097 0094 43EA0A03 		orr	r3, r3, r10
 1098 0098 44EA0B04 		orr	r4, r4, fp
 1099 009c 2546     		mov	r5, r4
 1100 009e 1C46     		mov	r4, r3
 1101              		.loc 1 150 0
 1102 00a0 0A9B     		ldr	r3, [sp, #40]
 1103              		.loc 1 151 0
 1104 00a2 3202     		lsls	r2, r6, #8
 1105              		.loc 1 150 0
 1106 00a4 4FEA0348 		lsl	r8, r3, #16
 1107              		.loc 1 151 0
 1108 00a8 330E     		lsrs	r3, r6, #24
 1109 00aa 0593     		str	r3, [sp, #20]
 1110 00ac 0492     		str	r2, [sp, #16]
 1111              		.loc 1 153 0
 1112 00ae 0CF10803 		add	r3, ip, #8
 1113 00b2 0B60     		str	r3, [r1]
 1114              		.loc 1 155 0
 1115 00b4 DDE90401 		ldrd	r0, [sp, #16]
 1116              		.loc 1 145 0
 1117 00b8 44EA080A 		orr	r10, r4, r8
 1118 00bc 45EA090B 		orr	fp, r5, r9
 1119              	.LVL52:
 1120              		.loc 1 155 0
 1121 00c0 40EA0A00 		orr	r0, r0, r10
 1122 00c4 41EA0B01 		orr	r1, r1, fp
 1123              	.LVL53:
 1124 00c8 0CB0     		add	sp, sp, #48
 1125              		.cfi_def_cfa_offset 32
 1126              		@ sp needed
 1127 00ca BDE8F00F 		pop	{r4, r5, r6, r7, r8, r9, r10, fp}
 1128              		.cfi_restore 11
 1129              		.cfi_restore 10
 1130              		.cfi_restore 9
 1131              		.cfi_restore 8
 1132              		.cfi_restore 7
 1133              		.cfi_restore 6
 1134              		.cfi_restore 5
 1135              		.cfi_restore 4
 1136              		.cfi_def_cfa_offset 0
 1137 00ce 7047     		bx	lr
 1138              		.cfi_endproc
 1139              	.LFE15:
 1140              		.size	buffer_get_uint64, .-buffer_get_uint64
ARM GAS  /tmp/ccZ2V6Xy.s 			page 21


 1141              		.section	.text.buffer_get_float16,"ax",%progbits
 1142              		.align	1
 1143              		.p2align 4,,15
 1144              		.global	buffer_get_float16
 1145              		.syntax unified
 1146              		.thumb
 1147              		.thumb_func
 1148              		.fpu fpv4-sp-d16
 1149              		.type	buffer_get_float16, %function
 1150              	buffer_get_float16:
 1151              	.LFB16:
 1152              		.loc 1 157 0
 1153              		.cfi_startproc
 1154              		@ args = 0, pretend = 0, frame = 0
 1155              		@ frame_needed = 0, uses_anonymous_args = 0
 1156              		@ link register save eliminated.
 1157              	.LVL54:
 1158              	.LBB10:
 1159              	.LBB11:
 1160              		.loc 1 100 0
 1161 0000 0A68     		ldr	r2, [r1]
 1162              		.loc 1 101 0
 1163 0002 8318     		adds	r3, r0, r2
 1164              		.loc 1 100 0
 1165 0004 805C     		ldrb	r0, [r0, r2]	@ zero_extendqisi2
 1166              	.LVL55:
 1167              		.loc 1 101 0
 1168 0006 5B78     		ldrb	r3, [r3, #1]	@ zero_extendqisi2
 1169              		.loc 1 100 0
 1170 0008 43EA0023 		orr	r3, r3, r0, lsl #8
 1171 000c 1BB2     		sxth	r3, r3
 1172              	.LVL56:
 1173              	.LBE11:
 1174              	.LBE10:
 1175              		.loc 1 158 0
 1176 000e 07EE903A 		vmov	s15, r3	@ int
 1177 0012 F8EEE77A 		vcvt.f32.s32	s15, s15
 1178              	.LBB13:
 1179              	.LBB12:
 1180              		.loc 1 102 0
 1181 0016 0232     		adds	r2, r2, #2
 1182 0018 0A60     		str	r2, [r1]
 1183              	.LVL57:
 1184              	.LBE12:
 1185              	.LBE13:
 1186              		.loc 1 159 0
 1187 001a 87EE800A 		vdiv.f32	s0, s15, s0
 1188              	.LVL58:
 1189 001e 7047     		bx	lr
 1190              		.cfi_endproc
 1191              	.LFE16:
 1192              		.size	buffer_get_float16, .-buffer_get_float16
 1193              		.section	.text.buffer_get_float32,"ax",%progbits
 1194              		.align	1
 1195              		.p2align 4,,15
 1196              		.global	buffer_get_float32
 1197              		.syntax unified
ARM GAS  /tmp/ccZ2V6Xy.s 			page 22


 1198              		.thumb
 1199              		.thumb_func
 1200              		.fpu fpv4-sp-d16
 1201              		.type	buffer_get_float32, %function
 1202              	buffer_get_float32:
 1203              	.LFB17:
 1204              		.loc 1 161 0
 1205              		.cfi_startproc
 1206              		@ args = 0, pretend = 0, frame = 0
 1207              		@ frame_needed = 0, uses_anonymous_args = 0
 1208              	.LVL59:
 1209 0000 08B5     		push	{r3, lr}
 1210              		.cfi_def_cfa_offset 8
 1211              		.cfi_offset 3, -8
 1212              		.cfi_offset 14, -4
 1213              		.loc 1 162 0
 1214 0002 FFF7FEFF 		bl	buffer_get_int32
 1215              	.LVL60:
 1216 0006 07EE900A 		vmov	s15, r0	@ int
 1217 000a F8EEE77A 		vcvt.f32.s32	s15, s15
 1218              		.loc 1 163 0
 1219 000e 87EE800A 		vdiv.f32	s0, s15, s0
 1220              	.LVL61:
 1221 0012 08BD     		pop	{r3, pc}
 1222              		.cfi_endproc
 1223              	.LFE17:
 1224              		.size	buffer_get_float32, .-buffer_get_float32
 1225              		.global	__aeabi_l2d
 1226              		.global	__aeabi_ddiv
 1227              		.section	.text.buffer_get_double64,"ax",%progbits
 1228              		.align	1
 1229              		.p2align 4,,15
 1230              		.global	buffer_get_double64
 1231              		.syntax unified
 1232              		.thumb
 1233              		.thumb_func
 1234              		.fpu fpv4-sp-d16
 1235              		.type	buffer_get_double64, %function
 1236              	buffer_get_double64:
 1237              	.LFB18:
 1238              		.loc 1 165 0
 1239              		.cfi_startproc
 1240              		@ args = 0, pretend = 0, frame = 8
 1241              		@ frame_needed = 0, uses_anonymous_args = 0
 1242              	.LVL62:
 1243 0000 00B5     		push	{lr}
 1244              		.cfi_def_cfa_offset 4
 1245              		.cfi_offset 14, -4
 1246 0002 53EC102B 		vmov	r2, r3, d0
 1247 0006 83B0     		sub	sp, sp, #12
 1248              		.cfi_def_cfa_offset 16
 1249              		.loc 1 165 0
 1250 0008 CDE90023 		strd	r2, [sp]
 1251              		.loc 1 166 0
 1252 000c FFF7FEFF 		bl	buffer_get_int64
 1253              	.LVL63:
 1254 0010 FFF7FEFF 		bl	__aeabi_l2d
ARM GAS  /tmp/ccZ2V6Xy.s 			page 23


 1255              	.LVL64:
 1256 0014 DDE90023 		ldrd	r2, [sp]
 1257 0018 FFF7FEFF 		bl	__aeabi_ddiv
 1258              	.LVL65:
 1259              		.loc 1 167 0
 1260 001c 41EC100B 		vmov	d0, r0, r1
 1261 0020 03B0     		add	sp, sp, #12
 1262              		.cfi_def_cfa_offset 4
 1263              		@ sp needed
 1264 0022 5DF804FB 		ldr	pc, [sp], #4
 1265              		.cfi_endproc
 1266              	.LFE18:
 1267              		.size	buffer_get_double64, .-buffer_get_double64
 1268 0026 00BF     		.section	.text.buffer_get_float32_auto,"ax",%progbits
 1269              		.align	1
 1270              		.p2align 4,,15
 1271              		.global	buffer_get_float32_auto
 1272              		.syntax unified
 1273              		.thumb
 1274              		.thumb_func
 1275              		.fpu fpv4-sp-d16
 1276              		.type	buffer_get_float32_auto, %function
 1277              	buffer_get_float32_auto:
 1278              	.LFB19:
 1279              		.loc 1 169 0
 1280              		.cfi_startproc
 1281              		@ args = 0, pretend = 0, frame = 0
 1282              		@ frame_needed = 0, uses_anonymous_args = 0
 1283              	.LVL66:
 1284 0000 08B5     		push	{r3, lr}
 1285              		.cfi_def_cfa_offset 8
 1286              		.cfi_offset 3, -8
 1287              		.cfi_offset 14, -4
 1288              		.loc 1 170 0
 1289 0002 FFF7FEFF 		bl	buffer_get_uint32
 1290              	.LVL67:
 1291              		.loc 1 172 0
 1292 0006 C0F3C753 		ubfx	r3, r0, #23, #8
 1293              	.LVL68:
 1294              		.loc 1 173 0
 1295 000a C0F31602 		ubfx	r2, r0, #0, #23
 1296              	.LVL69:
 1297              		.loc 1 177 0
 1298 000e 03B9     		cbnz	r3, .L45
 1299              		.loc 1 177 0 is_stmt 0 discriminator 1
 1300 0010 9AB1     		cbz	r2, .L48
 1301              	.L45:
 1302              		.loc 1 178 0 is_stmt 1
 1303 0012 07EE902A 		vmov	s15, r2	@ int
 1304 0016 9FED0A7A 		vldr.32	s14, .L50
 1305 001a F8EEE77A 		vcvt.f32.s32	s15, s15
 1306 001e B6EE000A 		vmov.f32	s0, #5.0e-1
 1307 0022 A7EE870A 		vfma.f32	s0, s15, s14
 1308              	.LVL70:
 1309              		.loc 1 179 0
 1310 0026 7E3B     		subs	r3, r3, #126
 1311              	.LVL71:
ARM GAS  /tmp/ccZ2V6Xy.s 			page 24


 1312              	.L46:
 1313              		.loc 1 182 0
 1314 0028 0028     		cmp	r0, #0
 1315              		.loc 1 183 0
 1316 002a B8BF     		it	lt
 1317 002c B1EE400A 		vneglt.f32	s0, s0
 1318              	.LVL72:
 1319              		.loc 1 186 0
 1320 0030 1846     		mov	r0, r3
 1321              	.LVL73:
 1322              		.loc 1 187 0
 1323 0032 BDE80840 		pop	{r3, lr}
 1324              		.cfi_remember_state
 1325              		.cfi_restore 14
 1326              		.cfi_restore 3
 1327              		.cfi_def_cfa_offset 0
 1328              	.LVL74:
 1329              		.loc 1 186 0
 1330 0036 FFF7FEBF 		b	ldexpf
 1331              	.LVL75:
 1332              	.L48:
 1333              		.cfi_restore_state
 1334              		.loc 1 176 0
 1335 003a 9FED020A 		vldr.32	s0, .L50+4
 1336 003e F3E7     		b	.L46
 1337              	.L51:
 1338              		.align	2
 1339              	.L50:
 1340 0040 00008033 		.word	864026624
 1341 0044 00000000 		.word	0
 1342              		.cfi_endproc
 1343              	.LFE19:
 1344              		.size	buffer_get_float32_auto, .-buffer_get_float32_auto
 1345              		.text
 1346              	.Letext0:
 1347              		.file 2 "/usr/arm-none-eabi/include/machine/_default_types.h"
 1348              		.file 3 "/usr/arm-none-eabi/include/sys/_stdint.h"
 1349              		.file 4 "/usr/arm-none-eabi/include/sys/lock.h"
 1350              		.file 5 "/usr/arm-none-eabi/include/sys/_types.h"
 1351              		.file 6 "/usr/lib/gcc/arm-none-eabi/7.3.1/include/stddef.h"
 1352              		.file 7 "/usr/arm-none-eabi/include/sys/reent.h"
 1353              		.file 8 "/usr/arm-none-eabi/include/math.h"