ARM GAS  /tmp/ccsVS11G.s 			page 1


   1              		.cpu cortex-m4
   2              		.eabi_attribute 27, 1
   3              		.eabi_attribute 28, 1
   4              		.eabi_attribute 20, 1
   5              		.eabi_attribute 21, 1
   6              		.eabi_attribute 23, 3
   7              		.eabi_attribute 24, 1
   8              		.eabi_attribute 25, 1
   9              		.eabi_attribute 26, 1
  10              		.eabi_attribute 30, 2
  11              		.eabi_attribute 34, 1
  12              		.eabi_attribute 18, 4
  13              		.file	"chcond.c"
  14              		.text
  15              	.Ltext0:
  16              		.cfi_sections	.debug_frame
  17              		.section	.text.chCondObjectInit,"ax",%progbits
  18              		.align	1
  19              		.p2align 4,,15
  20              		.global	chCondObjectInit
  21              		.syntax unified
  22              		.thumb
  23              		.thumb_func
  24              		.fpu fpv4-sp-d16
  25              		.type	chCondObjectInit, %function
  26              	chCondObjectInit:
  27              	.LFB229:
  28              		.file 1 "ChibiOS_3.0.2/os/rt/src/chcond.c"
  29              		.loc 1 75 0
  30              		.cfi_startproc
  31              		@ args = 0, pretend = 0, frame = 0
  32              		@ frame_needed = 0, uses_anonymous_args = 0
  33              		@ link register save eliminated.
  34              	.LVL0:
  35              	.LBB89:
  36              	.LBB90:
  37              		.file 2 "ChibiOS_3.0.2/os/rt/include/chschd.h"
  38              		.loc 2 605 0
  39 0000 C0E90000 		strd	r0, r0, [r0]
  40              	.LVL1:
  41              	.LBE90:
  42              	.LBE89:
  43              		.loc 1 80 0
  44 0004 7047     		bx	lr
  45              		.cfi_endproc
  46              	.LFE229:
  47              		.size	chCondObjectInit, .-chCondObjectInit
  48 0006 00BF     		.section	.text.chCondSignal,"ax",%progbits
  49              		.align	1
  50              		.p2align 4,,15
  51              		.global	chCondSignal
  52              		.syntax unified
  53              		.thumb
  54              		.thumb_func
  55              		.fpu fpv4-sp-d16
  56              		.type	chCondSignal, %function
  57              	chCondSignal:
ARM GAS  /tmp/ccsVS11G.s 			page 2


  58              	.LFB230:
  59              		.loc 1 89 0
  60              		.cfi_startproc
  61              		@ args = 0, pretend = 0, frame = 0
  62              		@ frame_needed = 0, uses_anonymous_args = 0
  63              	.LVL2:
  64 0000 08B5     		push	{r3, lr}
  65              		.cfi_def_cfa_offset 8
  66              		.cfi_offset 3, -8
  67              		.cfi_offset 14, -4
  68              	.LBB91:
  69              	.LBB92:
  70              	.LBB93:
  71              	.LBB94:
  72              		.file 3 "ChibiOS_3.0.2/os/ext/CMSIS/include/core_cmFunc.h"
  73              		.loc 3 546 0
  74 0002 2023     		movs	r3, #32
  75              		.syntax unified
  76              	@ 546 "ChibiOS_3.0.2/os/ext/CMSIS/include/core_cmFunc.h" 1
  77 0004 83F31188 		MSR basepri, r3
  78              	@ 0 "" 2
  79              	.LVL3:
  80              		.thumb
  81              		.syntax unified
  82              	.LBE94:
  83              	.LBE93:
  84              	.LBE92:
  85              	.LBE91:
  86              	.LBB95:
  87              	.LBB96:
  88              		.loc 2 631 0
  89 0008 0268     		ldr	r2, [r0]
  90              	.LVL4:
  91              	.LBE96:
  92              	.LBE95:
  93              		.loc 1 94 0
  94 000a 9042     		cmp	r0, r2
  95 000c 07D0     		beq	.L4
  96              	.LBB97:
  97              	.LBB98:
  98              		.loc 2 674 0
  99 000e 1168     		ldr	r1, [r2]
 100 0010 0160     		str	r1, [r0]
 101 0012 0346     		mov	r3, r0
 102              	.LVL5:
 103              		.loc 2 675 0
 104 0014 4B60     		str	r3, [r1, #4]
 105              	.LVL6:
 106              	.LBE98:
 107              	.LBE97:
 108              		.loc 1 95 0
 109 0016 1046     		mov	r0, r2
 110              	.LVL7:
 111 0018 0021     		movs	r1, #0
 112 001a FFF7FEFF 		bl	chSchWakeupS
 113              	.LVL8:
 114              	.L4:
ARM GAS  /tmp/ccsVS11G.s 			page 3


 115              	.LBB99:
 116              	.LBB100:
 117              	.LBB101:
 118              	.LBB102:
 119              	.LBB103:
 120              		.loc 3 546 0
 121 001e 0023     		movs	r3, #0
 122              		.syntax unified
 123              	@ 546 "ChibiOS_3.0.2/os/ext/CMSIS/include/core_cmFunc.h" 1
 124 0020 83F31188 		MSR basepri, r3
 125              	@ 0 "" 2
 126              	.LVL9:
 127              		.thumb
 128              		.syntax unified
 129              	.LBE103:
 130              	.LBE102:
 131              	.LBE101:
 132              	.LBE100:
 133              	.LBE99:
 134              		.loc 1 98 0
 135 0024 08BD     		pop	{r3, pc}
 136              		.cfi_endproc
 137              	.LFE230:
 138              		.size	chCondSignal, .-chCondSignal
 139 0026 00BF     		.section	.text.chCondSignalI,"ax",%progbits
 140              		.align	1
 141              		.p2align 4,,15
 142              		.global	chCondSignalI
 143              		.syntax unified
 144              		.thumb
 145              		.thumb_func
 146              		.fpu fpv4-sp-d16
 147              		.type	chCondSignalI, %function
 148              	chCondSignalI:
 149              	.LFB231:
 150              		.loc 1 111 0
 151              		.cfi_startproc
 152              		@ args = 0, pretend = 0, frame = 0
 153              		@ frame_needed = 0, uses_anonymous_args = 0
 154              		@ link register save eliminated.
 155              	.LVL10:
 156              	.LBB104:
 157              	.LBB105:
 158              		.loc 2 631 0
 159 0000 0368     		ldr	r3, [r0]
 160              	.LVL11:
 161              	.LBE105:
 162              	.LBE104:
 163              		.loc 1 116 0
 164 0002 9842     		cmp	r0, r3
 165 0004 07D0     		beq	.L6
 166              	.LVL12:
 167              	.LBB106:
 168              	.LBB107:
 169              	.LBB108:
 170              		.loc 2 674 0
 171 0006 1A68     		ldr	r2, [r3]
ARM GAS  /tmp/ccsVS11G.s 			page 4


 172 0008 0260     		str	r2, [r0]
 173              	.LBE108:
 174              	.LBE107:
 175              		.loc 1 118 0
 176 000a 0021     		movs	r1, #0
 177              	.LBB110:
 178              	.LBB109:
 179              		.loc 2 675 0
 180 000c 5060     		str	r0, [r2, #4]
 181              	.LVL13:
 182              	.LBE109:
 183              	.LBE110:
 184              		.loc 1 119 0
 185 000e 1846     		mov	r0, r3
 186              	.LVL14:
 187              		.loc 1 118 0
 188 0010 1962     		str	r1, [r3, #32]
 189              		.loc 1 119 0
 190 0012 FFF7FEBF 		b	chSchReadyI
 191              	.LVL15:
 192              	.L6:
 193              	.LBE106:
 194              		.loc 1 121 0
 195 0016 7047     		bx	lr
 196              		.cfi_endproc
 197              	.LFE231:
 198              		.size	chCondSignalI, .-chCondSignalI
 199              		.section	.text.chCondBroadcast,"ax",%progbits
 200              		.align	1
 201              		.p2align 4,,15
 202              		.global	chCondBroadcast
 203              		.syntax unified
 204              		.thumb
 205              		.thumb_func
 206              		.fpu fpv4-sp-d16
 207              		.type	chCondBroadcast, %function
 208              	chCondBroadcast:
 209              	.LFB232:
 210              		.loc 1 130 0
 211              		.cfi_startproc
 212              		@ args = 0, pretend = 0, frame = 0
 213              		@ frame_needed = 0, uses_anonymous_args = 0
 214              	.LVL16:
 215 0000 38B5     		push	{r3, r4, r5, lr}
 216              		.cfi_def_cfa_offset 16
 217              		.cfi_offset 3, -16
 218              		.cfi_offset 4, -12
 219              		.cfi_offset 5, -8
 220              		.cfi_offset 14, -4
 221              	.LBB111:
 222              	.LBB112:
 223              	.LBB113:
 224              	.LBB114:
 225              		.loc 3 546 0
 226 0002 2023     		movs	r3, #32
 227              		.syntax unified
 228              	@ 546 "ChibiOS_3.0.2/os/ext/CMSIS/include/core_cmFunc.h" 1
ARM GAS  /tmp/ccsVS11G.s 			page 5


 229 0004 83F31188 		MSR basepri, r3
 230              	@ 0 "" 2
 231              	.LVL17:
 232              		.thumb
 233              		.syntax unified
 234              	.LBE114:
 235              	.LBE113:
 236              	.LBE112:
 237              	.LBE111:
 238              	.LBB115:
 239              	.LBB116:
 240              	.LBB117:
 241              	.LBB118:
 242              		.loc 2 631 0
 243 0008 0368     		ldr	r3, [r0]
 244              	.LVL18:
 245              	.LBE118:
 246              	.LBE117:
 247              		.loc 1 157 0
 248 000a 9842     		cmp	r0, r3
 249 000c 0CD0     		beq	.L9
 250 000e 0446     		mov	r4, r0
 251              		.loc 1 158 0
 252 0010 6FF00105 		mvn	r5, #1
 253              	.LVL19:
 254              	.L10:
 255              	.LBB120:
 256              	.LBB121:
 257              		.loc 2 674 0
 258 0014 1A68     		ldr	r2, [r3]
 259 0016 2260     		str	r2, [r4]
 260              	.LBE121:
 261              	.LBE120:
 262              		.loc 1 158 0
 263 0018 1846     		mov	r0, r3
 264              	.LBB123:
 265              	.LBB122:
 266              		.loc 2 675 0
 267 001a 5460     		str	r4, [r2, #4]
 268              	.LVL20:
 269              	.LBE122:
 270              	.LBE123:
 271              		.loc 1 158 0
 272 001c FFF7FEFF 		bl	chSchReadyI
 273              	.LVL21:
 274              	.LBB124:
 275              	.LBB119:
 276              		.loc 2 631 0
 277 0020 2368     		ldr	r3, [r4]
 278              	.LBE119:
 279              	.LBE124:
 280              		.loc 1 158 0
 281 0022 0562     		str	r5, [r0, #32]
 282              		.loc 1 157 0
 283 0024 A342     		cmp	r3, r4
 284 0026 F5D1     		bne	.L10
 285              	.LVL22:
ARM GAS  /tmp/ccsVS11G.s 			page 6


 286              	.L9:
 287              	.LBE116:
 288              	.LBE115:
 289              		.loc 1 134 0
 290 0028 FFF7FEFF 		bl	chSchRescheduleS
 291              	.LVL23:
 292              	.LBB125:
 293              	.LBB126:
 294              	.LBB127:
 295              	.LBB128:
 296              	.LBB129:
 297              		.loc 3 546 0
 298 002c 0023     		movs	r3, #0
 299              		.syntax unified
 300              	@ 546 "ChibiOS_3.0.2/os/ext/CMSIS/include/core_cmFunc.h" 1
 301 002e 83F31188 		MSR basepri, r3
 302              	@ 0 "" 2
 303              	.LVL24:
 304              		.thumb
 305              		.syntax unified
 306              	.LBE129:
 307              	.LBE128:
 308              	.LBE127:
 309              	.LBE126:
 310              	.LBE125:
 311              		.loc 1 136 0
 312 0032 38BD     		pop	{r3, r4, r5, pc}
 313              		.cfi_endproc
 314              	.LFE232:
 315              		.size	chCondBroadcast, .-chCondBroadcast
 316              		.section	.text.chCondBroadcastI,"ax",%progbits
 317              		.align	1
 318              		.p2align 4,,15
 319              		.global	chCondBroadcastI
 320              		.syntax unified
 321              		.thumb
 322              		.thumb_func
 323              		.fpu fpv4-sp-d16
 324              		.type	chCondBroadcastI, %function
 325              	chCondBroadcastI:
 326              	.LFB233:
 327              		.loc 1 149 0
 328              		.cfi_startproc
 329              		@ args = 0, pretend = 0, frame = 0
 330              		@ frame_needed = 0, uses_anonymous_args = 0
 331              	.LVL25:
 332 0000 38B5     		push	{r3, r4, r5, lr}
 333              		.cfi_def_cfa_offset 16
 334              		.cfi_offset 3, -16
 335              		.cfi_offset 4, -12
 336              		.cfi_offset 5, -8
 337              		.cfi_offset 14, -4
 338              	.LBB130:
 339              	.LBB131:
 340              		.loc 2 631 0
 341 0002 0368     		ldr	r3, [r0]
 342              	.LVL26:
ARM GAS  /tmp/ccsVS11G.s 			page 7


 343              	.LBE131:
 344              	.LBE130:
 345              		.loc 1 157 0
 346 0004 8342     		cmp	r3, r0
 347 0006 0CD0     		beq	.L13
 348 0008 0446     		mov	r4, r0
 349              		.loc 1 158 0
 350 000a 6FF00105 		mvn	r5, #1
 351              	.LVL27:
 352              	.L15:
 353              	.LBB133:
 354              	.LBB134:
 355              		.loc 2 674 0
 356 000e 1A68     		ldr	r2, [r3]
 357 0010 2260     		str	r2, [r4]
 358              	.LBE134:
 359              	.LBE133:
 360              		.loc 1 158 0
 361 0012 1846     		mov	r0, r3
 362              	.LBB136:
 363              	.LBB135:
 364              		.loc 2 675 0
 365 0014 5460     		str	r4, [r2, #4]
 366              	.LVL28:
 367              	.LBE135:
 368              	.LBE136:
 369              		.loc 1 158 0
 370 0016 FFF7FEFF 		bl	chSchReadyI
 371              	.LVL29:
 372              	.LBB137:
 373              	.LBB132:
 374              		.loc 2 631 0
 375 001a 2368     		ldr	r3, [r4]
 376              	.LBE132:
 377              	.LBE137:
 378              		.loc 1 158 0
 379 001c 0562     		str	r5, [r0, #32]
 380              		.loc 1 157 0
 381 001e A342     		cmp	r3, r4
 382 0020 F5D1     		bne	.L15
 383              	.LVL30:
 384              	.L13:
 385              		.loc 1 160 0
 386 0022 38BD     		pop	{r3, r4, r5, pc}
 387              		.cfi_endproc
 388              	.LFE233:
 389              		.size	chCondBroadcastI, .-chCondBroadcastI
 390              		.section	.text.chCondWaitS,"ax",%progbits
 391              		.align	1
 392              		.p2align 4,,15
 393              		.global	chCondWaitS
 394              		.syntax unified
 395              		.thumb
 396              		.thumb_func
 397              		.fpu fpv4-sp-d16
 398              		.type	chCondWaitS, %function
 399              	chCondWaitS:
ARM GAS  /tmp/ccsVS11G.s 			page 8


 400              	.LFB235:
 401              		.loc 1 205 0
 402              		.cfi_startproc
 403              		@ args = 0, pretend = 0, frame = 0
 404              		@ frame_needed = 0, uses_anonymous_args = 0
 405              	.LVL31:
 406 0000 F8B5     		push	{r3, r4, r5, r6, r7, lr}
 407              		.cfi_def_cfa_offset 24
 408              		.cfi_offset 3, -24
 409              		.cfi_offset 4, -20
 410              		.cfi_offset 5, -16
 411              		.cfi_offset 6, -12
 412              		.cfi_offset 7, -8
 413              		.cfi_offset 14, -4
 414              		.loc 1 206 0
 415 0002 114B     		ldr	r3, .L25
 416 0004 9C69     		ldr	r4, [r3, #24]
 417              	.LVL32:
 418              	.LBB138:
 419              	.LBB139:
 420              		.file 4 "ChibiOS_3.0.2/os/rt/include/chmtx.h"
 421              		.loc 4 146 0
 422 0006 A76B     		ldr	r7, [r4, #56]
 423              	.LBE139:
 424              	.LBE138:
 425              		.loc 1 205 0
 426 0008 0546     		mov	r5, r0
 427              		.loc 1 216 0
 428 000a 3846     		mov	r0, r7
 429              	.LVL33:
 430 000c FFF7FEFF 		bl	chMtxUnlockS
 431              	.LVL34:
 432              		.loc 1 221 0
 433 0010 2E46     		mov	r6, r5
 434              	.LVL35:
 435              		.loc 1 220 0
 436 0012 2562     		str	r5, [r4, #32]
 437              		.loc 1 221 0
 438 0014 2B46     		mov	r3, r5
 439 0016 03E0     		b	.L20
 440              	.LVL36:
 441              	.L24:
 442              	.LBB140:
 443              	.LBB141:
 444              		.loc 2 656 0
 445 0018 9968     		ldr	r1, [r3, #8]
 446 001a A268     		ldr	r2, [r4, #8]
 447 001c 9142     		cmp	r1, r2
 448 001e 10D3     		bcc	.L23
 449              	.LVL37:
 450              	.L20:
 451              		.loc 2 655 0
 452 0020 1B68     		ldr	r3, [r3]
 453              	.LVL38:
 454              		.loc 2 656 0
 455 0022 9D42     		cmp	r5, r3
 456 0024 F8D1     		bne	.L24
ARM GAS  /tmp/ccsVS11G.s 			page 9


 457              	.L19:
 458              		.loc 2 658 0
 459 0026 7368     		ldr	r3, [r6, #4]
 460              	.LVL39:
 461              	.LBE141:
 462              	.LBE140:
 463              		.loc 1 222 0
 464 0028 0720     		movs	r0, #7
 465              	.LBB144:
 466              	.LBB142:
 467              		.loc 2 658 0
 468 002a C4E90063 		strd	r6, r3, [r4]
 469              		.loc 2 659 0
 470 002e 1C60     		str	r4, [r3]
 471              		.loc 2 660 0
 472 0030 7460     		str	r4, [r6, #4]
 473              	.LVL40:
 474              	.LBE142:
 475              	.LBE144:
 476              		.loc 1 222 0
 477 0032 FFF7FEFF 		bl	chSchGoSleepS
 478              	.LVL41:
 479              		.loc 1 223 0
 480 0036 246A     		ldr	r4, [r4, #32]
 481              	.LVL42:
 482              		.loc 1 224 0
 483 0038 3846     		mov	r0, r7
 484 003a FFF7FEFF 		bl	chMtxLockS
 485              	.LVL43:
 486              		.loc 1 227 0
 487 003e 2046     		mov	r0, r4
 488 0040 F8BD     		pop	{r3, r4, r5, r6, r7, pc}
 489              	.LVL44:
 490              	.L23:
 491              	.LBB145:
 492              	.LBB143:
 493              		.loc 2 655 0
 494 0042 1E46     		mov	r6, r3
 495 0044 EFE7     		b	.L19
 496              	.L26:
 497 0046 00BF     		.align	2
 498              	.L25:
 499 0048 00000000 		.word	ch
 500              	.LBE143:
 501              	.LBE145:
 502              		.cfi_endproc
 503              	.LFE235:
 504              		.size	chCondWaitS, .-chCondWaitS
 505              		.section	.text.chCondWait,"ax",%progbits
 506              		.align	1
 507              		.p2align 4,,15
 508              		.global	chCondWait
 509              		.syntax unified
 510              		.thumb
 511              		.thumb_func
 512              		.fpu fpv4-sp-d16
 513              		.type	chCondWait, %function
ARM GAS  /tmp/ccsVS11G.s 			page 10


 514              	chCondWait:
 515              	.LFB234:
 516              		.loc 1 179 0
 517              		.cfi_startproc
 518              		@ args = 0, pretend = 0, frame = 0
 519              		@ frame_needed = 0, uses_anonymous_args = 0
 520              	.LVL45:
 521 0000 08B5     		push	{r3, lr}
 522              		.cfi_def_cfa_offset 8
 523              		.cfi_offset 3, -8
 524              		.cfi_offset 14, -4
 525              	.LBB146:
 526              	.LBB147:
 527              	.LBB148:
 528              	.LBB149:
 529              		.loc 3 546 0
 530 0002 2023     		movs	r3, #32
 531              		.syntax unified
 532              	@ 546 "ChibiOS_3.0.2/os/ext/CMSIS/include/core_cmFunc.h" 1
 533 0004 83F31188 		MSR basepri, r3
 534              	@ 0 "" 2
 535              	.LVL46:
 536              		.thumb
 537              		.syntax unified
 538              	.LBE149:
 539              	.LBE148:
 540              	.LBE147:
 541              	.LBE146:
 542              		.loc 1 183 0
 543 0008 FFF7FEFF 		bl	chCondWaitS
 544              	.LVL47:
 545              	.LBB150:
 546              	.LBB151:
 547              	.LBB152:
 548              	.LBB153:
 549              	.LBB154:
 550              		.loc 3 546 0
 551 000c 0023     		movs	r3, #0
 552              		.syntax unified
 553              	@ 546 "ChibiOS_3.0.2/os/ext/CMSIS/include/core_cmFunc.h" 1
 554 000e 83F31188 		MSR basepri, r3
 555              	@ 0 "" 2
 556              	.LVL48:
 557              		.thumb
 558              		.syntax unified
 559              	.LBE154:
 560              	.LBE153:
 561              	.LBE152:
 562              	.LBE151:
 563              	.LBE150:
 564              		.loc 1 186 0
 565 0012 08BD     		pop	{r3, pc}
 566              		.cfi_endproc
 567              	.LFE234:
 568              		.size	chCondWait, .-chCondWait
 569              		.section	.text.chCondWaitTimeoutS,"ax",%progbits
 570              		.align	1
ARM GAS  /tmp/ccsVS11G.s 			page 11


 571              		.p2align 4,,15
 572              		.global	chCondWaitTimeoutS
 573              		.syntax unified
 574              		.thumb
 575              		.thumb_func
 576              		.fpu fpv4-sp-d16
 577              		.type	chCondWaitTimeoutS, %function
 578              	chCondWaitTimeoutS:
 579              	.LFB237:
 580              		.loc 1 296 0
 581              		.cfi_startproc
 582              		@ args = 0, pretend = 0, frame = 0
 583              		@ frame_needed = 0, uses_anonymous_args = 0
 584              	.LVL49:
 585 0000 2DE9F041 		push	{r4, r5, r6, r7, r8, lr}
 586              		.cfi_def_cfa_offset 24
 587              		.cfi_offset 4, -24
 588              		.cfi_offset 5, -20
 589              		.cfi_offset 6, -16
 590              		.cfi_offset 7, -12
 591              		.cfi_offset 8, -8
 592              		.cfi_offset 14, -4
 593              	.LBB155:
 594              	.LBB156:
 595              	.LBB157:
 596              	.LBB158:
 597              		.file 5 "ChibiOS_3.0.2/os/rt/include/chthreads.h"
 598              		.loc 5 176 0
 599 0004 134C     		ldr	r4, .L40
 600              	.LBE158:
 601              	.LBE157:
 602              		.loc 4 146 0
 603 0006 A369     		ldr	r3, [r4, #24]
 604 0008 9F6B     		ldr	r7, [r3, #56]
 605              	.LBE156:
 606              	.LBE155:
 607              		.loc 1 296 0
 608 000a 0546     		mov	r5, r0
 609              		.loc 1 306 0
 610 000c 3846     		mov	r0, r7
 611              	.LVL50:
 612              		.loc 1 296 0
 613 000e 8846     		mov	r8, r1
 614              		.loc 1 306 0
 615 0010 FFF7FEFF 		bl	chMtxUnlockS
 616              	.LVL51:
 617              		.loc 1 310 0
 618 0014 A469     		ldr	r4, [r4, #24]
 619              		.loc 1 311 0
 620 0016 2E46     		mov	r6, r5
 621              	.LVL52:
 622              		.loc 1 310 0
 623 0018 2562     		str	r5, [r4, #32]
 624              		.loc 1 311 0
 625 001a 2B46     		mov	r3, r5
 626 001c 03E0     		b	.L31
 627              	.LVL53:
ARM GAS  /tmp/ccsVS11G.s 			page 12


 628              	.L39:
 629              	.LBB159:
 630              	.LBB160:
 631              		.loc 2 656 0
 632 001e 9868     		ldr	r0, [r3, #8]
 633 0020 A268     		ldr	r2, [r4, #8]
 634 0022 9042     		cmp	r0, r2
 635 0024 14D3     		bcc	.L38
 636              	.LVL54:
 637              	.L31:
 638              		.loc 2 655 0
 639 0026 1B68     		ldr	r3, [r3]
 640              	.LVL55:
 641              		.loc 2 656 0
 642 0028 9D42     		cmp	r5, r3
 643 002a F8D1     		bne	.L39
 644              	.L30:
 645              		.loc 2 658 0
 646 002c 7368     		ldr	r3, [r6, #4]
 647              	.LVL56:
 648 002e 6360     		str	r3, [r4, #4]
 649              		.loc 2 657 0
 650 0030 2660     		str	r6, [r4]
 651              	.LBE160:
 652              	.LBE159:
 653              		.loc 1 312 0
 654 0032 4146     		mov	r1, r8
 655              	.LBB164:
 656              	.LBB161:
 657              		.loc 2 659 0
 658 0034 1C60     		str	r4, [r3]
 659              	.LBE161:
 660              	.LBE164:
 661              		.loc 1 312 0
 662 0036 0720     		movs	r0, #7
 663              	.LBB165:
 664              	.LBB162:
 665              		.loc 2 660 0
 666 0038 7460     		str	r4, [r6, #4]
 667              	.LVL57:
 668              	.LBE162:
 669              	.LBE165:
 670              		.loc 1 312 0
 671 003a FFF7FEFF 		bl	chSchGoSleepTimeoutS
 672              	.LVL58:
 673              		.loc 1 313 0
 674 003e 431C     		adds	r3, r0, #1
 675              		.loc 1 312 0
 676 0040 0446     		mov	r4, r0
 677              	.LVL59:
 678              		.loc 1 313 0
 679 0042 02D0     		beq	.L29
 680              		.loc 1 314 0
 681 0044 3846     		mov	r0, r7
 682              	.LVL60:
 683 0046 FFF7FEFF 		bl	chMtxLockS
 684              	.LVL61:
ARM GAS  /tmp/ccsVS11G.s 			page 13


 685              	.L29:
 686              		.loc 1 318 0
 687 004a 2046     		mov	r0, r4
 688 004c BDE8F081 		pop	{r4, r5, r6, r7, r8, pc}
 689              	.LVL62:
 690              	.L38:
 691              	.LBB166:
 692              	.LBB163:
 693              		.loc 2 655 0
 694 0050 1E46     		mov	r6, r3
 695 0052 EBE7     		b	.L30
 696              	.L41:
 697              		.align	2
 698              	.L40:
 699 0054 00000000 		.word	ch
 700              	.LBE163:
 701              	.LBE166:
 702              		.cfi_endproc
 703              	.LFE237:
 704              		.size	chCondWaitTimeoutS, .-chCondWaitTimeoutS
 705              		.section	.text.chCondWaitTimeout,"ax",%progbits
 706              		.align	1
 707              		.p2align 4,,15
 708              		.global	chCondWaitTimeout
 709              		.syntax unified
 710              		.thumb
 711              		.thumb_func
 712              		.fpu fpv4-sp-d16
 713              		.type	chCondWaitTimeout, %function
 714              	chCondWaitTimeout:
 715              	.LFB236:
 716              		.loc 1 258 0
 717              		.cfi_startproc
 718              		@ args = 0, pretend = 0, frame = 0
 719              		@ frame_needed = 0, uses_anonymous_args = 0
 720              	.LVL63:
 721 0000 08B5     		push	{r3, lr}
 722              		.cfi_def_cfa_offset 8
 723              		.cfi_offset 3, -8
 724              		.cfi_offset 14, -4
 725              	.LBB167:
 726              	.LBB168:
 727              	.LBB169:
 728              	.LBB170:
 729              		.loc 3 546 0
 730 0002 2023     		movs	r3, #32
 731              		.syntax unified
 732              	@ 546 "ChibiOS_3.0.2/os/ext/CMSIS/include/core_cmFunc.h" 1
 733 0004 83F31188 		MSR basepri, r3
 734              	@ 0 "" 2
 735              	.LVL64:
 736              		.thumb
 737              		.syntax unified
 738              	.LBE170:
 739              	.LBE169:
 740              	.LBE168:
 741              	.LBE167:
ARM GAS  /tmp/ccsVS11G.s 			page 14


 742              		.loc 1 262 0
 743 0008 FFF7FEFF 		bl	chCondWaitTimeoutS
 744              	.LVL65:
 745              	.LBB171:
 746              	.LBB172:
 747              	.LBB173:
 748              	.LBB174:
 749              	.LBB175:
 750              		.loc 3 546 0
 751 000c 0023     		movs	r3, #0
 752              		.syntax unified
 753              	@ 546 "ChibiOS_3.0.2/os/ext/CMSIS/include/core_cmFunc.h" 1
 754 000e 83F31188 		MSR basepri, r3
 755              	@ 0 "" 2
 756              	.LVL66:
 757              		.thumb
 758              		.syntax unified
 759              	.LBE175:
 760              	.LBE174:
 761              	.LBE173:
 762              	.LBE172:
 763              	.LBE171:
 764              		.loc 1 266 0
 765 0012 08BD     		pop	{r3, pc}
 766              		.cfi_endproc
 767              	.LFE236:
 768              		.size	chCondWaitTimeout, .-chCondWaitTimeout
 769              		.text
 770              	.Letext0:
 771              		.file 6 "/usr/arm-none-eabi/include/machine/_default_types.h"
 772              		.file 7 "/usr/arm-none-eabi/include/sys/_stdint.h"
 773              		.file 8 "ChibiOS_3.0.2/os/rt/ports/ARMCMx/compilers/GCC/chtypes.h"
 774              		.file 9 "ChibiOS_3.0.2/os/rt/include/chsystypes.h"
 775              		.file 10 "ChibiOS_3.0.2/os/ext/CMSIS/include/core_cm4.h"
 776              		.file 11 "ChibiOS_3.0.2/os/ext/CMSIS/ST/system_stm32f4xx.h"
 777              		.file 12 "ChibiOS_3.0.2/os/rt/ports/ARMCMx/chcore.h"
 778              		.file 13 "ChibiOS_3.0.2/os/rt/ports/ARMCMx/chcore_v7m.h"
 779              		.file 14 "ChibiOS_3.0.2/os/rt/include/chtm.h"
 780              		.file 15 "ChibiOS_3.0.2/os/rt/include/chsem.h"
 781              		.file 16 "ChibiOS_3.0.2/os/rt/include/chregistry.h"
 782              		.file 17 "ChibiOS_3.0.2/os/rt/include/chcond.h"
 783              		.file 18 "ChibiOS_3.0.2/os/rt/include/chsys.h"
 784              		.section	.debug_info,"",%progbits
 785              	.Ldebug_info0:
 786 0000 3E110000 		.4byte	0x113e
 787 0004 0400     		.2byte	0x4
 788 0006 00000000 		.4byte	.Ldebug_abbrev0
 789 000a 04       		.byte	0x4
 790 000b 01       		.uleb128 0x1
 791 000c F8000000 		.4byte	.LASF159
 792 0010 0C       		.byte	0xc
 793 0011 D7000000 		.4byte	.LASF160
 794 0015 A5020000 		.4byte	.LASF161
 795 0019 C0000000 		.4byte	.Ldebug_ranges0+0xc0
 796 001d 00000000 		.4byte	0
 797 0021 00000000 		.4byte	.Ldebug_line0
 798 0025 02       		.uleb128 0x2
ARM GAS  /tmp/ccsVS11G.s 			page 15


 799 0026 04       		.byte	0x4
 800 0027 05       		.byte	0x5
 801 0028 696E7400 		.ascii	"int\000"
 802 002c 03       		.uleb128 0x3
 803 002d 04       		.byte	0x4
 804 002e 07       		.byte	0x7
 805 002f 9D030000 		.4byte	.LASF0
 806 0033 03       		.uleb128 0x3
 807 0034 08       		.byte	0x8
 808 0035 05       		.byte	0x5
 809 0036 36020000 		.4byte	.LASF1
 810 003a 03       		.uleb128 0x3
 811 003b 08       		.byte	0x8
 812 003c 04       		.byte	0x4
 813 003d F8060000 		.4byte	.LASF2
 814 0041 03       		.uleb128 0x3
 815 0042 01       		.byte	0x1
 816 0043 06       		.byte	0x6
 817 0044 44020000 		.4byte	.LASF3
 818 0048 04       		.uleb128 0x4
 819 0049 30000000 		.4byte	.LASF6
 820 004d 06       		.byte	0x6
 821 004e 2B       		.byte	0x2b
 822 004f 53000000 		.4byte	0x53
 823 0053 03       		.uleb128 0x3
 824 0054 01       		.byte	0x1
 825 0055 08       		.byte	0x8
 826 0056 9B050000 		.4byte	.LASF4
 827 005a 03       		.uleb128 0x3
 828 005b 02       		.byte	0x2
 829 005c 05       		.byte	0x5
 830 005d B3050000 		.4byte	.LASF5
 831 0061 04       		.uleb128 0x4
 832 0062 DC060000 		.4byte	.LASF7
 833 0066 06       		.byte	0x6
 834 0067 39       		.byte	0x39
 835 0068 6C000000 		.4byte	0x6c
 836 006c 03       		.uleb128 0x3
 837 006d 02       		.byte	0x2
 838 006e 07       		.byte	0x7
 839 006f F5030000 		.4byte	.LASF8
 840 0073 04       		.uleb128 0x4
 841 0074 57040000 		.4byte	.LASF9
 842 0078 06       		.byte	0x6
 843 0079 4D       		.byte	0x4d
 844 007a 7E000000 		.4byte	0x7e
 845 007e 03       		.uleb128 0x3
 846 007f 04       		.byte	0x4
 847 0080 05       		.byte	0x5
 848 0081 DF020000 		.4byte	.LASF10
 849 0085 04       		.uleb128 0x4
 850 0086 34070000 		.4byte	.LASF11
 851 008a 06       		.byte	0x6
 852 008b 4F       		.byte	0x4f
 853 008c 90000000 		.4byte	0x90
 854 0090 03       		.uleb128 0x3
 855 0091 04       		.byte	0x4
ARM GAS  /tmp/ccsVS11G.s 			page 16


 856 0092 07       		.byte	0x7
 857 0093 BE060000 		.4byte	.LASF12
 858 0097 04       		.uleb128 0x4
 859 0098 42050000 		.4byte	.LASF13
 860 009c 06       		.byte	0x6
 861 009d 69       		.byte	0x69
 862 009e A2000000 		.4byte	0xa2
 863 00a2 03       		.uleb128 0x3
 864 00a3 08       		.byte	0x8
 865 00a4 07       		.byte	0x7
 866 00a5 7B000000 		.4byte	.LASF14
 867 00a9 04       		.uleb128 0x4
 868 00aa B6070000 		.4byte	.LASF15
 869 00ae 07       		.byte	0x7
 870 00af 18       		.byte	0x18
 871 00b0 48000000 		.4byte	0x48
 872 00b4 04       		.uleb128 0x4
 873 00b5 B2030000 		.4byte	.LASF16
 874 00b9 07       		.byte	0x7
 875 00ba 24       		.byte	0x24
 876 00bb 61000000 		.4byte	0x61
 877 00bf 04       		.uleb128 0x4
 878 00c0 93050000 		.4byte	.LASF17
 879 00c4 07       		.byte	0x7
 880 00c5 2C       		.byte	0x2c
 881 00c6 73000000 		.4byte	0x73
 882 00ca 05       		.uleb128 0x5
 883 00cb BF000000 		.4byte	0xbf
 884 00cf 04       		.uleb128 0x4
 885 00d0 7D060000 		.4byte	.LASF18
 886 00d4 07       		.byte	0x7
 887 00d5 30       		.byte	0x30
 888 00d6 85000000 		.4byte	0x85
 889 00da 04       		.uleb128 0x4
 890 00db 27000000 		.4byte	.LASF19
 891 00df 07       		.byte	0x7
 892 00e0 3C       		.byte	0x3c
 893 00e1 97000000 		.4byte	0x97
 894 00e5 04       		.uleb128 0x4
 895 00e6 92040000 		.4byte	.LASF20
 896 00ea 08       		.byte	0x8
 897 00eb 45       		.byte	0x45
 898 00ec CF000000 		.4byte	0xcf
 899 00f0 04       		.uleb128 0x4
 900 00f1 DA050000 		.4byte	.LASF21
 901 00f5 08       		.byte	0x8
 902 00f6 48       		.byte	0x48
 903 00f7 A9000000 		.4byte	0xa9
 904 00fb 04       		.uleb128 0x4
 905 00fc F4020000 		.4byte	.LASF22
 906 0100 08       		.byte	0x8
 907 0101 49       		.byte	0x49
 908 0102 A9000000 		.4byte	0xa9
 909 0106 04       		.uleb128 0x4
 910 0107 4D050000 		.4byte	.LASF23
 911 010b 08       		.byte	0x8
 912 010c 4A       		.byte	0x4a
ARM GAS  /tmp/ccsVS11G.s 			page 17


 913 010d A9000000 		.4byte	0xa9
 914 0111 04       		.uleb128 0x4
 915 0112 77050000 		.4byte	.LASF24
 916 0116 08       		.byte	0x8
 917 0117 4C       		.byte	0x4c
 918 0118 CF000000 		.4byte	0xcf
 919 011c 04       		.uleb128 0x4
 920 011d 1F040000 		.4byte	.LASF25
 921 0121 08       		.byte	0x8
 922 0122 4D       		.byte	0x4d
 923 0123 BF000000 		.4byte	0xbf
 924 0127 04       		.uleb128 0x4
 925 0128 4B040000 		.4byte	.LASF26
 926 012c 08       		.byte	0x8
 927 012d 4F       		.byte	0x4f
 928 012e CF000000 		.4byte	0xcf
 929 0132 04       		.uleb128 0x4
 930 0133 8A030000 		.4byte	.LASF27
 931 0137 08       		.byte	0x8
 932 0138 51       		.byte	0x51
 933 0139 BF000000 		.4byte	0xbf
 934 013d 04       		.uleb128 0x4
 935 013e 16070000 		.4byte	.LASF28
 936 0142 09       		.byte	0x9
 937 0143 33       		.byte	0x33
 938 0144 CF000000 		.4byte	0xcf
 939 0148 04       		.uleb128 0x4
 940 0149 99070000 		.4byte	.LASF29
 941 014d 09       		.byte	0x9
 942 014e 3F       		.byte	0x3f
 943 014f 53010000 		.4byte	0x153
 944 0153 06       		.uleb128 0x6
 945 0154 08040000 		.4byte	.LASF49
 946 0158 44       		.byte	0x44
 947 0159 02       		.byte	0x2
 948 015a C2       		.byte	0xc2
 949 015b 40020000 		.4byte	0x240
 950 015f 07       		.uleb128 0x7
 951 0160 D3050000 		.4byte	.LASF30
 952 0164 02       		.byte	0x2
 953 0165 C3       		.byte	0xc3
 954 0166 4B020000 		.4byte	0x24b
 955 016a 00       		.byte	0
 956 016b 07       		.uleb128 0x7
 957 016c 70050000 		.4byte	.LASF31
 958 0170 02       		.byte	0x2
 959 0171 C5       		.byte	0xc5
 960 0172 4B020000 		.4byte	0x24b
 961 0176 04       		.byte	0x4
 962 0177 07       		.uleb128 0x7
 963 0178 22020000 		.4byte	.LASF32
 964 017c 02       		.byte	0x2
 965 017d C7       		.byte	0xc7
 966 017e 11010000 		.4byte	0x111
 967 0182 08       		.byte	0x8
 968 0183 07       		.uleb128 0x7
 969 0184 FD040000 		.4byte	.LASF33
ARM GAS  /tmp/ccsVS11G.s 			page 18


 970 0188 02       		.byte	0x2
 971 0189 C8       		.byte	0xc8
 972 018a 90040000 		.4byte	0x490
 973 018e 0C       		.byte	0xc
 974 018f 07       		.uleb128 0x7
 975 0190 16030000 		.4byte	.LASF34
 976 0194 02       		.byte	0x2
 977 0195 CA       		.byte	0xca
 978 0196 4B020000 		.4byte	0x24b
 979 019a 10       		.byte	0x10
 980 019b 07       		.uleb128 0x7
 981 019c EF040000 		.4byte	.LASF35
 982 01a0 02       		.byte	0x2
 983 01a1 CB       		.byte	0xcb
 984 01a2 4B020000 		.4byte	0x24b
 985 01a6 14       		.byte	0x14
 986 01a7 07       		.uleb128 0x7
 987 01a8 E4070000 		.4byte	.LASF36
 988 01ac 02       		.byte	0x2
 989 01ad D2       		.byte	0xd2
 990 01ae D5060000 		.4byte	0x6d5
 991 01b2 18       		.byte	0x18
 992 01b3 07       		.uleb128 0x7
 993 01b4 BD050000 		.4byte	.LASF37
 994 01b8 02       		.byte	0x2
 995 01b9 DD       		.byte	0xdd
 996 01ba FB000000 		.4byte	0xfb
 997 01be 1C       		.byte	0x1c
 998 01bf 07       		.uleb128 0x7
 999 01c0 F1050000 		.4byte	.LASF38
 1000 01c4 02       		.byte	0x2
 1001 01c5 E1       		.byte	0xe1
 1002 01c6 F0000000 		.4byte	0xf0
 1003 01ca 1D       		.byte	0x1d
 1004 01cb 07       		.uleb128 0x7
 1005 01cc 92070000 		.4byte	.LASF39
 1006 01d0 02       		.byte	0x2
 1007 01d1 E6       		.byte	0xe6
 1008 01d2 06010000 		.4byte	0x106
 1009 01d6 1E       		.byte	0x1e
 1010 01d7 08       		.uleb128 0x8
 1011 01d8 705F7500 		.ascii	"p_u\000"
 1012 01dc 02       		.byte	0x2
 1013 01dd 3101     		.2byte	0x131
 1014 01df 10060000 		.4byte	0x610
 1015 01e3 20       		.byte	0x20
 1016 01e4 09       		.uleb128 0x9
 1017 01e5 88040000 		.4byte	.LASF40
 1018 01e9 02       		.byte	0x2
 1019 01ea 3601     		.2byte	0x136
 1020 01ec 51020000 		.4byte	0x251
 1021 01f0 24       		.byte	0x24
 1022 01f1 09       		.uleb128 0x9
 1023 01f2 DB030000 		.4byte	.LASF41
 1024 01f6 02       		.byte	0x2
 1025 01f7 3C01     		.2byte	0x13c
 1026 01f9 75020000 		.4byte	0x275
ARM GAS  /tmp/ccsVS11G.s 			page 19


 1027 01fd 28       		.byte	0x28
 1028 01fe 09       		.uleb128 0x9
 1029 01ff 66070000 		.4byte	.LASF42
 1030 0203 02       		.byte	0x2
 1031 0204 4001     		.2byte	0x140
 1032 0206 1C010000 		.4byte	0x11c
 1033 020a 30       		.byte	0x30
 1034 020b 09       		.uleb128 0x9
 1035 020c 5F060000 		.4byte	.LASF43
 1036 0210 02       		.byte	0x2
 1037 0211 4601     		.2byte	0x146
 1038 0213 27010000 		.4byte	0x127
 1039 0217 34       		.byte	0x34
 1040 0218 09       		.uleb128 0x9
 1041 0219 A9050000 		.4byte	.LASF44
 1042 021d 02       		.byte	0x2
 1043 021e 4D01     		.2byte	0x14d
 1044 0220 CF060000 		.4byte	0x6cf
 1045 0224 38       		.byte	0x38
 1046 0225 09       		.uleb128 0x9
 1047 0226 20070000 		.4byte	.LASF45
 1048 022a 02       		.byte	0x2
 1049 022b 5101     		.2byte	0x151
 1050 022d 11010000 		.4byte	0x111
 1051 0231 3C       		.byte	0x3c
 1052 0232 09       		.uleb128 0x9
 1053 0233 82020000 		.4byte	.LASF46
 1054 0237 02       		.byte	0x2
 1055 0238 5801     		.2byte	0x158
 1056 023a 2D030000 		.4byte	0x32d
 1057 023e 40       		.byte	0x40
 1058 023f 00       		.byte	0
 1059 0240 04       		.uleb128 0x4
 1060 0241 CA070000 		.4byte	.LASF47
 1061 0245 09       		.byte	0x9
 1062 0246 44       		.byte	0x44
 1063 0247 4B020000 		.4byte	0x24b
 1064 024b 0A       		.uleb128 0xa
 1065 024c 04       		.byte	0x4
 1066 024d 48010000 		.4byte	0x148
 1067 0251 04       		.uleb128 0x4
 1068 0252 FD070000 		.4byte	.LASF48
 1069 0256 09       		.byte	0x9
 1070 0257 49       		.byte	0x49
 1071 0258 5C020000 		.4byte	0x25c
 1072 025c 06       		.uleb128 0x6
 1073 025d A6060000 		.4byte	.LASF50
 1074 0261 04       		.byte	0x4
 1075 0262 02       		.byte	0x2
 1076 0263 B0       		.byte	0xb0
 1077 0264 75020000 		.4byte	0x275
 1078 0268 07       		.uleb128 0x7
 1079 0269 D3050000 		.4byte	.LASF30
 1080 026d 02       		.byte	0x2
 1081 026e B1       		.byte	0xb1
 1082 026f 4B020000 		.4byte	0x24b
 1083 0273 00       		.byte	0
ARM GAS  /tmp/ccsVS11G.s 			page 20


 1084 0274 00       		.byte	0
 1085 0275 04       		.uleb128 0x4
 1086 0276 16060000 		.4byte	.LASF51
 1087 027a 09       		.byte	0x9
 1088 027b 50       		.byte	0x50
 1089 027c 85020000 		.4byte	0x285
 1090 0280 0B       		.uleb128 0xb
 1091 0281 75020000 		.4byte	0x275
 1092 0285 06       		.uleb128 0x6
 1093 0286 11020000 		.4byte	.LASF52
 1094 028a 08       		.byte	0x8
 1095 028b 02       		.byte	0x2
 1096 028c B7       		.byte	0xb7
 1097 028d AA020000 		.4byte	0x2aa
 1098 0291 07       		.uleb128 0x7
 1099 0292 D3050000 		.4byte	.LASF30
 1100 0296 02       		.byte	0x2
 1101 0297 B8       		.byte	0xb8
 1102 0298 4B020000 		.4byte	0x24b
 1103 029c 00       		.byte	0
 1104 029d 07       		.uleb128 0x7
 1105 029e 70050000 		.4byte	.LASF31
 1106 02a2 02       		.byte	0x2
 1107 02a3 B9       		.byte	0xb9
 1108 02a4 4B020000 		.4byte	0x24b
 1109 02a8 04       		.byte	0x4
 1110 02a9 00       		.byte	0
 1111 02aa 04       		.uleb128 0x4
 1112 02ab 0D000000 		.4byte	.LASF53
 1113 02af 09       		.byte	0x9
 1114 02b0 57       		.byte	0x57
 1115 02b1 B5020000 		.4byte	0x2b5
 1116 02b5 0C       		.uleb128 0xc
 1117 02b6 3D040000 		.4byte	.LASF54
 1118 02ba 1C       		.byte	0x1c
 1119 02bb 02       		.byte	0x2
 1120 02bc 9001     		.2byte	0x190
 1121 02be 11030000 		.4byte	0x311
 1122 02c2 09       		.uleb128 0x9
 1123 02c3 92060000 		.4byte	.LASF55
 1124 02c7 02       		.byte	0x2
 1125 02c8 9101     		.2byte	0x191
 1126 02ca 75020000 		.4byte	0x275
 1127 02ce 00       		.byte	0
 1128 02cf 09       		.uleb128 0x9
 1129 02d0 C5050000 		.4byte	.LASF56
 1130 02d4 02       		.byte	0x2
 1131 02d5 9201     		.2byte	0x192
 1132 02d7 11010000 		.4byte	0x111
 1133 02db 08       		.byte	0x8
 1134 02dc 09       		.uleb128 0x9
 1135 02dd F7040000 		.4byte	.LASF57
 1136 02e1 02       		.byte	0x2
 1137 02e2 9401     		.2byte	0x194
 1138 02e4 90040000 		.4byte	0x490
 1139 02e8 0C       		.byte	0xc
 1140 02e9 09       		.uleb128 0x9
ARM GAS  /tmp/ccsVS11G.s 			page 21


 1141 02ea 37030000 		.4byte	.LASF58
 1142 02ee 02       		.byte	0x2
 1143 02ef 9701     		.2byte	0x197
 1144 02f1 4B020000 		.4byte	0x24b
 1145 02f5 10       		.byte	0x10
 1146 02f6 09       		.uleb128 0x9
 1147 02f7 2A050000 		.4byte	.LASF59
 1148 02fb 02       		.byte	0x2
 1149 02fc 9801     		.2byte	0x198
 1150 02fe 4B020000 		.4byte	0x24b
 1151 0302 14       		.byte	0x14
 1152 0303 09       		.uleb128 0x9
 1153 0304 20050000 		.4byte	.LASF60
 1154 0308 02       		.byte	0x2
 1155 0309 9B01     		.2byte	0x19b
 1156 030b 4B020000 		.4byte	0x24b
 1157 030f 18       		.byte	0x18
 1158 0310 00       		.byte	0
 1159 0311 04       		.uleb128 0x4
 1160 0312 2B070000 		.4byte	.LASF61
 1161 0316 09       		.byte	0x9
 1162 0317 5C       		.byte	0x5c
 1163 0318 1C030000 		.4byte	0x31c
 1164 031c 0A       		.uleb128 0xa
 1165 031d 04       		.byte	0x4
 1166 031e 22030000 		.4byte	0x322
 1167 0322 0D       		.uleb128 0xd
 1168 0323 2D030000 		.4byte	0x32d
 1169 0327 0E       		.uleb128 0xe
 1170 0328 2D030000 		.4byte	0x32d
 1171 032c 00       		.byte	0
 1172 032d 0F       		.uleb128 0xf
 1173 032e 04       		.byte	0x4
 1174 032f 04       		.uleb128 0x4
 1175 0330 60050000 		.4byte	.LASF62
 1176 0334 09       		.byte	0x9
 1177 0335 61       		.byte	0x61
 1178 0336 3A030000 		.4byte	0x33a
 1179 033a 0C       		.uleb128 0xc
 1180 033b 26060000 		.4byte	.LASF63
 1181 033f 14       		.byte	0x14
 1182 0340 02       		.byte	0x2
 1183 0341 6B01     		.2byte	0x16b
 1184 0343 89030000 		.4byte	0x389
 1185 0347 09       		.uleb128 0x9
 1186 0348 AA030000 		.4byte	.LASF64
 1187 034c 02       		.byte	0x2
 1188 034d 6C01     		.2byte	0x16c
 1189 034f EC060000 		.4byte	0x6ec
 1190 0353 00       		.byte	0
 1191 0354 09       		.uleb128 0x9
 1192 0355 48030000 		.4byte	.LASF65
 1193 0359 02       		.byte	0x2
 1194 035a 6D01     		.2byte	0x16d
 1195 035c EC060000 		.4byte	0x6ec
 1196 0360 04       		.byte	0x4
 1197 0361 09       		.uleb128 0x9
ARM GAS  /tmp/ccsVS11G.s 			page 22


 1198 0362 D2030000 		.4byte	.LASF66
 1199 0366 02       		.byte	0x2
 1200 0367 6E01     		.2byte	0x16e
 1201 0369 3D010000 		.4byte	0x13d
 1202 036d 08       		.byte	0x8
 1203 036e 09       		.uleb128 0x9
 1204 036f 6B080000 		.4byte	.LASF67
 1205 0373 02       		.byte	0x2
 1206 0374 6F01     		.2byte	0x16f
 1207 0376 11030000 		.4byte	0x311
 1208 037a 0C       		.byte	0xc
 1209 037b 09       		.uleb128 0x9
 1210 037c 77070000 		.4byte	.LASF68
 1211 0380 02       		.byte	0x2
 1212 0381 7101     		.2byte	0x171
 1213 0383 2D030000 		.4byte	0x32d
 1214 0387 10       		.byte	0x10
 1215 0388 00       		.byte	0
 1216 0389 04       		.uleb128 0x4
 1217 038a B4000000 		.4byte	.LASF69
 1218 038e 09       		.byte	0x9
 1219 038f 66       		.byte	0x66
 1220 0390 94030000 		.4byte	0x394
 1221 0394 0C       		.uleb128 0xc
 1222 0395 9A040000 		.4byte	.LASF70
 1223 0399 10       		.byte	0x10
 1224 039a 02       		.byte	0x2
 1225 039b 7B01     		.2byte	0x17b
 1226 039d D6030000 		.4byte	0x3d6
 1227 03a1 09       		.uleb128 0x9
 1228 03a2 AA030000 		.4byte	.LASF64
 1229 03a6 02       		.byte	0x2
 1230 03a7 7C01     		.2byte	0x17c
 1231 03a9 EC060000 		.4byte	0x6ec
 1232 03ad 00       		.byte	0
 1233 03ae 09       		.uleb128 0x9
 1234 03af 48030000 		.4byte	.LASF65
 1235 03b3 02       		.byte	0x2
 1236 03b4 7E01     		.2byte	0x17e
 1237 03b6 EC060000 		.4byte	0x6ec
 1238 03ba 04       		.byte	0x4
 1239 03bb 09       		.uleb128 0x9
 1240 03bc D2030000 		.4byte	.LASF66
 1241 03c0 02       		.byte	0x2
 1242 03c1 8001     		.2byte	0x180
 1243 03c3 3D010000 		.4byte	0x13d
 1244 03c7 08       		.byte	0x8
 1245 03c8 09       		.uleb128 0x9
 1246 03c9 BE070000 		.4byte	.LASF71
 1247 03cd 02       		.byte	0x2
 1248 03ce 8801     		.2byte	0x188
 1249 03d0 3D010000 		.4byte	0x13d
 1250 03d4 0C       		.byte	0xc
 1251 03d5 00       		.byte	0
 1252 03d6 04       		.uleb128 0x4
 1253 03d7 46000000 		.4byte	.LASF72
 1254 03db 09       		.byte	0x9
ARM GAS  /tmp/ccsVS11G.s 			page 23


 1255 03dc 6B       		.byte	0x6b
 1256 03dd E1030000 		.4byte	0x3e1
 1257 03e1 0C       		.uleb128 0xc
 1258 03e2 50030000 		.4byte	.LASF73
 1259 03e6 04       		.byte	0x4
 1260 03e7 02       		.byte	0x2
 1261 03e8 A201     		.2byte	0x1a2
 1262 03ea FC030000 		.4byte	0x3fc
 1263 03ee 09       		.uleb128 0x9
 1264 03ef 4D070000 		.4byte	.LASF74
 1265 03f3 02       		.byte	0x2
 1266 03f4 AA01     		.2byte	0x1aa
 1267 03f6 DB060000 		.4byte	0x6db
 1268 03fa 00       		.byte	0
 1269 03fb 00       		.byte	0
 1270 03fc 04       		.uleb128 0x4
 1271 03fd 25040000 		.4byte	.LASF75
 1272 0401 09       		.byte	0x9
 1273 0402 70       		.byte	0x70
 1274 0403 07040000 		.4byte	0x407
 1275 0407 10       		.uleb128 0x10
 1276 0408 0C060000 		.4byte	.LASF76
 1277 040c D801     		.2byte	0x1d8
 1278 040e 02       		.byte	0x2
 1279 040f C201     		.2byte	0x1c2
 1280 0411 63040000 		.4byte	0x463
 1281 0415 09       		.uleb128 0x9
 1282 0416 A2070000 		.4byte	.LASF77
 1283 041a 02       		.byte	0x2
 1284 041b C601     		.2byte	0x1c6
 1285 041d AA020000 		.4byte	0x2aa
 1286 0421 00       		.byte	0
 1287 0422 09       		.uleb128 0x9
 1288 0423 92020000 		.4byte	.LASF78
 1289 0427 02       		.byte	0x2
 1290 0428 CA01     		.2byte	0x1ca
 1291 042a 89030000 		.4byte	0x389
 1292 042e 1C       		.byte	0x1c
 1293 042f 08       		.uleb128 0x8
 1294 0430 64626700 		.ascii	"dbg\000"
 1295 0434 02       		.byte	0x2
 1296 0435 CE01     		.2byte	0x1ce
 1297 0437 D6030000 		.4byte	0x3d6
 1298 043b 2C       		.byte	0x2c
 1299 043c 09       		.uleb128 0x9
 1300 043d A9000000 		.4byte	.LASF79
 1301 0441 02       		.byte	0x2
 1302 0442 D201     		.2byte	0x1d2
 1303 0444 48010000 		.4byte	0x148
 1304 0448 30       		.byte	0x30
 1305 0449 08       		.uleb128 0x8
 1306 044a 746D00   		.ascii	"tm\000"
 1307 044d 02       		.byte	0x2
 1308 044e D701     		.2byte	0x1d7
 1309 0450 05060000 		.4byte	0x605
 1310 0454 74       		.byte	0x74
 1311 0455 09       		.uleb128 0x9
ARM GAS  /tmp/ccsVS11G.s 			page 24


 1312 0456 7B030000 		.4byte	.LASF80
 1313 045a 02       		.byte	0x2
 1314 045b E301     		.2byte	0x1e3
 1315 045d F2060000 		.4byte	0x6f2
 1316 0461 78       		.byte	0x78
 1317 0462 00       		.byte	0
 1318 0463 11       		.uleb128 0x11
 1319 0464 CA000000 		.4byte	.LASF81
 1320 0468 0A       		.byte	0xa
 1321 0469 A706     		.2byte	0x6a7
 1322 046b CA000000 		.4byte	0xca
 1323 046f 12       		.uleb128 0x12
 1324 0470 BB030000 		.4byte	.LASF82
 1325 0474 0B       		.byte	0xb
 1326 0475 4C       		.byte	0x4c
 1327 0476 CF000000 		.4byte	0xcf
 1328 047a 04       		.uleb128 0x4
 1329 047b 3F030000 		.4byte	.LASF83
 1330 047f 0C       		.byte	0xc
 1331 0480 65       		.byte	0x65
 1332 0481 2D030000 		.4byte	0x32d
 1333 0485 04       		.uleb128 0x4
 1334 0486 61040000 		.4byte	.LASF84
 1335 048a 0C       		.byte	0xc
 1336 048b 6D       		.byte	0x6d
 1337 048c DA000000 		.4byte	0xda
 1338 0490 06       		.uleb128 0x6
 1339 0491 5E070000 		.4byte	.LASF85
 1340 0495 04       		.byte	0x4
 1341 0496 0C       		.byte	0xc
 1342 0497 89       		.byte	0x89
 1343 0498 A9040000 		.4byte	0x4a9
 1344 049c 13       		.uleb128 0x13
 1345 049d 72313300 		.ascii	"r13\000"
 1346 04a1 0C       		.byte	0xc
 1347 04a2 8A       		.byte	0x8a
 1348 04a3 EA050000 		.4byte	0x5ea
 1349 04a7 00       		.byte	0
 1350 04a8 00       		.byte	0
 1351 04a9 06       		.uleb128 0x6
 1352 04aa 3A000000 		.4byte	.LASF86
 1353 04ae 64       		.byte	0x64
 1354 04af 0D       		.byte	0xd
 1355 04b0 F4       		.byte	0xf4
 1356 04b1 EA050000 		.4byte	0x5ea
 1357 04b5 13       		.uleb128 0x13
 1358 04b6 73313600 		.ascii	"s16\000"
 1359 04ba 0D       		.byte	0xd
 1360 04bb F6       		.byte	0xf6
 1361 04bc 7A040000 		.4byte	0x47a
 1362 04c0 00       		.byte	0
 1363 04c1 13       		.uleb128 0x13
 1364 04c2 73313700 		.ascii	"s17\000"
 1365 04c6 0D       		.byte	0xd
 1366 04c7 F7       		.byte	0xf7
 1367 04c8 7A040000 		.4byte	0x47a
 1368 04cc 04       		.byte	0x4
ARM GAS  /tmp/ccsVS11G.s 			page 25


 1369 04cd 13       		.uleb128 0x13
 1370 04ce 73313800 		.ascii	"s18\000"
 1371 04d2 0D       		.byte	0xd
 1372 04d3 F8       		.byte	0xf8
 1373 04d4 7A040000 		.4byte	0x47a
 1374 04d8 08       		.byte	0x8
 1375 04d9 13       		.uleb128 0x13
 1376 04da 73313900 		.ascii	"s19\000"
 1377 04de 0D       		.byte	0xd
 1378 04df F9       		.byte	0xf9
 1379 04e0 7A040000 		.4byte	0x47a
 1380 04e4 0C       		.byte	0xc
 1381 04e5 13       		.uleb128 0x13
 1382 04e6 73323000 		.ascii	"s20\000"
 1383 04ea 0D       		.byte	0xd
 1384 04eb FA       		.byte	0xfa
 1385 04ec 7A040000 		.4byte	0x47a
 1386 04f0 10       		.byte	0x10
 1387 04f1 13       		.uleb128 0x13
 1388 04f2 73323100 		.ascii	"s21\000"
 1389 04f6 0D       		.byte	0xd
 1390 04f7 FB       		.byte	0xfb
 1391 04f8 7A040000 		.4byte	0x47a
 1392 04fc 14       		.byte	0x14
 1393 04fd 13       		.uleb128 0x13
 1394 04fe 73323200 		.ascii	"s22\000"
 1395 0502 0D       		.byte	0xd
 1396 0503 FC       		.byte	0xfc
 1397 0504 7A040000 		.4byte	0x47a
 1398 0508 18       		.byte	0x18
 1399 0509 13       		.uleb128 0x13
 1400 050a 73323300 		.ascii	"s23\000"
 1401 050e 0D       		.byte	0xd
 1402 050f FD       		.byte	0xfd
 1403 0510 7A040000 		.4byte	0x47a
 1404 0514 1C       		.byte	0x1c
 1405 0515 13       		.uleb128 0x13
 1406 0516 73323400 		.ascii	"s24\000"
 1407 051a 0D       		.byte	0xd
 1408 051b FE       		.byte	0xfe
 1409 051c 7A040000 		.4byte	0x47a
 1410 0520 20       		.byte	0x20
 1411 0521 13       		.uleb128 0x13
 1412 0522 73323500 		.ascii	"s25\000"
 1413 0526 0D       		.byte	0xd
 1414 0527 FF       		.byte	0xff
 1415 0528 7A040000 		.4byte	0x47a
 1416 052c 24       		.byte	0x24
 1417 052d 08       		.uleb128 0x8
 1418 052e 73323600 		.ascii	"s26\000"
 1419 0532 0D       		.byte	0xd
 1420 0533 0001     		.2byte	0x100
 1421 0535 7A040000 		.4byte	0x47a
 1422 0539 28       		.byte	0x28
 1423 053a 08       		.uleb128 0x8
 1424 053b 73323700 		.ascii	"s27\000"
 1425 053f 0D       		.byte	0xd
ARM GAS  /tmp/ccsVS11G.s 			page 26


 1426 0540 0101     		.2byte	0x101
 1427 0542 7A040000 		.4byte	0x47a
 1428 0546 2C       		.byte	0x2c
 1429 0547 08       		.uleb128 0x8
 1430 0548 73323800 		.ascii	"s28\000"
 1431 054c 0D       		.byte	0xd
 1432 054d 0201     		.2byte	0x102
 1433 054f 7A040000 		.4byte	0x47a
 1434 0553 30       		.byte	0x30
 1435 0554 08       		.uleb128 0x8
 1436 0555 73323900 		.ascii	"s29\000"
 1437 0559 0D       		.byte	0xd
 1438 055a 0301     		.2byte	0x103
 1439 055c 7A040000 		.4byte	0x47a
 1440 0560 34       		.byte	0x34
 1441 0561 08       		.uleb128 0x8
 1442 0562 73333000 		.ascii	"s30\000"
 1443 0566 0D       		.byte	0xd
 1444 0567 0401     		.2byte	0x104
 1445 0569 7A040000 		.4byte	0x47a
 1446 056d 38       		.byte	0x38
 1447 056e 08       		.uleb128 0x8
 1448 056f 73333100 		.ascii	"s31\000"
 1449 0573 0D       		.byte	0xd
 1450 0574 0501     		.2byte	0x105
 1451 0576 7A040000 		.4byte	0x47a
 1452 057a 3C       		.byte	0x3c
 1453 057b 08       		.uleb128 0x8
 1454 057c 723400   		.ascii	"r4\000"
 1455 057f 0D       		.byte	0xd
 1456 0580 0701     		.2byte	0x107
 1457 0582 7A040000 		.4byte	0x47a
 1458 0586 40       		.byte	0x40
 1459 0587 08       		.uleb128 0x8
 1460 0588 723500   		.ascii	"r5\000"
 1461 058b 0D       		.byte	0xd
 1462 058c 0801     		.2byte	0x108
 1463 058e 7A040000 		.4byte	0x47a
 1464 0592 44       		.byte	0x44
 1465 0593 08       		.uleb128 0x8
 1466 0594 723600   		.ascii	"r6\000"
 1467 0597 0D       		.byte	0xd
 1468 0598 0901     		.2byte	0x109
 1469 059a 7A040000 		.4byte	0x47a
 1470 059e 48       		.byte	0x48
 1471 059f 08       		.uleb128 0x8
 1472 05a0 723700   		.ascii	"r7\000"
 1473 05a3 0D       		.byte	0xd
 1474 05a4 0A01     		.2byte	0x10a
 1475 05a6 7A040000 		.4byte	0x47a
 1476 05aa 4C       		.byte	0x4c
 1477 05ab 08       		.uleb128 0x8
 1478 05ac 723800   		.ascii	"r8\000"
 1479 05af 0D       		.byte	0xd
 1480 05b0 0B01     		.2byte	0x10b
 1481 05b2 7A040000 		.4byte	0x47a
 1482 05b6 50       		.byte	0x50
ARM GAS  /tmp/ccsVS11G.s 			page 27


 1483 05b7 08       		.uleb128 0x8
 1484 05b8 723900   		.ascii	"r9\000"
 1485 05bb 0D       		.byte	0xd
 1486 05bc 0C01     		.2byte	0x10c
 1487 05be 7A040000 		.4byte	0x47a
 1488 05c2 54       		.byte	0x54
 1489 05c3 08       		.uleb128 0x8
 1490 05c4 72313000 		.ascii	"r10\000"
 1491 05c8 0D       		.byte	0xd
 1492 05c9 0D01     		.2byte	0x10d
 1493 05cb 7A040000 		.4byte	0x47a
 1494 05cf 58       		.byte	0x58
 1495 05d0 08       		.uleb128 0x8
 1496 05d1 72313100 		.ascii	"r11\000"
 1497 05d5 0D       		.byte	0xd
 1498 05d6 0E01     		.2byte	0x10e
 1499 05d8 7A040000 		.4byte	0x47a
 1500 05dc 5C       		.byte	0x5c
 1501 05dd 08       		.uleb128 0x8
 1502 05de 6C7200   		.ascii	"lr\000"
 1503 05e1 0D       		.byte	0xd
 1504 05e2 0F01     		.2byte	0x10f
 1505 05e4 7A040000 		.4byte	0x47a
 1506 05e8 60       		.byte	0x60
 1507 05e9 00       		.byte	0
 1508 05ea 0A       		.uleb128 0xa
 1509 05eb 04       		.byte	0x4
 1510 05ec A9040000 		.4byte	0x4a9
 1511 05f0 14       		.uleb128 0x14
 1512 05f1 04       		.byte	0x4
 1513 05f2 0E       		.byte	0xe
 1514 05f3 38       		.byte	0x38
 1515 05f4 05060000 		.4byte	0x605
 1516 05f8 07       		.uleb128 0x7
 1517 05f9 57070000 		.4byte	.LASF87
 1518 05fd 0E       		.byte	0xe
 1519 05fe 3C       		.byte	0x3c
 1520 05ff E5000000 		.4byte	0xe5
 1521 0603 00       		.byte	0
 1522 0604 00       		.byte	0
 1523 0605 04       		.uleb128 0x4
 1524 0606 03050000 		.4byte	.LASF88
 1525 060a 0E       		.byte	0xe
 1526 060b 3D       		.byte	0x3d
 1527 060c F0050000 		.4byte	0x5f0
 1528 0610 15       		.uleb128 0x15
 1529 0611 04       		.byte	0x4
 1530 0612 02       		.byte	0x2
 1531 0613 FA       		.byte	0xfa
 1532 0614 6D060000 		.4byte	0x66d
 1533 0618 16       		.uleb128 0x16
 1534 0619 20000000 		.4byte	.LASF89
 1535 061d 02       		.byte	0x2
 1536 061e 0101     		.2byte	0x101
 1537 0620 1C010000 		.4byte	0x11c
 1538 0624 16       		.uleb128 0x16
 1539 0625 A0000000 		.4byte	.LASF90
ARM GAS  /tmp/ccsVS11G.s 			page 28


 1540 0629 02       		.byte	0x2
 1541 062a 0801     		.2byte	0x108
 1542 062c 1C010000 		.4byte	0x11c
 1543 0630 16       		.uleb128 0x16
 1544 0631 DD070000 		.4byte	.LASF91
 1545 0635 02       		.byte	0x2
 1546 0636 0F01     		.2byte	0x10f
 1547 0638 2D030000 		.4byte	0x32d
 1548 063c 16       		.uleb128 0x16
 1549 063d 1A000000 		.4byte	.LASF92
 1550 0641 02       		.byte	0x2
 1551 0642 1601     		.2byte	0x116
 1552 0644 6D060000 		.4byte	0x66d
 1553 0648 16       		.uleb128 0x16
 1554 0649 CB030000 		.4byte	.LASF93
 1555 064d 02       		.byte	0x2
 1556 064e 1E01     		.2byte	0x11e
 1557 0650 98060000 		.4byte	0x698
 1558 0654 16       		.uleb128 0x16
 1559 0655 D5060000 		.4byte	.LASF94
 1560 0659 02       		.byte	0x2
 1561 065a 2701     		.2byte	0x127
 1562 065c CF060000 		.4byte	0x6cf
 1563 0660 16       		.uleb128 0x16
 1564 0661 CC050000 		.4byte	.LASF95
 1565 0665 02       		.byte	0x2
 1566 0666 2F01     		.2byte	0x12f
 1567 0668 27010000 		.4byte	0x127
 1568 066c 00       		.byte	0
 1569 066d 0A       		.uleb128 0xa
 1570 066e 04       		.byte	0x4
 1571 066f 40020000 		.4byte	0x240
 1572 0673 06       		.uleb128 0x6
 1573 0674 44060000 		.4byte	.LASF96
 1574 0678 0C       		.byte	0xc
 1575 0679 0F       		.byte	0xf
 1576 067a 34       		.byte	0x34
 1577 067b 98060000 		.4byte	0x698
 1578 067f 07       		.uleb128 0x7
 1579 0680 1E030000 		.4byte	.LASF97
 1580 0684 0F       		.byte	0xf
 1581 0685 35       		.byte	0x35
 1582 0686 75020000 		.4byte	0x275
 1583 068a 00       		.byte	0
 1584 068b 07       		.uleb128 0x7
 1585 068c EF030000 		.4byte	.LASF98
 1586 0690 0F       		.byte	0xf
 1587 0691 37       		.byte	0x37
 1588 0692 32010000 		.4byte	0x132
 1589 0696 08       		.byte	0x8
 1590 0697 00       		.byte	0
 1591 0698 0A       		.uleb128 0xa
 1592 0699 04       		.byte	0x4
 1593 069a 73060000 		.4byte	0x673
 1594 069e 06       		.uleb128 0x6
 1595 069f 89070000 		.4byte	.LASF99
 1596 06a3 10       		.byte	0x10
ARM GAS  /tmp/ccsVS11G.s 			page 29


 1597 06a4 04       		.byte	0x4
 1598 06a5 39       		.byte	0x39
 1599 06a6 CF060000 		.4byte	0x6cf
 1600 06aa 07       		.uleb128 0x7
 1601 06ab 8A020000 		.4byte	.LASF100
 1602 06af 04       		.byte	0x4
 1603 06b0 3A       		.byte	0x3a
 1604 06b1 75020000 		.4byte	0x275
 1605 06b5 00       		.byte	0
 1606 06b6 07       		.uleb128 0x7
 1607 06b7 55080000 		.4byte	.LASF101
 1608 06bb 04       		.byte	0x4
 1609 06bc 3C       		.byte	0x3c
 1610 06bd 4B020000 		.4byte	0x24b
 1611 06c1 08       		.byte	0x8
 1612 06c2 07       		.uleb128 0x7
 1613 06c3 14050000 		.4byte	.LASF102
 1614 06c7 04       		.byte	0x4
 1615 06c8 3E       		.byte	0x3e
 1616 06c9 24080000 		.4byte	0x824
 1617 06cd 0C       		.byte	0xc
 1618 06ce 00       		.byte	0
 1619 06cf 0A       		.uleb128 0xa
 1620 06d0 04       		.byte	0x4
 1621 06d1 9E060000 		.4byte	0x69e
 1622 06d5 0A       		.uleb128 0xa
 1623 06d6 04       		.byte	0x4
 1624 06d7 E7060000 		.4byte	0x6e7
 1625 06db 05       		.uleb128 0x5
 1626 06dc D5060000 		.4byte	0x6d5
 1627 06e0 03       		.uleb128 0x3
 1628 06e1 01       		.byte	0x1
 1629 06e2 08       		.byte	0x8
 1630 06e3 D0060000 		.4byte	.LASF103
 1631 06e7 0B       		.uleb128 0xb
 1632 06e8 E0060000 		.4byte	0x6e0
 1633 06ec 0A       		.uleb128 0xa
 1634 06ed 04       		.byte	0x4
 1635 06ee 2F030000 		.4byte	0x32f
 1636 06f2 17       		.uleb128 0x17
 1637 06f3 85040000 		.4byte	0x485
 1638 06f7 02070000 		.4byte	0x702
 1639 06fb 18       		.uleb128 0x18
 1640 06fc 2C000000 		.4byte	0x2c
 1641 0700 2B       		.byte	0x2b
 1642 0701 00       		.byte	0
 1643 0702 19       		.uleb128 0x19
 1644 0703 636800   		.ascii	"ch\000"
 1645 0706 02       		.byte	0x2
 1646 0707 0902     		.2byte	0x209
 1647 0709 FC030000 		.4byte	0x3fc
 1648 070d 14       		.uleb128 0x14
 1649 070e 16       		.byte	0x16
 1650 070f 10       		.byte	0x10
 1651 0710 34       		.byte	0x34
 1652 0711 EE070000 		.4byte	0x7ee
 1653 0715 07       		.uleb128 0x7
ARM GAS  /tmp/ccsVS11G.s 			page 30


 1654 0716 5D080000 		.4byte	.LASF104
 1655 071a 10       		.byte	0x10
 1656 071b 35       		.byte	0x35
 1657 071c EE070000 		.4byte	0x7ee
 1658 0720 00       		.byte	0
 1659 0721 07       		.uleb128 0x7
 1660 0722 74040000 		.4byte	.LASF105
 1661 0726 10       		.byte	0x10
 1662 0727 36       		.byte	0x36
 1663 0728 A9000000 		.4byte	0xa9
 1664 072c 04       		.byte	0x4
 1665 072d 07       		.uleb128 0x7
 1666 072e B6060000 		.4byte	.LASF106
 1667 0732 10       		.byte	0x10
 1668 0733 37       		.byte	0x37
 1669 0734 A9000000 		.4byte	0xa9
 1670 0738 05       		.byte	0x5
 1671 0739 07       		.uleb128 0x7
 1672 073a 2D080000 		.4byte	.LASF107
 1673 073e 10       		.byte	0x10
 1674 073f 38       		.byte	0x38
 1675 0740 B4000000 		.4byte	0xb4
 1676 0744 06       		.byte	0x6
 1677 0745 07       		.uleb128 0x7
 1678 0746 55050000 		.4byte	.LASF108
 1679 074a 10       		.byte	0x10
 1680 074b 39       		.byte	0x39
 1681 074c A9000000 		.4byte	0xa9
 1682 0750 08       		.byte	0x8
 1683 0751 07       		.uleb128 0x7
 1684 0752 D7040000 		.4byte	.LASF109
 1685 0756 10       		.byte	0x10
 1686 0757 3A       		.byte	0x3a
 1687 0758 A9000000 		.4byte	0xa9
 1688 075c 09       		.byte	0x9
 1689 075d 07       		.uleb128 0x7
 1690 075e 92000000 		.4byte	.LASF110
 1691 0762 10       		.byte	0x10
 1692 0763 3B       		.byte	0x3b
 1693 0764 A9000000 		.4byte	0xa9
 1694 0768 0A       		.byte	0xa
 1695 0769 07       		.uleb128 0x7
 1696 076a 86060000 		.4byte	.LASF111
 1697 076e 10       		.byte	0x10
 1698 076f 3C       		.byte	0x3c
 1699 0770 A9000000 		.4byte	0xa9
 1700 0774 0B       		.byte	0xb
 1701 0775 07       		.uleb128 0x7
 1702 0776 7E070000 		.4byte	.LASF112
 1703 077a 10       		.byte	0x10
 1704 077b 3D       		.byte	0x3d
 1705 077c A9000000 		.4byte	0xa9
 1706 0780 0C       		.byte	0xc
 1707 0781 07       		.uleb128 0x7
 1708 0782 37060000 		.4byte	.LASF113
 1709 0786 10       		.byte	0x10
 1710 0787 3E       		.byte	0x3e
ARM GAS  /tmp/ccsVS11G.s 			page 31


 1711 0788 A9000000 		.4byte	0xa9
 1712 078c 0D       		.byte	0xd
 1713 078d 07       		.uleb128 0x7
 1714 078e 00000000 		.4byte	.LASF114
 1715 0792 10       		.byte	0x10
 1716 0793 3F       		.byte	0x3f
 1717 0794 A9000000 		.4byte	0xa9
 1718 0798 0E       		.byte	0xe
 1719 0799 07       		.uleb128 0x7
 1720 079a E3040000 		.4byte	.LASF115
 1721 079e 10       		.byte	0x10
 1722 079f 40       		.byte	0x40
 1723 07a0 A9000000 		.4byte	0xa9
 1724 07a4 0F       		.byte	0xf
 1725 07a5 07       		.uleb128 0x7
 1726 07a6 65020000 		.4byte	.LASF116
 1727 07aa 10       		.byte	0x10
 1728 07ab 41       		.byte	0x41
 1729 07ac A9000000 		.4byte	0xa9
 1730 07b0 10       		.byte	0x10
 1731 07b1 07       		.uleb128 0x7
 1732 07b2 29020000 		.4byte	.LASF117
 1733 07b6 10       		.byte	0x10
 1734 07b7 43       		.byte	0x43
 1735 07b8 A9000000 		.4byte	0xa9
 1736 07bc 11       		.byte	0x11
 1737 07bd 07       		.uleb128 0x7
 1738 07be 75020000 		.4byte	.LASF118
 1739 07c2 10       		.byte	0x10
 1740 07c3 44       		.byte	0x44
 1741 07c4 A9000000 		.4byte	0xa9
 1742 07c8 12       		.byte	0x12
 1743 07c9 07       		.uleb128 0x7
 1744 07ca 7C040000 		.4byte	.LASF119
 1745 07ce 10       		.byte	0x10
 1746 07cf 45       		.byte	0x45
 1747 07d0 A9000000 		.4byte	0xa9
 1748 07d4 13       		.byte	0x13
 1749 07d5 07       		.uleb128 0x7
 1750 07d6 E2050000 		.4byte	.LASF120
 1751 07da 10       		.byte	0x10
 1752 07db 46       		.byte	0x46
 1753 07dc A9000000 		.4byte	0xa9
 1754 07e0 14       		.byte	0x14
 1755 07e1 07       		.uleb128 0x7
 1756 07e2 31040000 		.4byte	.LASF121
 1757 07e6 10       		.byte	0x10
 1758 07e7 48       		.byte	0x48
 1759 07e8 A9000000 		.4byte	0xa9
 1760 07ec 15       		.byte	0x15
 1761 07ed 00       		.byte	0
 1762 07ee 17       		.uleb128 0x17
 1763 07ef E0060000 		.4byte	0x6e0
 1764 07f3 FE070000 		.4byte	0x7fe
 1765 07f7 18       		.uleb128 0x18
 1766 07f8 2C000000 		.4byte	0x2c
 1767 07fc 03       		.byte	0x3
ARM GAS  /tmp/ccsVS11G.s 			page 32


 1768 07fd 00       		.byte	0
 1769 07fe 04       		.uleb128 0x4
 1770 07ff 0C030000 		.4byte	.LASF122
 1771 0803 10       		.byte	0x10
 1772 0804 49       		.byte	0x49
 1773 0805 0D070000 		.4byte	0x70d
 1774 0809 0B       		.uleb128 0xb
 1775 080a FE070000 		.4byte	0x7fe
 1776 080e 12       		.uleb128 0x12
 1777 080f E6030000 		.4byte	.LASF123
 1778 0813 10       		.byte	0x10
 1779 0814 6E       		.byte	0x6e
 1780 0815 09080000 		.4byte	0x809
 1781 0819 04       		.uleb128 0x4
 1782 081a 60030000 		.4byte	.LASF124
 1783 081e 04       		.byte	0x4
 1784 081f 34       		.byte	0x34
 1785 0820 9E060000 		.4byte	0x69e
 1786 0824 0A       		.uleb128 0xa
 1787 0825 04       		.byte	0x4
 1788 0826 19080000 		.4byte	0x819
 1789 082a 06       		.uleb128 0x6
 1790 082b B1040000 		.4byte	.LASF125
 1791 082f 08       		.byte	0x8
 1792 0830 11       		.byte	0x11
 1793 0831 3B       		.byte	0x3b
 1794 0832 43080000 		.4byte	0x843
 1795 0836 07       		.uleb128 0x7
 1796 0837 6C040000 		.4byte	.LASF126
 1797 083b 11       		.byte	0x11
 1798 083c 3C       		.byte	0x3c
 1799 083d 75020000 		.4byte	0x275
 1800 0841 00       		.byte	0
 1801 0842 00       		.byte	0
 1802 0843 04       		.uleb128 0x4
 1803 0844 50020000 		.4byte	.LASF127
 1804 0848 11       		.byte	0x11
 1805 0849 3E       		.byte	0x3e
 1806 084a 2A080000 		.4byte	0x82a
 1807 084e 1A       		.uleb128 0x1a
 1808 084f C4040000 		.4byte	.LASF129
 1809 0853 01       		.byte	0x1
 1810 0854 2801     		.2byte	0x128
 1811 0856 1C010000 		.4byte	0x11c
 1812 085a 00000000 		.4byte	.LFB237
 1813 085e 58000000 		.4byte	.LFE237-.LFB237
 1814 0862 01       		.uleb128 0x1
 1815 0863 9C       		.byte	0x9c
 1816 0864 43090000 		.4byte	0x943
 1817 0868 1B       		.uleb128 0x1b
 1818 0869 637000   		.ascii	"cp\000"
 1819 086c 01       		.byte	0x1
 1820 086d 2801     		.2byte	0x128
 1821 086f 43090000 		.4byte	0x943
 1822 0873 00000000 		.4byte	.LLST30
 1823 0877 1C       		.uleb128 0x1c
 1824 0878 1B050000 		.4byte	.LASF128
ARM GAS  /tmp/ccsVS11G.s 			page 33


 1825 087c 01       		.byte	0x1
 1826 087d 2801     		.2byte	0x128
 1827 087f 3D010000 		.4byte	0x13d
 1828 0883 1E000000 		.4byte	.LLST31
 1829 0887 1D       		.uleb128 0x1d
 1830 0888 6D7000   		.ascii	"mp\000"
 1831 088b 01       		.byte	0x1
 1832 088c 2901     		.2byte	0x129
 1833 088e 24080000 		.4byte	0x824
 1834 0892 1E       		.uleb128 0x1e
 1835 0893 6D736700 		.ascii	"msg\000"
 1836 0897 01       		.byte	0x1
 1837 0898 2A01     		.2byte	0x12a
 1838 089a 1C010000 		.4byte	0x11c
 1839 089e 3C000000 		.4byte	.LLST32
 1840 08a2 1F       		.uleb128 0x1f
 1841 08a3 F9050000 		.4byte	.LASF132
 1842 08a7 59090000 		.4byte	0x959
 1843 08ab 20       		.uleb128 0x20
 1844 08ac 740F0000 		.4byte	0xf74
 1845 08b0 04000000 		.4byte	.LBB155
 1846 08b4 06000000 		.4byte	.LBE155-.LBB155
 1847 08b8 01       		.byte	0x1
 1848 08b9 3101     		.2byte	0x131
 1849 08bb CF080000 		.4byte	0x8cf
 1850 08bf 21       		.uleb128 0x21
 1851 08c0 800F0000 		.4byte	0xf80
 1852 08c4 04000000 		.4byte	.LBB157
 1853 08c8 02000000 		.4byte	.LBE157-.LBB157
 1854 08cc 04       		.byte	0x4
 1855 08cd 92       		.byte	0x92
 1856 08ce 00       		.byte	0
 1857 08cf 22       		.uleb128 0x22
 1858 08d0 DF0F0000 		.4byte	0xfdf
 1859 08d4 1E000000 		.4byte	.LBB159
 1860 08d8 98000000 		.4byte	.Ldebug_ranges0+0x98
 1861 08dc 01       		.byte	0x1
 1862 08dd 3701     		.2byte	0x137
 1863 08df 05090000 		.4byte	0x905
 1864 08e3 23       		.uleb128 0x23
 1865 08e4 F70F0000 		.4byte	0xff7
 1866 08e8 5A000000 		.4byte	.LLST33
 1867 08ec 23       		.uleb128 0x23
 1868 08ed EC0F0000 		.4byte	0xfec
 1869 08f1 78000000 		.4byte	.LLST34
 1870 08f5 24       		.uleb128 0x24
 1871 08f6 98000000 		.4byte	.Ldebug_ranges0+0x98
 1872 08fa 25       		.uleb128 0x25
 1873 08fb 03100000 		.4byte	0x1003
 1874 08ff 96000000 		.4byte	.LLST35
 1875 0903 00       		.byte	0
 1876 0904 00       		.byte	0
 1877 0905 26       		.uleb128 0x26
 1878 0906 14000000 		.4byte	.LVL51
 1879 090a EF100000 		.4byte	0x10ef
 1880 090e 19090000 		.4byte	0x919
 1881 0912 27       		.uleb128 0x27
ARM GAS  /tmp/ccsVS11G.s 			page 34


 1882 0913 01       		.uleb128 0x1
 1883 0914 50       		.byte	0x50
 1884 0915 02       		.uleb128 0x2
 1885 0916 77       		.byte	0x77
 1886 0917 00       		.sleb128 0
 1887 0918 00       		.byte	0
 1888 0919 26       		.uleb128 0x26
 1889 091a 3E000000 		.4byte	.LVL58
 1890 091e FA100000 		.4byte	0x10fa
 1891 0922 32090000 		.4byte	0x932
 1892 0926 27       		.uleb128 0x27
 1893 0927 01       		.uleb128 0x1
 1894 0928 50       		.byte	0x50
 1895 0929 01       		.uleb128 0x1
 1896 092a 37       		.byte	0x37
 1897 092b 27       		.uleb128 0x27
 1898 092c 01       		.uleb128 0x1
 1899 092d 51       		.byte	0x51
 1900 092e 02       		.uleb128 0x2
 1901 092f 78       		.byte	0x78
 1902 0930 00       		.sleb128 0
 1903 0931 00       		.byte	0
 1904 0932 28       		.uleb128 0x28
 1905 0933 4A000000 		.4byte	.LVL61
 1906 0937 06110000 		.4byte	0x1106
 1907 093b 27       		.uleb128 0x27
 1908 093c 01       		.uleb128 0x1
 1909 093d 50       		.byte	0x50
 1910 093e 02       		.uleb128 0x2
 1911 093f 77       		.byte	0x77
 1912 0940 00       		.sleb128 0
 1913 0941 00       		.byte	0
 1914 0942 00       		.byte	0
 1915 0943 0A       		.uleb128 0xa
 1916 0944 04       		.byte	0x4
 1917 0945 43080000 		.4byte	0x843
 1918 0949 17       		.uleb128 0x17
 1919 094a E7060000 		.4byte	0x6e7
 1920 094e 59090000 		.4byte	0x959
 1921 0952 18       		.uleb128 0x18
 1922 0953 2C000000 		.4byte	0x2c
 1923 0957 12       		.byte	0x12
 1924 0958 00       		.byte	0
 1925 0959 0B       		.uleb128 0xb
 1926 095a 49090000 		.4byte	0x949
 1927 095e 1A       		.uleb128 0x1a
 1928 095f EB070000 		.4byte	.LASF130
 1929 0963 01       		.byte	0x1
 1930 0964 0201     		.2byte	0x102
 1931 0966 1C010000 		.4byte	0x11c
 1932 096a 00000000 		.4byte	.LFB236
 1933 096e 14000000 		.4byte	.LFE236-.LFB236
 1934 0972 01       		.uleb128 0x1
 1935 0973 9C       		.byte	0x9c
 1936 0974 480A0000 		.4byte	0xa48
 1937 0978 1B       		.uleb128 0x1b
 1938 0979 637000   		.ascii	"cp\000"
ARM GAS  /tmp/ccsVS11G.s 			page 35


 1939 097c 01       		.byte	0x1
 1940 097d 0201     		.2byte	0x102
 1941 097f 43090000 		.4byte	0x943
 1942 0983 B4000000 		.4byte	.LLST36
 1943 0987 1C       		.uleb128 0x1c
 1944 0988 1B050000 		.4byte	.LASF128
 1945 098c 01       		.byte	0x1
 1946 098d 0201     		.2byte	0x102
 1947 098f 3D010000 		.4byte	0x13d
 1948 0993 D5000000 		.4byte	.LLST37
 1949 0997 29       		.uleb128 0x29
 1950 0998 6D736700 		.ascii	"msg\000"
 1951 099c 01       		.byte	0x1
 1952 099d 0301     		.2byte	0x103
 1953 099f 1C010000 		.4byte	0x11c
 1954 09a3 01       		.uleb128 0x1
 1955 09a4 50       		.byte	0x50
 1956 09a5 20       		.uleb128 0x20
 1957 09a6 A70F0000 		.4byte	0xfa7
 1958 09aa 02000000 		.4byte	.LBB167
 1959 09ae 06000000 		.4byte	.LBE167-.LBB167
 1960 09b2 01       		.byte	0x1
 1961 09b3 0501     		.2byte	0x105
 1962 09b5 E5090000 		.4byte	0x9e5
 1963 09b9 2A       		.uleb128 0x2a
 1964 09ba 5D100000 		.4byte	0x105d
 1965 09be 02000000 		.4byte	.LBB168
 1966 09c2 06000000 		.4byte	.LBE168-.LBB168
 1967 09c6 12       		.byte	0x12
 1968 09c7 5C01     		.2byte	0x15c
 1969 09c9 2A       		.uleb128 0x2a
 1970 09ca 66100000 		.4byte	0x1066
 1971 09ce 02000000 		.4byte	.LBB169
 1972 09d2 06000000 		.4byte	.LBE169-.LBB169
 1973 09d6 0D       		.byte	0xd
 1974 09d7 BF01     		.2byte	0x1bf
 1975 09d9 23       		.uleb128 0x23
 1976 09da 73100000 		.4byte	0x1073
 1977 09de F6000000 		.4byte	.LLST38
 1978 09e2 00       		.byte	0
 1979 09e3 00       		.byte	0
 1980 09e4 00       		.byte	0
 1981 09e5 20       		.uleb128 0x20
 1982 09e6 8C0F0000 		.4byte	0xf8c
 1983 09ea 0C000000 		.4byte	.LBB171
 1984 09ee 06000000 		.4byte	.LBE171-.LBB171
 1985 09f2 01       		.byte	0x1
 1986 09f3 0701     		.2byte	0x107
 1987 09f5 2F0A0000 		.4byte	0xa2f
 1988 09f9 2B       		.uleb128 0x2b
 1989 09fa 0C000000 		.4byte	.LBB172
 1990 09fe 06000000 		.4byte	.LBE172-.LBB172
 1991 0a02 2A       		.uleb128 0x2a
 1992 0a03 54100000 		.4byte	0x1054
 1993 0a07 0C000000 		.4byte	.LBB173
 1994 0a0b 06000000 		.4byte	.LBE173-.LBB173
 1995 0a0f 12       		.byte	0x12
ARM GAS  /tmp/ccsVS11G.s 			page 36


 1996 0a10 7301     		.2byte	0x173
 1997 0a12 2A       		.uleb128 0x2a
 1998 0a13 66100000 		.4byte	0x1066
 1999 0a17 0C000000 		.4byte	.LBB174
 2000 0a1b 06000000 		.4byte	.LBE174-.LBB174
 2001 0a1f 0D       		.byte	0xd
 2002 0a20 CD01     		.2byte	0x1cd
 2003 0a22 23       		.uleb128 0x23
 2004 0a23 73100000 		.4byte	0x1073
 2005 0a27 0B010000 		.4byte	.LLST39
 2006 0a2b 00       		.byte	0
 2007 0a2c 00       		.byte	0
 2008 0a2d 00       		.byte	0
 2009 0a2e 00       		.byte	0
 2010 0a2f 28       		.uleb128 0x28
 2011 0a30 0C000000 		.4byte	.LVL65
 2012 0a34 4E080000 		.4byte	0x84e
 2013 0a38 27       		.uleb128 0x27
 2014 0a39 01       		.uleb128 0x1
 2015 0a3a 50       		.byte	0x50
 2016 0a3b 03       		.uleb128 0x3
 2017 0a3c F3       		.byte	0xf3
 2018 0a3d 01       		.uleb128 0x1
 2019 0a3e 50       		.byte	0x50
 2020 0a3f 27       		.uleb128 0x27
 2021 0a40 01       		.uleb128 0x1
 2022 0a41 51       		.byte	0x51
 2023 0a42 03       		.uleb128 0x3
 2024 0a43 F3       		.byte	0xf3
 2025 0a44 01       		.uleb128 0x1
 2026 0a45 51       		.byte	0x51
 2027 0a46 00       		.byte	0
 2028 0a47 00       		.byte	0
 2029 0a48 2C       		.uleb128 0x2c
 2030 0a49 E8020000 		.4byte	.LASF131
 2031 0a4d 01       		.byte	0x1
 2032 0a4e CD       		.byte	0xcd
 2033 0a4f 1C010000 		.4byte	0x11c
 2034 0a53 00000000 		.4byte	.LFB235
 2035 0a57 4C000000 		.4byte	.LFE235-.LFB235
 2036 0a5b 01       		.uleb128 0x1
 2037 0a5c 9C       		.byte	0x9c
 2038 0a5d 1C0B0000 		.4byte	0xb1c
 2039 0a61 2D       		.uleb128 0x2d
 2040 0a62 637000   		.ascii	"cp\000"
 2041 0a65 01       		.byte	0x1
 2042 0a66 CD       		.byte	0xcd
 2043 0a67 43090000 		.4byte	0x943
 2044 0a6b 1F010000 		.4byte	.LLST21
 2045 0a6f 2E       		.uleb128 0x2e
 2046 0a70 63747000 		.ascii	"ctp\000"
 2047 0a74 01       		.byte	0x1
 2048 0a75 CE       		.byte	0xce
 2049 0a76 4B020000 		.4byte	0x24b
 2050 0a7a 3D010000 		.4byte	.LLST22
 2051 0a7e 2F       		.uleb128 0x2f
 2052 0a7f 6D7000   		.ascii	"mp\000"
ARM GAS  /tmp/ccsVS11G.s 			page 37


 2053 0a82 01       		.byte	0x1
 2054 0a83 CF       		.byte	0xcf
 2055 0a84 24080000 		.4byte	0x824
 2056 0a88 2E       		.uleb128 0x2e
 2057 0a89 6D736700 		.ascii	"msg\000"
 2058 0a8d 01       		.byte	0x1
 2059 0a8e D0       		.byte	0xd0
 2060 0a8f 1C010000 		.4byte	0x11c
 2061 0a93 5B010000 		.4byte	.LLST23
 2062 0a97 1F       		.uleb128 0x1f
 2063 0a98 F9050000 		.4byte	.LASF132
 2064 0a9c 2C0B0000 		.4byte	0xb2c
 2065 0aa0 21       		.uleb128 0x21
 2066 0aa1 740F0000 		.4byte	0xf74
 2067 0aa5 06000000 		.4byte	.LBB138
 2068 0aa9 02000000 		.4byte	.LBE138-.LBB138
 2069 0aad 01       		.byte	0x1
 2070 0aae D7       		.byte	0xd7
 2071 0aaf 30       		.uleb128 0x30
 2072 0ab0 DF0F0000 		.4byte	0xfdf
 2073 0ab4 18000000 		.4byte	.LBB140
 2074 0ab8 78000000 		.4byte	.Ldebug_ranges0+0x78
 2075 0abc 01       		.byte	0x1
 2076 0abd DD       		.byte	0xdd
 2077 0abe E40A0000 		.4byte	0xae4
 2078 0ac2 23       		.uleb128 0x23
 2079 0ac3 F70F0000 		.4byte	0xff7
 2080 0ac7 6E010000 		.4byte	.LLST24
 2081 0acb 23       		.uleb128 0x23
 2082 0acc EC0F0000 		.4byte	0xfec
 2083 0ad0 8C010000 		.4byte	.LLST25
 2084 0ad4 24       		.uleb128 0x24
 2085 0ad5 78000000 		.4byte	.Ldebug_ranges0+0x78
 2086 0ad9 25       		.uleb128 0x25
 2087 0ada 03100000 		.4byte	0x1003
 2088 0ade AA010000 		.4byte	.LLST26
 2089 0ae2 00       		.byte	0
 2090 0ae3 00       		.byte	0
 2091 0ae4 26       		.uleb128 0x26
 2092 0ae5 10000000 		.4byte	.LVL34
 2093 0ae9 EF100000 		.4byte	0x10ef
 2094 0aed F80A0000 		.4byte	0xaf8
 2095 0af1 27       		.uleb128 0x27
 2096 0af2 01       		.uleb128 0x1
 2097 0af3 50       		.byte	0x50
 2098 0af4 02       		.uleb128 0x2
 2099 0af5 77       		.byte	0x77
 2100 0af6 00       		.sleb128 0
 2101 0af7 00       		.byte	0
 2102 0af8 26       		.uleb128 0x26
 2103 0af9 36000000 		.4byte	.LVL41
 2104 0afd 11110000 		.4byte	0x1111
 2105 0b01 0B0B0000 		.4byte	0xb0b
 2106 0b05 27       		.uleb128 0x27
 2107 0b06 01       		.uleb128 0x1
 2108 0b07 50       		.byte	0x50
 2109 0b08 01       		.uleb128 0x1
ARM GAS  /tmp/ccsVS11G.s 			page 38


 2110 0b09 37       		.byte	0x37
 2111 0b0a 00       		.byte	0
 2112 0b0b 28       		.uleb128 0x28
 2113 0b0c 3E000000 		.4byte	.LVL43
 2114 0b10 06110000 		.4byte	0x1106
 2115 0b14 27       		.uleb128 0x27
 2116 0b15 01       		.uleb128 0x1
 2117 0b16 50       		.byte	0x50
 2118 0b17 02       		.uleb128 0x2
 2119 0b18 77       		.byte	0x77
 2120 0b19 00       		.sleb128 0
 2121 0b1a 00       		.byte	0
 2122 0b1b 00       		.byte	0
 2123 0b1c 17       		.uleb128 0x17
 2124 0b1d E7060000 		.4byte	0x6e7
 2125 0b21 2C0B0000 		.4byte	0xb2c
 2126 0b25 18       		.uleb128 0x18
 2127 0b26 2C000000 		.4byte	0x2c
 2128 0b2a 0B       		.byte	0xb
 2129 0b2b 00       		.byte	0
 2130 0b2c 0B       		.uleb128 0xb
 2131 0b2d 1C0B0000 		.4byte	0xb1c
 2132 0b31 2C       		.uleb128 0x2c
 2133 0b32 6C070000 		.4byte	.LASF133
 2134 0b36 01       		.byte	0x1
 2135 0b37 B3       		.byte	0xb3
 2136 0b38 1C010000 		.4byte	0x11c
 2137 0b3c 00000000 		.4byte	.LFB234
 2138 0b40 14000000 		.4byte	.LFE234-.LFB234
 2139 0b44 01       		.uleb128 0x1
 2140 0b45 9C       		.byte	0x9c
 2141 0b46 FF0B0000 		.4byte	0xbff
 2142 0b4a 2D       		.uleb128 0x2d
 2143 0b4b 637000   		.ascii	"cp\000"
 2144 0b4e 01       		.byte	0x1
 2145 0b4f B3       		.byte	0xb3
 2146 0b50 43090000 		.4byte	0x943
 2147 0b54 C8010000 		.4byte	.LLST27
 2148 0b58 31       		.uleb128 0x31
 2149 0b59 6D736700 		.ascii	"msg\000"
 2150 0b5d 01       		.byte	0x1
 2151 0b5e B4       		.byte	0xb4
 2152 0b5f 1C010000 		.4byte	0x11c
 2153 0b63 01       		.uleb128 0x1
 2154 0b64 50       		.byte	0x50
 2155 0b65 32       		.uleb128 0x32
 2156 0b66 A70F0000 		.4byte	0xfa7
 2157 0b6a 02000000 		.4byte	.LBB146
 2158 0b6e 06000000 		.4byte	.LBE146-.LBB146
 2159 0b72 01       		.byte	0x1
 2160 0b73 B6       		.byte	0xb6
 2161 0b74 A40B0000 		.4byte	0xba4
 2162 0b78 2A       		.uleb128 0x2a
 2163 0b79 5D100000 		.4byte	0x105d
 2164 0b7d 02000000 		.4byte	.LBB147
 2165 0b81 06000000 		.4byte	.LBE147-.LBB147
 2166 0b85 12       		.byte	0x12
ARM GAS  /tmp/ccsVS11G.s 			page 39


 2167 0b86 5C01     		.2byte	0x15c
 2168 0b88 2A       		.uleb128 0x2a
 2169 0b89 66100000 		.4byte	0x1066
 2170 0b8d 02000000 		.4byte	.LBB148
 2171 0b91 06000000 		.4byte	.LBE148-.LBB148
 2172 0b95 0D       		.byte	0xd
 2173 0b96 BF01     		.2byte	0x1bf
 2174 0b98 23       		.uleb128 0x23
 2175 0b99 73100000 		.4byte	0x1073
 2176 0b9d E9010000 		.4byte	.LLST28
 2177 0ba1 00       		.byte	0
 2178 0ba2 00       		.byte	0
 2179 0ba3 00       		.byte	0
 2180 0ba4 32       		.uleb128 0x32
 2181 0ba5 8C0F0000 		.4byte	0xf8c
 2182 0ba9 0C000000 		.4byte	.LBB150
 2183 0bad 06000000 		.4byte	.LBE150-.LBB150
 2184 0bb1 01       		.byte	0x1
 2185 0bb2 B8       		.byte	0xb8
 2186 0bb3 ED0B0000 		.4byte	0xbed
 2187 0bb7 2B       		.uleb128 0x2b
 2188 0bb8 0C000000 		.4byte	.LBB151
 2189 0bbc 06000000 		.4byte	.LBE151-.LBB151
 2190 0bc0 2A       		.uleb128 0x2a
 2191 0bc1 54100000 		.4byte	0x1054
 2192 0bc5 0C000000 		.4byte	.LBB152
 2193 0bc9 06000000 		.4byte	.LBE152-.LBB152
 2194 0bcd 12       		.byte	0x12
 2195 0bce 7301     		.2byte	0x173
 2196 0bd0 2A       		.uleb128 0x2a
 2197 0bd1 66100000 		.4byte	0x1066
 2198 0bd5 0C000000 		.4byte	.LBB153
 2199 0bd9 06000000 		.4byte	.LBE153-.LBB153
 2200 0bdd 0D       		.byte	0xd
 2201 0bde CD01     		.2byte	0x1cd
 2202 0be0 23       		.uleb128 0x23
 2203 0be1 73100000 		.4byte	0x1073
 2204 0be5 FE010000 		.4byte	.LLST29
 2205 0be9 00       		.byte	0
 2206 0bea 00       		.byte	0
 2207 0beb 00       		.byte	0
 2208 0bec 00       		.byte	0
 2209 0bed 28       		.uleb128 0x28
 2210 0bee 0C000000 		.4byte	.LVL47
 2211 0bf2 480A0000 		.4byte	0xa48
 2212 0bf6 27       		.uleb128 0x27
 2213 0bf7 01       		.uleb128 0x1
 2214 0bf8 50       		.byte	0x50
 2215 0bf9 03       		.uleb128 0x3
 2216 0bfa F3       		.byte	0xf3
 2217 0bfb 01       		.uleb128 0x1
 2218 0bfc 50       		.byte	0x50
 2219 0bfd 00       		.byte	0
 2220 0bfe 00       		.byte	0
 2221 0bff 33       		.uleb128 0x33
 2222 0c00 6A000000 		.4byte	.LASF140
 2223 0c04 01       		.byte	0x1
ARM GAS  /tmp/ccsVS11G.s 			page 40


 2224 0c05 95       		.byte	0x95
 2225 0c06 01       		.byte	0x1
 2226 0c07 230C0000 		.4byte	0xc23
 2227 0c0b 34       		.uleb128 0x34
 2228 0c0c 637000   		.ascii	"cp\000"
 2229 0c0f 01       		.byte	0x1
 2230 0c10 95       		.byte	0x95
 2231 0c11 43090000 		.4byte	0x943
 2232 0c15 35       		.uleb128 0x35
 2233 0c16 F9050000 		.4byte	.LASF132
 2234 0c1a 330C0000 		.4byte	0xc33
 2235 0c1e 6A000000 		.4byte	.LASF140
 2236 0c22 00       		.byte	0
 2237 0c23 17       		.uleb128 0x17
 2238 0c24 E7060000 		.4byte	0x6e7
 2239 0c28 330C0000 		.4byte	0xc33
 2240 0c2c 18       		.uleb128 0x18
 2241 0c2d 2C000000 		.4byte	0x2c
 2242 0c31 10       		.byte	0x10
 2243 0c32 00       		.byte	0
 2244 0c33 0B       		.uleb128 0xb
 2245 0c34 230C0000 		.4byte	0xc23
 2246 0c38 36       		.uleb128 0x36
 2247 0c39 32050000 		.4byte	.LASF134
 2248 0c3d 01       		.byte	0x1
 2249 0c3e 82       		.byte	0x82
 2250 0c3f 00000000 		.4byte	.LFB232
 2251 0c43 34000000 		.4byte	.LFE232-.LFB232
 2252 0c47 01       		.uleb128 0x1
 2253 0c48 9C       		.byte	0x9c
 2254 0c49 620D0000 		.4byte	0xd62
 2255 0c4d 2D       		.uleb128 0x2d
 2256 0c4e 637000   		.ascii	"cp\000"
 2257 0c51 01       		.byte	0x1
 2258 0c52 82       		.byte	0x82
 2259 0c53 43090000 		.4byte	0x943
 2260 0c57 12020000 		.4byte	.LLST11
 2261 0c5b 32       		.uleb128 0x32
 2262 0c5c A70F0000 		.4byte	0xfa7
 2263 0c60 02000000 		.4byte	.LBB111
 2264 0c64 06000000 		.4byte	.LBE111-.LBB111
 2265 0c68 01       		.byte	0x1
 2266 0c69 84       		.byte	0x84
 2267 0c6a 9A0C0000 		.4byte	0xc9a
 2268 0c6e 2A       		.uleb128 0x2a
 2269 0c6f 5D100000 		.4byte	0x105d
 2270 0c73 02000000 		.4byte	.LBB112
 2271 0c77 06000000 		.4byte	.LBE112-.LBB112
 2272 0c7b 12       		.byte	0x12
 2273 0c7c 5C01     		.2byte	0x15c
 2274 0c7e 2A       		.uleb128 0x2a
 2275 0c7f 66100000 		.4byte	0x1066
 2276 0c83 02000000 		.4byte	.LBB113
 2277 0c87 06000000 		.4byte	.LBE113-.LBB113
 2278 0c8b 0D       		.byte	0xd
 2279 0c8c BF01     		.2byte	0x1bf
 2280 0c8e 23       		.uleb128 0x23
ARM GAS  /tmp/ccsVS11G.s 			page 41


 2281 0c8f 73100000 		.4byte	0x1073
 2282 0c93 3E020000 		.4byte	.LLST12
 2283 0c97 00       		.byte	0
 2284 0c98 00       		.byte	0
 2285 0c99 00       		.byte	0
 2286 0c9a 32       		.uleb128 0x32
 2287 0c9b FF0B0000 		.4byte	0xbff
 2288 0c9f 08000000 		.4byte	.LBB115
 2289 0ca3 20000000 		.4byte	.LBE115-.LBB115
 2290 0ca7 01       		.byte	0x1
 2291 0ca8 85       		.byte	0x85
 2292 0ca9 0F0D0000 		.4byte	0xd0f
 2293 0cad 37       		.uleb128 0x37
 2294 0cae 0B0C0000 		.4byte	0xc0b
 2295 0cb2 2B       		.uleb128 0x2b
 2296 0cb3 08000000 		.4byte	.LBB116
 2297 0cb7 20000000 		.4byte	.LBE116-.LBB116
 2298 0cbb 30       		.uleb128 0x30
 2299 0cbc 0F100000 		.4byte	0x100f
 2300 0cc0 08000000 		.4byte	.LBB117
 2301 0cc4 18000000 		.4byte	.Ldebug_ranges0+0x18
 2302 0cc8 01       		.byte	0x1
 2303 0cc9 9D       		.byte	0x9d
 2304 0cca D80C0000 		.4byte	0xcd8
 2305 0cce 23       		.uleb128 0x23
 2306 0ccf 20100000 		.4byte	0x1020
 2307 0cd3 53020000 		.4byte	.LLST13
 2308 0cd7 00       		.byte	0
 2309 0cd8 30       		.uleb128 0x30
 2310 0cd9 B00F0000 		.4byte	0xfb0
 2311 0cdd 14000000 		.4byte	.LBB120
 2312 0ce1 30000000 		.4byte	.Ldebug_ranges0+0x30
 2313 0ce5 01       		.byte	0x1
 2314 0ce6 9E       		.byte	0x9e
 2315 0ce7 040D0000 		.4byte	0xd04
 2316 0ceb 23       		.uleb128 0x23
 2317 0cec C10F0000 		.4byte	0xfc1
 2318 0cf0 66020000 		.4byte	.LLST14
 2319 0cf4 24       		.uleb128 0x24
 2320 0cf5 30000000 		.4byte	.Ldebug_ranges0+0x30
 2321 0cf9 25       		.uleb128 0x25
 2322 0cfa CD0F0000 		.4byte	0xfcd
 2323 0cfe 79020000 		.4byte	.LLST15
 2324 0d02 00       		.byte	0
 2325 0d03 00       		.byte	0
 2326 0d04 38       		.uleb128 0x38
 2327 0d05 20000000 		.4byte	.LVL21
 2328 0d09 1D110000 		.4byte	0x111d
 2329 0d0d 00       		.byte	0
 2330 0d0e 00       		.byte	0
 2331 0d0f 32       		.uleb128 0x32
 2332 0d10 8C0F0000 		.4byte	0xf8c
 2333 0d14 2C000000 		.4byte	.LBB125
 2334 0d18 06000000 		.4byte	.LBE125-.LBB125
 2335 0d1c 01       		.byte	0x1
 2336 0d1d 87       		.byte	0x87
 2337 0d1e 580D0000 		.4byte	0xd58
ARM GAS  /tmp/ccsVS11G.s 			page 42


 2338 0d22 2B       		.uleb128 0x2b
 2339 0d23 2C000000 		.4byte	.LBB126
 2340 0d27 06000000 		.4byte	.LBE126-.LBB126
 2341 0d2b 2A       		.uleb128 0x2a
 2342 0d2c 54100000 		.4byte	0x1054
 2343 0d30 2C000000 		.4byte	.LBB127
 2344 0d34 06000000 		.4byte	.LBE127-.LBB127
 2345 0d38 12       		.byte	0x12
 2346 0d39 7301     		.2byte	0x173
 2347 0d3b 2A       		.uleb128 0x2a
 2348 0d3c 66100000 		.4byte	0x1066
 2349 0d40 2C000000 		.4byte	.LBB128
 2350 0d44 06000000 		.4byte	.LBE128-.LBB128
 2351 0d48 0D       		.byte	0xd
 2352 0d49 CD01     		.2byte	0x1cd
 2353 0d4b 23       		.uleb128 0x23
 2354 0d4c 73100000 		.4byte	0x1073
 2355 0d50 8C020000 		.4byte	.LLST16
 2356 0d54 00       		.byte	0
 2357 0d55 00       		.byte	0
 2358 0d56 00       		.byte	0
 2359 0d57 00       		.byte	0
 2360 0d58 38       		.uleb128 0x38
 2361 0d59 2C000000 		.4byte	.LVL23
 2362 0d5d 29110000 		.4byte	0x1129
 2363 0d61 00       		.byte	0
 2364 0d62 36       		.uleb128 0x36
 2365 0d63 7F050000 		.4byte	.LASF135
 2366 0d67 01       		.byte	0x1
 2367 0d68 6F       		.byte	0x6f
 2368 0d69 00000000 		.4byte	.LFB231
 2369 0d6d 18000000 		.4byte	.LFE231-.LFB231
 2370 0d71 01       		.uleb128 0x1
 2371 0d72 9C       		.byte	0x9c
 2372 0d73 F50D0000 		.4byte	0xdf5
 2373 0d77 2D       		.uleb128 0x2d
 2374 0d78 637000   		.ascii	"cp\000"
 2375 0d7b 01       		.byte	0x1
 2376 0d7c 6F       		.byte	0x6f
 2377 0d7d 43090000 		.4byte	0x943
 2378 0d81 A0020000 		.4byte	.LLST7
 2379 0d85 1F       		.uleb128 0x1f
 2380 0d86 F9050000 		.4byte	.LASF132
 2381 0d8a 050E0000 		.4byte	0xe05
 2382 0d8e 39       		.uleb128 0x39
 2383 0d8f 06000000 		.4byte	.LBB106
 2384 0d93 10000000 		.4byte	.LBE106-.LBB106
 2385 0d97 DB0D0000 		.4byte	0xddb
 2386 0d9b 2F       		.uleb128 0x2f
 2387 0d9c 747000   		.ascii	"tp\000"
 2388 0d9f 01       		.byte	0x1
 2389 0da0 75       		.byte	0x75
 2390 0da1 4B020000 		.4byte	0x24b
 2391 0da5 30       		.uleb128 0x30
 2392 0da6 B00F0000 		.4byte	0xfb0
 2393 0daa 06000000 		.4byte	.LBB107
 2394 0dae 00000000 		.4byte	.Ldebug_ranges0+0
ARM GAS  /tmp/ccsVS11G.s 			page 43


 2395 0db2 01       		.byte	0x1
 2396 0db3 75       		.byte	0x75
 2397 0db4 D10D0000 		.4byte	0xdd1
 2398 0db8 23       		.uleb128 0x23
 2399 0db9 C10F0000 		.4byte	0xfc1
 2400 0dbd D8020000 		.4byte	.LLST9
 2401 0dc1 24       		.uleb128 0x24
 2402 0dc2 00000000 		.4byte	.Ldebug_ranges0+0
 2403 0dc6 25       		.uleb128 0x25
 2404 0dc7 CD0F0000 		.4byte	0xfcd
 2405 0dcb EB020000 		.4byte	.LLST10
 2406 0dcf 00       		.byte	0
 2407 0dd0 00       		.byte	0
 2408 0dd1 3A       		.uleb128 0x3a
 2409 0dd2 16000000 		.4byte	.LVL15
 2410 0dd6 1D110000 		.4byte	0x111d
 2411 0dda 00       		.byte	0
 2412 0ddb 3B       		.uleb128 0x3b
 2413 0ddc 0F100000 		.4byte	0x100f
 2414 0de0 00000000 		.4byte	.LBB104
 2415 0de4 02000000 		.4byte	.LBE104-.LBB104
 2416 0de8 01       		.byte	0x1
 2417 0de9 74       		.byte	0x74
 2418 0dea 23       		.uleb128 0x23
 2419 0deb 20100000 		.4byte	0x1020
 2420 0def FE020000 		.4byte	.LLST8
 2421 0df3 00       		.byte	0
 2422 0df4 00       		.byte	0
 2423 0df5 17       		.uleb128 0x17
 2424 0df6 E7060000 		.4byte	0x6e7
 2425 0dfa 050E0000 		.4byte	0xe05
 2426 0dfe 18       		.uleb128 0x18
 2427 0dff 2C000000 		.4byte	0x2c
 2428 0e03 0D       		.byte	0xd
 2429 0e04 00       		.byte	0
 2430 0e05 0B       		.uleb128 0xb
 2431 0e06 F50D0000 		.4byte	0xdf5
 2432 0e0a 36       		.uleb128 0x36
 2433 0e0b 6E030000 		.4byte	.LASF136
 2434 0e0f 01       		.byte	0x1
 2435 0e10 59       		.byte	0x59
 2436 0e11 00000000 		.4byte	.LFB230
 2437 0e15 26000000 		.4byte	.LFE230-.LFB230
 2438 0e19 01       		.uleb128 0x1
 2439 0e1a 9C       		.byte	0x9c
 2440 0e1b 1B0F0000 		.4byte	0xf1b
 2441 0e1f 2D       		.uleb128 0x2d
 2442 0e20 637000   		.ascii	"cp\000"
 2443 0e23 01       		.byte	0x1
 2444 0e24 59       		.byte	0x59
 2445 0e25 43090000 		.4byte	0x943
 2446 0e29 11030000 		.4byte	.LLST1
 2447 0e2d 1F       		.uleb128 0x1f
 2448 0e2e F9050000 		.4byte	.LASF132
 2449 0e32 2B0F0000 		.4byte	0xf2b
 2450 0e36 32       		.uleb128 0x32
 2451 0e37 A70F0000 		.4byte	0xfa7
ARM GAS  /tmp/ccsVS11G.s 			page 44


 2452 0e3b 02000000 		.4byte	.LBB91
 2453 0e3f 06000000 		.4byte	.LBE91-.LBB91
 2454 0e43 01       		.byte	0x1
 2455 0e44 5D       		.byte	0x5d
 2456 0e45 750E0000 		.4byte	0xe75
 2457 0e49 2A       		.uleb128 0x2a
 2458 0e4a 5D100000 		.4byte	0x105d
 2459 0e4e 02000000 		.4byte	.LBB92
 2460 0e52 06000000 		.4byte	.LBE92-.LBB92
 2461 0e56 12       		.byte	0x12
 2462 0e57 5C01     		.2byte	0x15c
 2463 0e59 2A       		.uleb128 0x2a
 2464 0e5a 66100000 		.4byte	0x1066
 2465 0e5e 02000000 		.4byte	.LBB93
 2466 0e62 06000000 		.4byte	.LBE93-.LBB93
 2467 0e66 0D       		.byte	0xd
 2468 0e67 BF01     		.2byte	0x1bf
 2469 0e69 23       		.uleb128 0x23
 2470 0e6a 73100000 		.4byte	0x1073
 2471 0e6e 3D030000 		.4byte	.LLST2
 2472 0e72 00       		.byte	0
 2473 0e73 00       		.byte	0
 2474 0e74 00       		.byte	0
 2475 0e75 32       		.uleb128 0x32
 2476 0e76 0F100000 		.4byte	0x100f
 2477 0e7a 08000000 		.4byte	.LBB95
 2478 0e7e 02000000 		.4byte	.LBE95-.LBB95
 2479 0e82 01       		.byte	0x1
 2480 0e83 5E       		.byte	0x5e
 2481 0e84 920E0000 		.4byte	0xe92
 2482 0e88 23       		.uleb128 0x23
 2483 0e89 20100000 		.4byte	0x1020
 2484 0e8d 52030000 		.4byte	.LLST3
 2485 0e91 00       		.byte	0
 2486 0e92 32       		.uleb128 0x32
 2487 0e93 B00F0000 		.4byte	0xfb0
 2488 0e97 0E000000 		.4byte	.LBB97
 2489 0e9b 08000000 		.4byte	.LBE97-.LBB97
 2490 0e9f 01       		.byte	0x1
 2491 0ea0 5F       		.byte	0x5f
 2492 0ea1 C20E0000 		.4byte	0xec2
 2493 0ea5 23       		.uleb128 0x23
 2494 0ea6 C10F0000 		.4byte	0xfc1
 2495 0eaa 65030000 		.4byte	.LLST4
 2496 0eae 2B       		.uleb128 0x2b
 2497 0eaf 0E000000 		.4byte	.LBB98
 2498 0eb3 08000000 		.4byte	.LBE98-.LBB98
 2499 0eb7 25       		.uleb128 0x25
 2500 0eb8 CD0F0000 		.4byte	0xfcd
 2501 0ebc 78030000 		.4byte	.LLST5
 2502 0ec0 00       		.byte	0
 2503 0ec1 00       		.byte	0
 2504 0ec2 32       		.uleb128 0x32
 2505 0ec3 8C0F0000 		.4byte	0xf8c
 2506 0ec7 1E000000 		.4byte	.LBB99
 2507 0ecb 06000000 		.4byte	.LBE99-.LBB99
 2508 0ecf 01       		.byte	0x1
ARM GAS  /tmp/ccsVS11G.s 			page 45


 2509 0ed0 61       		.byte	0x61
 2510 0ed1 0B0F0000 		.4byte	0xf0b
 2511 0ed5 2B       		.uleb128 0x2b
 2512 0ed6 1E000000 		.4byte	.LBB100
 2513 0eda 06000000 		.4byte	.LBE100-.LBB100
 2514 0ede 2A       		.uleb128 0x2a
 2515 0edf 54100000 		.4byte	0x1054
 2516 0ee3 1E000000 		.4byte	.LBB101
 2517 0ee7 06000000 		.4byte	.LBE101-.LBB101
 2518 0eeb 12       		.byte	0x12
 2519 0eec 7301     		.2byte	0x173
 2520 0eee 2A       		.uleb128 0x2a
 2521 0eef 66100000 		.4byte	0x1066
 2522 0ef3 1E000000 		.4byte	.LBB102
 2523 0ef7 06000000 		.4byte	.LBE102-.LBB102
 2524 0efb 0D       		.byte	0xd
 2525 0efc CD01     		.2byte	0x1cd
 2526 0efe 23       		.uleb128 0x23
 2527 0eff 73100000 		.4byte	0x1073
 2528 0f03 8B030000 		.4byte	.LLST6
 2529 0f07 00       		.byte	0
 2530 0f08 00       		.byte	0
 2531 0f09 00       		.byte	0
 2532 0f0a 00       		.byte	0
 2533 0f0b 28       		.uleb128 0x28
 2534 0f0c 1E000000 		.4byte	.LVL8
 2535 0f10 35110000 		.4byte	0x1135
 2536 0f14 27       		.uleb128 0x27
 2537 0f15 01       		.uleb128 0x1
 2538 0f16 51       		.byte	0x51
 2539 0f17 01       		.uleb128 0x1
 2540 0f18 30       		.byte	0x30
 2541 0f19 00       		.byte	0
 2542 0f1a 00       		.byte	0
 2543 0f1b 17       		.uleb128 0x17
 2544 0f1c E7060000 		.4byte	0x6e7
 2545 0f20 2B0F0000 		.4byte	0xf2b
 2546 0f24 18       		.uleb128 0x18
 2547 0f25 2C000000 		.4byte	0x2c
 2548 0f29 0C       		.byte	0xc
 2549 0f2a 00       		.byte	0
 2550 0f2b 0B       		.uleb128 0xb
 2551 0f2c 1B0F0000 		.4byte	0xf1b
 2552 0f30 36       		.uleb128 0x36
 2553 0f31 E7060000 		.4byte	.LASF137
 2554 0f35 01       		.byte	0x1
 2555 0f36 4B       		.byte	0x4b
 2556 0f37 00000000 		.4byte	.LFB229
 2557 0f3b 06000000 		.4byte	.LFE229-.LFB229
 2558 0f3f 01       		.uleb128 0x1
 2559 0f40 9C       		.byte	0x9c
 2560 0f41 740F0000 		.4byte	0xf74
 2561 0f45 3C       		.uleb128 0x3c
 2562 0f46 637000   		.ascii	"cp\000"
 2563 0f49 01       		.byte	0x1
 2564 0f4a 4B       		.byte	0x4b
 2565 0f4b 43090000 		.4byte	0x943
ARM GAS  /tmp/ccsVS11G.s 			page 46


 2566 0f4f 01       		.uleb128 0x1
 2567 0f50 50       		.byte	0x50
 2568 0f51 1F       		.uleb128 0x1f
 2569 0f52 F9050000 		.4byte	.LASF132
 2570 0f56 330C0000 		.4byte	0xc33
 2571 0f5a 3B       		.uleb128 0x3b
 2572 0f5b 3A100000 		.4byte	0x103a
 2573 0f5f 00000000 		.4byte	.LBB89
 2574 0f63 04000000 		.4byte	.LBE89-.LBB89
 2575 0f67 01       		.byte	0x1
 2576 0f68 4F       		.byte	0x4f
 2577 0f69 23       		.uleb128 0x23
 2578 0f6a 47100000 		.4byte	0x1047
 2579 0f6e 9F030000 		.4byte	.LLST0
 2580 0f72 00       		.byte	0
 2581 0f73 00       		.byte	0
 2582 0f74 3D       		.uleb128 0x3d
 2583 0f75 6A060000 		.4byte	.LASF138
 2584 0f79 04       		.byte	0x4
 2585 0f7a 90       		.byte	0x90
 2586 0f7b 24080000 		.4byte	0x824
 2587 0f7f 03       		.byte	0x3
 2588 0f80 3D       		.uleb128 0x3d
 2589 0f81 A8070000 		.4byte	.LASF139
 2590 0f85 05       		.byte	0x5
 2591 0f86 AE       		.byte	0xae
 2592 0f87 4B020000 		.4byte	0x24b
 2593 0f8b 03       		.byte	0x3
 2594 0f8c 3E       		.uleb128 0x3e
 2595 0f8d 21080000 		.4byte	.LASF141
 2596 0f91 12       		.byte	0x12
 2597 0f92 6601     		.2byte	0x166
 2598 0f94 03       		.byte	0x3
 2599 0f95 A70F0000 		.4byte	0xfa7
 2600 0f99 35       		.uleb128 0x35
 2601 0f9a F9050000 		.4byte	.LASF132
 2602 0f9e 2C0B0000 		.4byte	0xb2c
 2603 0fa2 21080000 		.4byte	.LASF141
 2604 0fa6 00       		.byte	0
 2605 0fa7 3F       		.uleb128 0x3f
 2606 0fa8 02060000 		.4byte	.LASF147
 2607 0fac 12       		.byte	0x12
 2608 0fad 5A01     		.2byte	0x15a
 2609 0faf 03       		.byte	0x3
 2610 0fb0 40       		.uleb128 0x40
 2611 0fb1 04070000 		.4byte	.LASF143
 2612 0fb5 02       		.byte	0x2
 2613 0fb6 9F02     		.2byte	0x29f
 2614 0fb8 4B020000 		.4byte	0x24b
 2615 0fbc 03       		.byte	0x3
 2616 0fbd D90F0000 		.4byte	0xfd9
 2617 0fc1 41       		.uleb128 0x41
 2618 0fc2 74717000 		.ascii	"tqp\000"
 2619 0fc6 02       		.byte	0x2
 2620 0fc7 9F02     		.2byte	0x29f
 2621 0fc9 D90F0000 		.4byte	0xfd9
 2622 0fcd 1D       		.uleb128 0x1d
ARM GAS  /tmp/ccsVS11G.s 			page 47


 2623 0fce 747000   		.ascii	"tp\000"
 2624 0fd1 02       		.byte	0x2
 2625 0fd2 A002     		.2byte	0x2a0
 2626 0fd4 4B020000 		.4byte	0x24b
 2627 0fd8 00       		.byte	0
 2628 0fd9 0A       		.uleb128 0xa
 2629 0fda 04       		.byte	0x4
 2630 0fdb 75020000 		.4byte	0x275
 2631 0fdf 3E       		.uleb128 0x3e
 2632 0fe0 43080000 		.4byte	.LASF142
 2633 0fe4 02       		.byte	0x2
 2634 0fe5 8B02     		.2byte	0x28b
 2635 0fe7 03       		.byte	0x3
 2636 0fe8 0F100000 		.4byte	0x100f
 2637 0fec 41       		.uleb128 0x41
 2638 0fed 747000   		.ascii	"tp\000"
 2639 0ff0 02       		.byte	0x2
 2640 0ff1 8B02     		.2byte	0x28b
 2641 0ff3 4B020000 		.4byte	0x24b
 2642 0ff7 41       		.uleb128 0x41
 2643 0ff8 74717000 		.ascii	"tqp\000"
 2644 0ffc 02       		.byte	0x2
 2645 0ffd 8B02     		.2byte	0x28b
 2646 0fff D90F0000 		.4byte	0xfd9
 2647 1003 1D       		.uleb128 0x1d
 2648 1004 637000   		.ascii	"cp\000"
 2649 1007 02       		.byte	0x2
 2650 1008 8D02     		.2byte	0x28d
 2651 100a 4B020000 		.4byte	0x24b
 2652 100e 00       		.byte	0
 2653 100f 40       		.uleb128 0x40
 2654 1010 FD020000 		.4byte	.LASF144
 2655 1014 02       		.byte	0x2
 2656 1015 7502     		.2byte	0x275
 2657 1017 2D100000 		.4byte	0x102d
 2658 101b 03       		.byte	0x3
 2659 101c 2D100000 		.4byte	0x102d
 2660 1020 41       		.uleb128 0x41
 2661 1021 74717000 		.ascii	"tqp\000"
 2662 1025 02       		.byte	0x2
 2663 1026 7502     		.2byte	0x275
 2664 1028 34100000 		.4byte	0x1034
 2665 102c 00       		.byte	0
 2666 102d 03       		.uleb128 0x3
 2667 102e 01       		.byte	0x1
 2668 102f 02       		.byte	0x2
 2669 1030 8D050000 		.4byte	.LASF145
 2670 1034 0A       		.uleb128 0xa
 2671 1035 04       		.byte	0x4
 2672 1036 80020000 		.4byte	0x280
 2673 103a 3E       		.uleb128 0x3e
 2674 103b 55000000 		.4byte	.LASF146
 2675 103f 02       		.byte	0x2
 2676 1040 5A02     		.2byte	0x25a
 2677 1042 03       		.byte	0x3
 2678 1043 54100000 		.4byte	0x1054
 2679 1047 41       		.uleb128 0x41
ARM GAS  /tmp/ccsVS11G.s 			page 48


 2680 1048 74717000 		.ascii	"tqp\000"
 2681 104c 02       		.byte	0x2
 2682 104d 5A02     		.2byte	0x25a
 2683 104f D90F0000 		.4byte	0xfd9
 2684 1053 00       		.byte	0
 2685 1054 3F       		.uleb128 0x3f
 2686 1055 99020000 		.4byte	.LASF148
 2687 1059 0D       		.byte	0xd
 2688 105a CA01     		.2byte	0x1ca
 2689 105c 03       		.byte	0x3
 2690 105d 3F       		.uleb128 0x3f
 2691 105e 60000000 		.4byte	.LASF149
 2692 1062 0D       		.byte	0xd
 2693 1063 BC01     		.2byte	0x1bc
 2694 1065 03       		.byte	0x3
 2695 1066 3E       		.uleb128 0x3e
 2696 1067 3F070000 		.4byte	.LASF150
 2697 106b 03       		.byte	0x3
 2698 106c 2002     		.2byte	0x220
 2699 106e 03       		.byte	0x3
 2700 106f 80100000 		.4byte	0x1080
 2701 1073 42       		.uleb128 0x42
 2702 1074 68030000 		.4byte	.LASF151
 2703 1078 03       		.byte	0x3
 2704 1079 2002     		.2byte	0x220
 2705 107b CF000000 		.4byte	0xcf
 2706 107f 00       		.byte	0
 2707 1080 43       		.uleb128 0x43
 2708 1081 FF0B0000 		.4byte	0xbff
 2709 1085 00000000 		.4byte	.LFB233
 2710 1089 24000000 		.4byte	.LFE233-.LFB233
 2711 108d 01       		.uleb128 0x1
 2712 108e 9C       		.byte	0x9c
 2713 108f EF100000 		.4byte	0x10ef
 2714 1093 23       		.uleb128 0x23
 2715 1094 0B0C0000 		.4byte	0xc0b
 2716 1098 B2030000 		.4byte	.LLST17
 2717 109c 30       		.uleb128 0x30
 2718 109d 0F100000 		.4byte	0x100f
 2719 10a1 02000000 		.4byte	.LBB130
 2720 10a5 48000000 		.4byte	.Ldebug_ranges0+0x48
 2721 10a9 01       		.byte	0x1
 2722 10aa 9D       		.byte	0x9d
 2723 10ab B9100000 		.4byte	0x10b9
 2724 10af 23       		.uleb128 0x23
 2725 10b0 20100000 		.4byte	0x1020
 2726 10b4 DE030000 		.4byte	.LLST18
 2727 10b8 00       		.byte	0
 2728 10b9 30       		.uleb128 0x30
 2729 10ba B00F0000 		.4byte	0xfb0
 2730 10be 0E000000 		.4byte	.LBB133
 2731 10c2 60000000 		.4byte	.Ldebug_ranges0+0x60
 2732 10c6 01       		.byte	0x1
 2733 10c7 9E       		.byte	0x9e
 2734 10c8 E5100000 		.4byte	0x10e5
 2735 10cc 23       		.uleb128 0x23
 2736 10cd C10F0000 		.4byte	0xfc1
ARM GAS  /tmp/ccsVS11G.s 			page 49


 2737 10d1 F1030000 		.4byte	.LLST19
 2738 10d5 24       		.uleb128 0x24
 2739 10d6 60000000 		.4byte	.Ldebug_ranges0+0x60
 2740 10da 25       		.uleb128 0x25
 2741 10db CD0F0000 		.4byte	0xfcd
 2742 10df 04040000 		.4byte	.LLST20
 2743 10e3 00       		.byte	0
 2744 10e4 00       		.byte	0
 2745 10e5 38       		.uleb128 0x38
 2746 10e6 1A000000 		.4byte	.LVL29
 2747 10ea 1D110000 		.4byte	0x111d
 2748 10ee 00       		.byte	0
 2749 10ef 44       		.uleb128 0x44
 2750 10f0 90030000 		.4byte	.LASF152
 2751 10f4 90030000 		.4byte	.LASF152
 2752 10f8 04       		.byte	0x4
 2753 10f9 6D       		.byte	0x6d
 2754 10fa 45       		.uleb128 0x45
 2755 10fb 0C080000 		.4byte	.LASF153
 2756 10ff 0C080000 		.4byte	.LASF153
 2757 1103 02       		.byte	0x2
 2758 1104 1502     		.2byte	0x215
 2759 1106 44       		.uleb128 0x44
 2760 1107 38080000 		.4byte	.LASF154
 2761 110b 38080000 		.4byte	.LASF154
 2762 110f 04       		.byte	0x4
 2763 1110 69       		.byte	0x69
 2764 1111 45       		.uleb128 0x45
 2765 1112 51060000 		.4byte	.LASF155
 2766 1116 51060000 		.4byte	.LASF155
 2767 111a 02       		.byte	0x2
 2768 111b 1402     		.2byte	0x214
 2769 111d 45       		.uleb128 0x45
 2770 111e 9A060000 		.4byte	.LASF156
 2771 1122 9A060000 		.4byte	.LASF156
 2772 1126 02       		.byte	0x2
 2773 1127 1302     		.2byte	0x213
 2774 1129 45       		.uleb128 0x45
 2775 112a 26030000 		.4byte	.LASF157
 2776 112e 26030000 		.4byte	.LASF157
 2777 1132 02       		.byte	0x2
 2778 1133 1702     		.2byte	0x217
 2779 1135 45       		.uleb128 0x45
 2780 1136 12040000 		.4byte	.LASF158
 2781 113a 12040000 		.4byte	.LASF158
 2782 113e 02       		.byte	0x2
 2783 113f 1602     		.2byte	0x216
 2784 1141 00       		.byte	0
 2785              		.section	.debug_abbrev,"",%progbits
 2786              	.Ldebug_abbrev0:
 2787 0000 01       		.uleb128 0x1
 2788 0001 11       		.uleb128 0x11
 2789 0002 01       		.byte	0x1
 2790 0003 25       		.uleb128 0x25
 2791 0004 0E       		.uleb128 0xe
 2792 0005 13       		.uleb128 0x13
 2793 0006 0B       		.uleb128 0xb
ARM GAS  /tmp/ccsVS11G.s 			page 50


 2794 0007 03       		.uleb128 0x3
 2795 0008 0E       		.uleb128 0xe
 2796 0009 1B       		.uleb128 0x1b
 2797 000a 0E       		.uleb128 0xe
 2798 000b 55       		.uleb128 0x55
 2799 000c 17       		.uleb128 0x17
 2800 000d 11       		.uleb128 0x11
 2801 000e 01       		.uleb128 0x1
 2802 000f 10       		.uleb128 0x10
 2803 0010 17       		.uleb128 0x17
 2804 0011 00       		.byte	0
 2805 0012 00       		.byte	0
 2806 0013 02       		.uleb128 0x2
 2807 0014 24       		.uleb128 0x24
 2808 0015 00       		.byte	0
 2809 0016 0B       		.uleb128 0xb
 2810 0017 0B       		.uleb128 0xb
 2811 0018 3E       		.uleb128 0x3e
 2812 0019 0B       		.uleb128 0xb
 2813 001a 03       		.uleb128 0x3
 2814 001b 08       		.uleb128 0x8
 2815 001c 00       		.byte	0
 2816 001d 00       		.byte	0
 2817 001e 03       		.uleb128 0x3
 2818 001f 24       		.uleb128 0x24
 2819 0020 00       		.byte	0
 2820 0021 0B       		.uleb128 0xb
 2821 0022 0B       		.uleb128 0xb
 2822 0023 3E       		.uleb128 0x3e
 2823 0024 0B       		.uleb128 0xb
 2824 0025 03       		.uleb128 0x3
 2825 0026 0E       		.uleb128 0xe
 2826 0027 00       		.byte	0
 2827 0028 00       		.byte	0
 2828 0029 04       		.uleb128 0x4
 2829 002a 16       		.uleb128 0x16
 2830 002b 00       		.byte	0
 2831 002c 03       		.uleb128 0x3
 2832 002d 0E       		.uleb128 0xe
 2833 002e 3A       		.uleb128 0x3a
 2834 002f 0B       		.uleb128 0xb
 2835 0030 3B       		.uleb128 0x3b
 2836 0031 0B       		.uleb128 0xb
 2837 0032 49       		.uleb128 0x49
 2838 0033 13       		.uleb128 0x13
 2839 0034 00       		.byte	0
 2840 0035 00       		.byte	0
 2841 0036 05       		.uleb128 0x5
 2842 0037 35       		.uleb128 0x35
 2843 0038 00       		.byte	0
 2844 0039 49       		.uleb128 0x49
 2845 003a 13       		.uleb128 0x13
 2846 003b 00       		.byte	0
 2847 003c 00       		.byte	0
 2848 003d 06       		.uleb128 0x6
 2849 003e 13       		.uleb128 0x13
 2850 003f 01       		.byte	0x1
ARM GAS  /tmp/ccsVS11G.s 			page 51


 2851 0040 03       		.uleb128 0x3
 2852 0041 0E       		.uleb128 0xe
 2853 0042 0B       		.uleb128 0xb
 2854 0043 0B       		.uleb128 0xb
 2855 0044 3A       		.uleb128 0x3a
 2856 0045 0B       		.uleb128 0xb
 2857 0046 3B       		.uleb128 0x3b
 2858 0047 0B       		.uleb128 0xb
 2859 0048 01       		.uleb128 0x1
 2860 0049 13       		.uleb128 0x13
 2861 004a 00       		.byte	0
 2862 004b 00       		.byte	0
 2863 004c 07       		.uleb128 0x7
 2864 004d 0D       		.uleb128 0xd
 2865 004e 00       		.byte	0
 2866 004f 03       		.uleb128 0x3
 2867 0050 0E       		.uleb128 0xe
 2868 0051 3A       		.uleb128 0x3a
 2869 0052 0B       		.uleb128 0xb
 2870 0053 3B       		.uleb128 0x3b
 2871 0054 0B       		.uleb128 0xb
 2872 0055 49       		.uleb128 0x49
 2873 0056 13       		.uleb128 0x13
 2874 0057 38       		.uleb128 0x38
 2875 0058 0B       		.uleb128 0xb
 2876 0059 00       		.byte	0
 2877 005a 00       		.byte	0
 2878 005b 08       		.uleb128 0x8
 2879 005c 0D       		.uleb128 0xd
 2880 005d 00       		.byte	0
 2881 005e 03       		.uleb128 0x3
 2882 005f 08       		.uleb128 0x8
 2883 0060 3A       		.uleb128 0x3a
 2884 0061 0B       		.uleb128 0xb
 2885 0062 3B       		.uleb128 0x3b
 2886 0063 05       		.uleb128 0x5
 2887 0064 49       		.uleb128 0x49
 2888 0065 13       		.uleb128 0x13
 2889 0066 38       		.uleb128 0x38
 2890 0067 0B       		.uleb128 0xb
 2891 0068 00       		.byte	0
 2892 0069 00       		.byte	0
 2893 006a 09       		.uleb128 0x9
 2894 006b 0D       		.uleb128 0xd
 2895 006c 00       		.byte	0
 2896 006d 03       		.uleb128 0x3
 2897 006e 0E       		.uleb128 0xe
 2898 006f 3A       		.uleb128 0x3a
 2899 0070 0B       		.uleb128 0xb
 2900 0071 3B       		.uleb128 0x3b
 2901 0072 05       		.uleb128 0x5
 2902 0073 49       		.uleb128 0x49
 2903 0074 13       		.uleb128 0x13
 2904 0075 38       		.uleb128 0x38
 2905 0076 0B       		.uleb128 0xb
 2906 0077 00       		.byte	0
 2907 0078 00       		.byte	0
ARM GAS  /tmp/ccsVS11G.s 			page 52


 2908 0079 0A       		.uleb128 0xa
 2909 007a 0F       		.uleb128 0xf
 2910 007b 00       		.byte	0
 2911 007c 0B       		.uleb128 0xb
 2912 007d 0B       		.uleb128 0xb
 2913 007e 49       		.uleb128 0x49
 2914 007f 13       		.uleb128 0x13
 2915 0080 00       		.byte	0
 2916 0081 00       		.byte	0
 2917 0082 0B       		.uleb128 0xb
 2918 0083 26       		.uleb128 0x26
 2919 0084 00       		.byte	0
 2920 0085 49       		.uleb128 0x49
 2921 0086 13       		.uleb128 0x13
 2922 0087 00       		.byte	0
 2923 0088 00       		.byte	0
 2924 0089 0C       		.uleb128 0xc
 2925 008a 13       		.uleb128 0x13
 2926 008b 01       		.byte	0x1
 2927 008c 03       		.uleb128 0x3
 2928 008d 0E       		.uleb128 0xe
 2929 008e 0B       		.uleb128 0xb
 2930 008f 0B       		.uleb128 0xb
 2931 0090 3A       		.uleb128 0x3a
 2932 0091 0B       		.uleb128 0xb
 2933 0092 3B       		.uleb128 0x3b
 2934 0093 05       		.uleb128 0x5
 2935 0094 01       		.uleb128 0x1
 2936 0095 13       		.uleb128 0x13
 2937 0096 00       		.byte	0
 2938 0097 00       		.byte	0
 2939 0098 0D       		.uleb128 0xd
 2940 0099 15       		.uleb128 0x15
 2941 009a 01       		.byte	0x1
 2942 009b 27       		.uleb128 0x27
 2943 009c 19       		.uleb128 0x19
 2944 009d 01       		.uleb128 0x1
 2945 009e 13       		.uleb128 0x13
 2946 009f 00       		.byte	0
 2947 00a0 00       		.byte	0
 2948 00a1 0E       		.uleb128 0xe
 2949 00a2 05       		.uleb128 0x5
 2950 00a3 00       		.byte	0
 2951 00a4 49       		.uleb128 0x49
 2952 00a5 13       		.uleb128 0x13
 2953 00a6 00       		.byte	0
 2954 00a7 00       		.byte	0
 2955 00a8 0F       		.uleb128 0xf
 2956 00a9 0F       		.uleb128 0xf
 2957 00aa 00       		.byte	0
 2958 00ab 0B       		.uleb128 0xb
 2959 00ac 0B       		.uleb128 0xb
 2960 00ad 00       		.byte	0
 2961 00ae 00       		.byte	0
 2962 00af 10       		.uleb128 0x10
 2963 00b0 13       		.uleb128 0x13
 2964 00b1 01       		.byte	0x1
ARM GAS  /tmp/ccsVS11G.s 			page 53


 2965 00b2 03       		.uleb128 0x3
 2966 00b3 0E       		.uleb128 0xe
 2967 00b4 0B       		.uleb128 0xb
 2968 00b5 05       		.uleb128 0x5
 2969 00b6 3A       		.uleb128 0x3a
 2970 00b7 0B       		.uleb128 0xb
 2971 00b8 3B       		.uleb128 0x3b
 2972 00b9 05       		.uleb128 0x5
 2973 00ba 01       		.uleb128 0x1
 2974 00bb 13       		.uleb128 0x13
 2975 00bc 00       		.byte	0
 2976 00bd 00       		.byte	0
 2977 00be 11       		.uleb128 0x11
 2978 00bf 34       		.uleb128 0x34
 2979 00c0 00       		.byte	0
 2980 00c1 03       		.uleb128 0x3
 2981 00c2 0E       		.uleb128 0xe
 2982 00c3 3A       		.uleb128 0x3a
 2983 00c4 0B       		.uleb128 0xb
 2984 00c5 3B       		.uleb128 0x3b
 2985 00c6 05       		.uleb128 0x5
 2986 00c7 49       		.uleb128 0x49
 2987 00c8 13       		.uleb128 0x13
 2988 00c9 3F       		.uleb128 0x3f
 2989 00ca 19       		.uleb128 0x19
 2990 00cb 3C       		.uleb128 0x3c
 2991 00cc 19       		.uleb128 0x19
 2992 00cd 00       		.byte	0
 2993 00ce 00       		.byte	0
 2994 00cf 12       		.uleb128 0x12
 2995 00d0 34       		.uleb128 0x34
 2996 00d1 00       		.byte	0
 2997 00d2 03       		.uleb128 0x3
 2998 00d3 0E       		.uleb128 0xe
 2999 00d4 3A       		.uleb128 0x3a
 3000 00d5 0B       		.uleb128 0xb
 3001 00d6 3B       		.uleb128 0x3b
 3002 00d7 0B       		.uleb128 0xb
 3003 00d8 49       		.uleb128 0x49
 3004 00d9 13       		.uleb128 0x13
 3005 00da 3F       		.uleb128 0x3f
 3006 00db 19       		.uleb128 0x19
 3007 00dc 3C       		.uleb128 0x3c
 3008 00dd 19       		.uleb128 0x19
 3009 00de 00       		.byte	0
 3010 00df 00       		.byte	0
 3011 00e0 13       		.uleb128 0x13
 3012 00e1 0D       		.uleb128 0xd
 3013 00e2 00       		.byte	0
 3014 00e3 03       		.uleb128 0x3
 3015 00e4 08       		.uleb128 0x8
 3016 00e5 3A       		.uleb128 0x3a
 3017 00e6 0B       		.uleb128 0xb
 3018 00e7 3B       		.uleb128 0x3b
 3019 00e8 0B       		.uleb128 0xb
 3020 00e9 49       		.uleb128 0x49
 3021 00ea 13       		.uleb128 0x13
ARM GAS  /tmp/ccsVS11G.s 			page 54


 3022 00eb 38       		.uleb128 0x38
 3023 00ec 0B       		.uleb128 0xb
 3024 00ed 00       		.byte	0
 3025 00ee 00       		.byte	0
 3026 00ef 14       		.uleb128 0x14
 3027 00f0 13       		.uleb128 0x13
 3028 00f1 01       		.byte	0x1
 3029 00f2 0B       		.uleb128 0xb
 3030 00f3 0B       		.uleb128 0xb
 3031 00f4 3A       		.uleb128 0x3a
 3032 00f5 0B       		.uleb128 0xb
 3033 00f6 3B       		.uleb128 0x3b
 3034 00f7 0B       		.uleb128 0xb
 3035 00f8 01       		.uleb128 0x1
 3036 00f9 13       		.uleb128 0x13
 3037 00fa 00       		.byte	0
 3038 00fb 00       		.byte	0
 3039 00fc 15       		.uleb128 0x15
 3040 00fd 17       		.uleb128 0x17
 3041 00fe 01       		.byte	0x1
 3042 00ff 0B       		.uleb128 0xb
 3043 0100 0B       		.uleb128 0xb
 3044 0101 3A       		.uleb128 0x3a
 3045 0102 0B       		.uleb128 0xb
 3046 0103 3B       		.uleb128 0x3b
 3047 0104 0B       		.uleb128 0xb
 3048 0105 01       		.uleb128 0x1
 3049 0106 13       		.uleb128 0x13
 3050 0107 00       		.byte	0
 3051 0108 00       		.byte	0
 3052 0109 16       		.uleb128 0x16
 3053 010a 0D       		.uleb128 0xd
 3054 010b 00       		.byte	0
 3055 010c 03       		.uleb128 0x3
 3056 010d 0E       		.uleb128 0xe
 3057 010e 3A       		.uleb128 0x3a
 3058 010f 0B       		.uleb128 0xb
 3059 0110 3B       		.uleb128 0x3b
 3060 0111 05       		.uleb128 0x5
 3061 0112 49       		.uleb128 0x49
 3062 0113 13       		.uleb128 0x13
 3063 0114 00       		.byte	0
 3064 0115 00       		.byte	0
 3065 0116 17       		.uleb128 0x17
 3066 0117 01       		.uleb128 0x1
 3067 0118 01       		.byte	0x1
 3068 0119 49       		.uleb128 0x49
 3069 011a 13       		.uleb128 0x13
 3070 011b 01       		.uleb128 0x1
 3071 011c 13       		.uleb128 0x13
 3072 011d 00       		.byte	0
 3073 011e 00       		.byte	0
 3074 011f 18       		.uleb128 0x18
 3075 0120 21       		.uleb128 0x21
 3076 0121 00       		.byte	0
 3077 0122 49       		.uleb128 0x49
 3078 0123 13       		.uleb128 0x13
ARM GAS  /tmp/ccsVS11G.s 			page 55


 3079 0124 2F       		.uleb128 0x2f
 3080 0125 0B       		.uleb128 0xb
 3081 0126 00       		.byte	0
 3082 0127 00       		.byte	0
 3083 0128 19       		.uleb128 0x19
 3084 0129 34       		.uleb128 0x34
 3085 012a 00       		.byte	0
 3086 012b 03       		.uleb128 0x3
 3087 012c 08       		.uleb128 0x8
 3088 012d 3A       		.uleb128 0x3a
 3089 012e 0B       		.uleb128 0xb
 3090 012f 3B       		.uleb128 0x3b
 3091 0130 05       		.uleb128 0x5
 3092 0131 49       		.uleb128 0x49
 3093 0132 13       		.uleb128 0x13
 3094 0133 3F       		.uleb128 0x3f
 3095 0134 19       		.uleb128 0x19
 3096 0135 3C       		.uleb128 0x3c
 3097 0136 19       		.uleb128 0x19
 3098 0137 00       		.byte	0
 3099 0138 00       		.byte	0
 3100 0139 1A       		.uleb128 0x1a
 3101 013a 2E       		.uleb128 0x2e
 3102 013b 01       		.byte	0x1
 3103 013c 3F       		.uleb128 0x3f
 3104 013d 19       		.uleb128 0x19
 3105 013e 03       		.uleb128 0x3
 3106 013f 0E       		.uleb128 0xe
 3107 0140 3A       		.uleb128 0x3a
 3108 0141 0B       		.uleb128 0xb
 3109 0142 3B       		.uleb128 0x3b
 3110 0143 05       		.uleb128 0x5
 3111 0144 27       		.uleb128 0x27
 3112 0145 19       		.uleb128 0x19
 3113 0146 49       		.uleb128 0x49
 3114 0147 13       		.uleb128 0x13
 3115 0148 11       		.uleb128 0x11
 3116 0149 01       		.uleb128 0x1
 3117 014a 12       		.uleb128 0x12
 3118 014b 06       		.uleb128 0x6
 3119 014c 40       		.uleb128 0x40
 3120 014d 18       		.uleb128 0x18
 3121 014e 9742     		.uleb128 0x2117
 3122 0150 19       		.uleb128 0x19
 3123 0151 01       		.uleb128 0x1
 3124 0152 13       		.uleb128 0x13
 3125 0153 00       		.byte	0
 3126 0154 00       		.byte	0
 3127 0155 1B       		.uleb128 0x1b
 3128 0156 05       		.uleb128 0x5
 3129 0157 00       		.byte	0
 3130 0158 03       		.uleb128 0x3
 3131 0159 08       		.uleb128 0x8
 3132 015a 3A       		.uleb128 0x3a
 3133 015b 0B       		.uleb128 0xb
 3134 015c 3B       		.uleb128 0x3b
 3135 015d 05       		.uleb128 0x5
ARM GAS  /tmp/ccsVS11G.s 			page 56


 3136 015e 49       		.uleb128 0x49
 3137 015f 13       		.uleb128 0x13
 3138 0160 02       		.uleb128 0x2
 3139 0161 17       		.uleb128 0x17
 3140 0162 00       		.byte	0
 3141 0163 00       		.byte	0
 3142 0164 1C       		.uleb128 0x1c
 3143 0165 05       		.uleb128 0x5
 3144 0166 00       		.byte	0
 3145 0167 03       		.uleb128 0x3
 3146 0168 0E       		.uleb128 0xe
 3147 0169 3A       		.uleb128 0x3a
 3148 016a 0B       		.uleb128 0xb
 3149 016b 3B       		.uleb128 0x3b
 3150 016c 05       		.uleb128 0x5
 3151 016d 49       		.uleb128 0x49
 3152 016e 13       		.uleb128 0x13
 3153 016f 02       		.uleb128 0x2
 3154 0170 17       		.uleb128 0x17
 3155 0171 00       		.byte	0
 3156 0172 00       		.byte	0
 3157 0173 1D       		.uleb128 0x1d
 3158 0174 34       		.uleb128 0x34
 3159 0175 00       		.byte	0
 3160 0176 03       		.uleb128 0x3
 3161 0177 08       		.uleb128 0x8
 3162 0178 3A       		.uleb128 0x3a
 3163 0179 0B       		.uleb128 0xb
 3164 017a 3B       		.uleb128 0x3b
 3165 017b 05       		.uleb128 0x5
 3166 017c 49       		.uleb128 0x49
 3167 017d 13       		.uleb128 0x13
 3168 017e 00       		.byte	0
 3169 017f 00       		.byte	0
 3170 0180 1E       		.uleb128 0x1e
 3171 0181 34       		.uleb128 0x34
 3172 0182 00       		.byte	0
 3173 0183 03       		.uleb128 0x3
 3174 0184 08       		.uleb128 0x8
 3175 0185 3A       		.uleb128 0x3a
 3176 0186 0B       		.uleb128 0xb
 3177 0187 3B       		.uleb128 0x3b
 3178 0188 05       		.uleb128 0x5
 3179 0189 49       		.uleb128 0x49
 3180 018a 13       		.uleb128 0x13
 3181 018b 02       		.uleb128 0x2
 3182 018c 17       		.uleb128 0x17
 3183 018d 00       		.byte	0
 3184 018e 00       		.byte	0
 3185 018f 1F       		.uleb128 0x1f
 3186 0190 34       		.uleb128 0x34
 3187 0191 00       		.byte	0
 3188 0192 03       		.uleb128 0x3
 3189 0193 0E       		.uleb128 0xe
 3190 0194 49       		.uleb128 0x49
 3191 0195 13       		.uleb128 0x13
 3192 0196 34       		.uleb128 0x34
ARM GAS  /tmp/ccsVS11G.s 			page 57


 3193 0197 19       		.uleb128 0x19
 3194 0198 00       		.byte	0
 3195 0199 00       		.byte	0
 3196 019a 20       		.uleb128 0x20
 3197 019b 1D       		.uleb128 0x1d
 3198 019c 01       		.byte	0x1
 3199 019d 31       		.uleb128 0x31
 3200 019e 13       		.uleb128 0x13
 3201 019f 11       		.uleb128 0x11
 3202 01a0 01       		.uleb128 0x1
 3203 01a1 12       		.uleb128 0x12
 3204 01a2 06       		.uleb128 0x6
 3205 01a3 58       		.uleb128 0x58
 3206 01a4 0B       		.uleb128 0xb
 3207 01a5 59       		.uleb128 0x59
 3208 01a6 05       		.uleb128 0x5
 3209 01a7 01       		.uleb128 0x1
 3210 01a8 13       		.uleb128 0x13
 3211 01a9 00       		.byte	0
 3212 01aa 00       		.byte	0
 3213 01ab 21       		.uleb128 0x21
 3214 01ac 1D       		.uleb128 0x1d
 3215 01ad 00       		.byte	0
 3216 01ae 31       		.uleb128 0x31
 3217 01af 13       		.uleb128 0x13
 3218 01b0 11       		.uleb128 0x11
 3219 01b1 01       		.uleb128 0x1
 3220 01b2 12       		.uleb128 0x12
 3221 01b3 06       		.uleb128 0x6
 3222 01b4 58       		.uleb128 0x58
 3223 01b5 0B       		.uleb128 0xb
 3224 01b6 59       		.uleb128 0x59
 3225 01b7 0B       		.uleb128 0xb
 3226 01b8 00       		.byte	0
 3227 01b9 00       		.byte	0
 3228 01ba 22       		.uleb128 0x22
 3229 01bb 1D       		.uleb128 0x1d
 3230 01bc 01       		.byte	0x1
 3231 01bd 31       		.uleb128 0x31
 3232 01be 13       		.uleb128 0x13
 3233 01bf 52       		.uleb128 0x52
 3234 01c0 01       		.uleb128 0x1
 3235 01c1 55       		.uleb128 0x55
 3236 01c2 17       		.uleb128 0x17
 3237 01c3 58       		.uleb128 0x58
 3238 01c4 0B       		.uleb128 0xb
 3239 01c5 59       		.uleb128 0x59
 3240 01c6 05       		.uleb128 0x5
 3241 01c7 01       		.uleb128 0x1
 3242 01c8 13       		.uleb128 0x13
 3243 01c9 00       		.byte	0
 3244 01ca 00       		.byte	0
 3245 01cb 23       		.uleb128 0x23
 3246 01cc 05       		.uleb128 0x5
 3247 01cd 00       		.byte	0
 3248 01ce 31       		.uleb128 0x31
 3249 01cf 13       		.uleb128 0x13
ARM GAS  /tmp/ccsVS11G.s 			page 58


 3250 01d0 02       		.uleb128 0x2
 3251 01d1 17       		.uleb128 0x17
 3252 01d2 00       		.byte	0
 3253 01d3 00       		.byte	0
 3254 01d4 24       		.uleb128 0x24
 3255 01d5 0B       		.uleb128 0xb
 3256 01d6 01       		.byte	0x1
 3257 01d7 55       		.uleb128 0x55
 3258 01d8 17       		.uleb128 0x17
 3259 01d9 00       		.byte	0
 3260 01da 00       		.byte	0
 3261 01db 25       		.uleb128 0x25
 3262 01dc 34       		.uleb128 0x34
 3263 01dd 00       		.byte	0
 3264 01de 31       		.uleb128 0x31
 3265 01df 13       		.uleb128 0x13
 3266 01e0 02       		.uleb128 0x2
 3267 01e1 17       		.uleb128 0x17
 3268 01e2 00       		.byte	0
 3269 01e3 00       		.byte	0
 3270 01e4 26       		.uleb128 0x26
 3271 01e5 898201   		.uleb128 0x4109
 3272 01e8 01       		.byte	0x1
 3273 01e9 11       		.uleb128 0x11
 3274 01ea 01       		.uleb128 0x1
 3275 01eb 31       		.uleb128 0x31
 3276 01ec 13       		.uleb128 0x13
 3277 01ed 01       		.uleb128 0x1
 3278 01ee 13       		.uleb128 0x13
 3279 01ef 00       		.byte	0
 3280 01f0 00       		.byte	0
 3281 01f1 27       		.uleb128 0x27
 3282 01f2 8A8201   		.uleb128 0x410a
 3283 01f5 00       		.byte	0
 3284 01f6 02       		.uleb128 0x2
 3285 01f7 18       		.uleb128 0x18
 3286 01f8 9142     		.uleb128 0x2111
 3287 01fa 18       		.uleb128 0x18
 3288 01fb 00       		.byte	0
 3289 01fc 00       		.byte	0
 3290 01fd 28       		.uleb128 0x28
 3291 01fe 898201   		.uleb128 0x4109
 3292 0201 01       		.byte	0x1
 3293 0202 11       		.uleb128 0x11
 3294 0203 01       		.uleb128 0x1
 3295 0204 31       		.uleb128 0x31
 3296 0205 13       		.uleb128 0x13
 3297 0206 00       		.byte	0
 3298 0207 00       		.byte	0
 3299 0208 29       		.uleb128 0x29
 3300 0209 34       		.uleb128 0x34
 3301 020a 00       		.byte	0
 3302 020b 03       		.uleb128 0x3
 3303 020c 08       		.uleb128 0x8
 3304 020d 3A       		.uleb128 0x3a
 3305 020e 0B       		.uleb128 0xb
 3306 020f 3B       		.uleb128 0x3b
ARM GAS  /tmp/ccsVS11G.s 			page 59


 3307 0210 05       		.uleb128 0x5
 3308 0211 49       		.uleb128 0x49
 3309 0212 13       		.uleb128 0x13
 3310 0213 02       		.uleb128 0x2
 3311 0214 18       		.uleb128 0x18
 3312 0215 00       		.byte	0
 3313 0216 00       		.byte	0
 3314 0217 2A       		.uleb128 0x2a
 3315 0218 1D       		.uleb128 0x1d
 3316 0219 01       		.byte	0x1
 3317 021a 31       		.uleb128 0x31
 3318 021b 13       		.uleb128 0x13
 3319 021c 11       		.uleb128 0x11
 3320 021d 01       		.uleb128 0x1
 3321 021e 12       		.uleb128 0x12
 3322 021f 06       		.uleb128 0x6
 3323 0220 58       		.uleb128 0x58
 3324 0221 0B       		.uleb128 0xb
 3325 0222 59       		.uleb128 0x59
 3326 0223 05       		.uleb128 0x5
 3327 0224 00       		.byte	0
 3328 0225 00       		.byte	0
 3329 0226 2B       		.uleb128 0x2b
 3330 0227 0B       		.uleb128 0xb
 3331 0228 01       		.byte	0x1
 3332 0229 11       		.uleb128 0x11
 3333 022a 01       		.uleb128 0x1
 3334 022b 12       		.uleb128 0x12
 3335 022c 06       		.uleb128 0x6
 3336 022d 00       		.byte	0
 3337 022e 00       		.byte	0
 3338 022f 2C       		.uleb128 0x2c
 3339 0230 2E       		.uleb128 0x2e
 3340 0231 01       		.byte	0x1
 3341 0232 3F       		.uleb128 0x3f
 3342 0233 19       		.uleb128 0x19
 3343 0234 03       		.uleb128 0x3
 3344 0235 0E       		.uleb128 0xe
 3345 0236 3A       		.uleb128 0x3a
 3346 0237 0B       		.uleb128 0xb
 3347 0238 3B       		.uleb128 0x3b
 3348 0239 0B       		.uleb128 0xb
 3349 023a 27       		.uleb128 0x27
 3350 023b 19       		.uleb128 0x19
 3351 023c 49       		.uleb128 0x49
 3352 023d 13       		.uleb128 0x13
 3353 023e 11       		.uleb128 0x11
 3354 023f 01       		.uleb128 0x1
 3355 0240 12       		.uleb128 0x12
 3356 0241 06       		.uleb128 0x6
 3357 0242 40       		.uleb128 0x40
 3358 0243 18       		.uleb128 0x18
 3359 0244 9742     		.uleb128 0x2117
 3360 0246 19       		.uleb128 0x19
 3361 0247 01       		.uleb128 0x1
 3362 0248 13       		.uleb128 0x13
 3363 0249 00       		.byte	0
ARM GAS  /tmp/ccsVS11G.s 			page 60


 3364 024a 00       		.byte	0
 3365 024b 2D       		.uleb128 0x2d
 3366 024c 05       		.uleb128 0x5
 3367 024d 00       		.byte	0
 3368 024e 03       		.uleb128 0x3
 3369 024f 08       		.uleb128 0x8
 3370 0250 3A       		.uleb128 0x3a
 3371 0251 0B       		.uleb128 0xb
 3372 0252 3B       		.uleb128 0x3b
 3373 0253 0B       		.uleb128 0xb
 3374 0254 49       		.uleb128 0x49
 3375 0255 13       		.uleb128 0x13
 3376 0256 02       		.uleb128 0x2
 3377 0257 17       		.uleb128 0x17
 3378 0258 00       		.byte	0
 3379 0259 00       		.byte	0
 3380 025a 2E       		.uleb128 0x2e
 3381 025b 34       		.uleb128 0x34
 3382 025c 00       		.byte	0
 3383 025d 03       		.uleb128 0x3
 3384 025e 08       		.uleb128 0x8
 3385 025f 3A       		.uleb128 0x3a
 3386 0260 0B       		.uleb128 0xb
 3387 0261 3B       		.uleb128 0x3b
 3388 0262 0B       		.uleb128 0xb
 3389 0263 49       		.uleb128 0x49
 3390 0264 13       		.uleb128 0x13
 3391 0265 02       		.uleb128 0x2
 3392 0266 17       		.uleb128 0x17
 3393 0267 00       		.byte	0
 3394 0268 00       		.byte	0
 3395 0269 2F       		.uleb128 0x2f
 3396 026a 34       		.uleb128 0x34
 3397 026b 00       		.byte	0
 3398 026c 03       		.uleb128 0x3
 3399 026d 08       		.uleb128 0x8
 3400 026e 3A       		.uleb128 0x3a
 3401 026f 0B       		.uleb128 0xb
 3402 0270 3B       		.uleb128 0x3b
 3403 0271 0B       		.uleb128 0xb
 3404 0272 49       		.uleb128 0x49
 3405 0273 13       		.uleb128 0x13
 3406 0274 00       		.byte	0
 3407 0275 00       		.byte	0
 3408 0276 30       		.uleb128 0x30
 3409 0277 1D       		.uleb128 0x1d
 3410 0278 01       		.byte	0x1
 3411 0279 31       		.uleb128 0x31
 3412 027a 13       		.uleb128 0x13
 3413 027b 52       		.uleb128 0x52
 3414 027c 01       		.uleb128 0x1
 3415 027d 55       		.uleb128 0x55
 3416 027e 17       		.uleb128 0x17
 3417 027f 58       		.uleb128 0x58
 3418 0280 0B       		.uleb128 0xb
 3419 0281 59       		.uleb128 0x59
 3420 0282 0B       		.uleb128 0xb
ARM GAS  /tmp/ccsVS11G.s 			page 61


 3421 0283 01       		.uleb128 0x1
 3422 0284 13       		.uleb128 0x13
 3423 0285 00       		.byte	0
 3424 0286 00       		.byte	0
 3425 0287 31       		.uleb128 0x31
 3426 0288 34       		.uleb128 0x34
 3427 0289 00       		.byte	0
 3428 028a 03       		.uleb128 0x3
 3429 028b 08       		.uleb128 0x8
 3430 028c 3A       		.uleb128 0x3a
 3431 028d 0B       		.uleb128 0xb
 3432 028e 3B       		.uleb128 0x3b
 3433 028f 0B       		.uleb128 0xb
 3434 0290 49       		.uleb128 0x49
 3435 0291 13       		.uleb128 0x13
 3436 0292 02       		.uleb128 0x2
 3437 0293 18       		.uleb128 0x18
 3438 0294 00       		.byte	0
 3439 0295 00       		.byte	0
 3440 0296 32       		.uleb128 0x32
 3441 0297 1D       		.uleb128 0x1d
 3442 0298 01       		.byte	0x1
 3443 0299 31       		.uleb128 0x31
 3444 029a 13       		.uleb128 0x13
 3445 029b 11       		.uleb128 0x11
 3446 029c 01       		.uleb128 0x1
 3447 029d 12       		.uleb128 0x12
 3448 029e 06       		.uleb128 0x6
 3449 029f 58       		.uleb128 0x58
 3450 02a0 0B       		.uleb128 0xb
 3451 02a1 59       		.uleb128 0x59
 3452 02a2 0B       		.uleb128 0xb
 3453 02a3 01       		.uleb128 0x1
 3454 02a4 13       		.uleb128 0x13
 3455 02a5 00       		.byte	0
 3456 02a6 00       		.byte	0
 3457 02a7 33       		.uleb128 0x33
 3458 02a8 2E       		.uleb128 0x2e
 3459 02a9 01       		.byte	0x1
 3460 02aa 3F       		.uleb128 0x3f
 3461 02ab 19       		.uleb128 0x19
 3462 02ac 03       		.uleb128 0x3
 3463 02ad 0E       		.uleb128 0xe
 3464 02ae 3A       		.uleb128 0x3a
 3465 02af 0B       		.uleb128 0xb
 3466 02b0 3B       		.uleb128 0x3b
 3467 02b1 0B       		.uleb128 0xb
 3468 02b2 27       		.uleb128 0x27
 3469 02b3 19       		.uleb128 0x19
 3470 02b4 20       		.uleb128 0x20
 3471 02b5 0B       		.uleb128 0xb
 3472 02b6 01       		.uleb128 0x1
 3473 02b7 13       		.uleb128 0x13
 3474 02b8 00       		.byte	0
 3475 02b9 00       		.byte	0
 3476 02ba 34       		.uleb128 0x34
 3477 02bb 05       		.uleb128 0x5
ARM GAS  /tmp/ccsVS11G.s 			page 62


 3478 02bc 00       		.byte	0
 3479 02bd 03       		.uleb128 0x3
 3480 02be 08       		.uleb128 0x8
 3481 02bf 3A       		.uleb128 0x3a
 3482 02c0 0B       		.uleb128 0xb
 3483 02c1 3B       		.uleb128 0x3b
 3484 02c2 0B       		.uleb128 0xb
 3485 02c3 49       		.uleb128 0x49
 3486 02c4 13       		.uleb128 0x13
 3487 02c5 00       		.byte	0
 3488 02c6 00       		.byte	0
 3489 02c7 35       		.uleb128 0x35
 3490 02c8 34       		.uleb128 0x34
 3491 02c9 00       		.byte	0
 3492 02ca 03       		.uleb128 0x3
 3493 02cb 0E       		.uleb128 0xe
 3494 02cc 49       		.uleb128 0x49
 3495 02cd 13       		.uleb128 0x13
 3496 02ce 34       		.uleb128 0x34
 3497 02cf 19       		.uleb128 0x19
 3498 02d0 1C       		.uleb128 0x1c
 3499 02d1 0E       		.uleb128 0xe
 3500 02d2 00       		.byte	0
 3501 02d3 00       		.byte	0
 3502 02d4 36       		.uleb128 0x36
 3503 02d5 2E       		.uleb128 0x2e
 3504 02d6 01       		.byte	0x1
 3505 02d7 3F       		.uleb128 0x3f
 3506 02d8 19       		.uleb128 0x19
 3507 02d9 03       		.uleb128 0x3
 3508 02da 0E       		.uleb128 0xe
 3509 02db 3A       		.uleb128 0x3a
 3510 02dc 0B       		.uleb128 0xb
 3511 02dd 3B       		.uleb128 0x3b
 3512 02de 0B       		.uleb128 0xb
 3513 02df 27       		.uleb128 0x27
 3514 02e0 19       		.uleb128 0x19
 3515 02e1 11       		.uleb128 0x11
 3516 02e2 01       		.uleb128 0x1
 3517 02e3 12       		.uleb128 0x12
 3518 02e4 06       		.uleb128 0x6
 3519 02e5 40       		.uleb128 0x40
 3520 02e6 18       		.uleb128 0x18
 3521 02e7 9742     		.uleb128 0x2117
 3522 02e9 19       		.uleb128 0x19
 3523 02ea 01       		.uleb128 0x1
 3524 02eb 13       		.uleb128 0x13
 3525 02ec 00       		.byte	0
 3526 02ed 00       		.byte	0
 3527 02ee 37       		.uleb128 0x37
 3528 02ef 05       		.uleb128 0x5
 3529 02f0 00       		.byte	0
 3530 02f1 31       		.uleb128 0x31
 3531 02f2 13       		.uleb128 0x13
 3532 02f3 00       		.byte	0
 3533 02f4 00       		.byte	0
 3534 02f5 38       		.uleb128 0x38
ARM GAS  /tmp/ccsVS11G.s 			page 63


 3535 02f6 898201   		.uleb128 0x4109
 3536 02f9 00       		.byte	0
 3537 02fa 11       		.uleb128 0x11
 3538 02fb 01       		.uleb128 0x1
 3539 02fc 31       		.uleb128 0x31
 3540 02fd 13       		.uleb128 0x13
 3541 02fe 00       		.byte	0
 3542 02ff 00       		.byte	0
 3543 0300 39       		.uleb128 0x39
 3544 0301 0B       		.uleb128 0xb
 3545 0302 01       		.byte	0x1
 3546 0303 11       		.uleb128 0x11
 3547 0304 01       		.uleb128 0x1
 3548 0305 12       		.uleb128 0x12
 3549 0306 06       		.uleb128 0x6
 3550 0307 01       		.uleb128 0x1
 3551 0308 13       		.uleb128 0x13
 3552 0309 00       		.byte	0
 3553 030a 00       		.byte	0
 3554 030b 3A       		.uleb128 0x3a
 3555 030c 898201   		.uleb128 0x4109
 3556 030f 00       		.byte	0
 3557 0310 11       		.uleb128 0x11
 3558 0311 01       		.uleb128 0x1
 3559 0312 9542     		.uleb128 0x2115
 3560 0314 19       		.uleb128 0x19
 3561 0315 31       		.uleb128 0x31
 3562 0316 13       		.uleb128 0x13
 3563 0317 00       		.byte	0
 3564 0318 00       		.byte	0
 3565 0319 3B       		.uleb128 0x3b
 3566 031a 1D       		.uleb128 0x1d
 3567 031b 01       		.byte	0x1
 3568 031c 31       		.uleb128 0x31
 3569 031d 13       		.uleb128 0x13
 3570 031e 11       		.uleb128 0x11
 3571 031f 01       		.uleb128 0x1
 3572 0320 12       		.uleb128 0x12
 3573 0321 06       		.uleb128 0x6
 3574 0322 58       		.uleb128 0x58
 3575 0323 0B       		.uleb128 0xb
 3576 0324 59       		.uleb128 0x59
 3577 0325 0B       		.uleb128 0xb
 3578 0326 00       		.byte	0
 3579 0327 00       		.byte	0
 3580 0328 3C       		.uleb128 0x3c
 3581 0329 05       		.uleb128 0x5
 3582 032a 00       		.byte	0
 3583 032b 03       		.uleb128 0x3
 3584 032c 08       		.uleb128 0x8
 3585 032d 3A       		.uleb128 0x3a
 3586 032e 0B       		.uleb128 0xb
 3587 032f 3B       		.uleb128 0x3b
 3588 0330 0B       		.uleb128 0xb
 3589 0331 49       		.uleb128 0x49
 3590 0332 13       		.uleb128 0x13
 3591 0333 02       		.uleb128 0x2
ARM GAS  /tmp/ccsVS11G.s 			page 64


 3592 0334 18       		.uleb128 0x18
 3593 0335 00       		.byte	0
 3594 0336 00       		.byte	0
 3595 0337 3D       		.uleb128 0x3d
 3596 0338 2E       		.uleb128 0x2e
 3597 0339 00       		.byte	0
 3598 033a 03       		.uleb128 0x3
 3599 033b 0E       		.uleb128 0xe
 3600 033c 3A       		.uleb128 0x3a
 3601 033d 0B       		.uleb128 0xb
 3602 033e 3B       		.uleb128 0x3b
 3603 033f 0B       		.uleb128 0xb
 3604 0340 27       		.uleb128 0x27
 3605 0341 19       		.uleb128 0x19
 3606 0342 49       		.uleb128 0x49
 3607 0343 13       		.uleb128 0x13
 3608 0344 20       		.uleb128 0x20
 3609 0345 0B       		.uleb128 0xb
 3610 0346 00       		.byte	0
 3611 0347 00       		.byte	0
 3612 0348 3E       		.uleb128 0x3e
 3613 0349 2E       		.uleb128 0x2e
 3614 034a 01       		.byte	0x1
 3615 034b 03       		.uleb128 0x3
 3616 034c 0E       		.uleb128 0xe
 3617 034d 3A       		.uleb128 0x3a
 3618 034e 0B       		.uleb128 0xb
 3619 034f 3B       		.uleb128 0x3b
 3620 0350 05       		.uleb128 0x5
 3621 0351 27       		.uleb128 0x27
 3622 0352 19       		.uleb128 0x19
 3623 0353 20       		.uleb128 0x20
 3624 0354 0B       		.uleb128 0xb
 3625 0355 01       		.uleb128 0x1
 3626 0356 13       		.uleb128 0x13
 3627 0357 00       		.byte	0
 3628 0358 00       		.byte	0
 3629 0359 3F       		.uleb128 0x3f
 3630 035a 2E       		.uleb128 0x2e
 3631 035b 00       		.byte	0
 3632 035c 03       		.uleb128 0x3
 3633 035d 0E       		.uleb128 0xe
 3634 035e 3A       		.uleb128 0x3a
 3635 035f 0B       		.uleb128 0xb
 3636 0360 3B       		.uleb128 0x3b
 3637 0361 05       		.uleb128 0x5
 3638 0362 27       		.uleb128 0x27
 3639 0363 19       		.uleb128 0x19
 3640 0364 20       		.uleb128 0x20
 3641 0365 0B       		.uleb128 0xb
 3642 0366 00       		.byte	0
 3643 0367 00       		.byte	0
 3644 0368 40       		.uleb128 0x40
 3645 0369 2E       		.uleb128 0x2e
 3646 036a 01       		.byte	0x1
 3647 036b 03       		.uleb128 0x3
 3648 036c 0E       		.uleb128 0xe
ARM GAS  /tmp/ccsVS11G.s 			page 65


 3649 036d 3A       		.uleb128 0x3a
 3650 036e 0B       		.uleb128 0xb
 3651 036f 3B       		.uleb128 0x3b
 3652 0370 05       		.uleb128 0x5
 3653 0371 27       		.uleb128 0x27
 3654 0372 19       		.uleb128 0x19
 3655 0373 49       		.uleb128 0x49
 3656 0374 13       		.uleb128 0x13
 3657 0375 20       		.uleb128 0x20
 3658 0376 0B       		.uleb128 0xb
 3659 0377 01       		.uleb128 0x1
 3660 0378 13       		.uleb128 0x13
 3661 0379 00       		.byte	0
 3662 037a 00       		.byte	0
 3663 037b 41       		.uleb128 0x41
 3664 037c 05       		.uleb128 0x5
 3665 037d 00       		.byte	0
 3666 037e 03       		.uleb128 0x3
 3667 037f 08       		.uleb128 0x8
 3668 0380 3A       		.uleb128 0x3a
 3669 0381 0B       		.uleb128 0xb
 3670 0382 3B       		.uleb128 0x3b
 3671 0383 05       		.uleb128 0x5
 3672 0384 49       		.uleb128 0x49
 3673 0385 13       		.uleb128 0x13
 3674 0386 00       		.byte	0
 3675 0387 00       		.byte	0
 3676 0388 42       		.uleb128 0x42
 3677 0389 05       		.uleb128 0x5
 3678 038a 00       		.byte	0
 3679 038b 03       		.uleb128 0x3
 3680 038c 0E       		.uleb128 0xe
 3681 038d 3A       		.uleb128 0x3a
 3682 038e 0B       		.uleb128 0xb
 3683 038f 3B       		.uleb128 0x3b
 3684 0390 05       		.uleb128 0x5
 3685 0391 49       		.uleb128 0x49
 3686 0392 13       		.uleb128 0x13
 3687 0393 00       		.byte	0
 3688 0394 00       		.byte	0
 3689 0395 43       		.uleb128 0x43
 3690 0396 2E       		.uleb128 0x2e
 3691 0397 01       		.byte	0x1
 3692 0398 31       		.uleb128 0x31
 3693 0399 13       		.uleb128 0x13
 3694 039a 11       		.uleb128 0x11
 3695 039b 01       		.uleb128 0x1
 3696 039c 12       		.uleb128 0x12
 3697 039d 06       		.uleb128 0x6
 3698 039e 40       		.uleb128 0x40
 3699 039f 18       		.uleb128 0x18
 3700 03a0 9742     		.uleb128 0x2117
 3701 03a2 19       		.uleb128 0x19
 3702 03a3 01       		.uleb128 0x1
 3703 03a4 13       		.uleb128 0x13
 3704 03a5 00       		.byte	0
 3705 03a6 00       		.byte	0
ARM GAS  /tmp/ccsVS11G.s 			page 66


 3706 03a7 44       		.uleb128 0x44
 3707 03a8 2E       		.uleb128 0x2e
 3708 03a9 00       		.byte	0
 3709 03aa 3F       		.uleb128 0x3f
 3710 03ab 19       		.uleb128 0x19
 3711 03ac 3C       		.uleb128 0x3c
 3712 03ad 19       		.uleb128 0x19
 3713 03ae 6E       		.uleb128 0x6e
 3714 03af 0E       		.uleb128 0xe
 3715 03b0 03       		.uleb128 0x3
 3716 03b1 0E       		.uleb128 0xe
 3717 03b2 3A       		.uleb128 0x3a
 3718 03b3 0B       		.uleb128 0xb
 3719 03b4 3B       		.uleb128 0x3b
 3720 03b5 0B       		.uleb128 0xb
 3721 03b6 00       		.byte	0
 3722 03b7 00       		.byte	0
 3723 03b8 45       		.uleb128 0x45
 3724 03b9 2E       		.uleb128 0x2e
 3725 03ba 00       		.byte	0
 3726 03bb 3F       		.uleb128 0x3f
 3727 03bc 19       		.uleb128 0x19
 3728 03bd 3C       		.uleb128 0x3c
 3729 03be 19       		.uleb128 0x19
 3730 03bf 6E       		.uleb128 0x6e
 3731 03c0 0E       		.uleb128 0xe
 3732 03c1 03       		.uleb128 0x3
 3733 03c2 0E       		.uleb128 0xe
 3734 03c3 3A       		.uleb128 0x3a
 3735 03c4 0B       		.uleb128 0xb
 3736 03c5 3B       		.uleb128 0x3b
 3737 03c6 05       		.uleb128 0x5
 3738 03c7 00       		.byte	0
 3739 03c8 00       		.byte	0
 3740 03c9 00       		.byte	0
 3741              		.section	.debug_loc,"",%progbits
 3742              	.Ldebug_loc0:
 3743              	.LLST30:
 3744 0000 00000000 		.4byte	.LVL49
 3745 0004 0E000000 		.4byte	.LVL50
 3746 0008 0100     		.2byte	0x1
 3747 000a 50       		.byte	0x50
 3748 000b 0E000000 		.4byte	.LVL50
 3749 000f 58000000 		.4byte	.LFE237
 3750 0013 0100     		.2byte	0x1
 3751 0015 55       		.byte	0x55
 3752 0016 00000000 		.4byte	0
 3753 001a 00000000 		.4byte	0
 3754              	.LLST31:
 3755 001e 00000000 		.4byte	.LVL49
 3756 0022 13000000 		.4byte	.LVL51-1
 3757 0026 0100     		.2byte	0x1
 3758 0028 51       		.byte	0x51
 3759 0029 13000000 		.4byte	.LVL51-1
 3760 002d 58000000 		.4byte	.LFE237
 3761 0031 0100     		.2byte	0x1
 3762 0033 58       		.byte	0x58
ARM GAS  /tmp/ccsVS11G.s 			page 67


 3763 0034 00000000 		.4byte	0
 3764 0038 00000000 		.4byte	0
 3765              	.LLST32:
 3766 003c 42000000 		.4byte	.LVL59
 3767 0040 46000000 		.4byte	.LVL60
 3768 0044 0100     		.2byte	0x1
 3769 0046 50       		.byte	0x50
 3770 0047 46000000 		.4byte	.LVL60
 3771 004b 50000000 		.4byte	.LVL62
 3772 004f 0100     		.2byte	0x1
 3773 0051 54       		.byte	0x54
 3774 0052 00000000 		.4byte	0
 3775 0056 00000000 		.4byte	0
 3776              	.LLST33:
 3777 005a 18000000 		.4byte	.LVL52
 3778 005e 3A000000 		.4byte	.LVL57
 3779 0062 0100     		.2byte	0x1
 3780 0064 55       		.byte	0x55
 3781 0065 50000000 		.4byte	.LVL62
 3782 0069 58000000 		.4byte	.LFE237
 3783 006d 0100     		.2byte	0x1
 3784 006f 55       		.byte	0x55
 3785 0070 00000000 		.4byte	0
 3786 0074 00000000 		.4byte	0
 3787              	.LLST34:
 3788 0078 18000000 		.4byte	.LVL52
 3789 007c 3A000000 		.4byte	.LVL57
 3790 0080 0100     		.2byte	0x1
 3791 0082 54       		.byte	0x54
 3792 0083 50000000 		.4byte	.LVL62
 3793 0087 58000000 		.4byte	.LFE237
 3794 008b 0100     		.2byte	0x1
 3795 008d 54       		.byte	0x54
 3796 008e 00000000 		.4byte	0
 3797 0092 00000000 		.4byte	0
 3798              	.LLST35:
 3799 0096 1E000000 		.4byte	.LVL53
 3800 009a 2E000000 		.4byte	.LVL56
 3801 009e 0100     		.2byte	0x1
 3802 00a0 53       		.byte	0x53
 3803 00a1 50000000 		.4byte	.LVL62
 3804 00a5 58000000 		.4byte	.LFE237
 3805 00a9 0100     		.2byte	0x1
 3806 00ab 53       		.byte	0x53
 3807 00ac 00000000 		.4byte	0
 3808 00b0 00000000 		.4byte	0
 3809              	.LLST36:
 3810 00b4 00000000 		.4byte	.LVL63
 3811 00b8 0B000000 		.4byte	.LVL65-1
 3812 00bc 0100     		.2byte	0x1
 3813 00be 50       		.byte	0x50
 3814 00bf 0B000000 		.4byte	.LVL65-1
 3815 00c3 14000000 		.4byte	.LFE236
 3816 00c7 0400     		.2byte	0x4
 3817 00c9 F3       		.byte	0xf3
 3818 00ca 01       		.uleb128 0x1
 3819 00cb 50       		.byte	0x50
ARM GAS  /tmp/ccsVS11G.s 			page 68


 3820 00cc 9F       		.byte	0x9f
 3821 00cd 00000000 		.4byte	0
 3822 00d1 00000000 		.4byte	0
 3823              	.LLST37:
 3824 00d5 00000000 		.4byte	.LVL63
 3825 00d9 0B000000 		.4byte	.LVL65-1
 3826 00dd 0100     		.2byte	0x1
 3827 00df 51       		.byte	0x51
 3828 00e0 0B000000 		.4byte	.LVL65-1
 3829 00e4 14000000 		.4byte	.LFE236
 3830 00e8 0400     		.2byte	0x4
 3831 00ea F3       		.byte	0xf3
 3832 00eb 01       		.uleb128 0x1
 3833 00ec 51       		.byte	0x51
 3834 00ed 9F       		.byte	0x9f
 3835 00ee 00000000 		.4byte	0
 3836 00f2 00000000 		.4byte	0
 3837              	.LLST38:
 3838 00f6 00000000 		.4byte	.LVL63
 3839 00fa 08000000 		.4byte	.LVL64
 3840 00fe 0300     		.2byte	0x3
 3841 0100 08       		.byte	0x8
 3842 0101 20       		.byte	0x20
 3843 0102 9F       		.byte	0x9f
 3844 0103 00000000 		.4byte	0
 3845 0107 00000000 		.4byte	0
 3846              	.LLST39:
 3847 010b 0C000000 		.4byte	.LVL65
 3848 010f 12000000 		.4byte	.LVL66
 3849 0113 0200     		.2byte	0x2
 3850 0115 30       		.byte	0x30
 3851 0116 9F       		.byte	0x9f
 3852 0117 00000000 		.4byte	0
 3853 011b 00000000 		.4byte	0
 3854              	.LLST21:
 3855 011f 00000000 		.4byte	.LVL31
 3856 0123 0C000000 		.4byte	.LVL33
 3857 0127 0100     		.2byte	0x1
 3858 0129 50       		.byte	0x50
 3859 012a 0C000000 		.4byte	.LVL33
 3860 012e 4C000000 		.4byte	.LFE235
 3861 0132 0100     		.2byte	0x1
 3862 0134 55       		.byte	0x55
 3863 0135 00000000 		.4byte	0
 3864 0139 00000000 		.4byte	0
 3865              	.LLST22:
 3866 013d 06000000 		.4byte	.LVL32
 3867 0141 38000000 		.4byte	.LVL42
 3868 0145 0100     		.2byte	0x1
 3869 0147 54       		.byte	0x54
 3870 0148 42000000 		.4byte	.LVL44
 3871 014c 4C000000 		.4byte	.LFE235
 3872 0150 0100     		.2byte	0x1
 3873 0152 54       		.byte	0x54
 3874 0153 00000000 		.4byte	0
 3875 0157 00000000 		.4byte	0
 3876              	.LLST23:
ARM GAS  /tmp/ccsVS11G.s 			page 69


 3877 015b 38000000 		.4byte	.LVL42
 3878 015f 42000000 		.4byte	.LVL44
 3879 0163 0100     		.2byte	0x1
 3880 0165 54       		.byte	0x54
 3881 0166 00000000 		.4byte	0
 3882 016a 00000000 		.4byte	0
 3883              	.LLST24:
 3884 016e 12000000 		.4byte	.LVL35
 3885 0172 32000000 		.4byte	.LVL40
 3886 0176 0100     		.2byte	0x1
 3887 0178 55       		.byte	0x55
 3888 0179 42000000 		.4byte	.LVL44
 3889 017d 4C000000 		.4byte	.LFE235
 3890 0181 0100     		.2byte	0x1
 3891 0183 55       		.byte	0x55
 3892 0184 00000000 		.4byte	0
 3893 0188 00000000 		.4byte	0
 3894              	.LLST25:
 3895 018c 12000000 		.4byte	.LVL35
 3896 0190 32000000 		.4byte	.LVL40
 3897 0194 0100     		.2byte	0x1
 3898 0196 54       		.byte	0x54
 3899 0197 42000000 		.4byte	.LVL44
 3900 019b 4C000000 		.4byte	.LFE235
 3901 019f 0100     		.2byte	0x1
 3902 01a1 54       		.byte	0x54
 3903 01a2 00000000 		.4byte	0
 3904 01a6 00000000 		.4byte	0
 3905              	.LLST26:
 3906 01aa 18000000 		.4byte	.LVL36
 3907 01ae 28000000 		.4byte	.LVL39
 3908 01b2 0100     		.2byte	0x1
 3909 01b4 53       		.byte	0x53
 3910 01b5 42000000 		.4byte	.LVL44
 3911 01b9 4C000000 		.4byte	.LFE235
 3912 01bd 0100     		.2byte	0x1
 3913 01bf 53       		.byte	0x53
 3914 01c0 00000000 		.4byte	0
 3915 01c4 00000000 		.4byte	0
 3916              	.LLST27:
 3917 01c8 00000000 		.4byte	.LVL45
 3918 01cc 0B000000 		.4byte	.LVL47-1
 3919 01d0 0100     		.2byte	0x1
 3920 01d2 50       		.byte	0x50
 3921 01d3 0B000000 		.4byte	.LVL47-1
 3922 01d7 14000000 		.4byte	.LFE234
 3923 01db 0400     		.2byte	0x4
 3924 01dd F3       		.byte	0xf3
 3925 01de 01       		.uleb128 0x1
 3926 01df 50       		.byte	0x50
 3927 01e0 9F       		.byte	0x9f
 3928 01e1 00000000 		.4byte	0
 3929 01e5 00000000 		.4byte	0
 3930              	.LLST28:
 3931 01e9 00000000 		.4byte	.LVL45
 3932 01ed 08000000 		.4byte	.LVL46
 3933 01f1 0300     		.2byte	0x3
ARM GAS  /tmp/ccsVS11G.s 			page 70


 3934 01f3 08       		.byte	0x8
 3935 01f4 20       		.byte	0x20
 3936 01f5 9F       		.byte	0x9f
 3937 01f6 00000000 		.4byte	0
 3938 01fa 00000000 		.4byte	0
 3939              	.LLST29:
 3940 01fe 0C000000 		.4byte	.LVL47
 3941 0202 12000000 		.4byte	.LVL48
 3942 0206 0200     		.2byte	0x2
 3943 0208 30       		.byte	0x30
 3944 0209 9F       		.byte	0x9f
 3945 020a 00000000 		.4byte	0
 3946 020e 00000000 		.4byte	0
 3947              	.LLST11:
 3948 0212 00000000 		.4byte	.LVL16
 3949 0216 14000000 		.4byte	.LVL19
 3950 021a 0100     		.2byte	0x1
 3951 021c 50       		.byte	0x50
 3952 021d 14000000 		.4byte	.LVL19
 3953 0221 28000000 		.4byte	.LVL22
 3954 0225 0100     		.2byte	0x1
 3955 0227 54       		.byte	0x54
 3956 0228 28000000 		.4byte	.LVL22
 3957 022c 34000000 		.4byte	.LFE232
 3958 0230 0400     		.2byte	0x4
 3959 0232 F3       		.byte	0xf3
 3960 0233 01       		.uleb128 0x1
 3961 0234 50       		.byte	0x50
 3962 0235 9F       		.byte	0x9f
 3963 0236 00000000 		.4byte	0
 3964 023a 00000000 		.4byte	0
 3965              	.LLST12:
 3966 023e 00000000 		.4byte	.LVL16
 3967 0242 08000000 		.4byte	.LVL17
 3968 0246 0300     		.2byte	0x3
 3969 0248 08       		.byte	0x8
 3970 0249 20       		.byte	0x20
 3971 024a 9F       		.byte	0x9f
 3972 024b 00000000 		.4byte	0
 3973 024f 00000000 		.4byte	0
 3974              	.LLST13:
 3975 0253 08000000 		.4byte	.LVL17
 3976 0257 0A000000 		.4byte	.LVL18
 3977 025b 0100     		.2byte	0x1
 3978 025d 50       		.byte	0x50
 3979 025e 00000000 		.4byte	0
 3980 0262 00000000 		.4byte	0
 3981              	.LLST14:
 3982 0266 14000000 		.4byte	.LVL19
 3983 026a 1C000000 		.4byte	.LVL20
 3984 026e 0100     		.2byte	0x1
 3985 0270 54       		.byte	0x54
 3986 0271 00000000 		.4byte	0
 3987 0275 00000000 		.4byte	0
 3988              	.LLST15:
 3989 0279 14000000 		.4byte	.LVL19
 3990 027d 1C000000 		.4byte	.LVL20
ARM GAS  /tmp/ccsVS11G.s 			page 71


 3991 0281 0100     		.2byte	0x1
 3992 0283 53       		.byte	0x53
 3993 0284 00000000 		.4byte	0
 3994 0288 00000000 		.4byte	0
 3995              	.LLST16:
 3996 028c 2C000000 		.4byte	.LVL23
 3997 0290 32000000 		.4byte	.LVL24
 3998 0294 0200     		.2byte	0x2
 3999 0296 30       		.byte	0x30
 4000 0297 9F       		.byte	0x9f
 4001 0298 00000000 		.4byte	0
 4002 029c 00000000 		.4byte	0
 4003              	.LLST7:
 4004 02a0 00000000 		.4byte	.LVL10
 4005 02a4 10000000 		.4byte	.LVL14
 4006 02a8 0100     		.2byte	0x1
 4007 02aa 50       		.byte	0x50
 4008 02ab 10000000 		.4byte	.LVL14
 4009 02af 15000000 		.4byte	.LVL15-1
 4010 02b3 0200     		.2byte	0x2
 4011 02b5 72       		.byte	0x72
 4012 02b6 04       		.sleb128 4
 4013 02b7 15000000 		.4byte	.LVL15-1
 4014 02bb 16000000 		.4byte	.LVL15
 4015 02bf 0400     		.2byte	0x4
 4016 02c1 F3       		.byte	0xf3
 4017 02c2 01       		.uleb128 0x1
 4018 02c3 50       		.byte	0x50
 4019 02c4 9F       		.byte	0x9f
 4020 02c5 16000000 		.4byte	.LVL15
 4021 02c9 18000000 		.4byte	.LFE231
 4022 02cd 0100     		.2byte	0x1
 4023 02cf 50       		.byte	0x50
 4024 02d0 00000000 		.4byte	0
 4025 02d4 00000000 		.4byte	0
 4026              	.LLST9:
 4027 02d8 06000000 		.4byte	.LVL12
 4028 02dc 0E000000 		.4byte	.LVL13
 4029 02e0 0100     		.2byte	0x1
 4030 02e2 50       		.byte	0x50
 4031 02e3 00000000 		.4byte	0
 4032 02e7 00000000 		.4byte	0
 4033              	.LLST10:
 4034 02eb 06000000 		.4byte	.LVL12
 4035 02ef 0E000000 		.4byte	.LVL13
 4036 02f3 0100     		.2byte	0x1
 4037 02f5 53       		.byte	0x53
 4038 02f6 00000000 		.4byte	0
 4039 02fa 00000000 		.4byte	0
 4040              	.LLST8:
 4041 02fe 00000000 		.4byte	.LVL10
 4042 0302 02000000 		.4byte	.LVL11
 4043 0306 0100     		.2byte	0x1
 4044 0308 50       		.byte	0x50
 4045 0309 00000000 		.4byte	0
 4046 030d 00000000 		.4byte	0
 4047              	.LLST1:
ARM GAS  /tmp/ccsVS11G.s 			page 72


 4048 0311 00000000 		.4byte	.LVL2
 4049 0315 18000000 		.4byte	.LVL7
 4050 0319 0100     		.2byte	0x1
 4051 031b 50       		.byte	0x50
 4052 031c 18000000 		.4byte	.LVL7
 4053 0320 1D000000 		.4byte	.LVL8-1
 4054 0324 0100     		.2byte	0x1
 4055 0326 53       		.byte	0x53
 4056 0327 1D000000 		.4byte	.LVL8-1
 4057 032b 26000000 		.4byte	.LFE230
 4058 032f 0400     		.2byte	0x4
 4059 0331 F3       		.byte	0xf3
 4060 0332 01       		.uleb128 0x1
 4061 0333 50       		.byte	0x50
 4062 0334 9F       		.byte	0x9f
 4063 0335 00000000 		.4byte	0
 4064 0339 00000000 		.4byte	0
 4065              	.LLST2:
 4066 033d 00000000 		.4byte	.LVL2
 4067 0341 08000000 		.4byte	.LVL3
 4068 0345 0300     		.2byte	0x3
 4069 0347 08       		.byte	0x8
 4070 0348 20       		.byte	0x20
 4071 0349 9F       		.byte	0x9f
 4072 034a 00000000 		.4byte	0
 4073 034e 00000000 		.4byte	0
 4074              	.LLST3:
 4075 0352 08000000 		.4byte	.LVL3
 4076 0356 0A000000 		.4byte	.LVL4
 4077 035a 0100     		.2byte	0x1
 4078 035c 50       		.byte	0x50
 4079 035d 00000000 		.4byte	0
 4080 0361 00000000 		.4byte	0
 4081              	.LLST4:
 4082 0365 14000000 		.4byte	.LVL5
 4083 0369 16000000 		.4byte	.LVL6
 4084 036d 0100     		.2byte	0x1
 4085 036f 50       		.byte	0x50
 4086 0370 00000000 		.4byte	0
 4087 0374 00000000 		.4byte	0
 4088              	.LLST5:
 4089 0378 14000000 		.4byte	.LVL5
 4090 037c 16000000 		.4byte	.LVL6
 4091 0380 0100     		.2byte	0x1
 4092 0382 52       		.byte	0x52
 4093 0383 00000000 		.4byte	0
 4094 0387 00000000 		.4byte	0
 4095              	.LLST6:
 4096 038b 1E000000 		.4byte	.LVL8
 4097 038f 24000000 		.4byte	.LVL9
 4098 0393 0200     		.2byte	0x2
 4099 0395 30       		.byte	0x30
 4100 0396 9F       		.byte	0x9f
 4101 0397 00000000 		.4byte	0
 4102 039b 00000000 		.4byte	0
 4103              	.LLST0:
 4104 039f 00000000 		.4byte	.LVL0
ARM GAS  /tmp/ccsVS11G.s 			page 73


 4105 03a3 04000000 		.4byte	.LVL1
 4106 03a7 0100     		.2byte	0x1
 4107 03a9 50       		.byte	0x50
 4108 03aa 00000000 		.4byte	0
 4109 03ae 00000000 		.4byte	0
 4110              	.LLST17:
 4111 03b2 00000000 		.4byte	.LVL25
 4112 03b6 0E000000 		.4byte	.LVL27
 4113 03ba 0100     		.2byte	0x1
 4114 03bc 50       		.byte	0x50
 4115 03bd 0E000000 		.4byte	.LVL27
 4116 03c1 22000000 		.4byte	.LVL30
 4117 03c5 0100     		.2byte	0x1
 4118 03c7 54       		.byte	0x54
 4119 03c8 22000000 		.4byte	.LVL30
 4120 03cc 24000000 		.4byte	.LFE233
 4121 03d0 0400     		.2byte	0x4
 4122 03d2 F3       		.byte	0xf3
 4123 03d3 01       		.uleb128 0x1
 4124 03d4 50       		.byte	0x50
 4125 03d5 9F       		.byte	0x9f
 4126 03d6 00000000 		.4byte	0
 4127 03da 00000000 		.4byte	0
 4128              	.LLST18:
 4129 03de 00000000 		.4byte	.LVL25
 4130 03e2 04000000 		.4byte	.LVL26
 4131 03e6 0100     		.2byte	0x1
 4132 03e8 50       		.byte	0x50
 4133 03e9 00000000 		.4byte	0
 4134 03ed 00000000 		.4byte	0
 4135              	.LLST19:
 4136 03f1 0E000000 		.4byte	.LVL27
 4137 03f5 16000000 		.4byte	.LVL28
 4138 03f9 0100     		.2byte	0x1
 4139 03fb 54       		.byte	0x54
 4140 03fc 00000000 		.4byte	0
 4141 0400 00000000 		.4byte	0
 4142              	.LLST20:
 4143 0404 0E000000 		.4byte	.LVL27
 4144 0408 16000000 		.4byte	.LVL28
 4145 040c 0100     		.2byte	0x1
 4146 040e 53       		.byte	0x53
 4147 040f 00000000 		.4byte	0
 4148 0413 00000000 		.4byte	0
 4149              		.section	.debug_aranges,"",%progbits
 4150 0000 5C000000 		.4byte	0x5c
 4151 0004 0200     		.2byte	0x2
 4152 0006 00000000 		.4byte	.Ldebug_info0
 4153 000a 04       		.byte	0x4
 4154 000b 00       		.byte	0
 4155 000c 0000     		.2byte	0
 4156 000e 0000     		.2byte	0
 4157 0010 00000000 		.4byte	.LFB229
 4158 0014 06000000 		.4byte	.LFE229-.LFB229
 4159 0018 00000000 		.4byte	.LFB230
 4160 001c 26000000 		.4byte	.LFE230-.LFB230
 4161 0020 00000000 		.4byte	.LFB231
ARM GAS  /tmp/ccsVS11G.s 			page 74


 4162 0024 18000000 		.4byte	.LFE231-.LFB231
 4163 0028 00000000 		.4byte	.LFB232
 4164 002c 34000000 		.4byte	.LFE232-.LFB232
 4165 0030 00000000 		.4byte	.LFB233
 4166 0034 24000000 		.4byte	.LFE233-.LFB233
 4167 0038 00000000 		.4byte	.LFB235
 4168 003c 4C000000 		.4byte	.LFE235-.LFB235
 4169 0040 00000000 		.4byte	.LFB234
 4170 0044 14000000 		.4byte	.LFE234-.LFB234
 4171 0048 00000000 		.4byte	.LFB237
 4172 004c 58000000 		.4byte	.LFE237-.LFB237
 4173 0050 00000000 		.4byte	.LFB236
 4174 0054 14000000 		.4byte	.LFE236-.LFB236
 4175 0058 00000000 		.4byte	0
 4176 005c 00000000 		.4byte	0
 4177              		.section	.debug_ranges,"",%progbits
 4178              	.Ldebug_ranges0:
 4179 0000 06000000 		.4byte	.LBB107
 4180 0004 0A000000 		.4byte	.LBE107
 4181 0008 0C000000 		.4byte	.LBB110
 4182 000c 0E000000 		.4byte	.LBE110
 4183 0010 00000000 		.4byte	0
 4184 0014 00000000 		.4byte	0
 4185 0018 08000000 		.4byte	.LBB117
 4186 001c 0A000000 		.4byte	.LBE117
 4187 0020 20000000 		.4byte	.LBB124
 4188 0024 22000000 		.4byte	.LBE124
 4189 0028 00000000 		.4byte	0
 4190 002c 00000000 		.4byte	0
 4191 0030 14000000 		.4byte	.LBB120
 4192 0034 18000000 		.4byte	.LBE120
 4193 0038 1A000000 		.4byte	.LBB123
 4194 003c 1C000000 		.4byte	.LBE123
 4195 0040 00000000 		.4byte	0
 4196 0044 00000000 		.4byte	0
 4197 0048 02000000 		.4byte	.LBB130
 4198 004c 04000000 		.4byte	.LBE130
 4199 0050 1A000000 		.4byte	.LBB137
 4200 0054 1C000000 		.4byte	.LBE137
 4201 0058 00000000 		.4byte	0
 4202 005c 00000000 		.4byte	0
 4203 0060 0E000000 		.4byte	.LBB133
 4204 0064 12000000 		.4byte	.LBE133
 4205 0068 14000000 		.4byte	.LBB136
 4206 006c 16000000 		.4byte	.LBE136
 4207 0070 00000000 		.4byte	0
 4208 0074 00000000 		.4byte	0
 4209 0078 18000000 		.4byte	.LBB140
 4210 007c 28000000 		.4byte	.LBE140
 4211 0080 2A000000 		.4byte	.LBB144
 4212 0084 32000000 		.4byte	.LBE144
 4213 0088 42000000 		.4byte	.LBB145
 4214 008c 4C000000 		.4byte	.LBE145
 4215 0090 00000000 		.4byte	0
 4216 0094 00000000 		.4byte	0
 4217 0098 1E000000 		.4byte	.LBB159
 4218 009c 32000000 		.4byte	.LBE159
ARM GAS  /tmp/ccsVS11G.s 			page 75


 4219 00a0 34000000 		.4byte	.LBB164
 4220 00a4 36000000 		.4byte	.LBE164
 4221 00a8 38000000 		.4byte	.LBB165
 4222 00ac 3A000000 		.4byte	.LBE165
 4223 00b0 50000000 		.4byte	.LBB166
 4224 00b4 58000000 		.4byte	.LBE166
 4225 00b8 00000000 		.4byte	0
 4226 00bc 00000000 		.4byte	0
 4227 00c0 00000000 		.4byte	.LFB229
 4228 00c4 06000000 		.4byte	.LFE229
 4229 00c8 00000000 		.4byte	.LFB230
 4230 00cc 26000000 		.4byte	.LFE230
 4231 00d0 00000000 		.4byte	.LFB231
 4232 00d4 18000000 		.4byte	.LFE231
 4233 00d8 00000000 		.4byte	.LFB232
 4234 00dc 34000000 		.4byte	.LFE232
 4235 00e0 00000000 		.4byte	.LFB233
 4236 00e4 24000000 		.4byte	.LFE233
 4237 00e8 00000000 		.4byte	.LFB235
 4238 00ec 4C000000 		.4byte	.LFE235
 4239 00f0 00000000 		.4byte	.LFB234
 4240 00f4 14000000 		.4byte	.LFE234
 4241 00f8 00000000 		.4byte	.LFB237
 4242 00fc 58000000 		.4byte	.LFE237
 4243 0100 00000000 		.4byte	.LFB236
 4244 0104 14000000 		.4byte	.LFE236
 4245 0108 00000000 		.4byte	0
 4246 010c 00000000 		.4byte	0
 4247              		.section	.debug_line,"",%progbits
 4248              	.Ldebug_line0:
 4249 0000 3D040000 		.section	.debug_str,"MS",%progbits,1
 4249      02001702 
 4249      00000201 
 4249      FB0E0D00 
 4249      01010101 
 4250              	.LASF114:
 4251 0000 63665F6F 		.ascii	"cf_off_older\000"
 4251      66665F6F 
 4251      6C646572 
 4251      00
 4252              	.LASF53:
 4253 000d 72656164 		.ascii	"ready_list_t\000"
 4253      795F6C69 
 4253      73745F74 
 4253      00
 4254              	.LASF92:
 4255 001a 77747472 		.ascii	"wttrp\000"
 4255      7000
 4256              	.LASF89:
 4257 0020 7264796D 		.ascii	"rdymsg\000"
 4257      736700
 4258              	.LASF19:
 4259 0027 75696E74 		.ascii	"uint64_t\000"
 4259      36345F74 
 4259      00
 4260              	.LASF6:
 4261 0030 5F5F7569 		.ascii	"__uint8_t\000"
ARM GAS  /tmp/ccsVS11G.s 			page 76


 4261      6E74385F 
 4261      7400
 4262              	.LASF86:
 4263 003a 706F7274 		.ascii	"port_intctx\000"
 4263      5F696E74 
 4263      63747800 
 4264              	.LASF72:
 4265 0046 73797374 		.ascii	"system_debug_t\000"
 4265      656D5F64 
 4265      65627567 
 4265      5F7400
 4266              	.LASF146:
 4267 0055 71756575 		.ascii	"queue_init\000"
 4267      655F696E 
 4267      697400
 4268              	.LASF149:
 4269 0060 706F7274 		.ascii	"port_lock\000"
 4269      5F6C6F63 
 4269      6B00
 4270              	.LASF140:
 4271 006a 6368436F 		.ascii	"chCondBroadcastI\000"
 4271      6E644272 
 4271      6F616463 
 4271      61737449 
 4271      00
 4272              	.LASF14:
 4273 007b 6C6F6E67 		.ascii	"long long unsigned int\000"
 4273      206C6F6E 
 4273      6720756E 
 4273      7369676E 
 4273      65642069 
 4274              	.LASF110:
 4275 0092 63685F74 		.ascii	"ch_threadsize\000"
 4275      68726561 
 4275      6473697A 
 4275      6500
 4276              	.LASF90:
 4277 00a0 65786974 		.ascii	"exitcode\000"
 4277      636F6465 
 4277      00
 4278              	.LASF79:
 4279 00a9 6D61696E 		.ascii	"mainthread\000"
 4279      74687265 
 4279      616400
 4280              	.LASF69:
 4281 00b4 76697274 		.ascii	"virtual_timers_list_t\000"
 4281      75616C5F 
 4281      74696D65 
 4281      72735F6C 
 4281      6973745F 
 4282              	.LASF81:
 4283 00ca 49544D5F 		.ascii	"ITM_RxBuffer\000"
 4283      52784275 
 4283      66666572 
 4283      00
 4284              	.LASF160:
 4285 00d7 43686962 		.ascii	"ChibiOS_3.0.2/os/rt/src/chcond.c\000"
ARM GAS  /tmp/ccsVS11G.s 			page 77


 4285      694F535F 
 4285      332E302E 
 4285      322F6F73 
 4285      2F72742F 
 4286              	.LASF159:
 4287 00f8 474E5520 		.ascii	"GNU C11 7.3.1 20180622 (release) [ARM/embedded-7-br"
 4287      43313120 
 4287      372E332E 
 4287      31203230 
 4287      31383036 
 4288 012b 616E6368 		.ascii	"anch revision 261907] -mcpu=cortex-m4 -mfloat-abi=h"
 4288      20726576 
 4288      6973696F 
 4288      6E203236 
 4288      31393037 
 4289 015e 61726420 		.ascii	"ard -mfpu=fpv4-sp-d16 -mno-thumb-interwork -mthumb "
 4289      2D6D6670 
 4289      753D6670 
 4289      76342D73 
 4289      702D6431 
 4290 0191 2D676764 		.ascii	"-ggdb -O2 -fomit-frame-pointer -falign-functions=16"
 4290      62202D4F 
 4290      32202D66 
 4290      6F6D6974 
 4290      2D667261 
 4291 01c4 202D6666 		.ascii	" -ffunction-sections -fdata-sections -fno-common -f"
 4291      756E6374 
 4291      696F6E2D 
 4291      73656374 
 4291      696F6E73 
 4292 01f7 73696E67 		.ascii	"single-precision-constant\000"
 4292      6C652D70 
 4292      72656369 
 4292      73696F6E 
 4292      2D636F6E 
 4293              	.LASF52:
 4294 0211 63685F74 		.ascii	"ch_threads_queue\000"
 4294      68726561 
 4294      64735F71 
 4294      75657565 
 4294      00
 4295              	.LASF32:
 4296 0222 705F7072 		.ascii	"p_prio\000"
 4296      696F00
 4297              	.LASF117:
 4298 0229 63665F6F 		.ascii	"cf_off_state\000"
 4298      66665F73 
 4298      74617465 
 4298      00
 4299              	.LASF1:
 4300 0236 6C6F6E67 		.ascii	"long long int\000"
 4300      206C6F6E 
 4300      6720696E 
 4300      7400
 4301              	.LASF3:
 4302 0244 7369676E 		.ascii	"signed char\000"
 4302      65642063 
ARM GAS  /tmp/ccsVS11G.s 			page 78


 4302      68617200 
 4303              	.LASF127:
 4304 0250 636F6E64 		.ascii	"condition_variable_t\000"
 4304      6974696F 
 4304      6E5F7661 
 4304      72696162 
 4304      6C655F74 
 4305              	.LASF116:
 4306 0265 63665F6F 		.ascii	"cf_off_stklimit\000"
 4306      66665F73 
 4306      746B6C69 
 4306      6D697400 
 4307              	.LASF118:
 4308 0275 63665F6F 		.ascii	"cf_off_flags\000"
 4308      66665F66 
 4308      6C616773 
 4308      00
 4309              	.LASF46:
 4310 0282 705F6D70 		.ascii	"p_mpool\000"
 4310      6F6F6C00 
 4311              	.LASF100:
 4312 028a 6D5F7175 		.ascii	"m_queue\000"
 4312      65756500 
 4313              	.LASF78:
 4314 0292 76746C69 		.ascii	"vtlist\000"
 4314      737400
 4315              	.LASF148:
 4316 0299 706F7274 		.ascii	"port_unlock\000"
 4316      5F756E6C 
 4316      6F636B00 
 4317              	.LASF161:
 4318 02a5 2F686F6D 		.ascii	"/home/jhl/myprogram/vesc/bldc_uart_comm_stm32f4_dis"
 4318      652F6A68 
 4318      6C2F6D79 
 4318      70726F67 
 4318      72616D2F 
 4319 02d8 636F7665 		.ascii	"covery\000"
 4319      727900
 4320              	.LASF10:
 4321 02df 6C6F6E67 		.ascii	"long int\000"
 4321      20696E74 
 4321      00
 4322              	.LASF131:
 4323 02e8 6368436F 		.ascii	"chCondWaitS\000"
 4323      6E645761 
 4323      69745300 
 4324              	.LASF22:
 4325 02f4 74737461 		.ascii	"tstate_t\000"
 4325      74655F74 
 4325      00
 4326              	.LASF144:
 4327 02fd 71756575 		.ascii	"queue_notempty\000"
 4327      655F6E6F 
 4327      74656D70 
 4327      747900
 4328              	.LASF122:
 4329 030c 63686465 		.ascii	"chdebug_t\000"
ARM GAS  /tmp/ccsVS11G.s 			page 79


 4329      6275675F 
 4329      7400
 4330              	.LASF34:
 4331 0316 705F6E65 		.ascii	"p_newer\000"
 4331      77657200 
 4332              	.LASF97:
 4333 031e 735F7175 		.ascii	"s_queue\000"
 4333      65756500 
 4334              	.LASF157:
 4335 0326 63685363 		.ascii	"chSchRescheduleS\000"
 4335      68526573 
 4335      63686564 
 4335      756C6553 
 4335      00
 4336              	.LASF58:
 4337 0337 725F6E65 		.ascii	"r_newer\000"
 4337      77657200 
 4338              	.LASF83:
 4339 033f 72656761 		.ascii	"regarm_t\000"
 4339      726D5F74 
 4339      00
 4340              	.LASF65:
 4341 0348 76745F70 		.ascii	"vt_prev\000"
 4341      72657600 
 4342              	.LASF73:
 4343 0350 63685F73 		.ascii	"ch_system_debug\000"
 4343      79737465 
 4343      6D5F6465 
 4343      62756700 
 4344              	.LASF124:
 4345 0360 6D757465 		.ascii	"mutex_t\000"
 4345      785F7400 
 4346              	.LASF151:
 4347 0368 76616C75 		.ascii	"value\000"
 4347      6500
 4348              	.LASF136:
 4349 036e 6368436F 		.ascii	"chCondSignal\000"
 4349      6E645369 
 4349      676E616C 
 4349      00
 4350              	.LASF80:
 4351 037b 69646C65 		.ascii	"idle_thread_wa\000"
 4351      5F746872 
 4351      6561645F 
 4351      776100
 4352              	.LASF27:
 4353 038a 636E745F 		.ascii	"cnt_t\000"
 4353      7400
 4354              	.LASF152:
 4355 0390 63684D74 		.ascii	"chMtxUnlockS\000"
 4355      78556E6C 
 4355      6F636B53 
 4355      00
 4356              	.LASF0:
 4357 039d 756E7369 		.ascii	"unsigned int\000"
 4357      676E6564 
 4357      20696E74 
ARM GAS  /tmp/ccsVS11G.s 			page 80


 4357      00
 4358              	.LASF64:
 4359 03aa 76745F6E 		.ascii	"vt_next\000"
 4359      65787400 
 4360              	.LASF16:
 4361 03b2 75696E74 		.ascii	"uint16_t\000"
 4361      31365F74 
 4361      00
 4362              	.LASF82:
 4363 03bb 53797374 		.ascii	"SystemCoreClock\000"
 4363      656D436F 
 4363      7265436C 
 4363      6F636B00 
 4364              	.LASF93:
 4365 03cb 77747365 		.ascii	"wtsemp\000"
 4365      6D7000
 4366              	.LASF66:
 4367 03d2 76745F64 		.ascii	"vt_delta\000"
 4367      656C7461 
 4367      00
 4368              	.LASF41:
 4369 03db 705F6D73 		.ascii	"p_msgqueue\000"
 4369      67717565 
 4369      756500
 4370              	.LASF123:
 4371 03e6 63685F64 		.ascii	"ch_debug\000"
 4371      65627567 
 4371      00
 4372              	.LASF98:
 4373 03ef 735F636E 		.ascii	"s_cnt\000"
 4373      7400
 4374              	.LASF8:
 4375 03f5 73686F72 		.ascii	"short unsigned int\000"
 4375      7420756E 
 4375      7369676E 
 4375      65642069 
 4375      6E7400
 4376              	.LASF49:
 4377 0408 63685F74 		.ascii	"ch_thread\000"
 4377      68726561 
 4377      6400
 4378              	.LASF158:
 4379 0412 63685363 		.ascii	"chSchWakeupS\000"
 4379      6857616B 
 4379      65757053 
 4379      00
 4380              	.LASF25:
 4381 041f 6D73675F 		.ascii	"msg_t\000"
 4381      7400
 4382              	.LASF75:
 4383 0425 63685F73 		.ascii	"ch_system_t\000"
 4383      79737465 
 4383      6D5F7400 
 4384              	.LASF121:
 4385 0431 63665F6F 		.ascii	"cf_off_time\000"
 4385      66665F74 
 4385      696D6500 
ARM GAS  /tmp/ccsVS11G.s 			page 81


 4386              	.LASF54:
 4387 043d 63685F72 		.ascii	"ch_ready_list\000"
 4387      65616479 
 4387      5F6C6973 
 4387      7400
 4388              	.LASF26:
 4389 044b 6576656E 		.ascii	"eventmask_t\000"
 4389      746D6173 
 4389      6B5F7400 
 4390              	.LASF9:
 4391 0457 5F5F696E 		.ascii	"__int32_t\000"
 4391      7433325F 
 4391      7400
 4392              	.LASF84:
 4393 0461 73746B61 		.ascii	"stkalign_t\000"
 4393      6C69676E 
 4393      5F7400
 4394              	.LASF126:
 4395 046c 635F7175 		.ascii	"c_queue\000"
 4395      65756500 
 4396              	.LASF105:
 4397 0474 63685F7A 		.ascii	"ch_zero\000"
 4397      65726F00 
 4398              	.LASF119:
 4399 047c 63665F6F 		.ascii	"cf_off_refs\000"
 4399      66665F72 
 4399      65667300 
 4400              	.LASF40:
 4401 0488 705F7761 		.ascii	"p_waiting\000"
 4401      6974696E 
 4401      6700
 4402              	.LASF20:
 4403 0492 7274636E 		.ascii	"rtcnt_t\000"
 4403      745F7400 
 4404              	.LASF70:
 4405 049a 63685F76 		.ascii	"ch_virtual_timers_list\000"
 4405      69727475 
 4405      616C5F74 
 4405      696D6572 
 4405      735F6C69 
 4406              	.LASF125:
 4407 04b1 636F6E64 		.ascii	"condition_variable\000"
 4407      6974696F 
 4407      6E5F7661 
 4407      72696162 
 4407      6C6500
 4408              	.LASF129:
 4409 04c4 6368436F 		.ascii	"chCondWaitTimeoutS\000"
 4409      6E645761 
 4409      69745469 
 4409      6D656F75 
 4409      745300
 4410              	.LASF109:
 4411 04d7 63685F74 		.ascii	"ch_timesize\000"
 4411      696D6573 
 4411      697A6500 
 4412              	.LASF115:
ARM GAS  /tmp/ccsVS11G.s 			page 82


 4413 04e3 63665F6F 		.ascii	"cf_off_name\000"
 4413      66665F6E 
 4413      616D6500 
 4414              	.LASF35:
 4415 04ef 705F6F6C 		.ascii	"p_older\000"
 4415      64657200 
 4416              	.LASF57:
 4417 04f7 725F6374 		.ascii	"r_ctx\000"
 4417      7800
 4418              	.LASF33:
 4419 04fd 705F6374 		.ascii	"p_ctx\000"
 4419      7800
 4420              	.LASF88:
 4421 0503 746D5F63 		.ascii	"tm_calibration_t\000"
 4421      616C6962 
 4421      72617469 
 4421      6F6E5F74 
 4421      00
 4422              	.LASF102:
 4423 0514 6D5F6E65 		.ascii	"m_next\000"
 4423      787400
 4424              	.LASF128:
 4425 051b 74696D65 		.ascii	"time\000"
 4425      00
 4426              	.LASF60:
 4427 0520 725F6375 		.ascii	"r_current\000"
 4427      7272656E 
 4427      7400
 4428              	.LASF59:
 4429 052a 725F6F6C 		.ascii	"r_older\000"
 4429      64657200 
 4430              	.LASF134:
 4431 0532 6368436F 		.ascii	"chCondBroadcast\000"
 4431      6E644272 
 4431      6F616463 
 4431      61737400 
 4432              	.LASF13:
 4433 0542 5F5F7569 		.ascii	"__uint64_t\000"
 4433      6E743634 
 4433      5F7400
 4434              	.LASF23:
 4435 054d 74726566 		.ascii	"trefs_t\000"
 4435      735F7400 
 4436              	.LASF108:
 4437 0555 63685F70 		.ascii	"ch_ptrsize\000"
 4437      74727369 
 4437      7A6500
 4438              	.LASF62:
 4439 0560 76697274 		.ascii	"virtual_timer_t\000"
 4439      75616C5F 
 4439      74696D65 
 4439      725F7400 
 4440              	.LASF31:
 4441 0570 705F7072 		.ascii	"p_prev\000"
 4441      657600
 4442              	.LASF24:
 4443 0577 74707269 		.ascii	"tprio_t\000"
ARM GAS  /tmp/ccsVS11G.s 			page 83


 4443      6F5F7400 
 4444              	.LASF135:
 4445 057f 6368436F 		.ascii	"chCondSignalI\000"
 4445      6E645369 
 4445      676E616C 
 4445      4900
 4446              	.LASF145:
 4447 058d 5F426F6F 		.ascii	"_Bool\000"
 4447      6C00
 4448              	.LASF17:
 4449 0593 696E7433 		.ascii	"int32_t\000"
 4449      325F7400 
 4450              	.LASF4:
 4451 059b 756E7369 		.ascii	"unsigned char\000"
 4451      676E6564 
 4451      20636861 
 4451      7200
 4452              	.LASF44:
 4453 05a9 705F6D74 		.ascii	"p_mtxlist\000"
 4453      786C6973 
 4453      7400
 4454              	.LASF5:
 4455 05b3 73686F72 		.ascii	"short int\000"
 4455      7420696E 
 4455      7400
 4456              	.LASF37:
 4457 05bd 705F7374 		.ascii	"p_state\000"
 4457      61746500 
 4458              	.LASF56:
 4459 05c5 725F7072 		.ascii	"r_prio\000"
 4459      696F00
 4460              	.LASF95:
 4461 05cc 65776D61 		.ascii	"ewmask\000"
 4461      736B00
 4462              	.LASF30:
 4463 05d3 705F6E65 		.ascii	"p_next\000"
 4463      787400
 4464              	.LASF21:
 4465 05da 746D6F64 		.ascii	"tmode_t\000"
 4465      655F7400 
 4466              	.LASF120:
 4467 05e2 63665F6F 		.ascii	"cf_off_preempt\000"
 4467      66665F70 
 4467      7265656D 
 4467      707400
 4468              	.LASF38:
 4469 05f1 705F666C 		.ascii	"p_flags\000"
 4469      61677300 
 4470              	.LASF132:
 4471 05f9 5F5F6675 		.ascii	"__func__\000"
 4471      6E635F5F 
 4471      00
 4472              	.LASF147:
 4473 0602 63685379 		.ascii	"chSysLock\000"
 4473      734C6F63 
 4473      6B00
 4474              	.LASF76:
ARM GAS  /tmp/ccsVS11G.s 			page 84


 4475 060c 63685F73 		.ascii	"ch_system\000"
 4475      79737465 
 4475      6D00
 4476              	.LASF51:
 4477 0616 74687265 		.ascii	"threads_queue_t\000"
 4477      6164735F 
 4477      71756575 
 4477      655F7400 
 4478              	.LASF63:
 4479 0626 63685F76 		.ascii	"ch_virtual_timer\000"
 4479      69727475 
 4479      616C5F74 
 4479      696D6572 
 4479      00
 4480              	.LASF113:
 4481 0637 63665F6F 		.ascii	"cf_off_newer\000"
 4481      66665F6E 
 4481      65776572 
 4481      00
 4482              	.LASF96:
 4483 0644 63685F73 		.ascii	"ch_semaphore\000"
 4483      656D6170 
 4483      686F7265 
 4483      00
 4484              	.LASF155:
 4485 0651 63685363 		.ascii	"chSchGoSleepS\000"
 4485      68476F53 
 4485      6C656570 
 4485      5300
 4486              	.LASF43:
 4487 065f 705F6570 		.ascii	"p_epending\000"
 4487      656E6469 
 4487      6E6700
 4488              	.LASF138:
 4489 066a 63684D74 		.ascii	"chMtxGetNextMutexS\000"
 4489      78476574 
 4489      4E657874 
 4489      4D757465 
 4489      785300
 4490              	.LASF18:
 4491 067d 75696E74 		.ascii	"uint32_t\000"
 4491      33325F74 
 4491      00
 4492              	.LASF111:
 4493 0686 63665F6F 		.ascii	"cf_off_prio\000"
 4493      66665F70 
 4493      72696F00 
 4494              	.LASF55:
 4495 0692 725F7175 		.ascii	"r_queue\000"
 4495      65756500 
 4496              	.LASF156:
 4497 069a 63685363 		.ascii	"chSchReadyI\000"
 4497      68526561 
 4497      64794900 
 4498              	.LASF50:
 4499 06a6 63685F74 		.ascii	"ch_threads_list\000"
 4499      68726561 
ARM GAS  /tmp/ccsVS11G.s 			page 85


 4499      64735F6C 
 4499      69737400 
 4500              	.LASF106:
 4501 06b6 63685F73 		.ascii	"ch_size\000"
 4501      697A6500 
 4502              	.LASF12:
 4503 06be 6C6F6E67 		.ascii	"long unsigned int\000"
 4503      20756E73 
 4503      69676E65 
 4503      6420696E 
 4503      7400
 4504              	.LASF103:
 4505 06d0 63686172 		.ascii	"char\000"
 4505      00
 4506              	.LASF94:
 4507 06d5 77746D74 		.ascii	"wtmtxp\000"
 4507      787000
 4508              	.LASF7:
 4509 06dc 5F5F7569 		.ascii	"__uint16_t\000"
 4509      6E743136 
 4509      5F7400
 4510              	.LASF137:
 4511 06e7 6368436F 		.ascii	"chCondObjectInit\000"
 4511      6E644F62 
 4511      6A656374 
 4511      496E6974 
 4511      00
 4512              	.LASF2:
 4513 06f8 6C6F6E67 		.ascii	"long double\000"
 4513      20646F75 
 4513      626C6500 
 4514              	.LASF143:
 4515 0704 71756575 		.ascii	"queue_fifo_remove\000"
 4515      655F6669 
 4515      666F5F72 
 4515      656D6F76 
 4515      6500
 4516              	.LASF28:
 4517 0716 73797374 		.ascii	"systime_t\000"
 4517      696D655F 
 4517      7400
 4518              	.LASF45:
 4519 0720 705F7265 		.ascii	"p_realprio\000"
 4519      616C7072 
 4519      696F00
 4520              	.LASF61:
 4521 072b 76746675 		.ascii	"vtfunc_t\000"
 4521      6E635F74 
 4521      00
 4522              	.LASF11:
 4523 0734 5F5F7569 		.ascii	"__uint32_t\000"
 4523      6E743332 
 4523      5F7400
 4524              	.LASF150:
 4525 073f 5F5F7365 		.ascii	"__set_BASEPRI\000"
 4525      745F4241 
 4525      53455052 
ARM GAS  /tmp/ccsVS11G.s 			page 86


 4525      4900
 4526              	.LASF74:
 4527 074d 70616E69 		.ascii	"panic_msg\000"
 4527      635F6D73 
 4527      6700
 4528              	.LASF87:
 4529 0757 6F666673 		.ascii	"offset\000"
 4529      657400
 4530              	.LASF85:
 4531 075e 636F6E74 		.ascii	"context\000"
 4531      65787400 
 4532              	.LASF42:
 4533 0766 705F6D73 		.ascii	"p_msg\000"
 4533      6700
 4534              	.LASF133:
 4535 076c 6368436F 		.ascii	"chCondWait\000"
 4535      6E645761 
 4535      697400
 4536              	.LASF68:
 4537 0777 76745F70 		.ascii	"vt_par\000"
 4537      617200
 4538              	.LASF112:
 4539 077e 63665F6F 		.ascii	"cf_off_ctx\000"
 4539      66665F63 
 4539      747800
 4540              	.LASF99:
 4541 0789 63685F6D 		.ascii	"ch_mutex\000"
 4541      75746578 
 4541      00
 4542              	.LASF39:
 4543 0792 705F7265 		.ascii	"p_refs\000"
 4543      667300
 4544              	.LASF29:
 4545 0799 74687265 		.ascii	"thread_t\000"
 4545      61645F74 
 4545      00
 4546              	.LASF77:
 4547 07a2 726C6973 		.ascii	"rlist\000"
 4547      7400
 4548              	.LASF139:
 4549 07a8 63685468 		.ascii	"chThdGetSelfX\000"
 4549      64476574 
 4549      53656C66 
 4549      5800
 4550              	.LASF15:
 4551 07b6 75696E74 		.ascii	"uint8_t\000"
 4551      385F7400 
 4552              	.LASF71:
 4553 07be 76745F6C 		.ascii	"vt_lasttime\000"
 4553      61737474 
 4553      696D6500 
 4554              	.LASF47:
 4555 07ca 74687265 		.ascii	"thread_reference_t\000"
 4555      61645F72 
 4555      65666572 
 4555      656E6365 
 4555      5F7400
ARM GAS  /tmp/ccsVS11G.s 			page 87


 4556              	.LASF91:
 4557 07dd 77746F62 		.ascii	"wtobjp\000"
 4557      6A7000
 4558              	.LASF36:
 4559 07e4 705F6E61 		.ascii	"p_name\000"
 4559      6D6500
 4560              	.LASF130:
 4561 07eb 6368436F 		.ascii	"chCondWaitTimeout\000"
 4561      6E645761 
 4561      69745469 
 4561      6D656F75 
 4561      7400
 4562              	.LASF48:
 4563 07fd 74687265 		.ascii	"threads_list_t\000"
 4563      6164735F 
 4563      6C697374 
 4563      5F7400
 4564              	.LASF153:
 4565 080c 63685363 		.ascii	"chSchGoSleepTimeoutS\000"
 4565      68476F53 
 4565      6C656570 
 4565      54696D65 
 4565      6F757453 
 4566              	.LASF141:
 4567 0821 63685379 		.ascii	"chSysUnlock\000"
 4567      73556E6C 
 4567      6F636B00 
 4568              	.LASF107:
 4569 082d 63685F76 		.ascii	"ch_version\000"
 4569      65727369 
 4569      6F6E00
 4570              	.LASF154:
 4571 0838 63684D74 		.ascii	"chMtxLockS\000"
 4571      784C6F63 
 4571      6B5300
 4572              	.LASF142:
 4573 0843 71756575 		.ascii	"queue_prio_insert\000"
 4573      655F7072 
 4573      696F5F69 
 4573      6E736572 
 4573      7400
 4574              	.LASF101:
 4575 0855 6D5F6F77 		.ascii	"m_owner\000"
 4575      6E657200 
 4576              	.LASF104:
 4577 085d 63685F69 		.ascii	"ch_identifier\000"
 4577      64656E74 
 4577      69666965 
 4577      7200
 4578              	.LASF67:
 4579 086b 76745F66 		.ascii	"vt_func\000"
 4579      756E6300 
 4580              		.ident	"GCC: (GNU Tools for Arm Embedded Processors 7-2018-q3-update) 7.3.1 20180622 (release) [AR
ARM GAS  /tmp/ccsVS11G.s 			page 88


DEFINED SYMBOLS
                            *ABS*:0000000000000000 chcond.c
     /tmp/ccsVS11G.s:18     .text.chCondObjectInit:0000000000000000 $t
     /tmp/ccsVS11G.s:26     .text.chCondObjectInit:0000000000000000 chCondObjectInit
     /tmp/ccsVS11G.s:49     .text.chCondSignal:0000000000000000 $t
     /tmp/ccsVS11G.s:57     .text.chCondSignal:0000000000000000 chCondSignal
     /tmp/ccsVS11G.s:140    .text.chCondSignalI:0000000000000000 $t
     /tmp/ccsVS11G.s:148    .text.chCondSignalI:0000000000000000 chCondSignalI
     /tmp/ccsVS11G.s:200    .text.chCondBroadcast:0000000000000000 $t
     /tmp/ccsVS11G.s:208    .text.chCondBroadcast:0000000000000000 chCondBroadcast
     /tmp/ccsVS11G.s:317    .text.chCondBroadcastI:0000000000000000 $t
     /tmp/ccsVS11G.s:325    .text.chCondBroadcastI:0000000000000000 chCondBroadcastI
     /tmp/ccsVS11G.s:391    .text.chCondWaitS:0000000000000000 $t
     /tmp/ccsVS11G.s:399    .text.chCondWaitS:0000000000000000 chCondWaitS
     /tmp/ccsVS11G.s:499    .text.chCondWaitS:0000000000000048 $d
     /tmp/ccsVS11G.s:506    .text.chCondWait:0000000000000000 $t
     /tmp/ccsVS11G.s:514    .text.chCondWait:0000000000000000 chCondWait
     /tmp/ccsVS11G.s:570    .text.chCondWaitTimeoutS:0000000000000000 $t
     /tmp/ccsVS11G.s:578    .text.chCondWaitTimeoutS:0000000000000000 chCondWaitTimeoutS
     /tmp/ccsVS11G.s:699    .text.chCondWaitTimeoutS:0000000000000054 $d
     /tmp/ccsVS11G.s:706    .text.chCondWaitTimeout:0000000000000000 $t
     /tmp/ccsVS11G.s:714    .text.chCondWaitTimeout:0000000000000000 chCondWaitTimeout

UNDEFINED SYMBOLS
chSchWakeupS
chSchReadyI
chSchRescheduleS
chMtxUnlockS
chSchGoSleepS
chMtxLockS
ch
chSchGoSleepTimeoutS
