ARM GAS  /tmp/ccsVS11G.s 			page 1


   1              		.cpu cortex-m4
   2              		.eabi_attribute 27, 1
   3              		.eabi_attribute 28, 1
   4              		.eabi_attribute 20, 1
   5              		.eabi_attribute 21, 1
   6              		.eabi_attribute 23, 3
   7              		.eabi_attribute 24, 1
   8              		.eabi_attribute 25, 1
   9              		.eabi_attribute 26, 1
  10              		.eabi_attribute 30, 2
  11              		.eabi_attribute 34, 1
  12              		.eabi_attribute 18, 4
  13              		.file	"chcond.c"
  14              		.text
  15              	.Ltext0:
  16              		.cfi_sections	.debug_frame
  17              		.section	.text.chCondObjectInit,"ax",%progbits
  18              		.align	1
  19              		.p2align 4,,15
  20              		.global	chCondObjectInit
  21              		.syntax unified
  22              		.thumb
  23              		.thumb_func
  24              		.fpu fpv4-sp-d16
  25              		.type	chCondObjectInit, %function
  26              	chCondObjectInit:
  27              	.LFB229:
  28              		.file 1 "ChibiOS_3.0.2/os/rt/src/chcond.c"
  29              		.loc 1 75 0
  30              		.cfi_startproc
  31              		@ args = 0, pretend = 0, frame = 0
  32              		@ frame_needed = 0, uses_anonymous_args = 0
  33              		@ link register save eliminated.
  34              	.LVL0:
  35              	.LBB89:
  36              	.LBB90:
  37              		.file 2 "ChibiOS_3.0.2/os/rt/include/chschd.h"
  38              		.loc 2 605 0
  39 0000 C0E90000 		strd	r0, r0, [r0]
  40              	.LVL1:
  41              	.LBE90:
  42              	.LBE89:
  43              		.loc 1 80 0
  44 0004 7047     		bx	lr
  45              		.cfi_endproc
  46              	.LFE229:
  47              		.size	chCondObjectInit, .-chCondObjectInit
  48 0006 00BF     		.section	.text.chCondSignal,"ax",%progbits
  49              		.align	1
  50              		.p2align 4,,15
  51              		.global	chCondSignal
  52              		.syntax unified
  53              		.thumb
  54              		.thumb_func
  55              		.fpu fpv4-sp-d16
  56              		.type	chCondSignal, %function
  57              	chCondSignal:
ARM GAS  /tmp/ccsVS11G.s 			page 2


  58              	.LFB230:
  59              		.loc 1 89 0
  60              		.cfi_startproc
  61              		@ args = 0, pretend = 0, frame = 0
  62              		@ frame_needed = 0, uses_anonymous_args = 0
  63              	.LVL2:
  64 0000 08B5     		push	{r3, lr}
  65              		.cfi_def_cfa_offset 8
  66              		.cfi_offset 3, -8
  67              		.cfi_offset 14, -4
  68              	.LBB91:
  69              	.LBB92:
  70              	.LBB93:
  71              	.LBB94:
  72              		.file 3 "ChibiOS_3.0.2/os/ext/CMSIS/include/core_cmFunc.h"
  73              		.loc 3 546 0
  74 0002 2023     		movs	r3, #32
  75              		.syntax unified
  76              	@ 546 "ChibiOS_3.0.2/os/ext/CMSIS/include/core_cmFunc.h" 1
  77 0004 83F31188 		MSR basepri, r3
  78              	@ 0 "" 2
  79              	.LVL3:
  80              		.thumb
  81              		.syntax unified
  82              	.LBE94:
  83              	.LBE93:
  84              	.LBE92:
  85              	.LBE91:
  86              	.LBB95:
  87              	.LBB96:
  88              		.loc 2 631 0
  89 0008 0268     		ldr	r2, [r0]
  90              	.LVL4:
  91              	.LBE96:
  92              	.LBE95:
  93              		.loc 1 94 0
  94 000a 9042     		cmp	r0, r2
  95 000c 07D0     		beq	.L4
  96              	.LBB97:
  97              	.LBB98:
  98              		.loc 2 674 0
  99 000e 1168     		ldr	r1, [r2]
 100 0010 0160     		str	r1, [r0]
 101 0012 0346     		mov	r3, r0
 102              	.LVL5:
 103              		.loc 2 675 0
 104 0014 4B60     		str	r3, [r1, #4]
 105              	.LVL6:
 106              	.LBE98:
 107              	.LBE97:
 108              		.loc 1 95 0
 109 0016 1046     		mov	r0, r2
 110              	.LVL7:
 111 0018 0021     		movs	r1, #0
 112 001a FFF7FEFF 		bl	chSchWakeupS
 113              	.LVL8:
 114              	.L4:
ARM GAS  /tmp/ccsVS11G.s 			page 3


 115              	.LBB99:
 116              	.LBB100:
 117              	.LBB101:
 118              	.LBB102:
 119              	.LBB103:
 120              		.loc 3 546 0
 121 001e 0023     		movs	r3, #0
 122              		.syntax unified
 123              	@ 546 "ChibiOS_3.0.2/os/ext/CMSIS/include/core_cmFunc.h" 1
 124 0020 83F31188 		MSR basepri, r3
 125              	@ 0 "" 2
 126              	.LVL9:
 127              		.thumb
 128              		.syntax unified
 129              	.LBE103:
 130              	.LBE102:
 131              	.LBE101:
 132              	.LBE100:
 133              	.LBE99:
 134              		.loc 1 98 0
 135 0024 08BD     		pop	{r3, pc}
 136              		.cfi_endproc
 137              	.LFE230:
 138              		.size	chCondSignal, .-chCondSignal
 139 0026 00BF     		.section	.text.chCondSignalI,"ax",%progbits
 140              		.align	1
 141              		.p2align 4,,15
 142              		.global	chCondSignalI
 143              		.syntax unified
 144              		.thumb
 145              		.thumb_func
 146              		.fpu fpv4-sp-d16
 147              		.type	chCondSignalI, %function
 148              	chCondSignalI:
 149              	.LFB231:
 150              		.loc 1 111 0
 151              		.cfi_startproc
 152              		@ args = 0, pretend = 0, frame = 0
 153              		@ frame_needed = 0, uses_anonymous_args = 0
 154              		@ link register save eliminated.
 155              	.LVL10:
 156              	.LBB104:
 157              	.LBB105:
 158              		.loc 2 631 0
 159 0000 0368     		ldr	r3, [r0]
 160              	.LVL11:
 161              	.LBE105:
 162              	.LBE104:
 163              		.loc 1 116 0
 164 0002 9842     		cmp	r0, r3
 165 0004 07D0     		beq	.L6
 166              	.LVL12:
 167              	.LBB106:
 168              	.LBB107:
 169              	.LBB108:
 170              		.loc 2 674 0
 171 0006 1A68     		ldr	r2, [r3]
ARM GAS  /tmp/ccsVS11G.s 			page 4


 172 0008 0260     		str	r2, [r0]
 173              	.LBE108:
 174              	.LBE107:
 175              		.loc 1 118 0
 176 000a 0021     		movs	r1, #0
 177              	.LBB110:
 178              	.LBB109:
 179              		.loc 2 675 0
 180 000c 5060     		str	r0, [r2, #4]
 181              	.LVL13:
 182              	.LBE109:
 183              	.LBE110:
 184              		.loc 1 119 0
 185 000e 1846     		mov	r0, r3
 186              	.LVL14:
 187              		.loc 1 118 0
 188 0010 1962     		str	r1, [r3, #32]
 189              		.loc 1 119 0
 190 0012 FFF7FEBF 		b	chSchReadyI
 191              	.LVL15:
 192              	.L6:
 193              	.LBE106:
 194              		.loc 1 121 0
 195 0016 7047     		bx	lr
 196              		.cfi_endproc
 197              	.LFE231:
 198              		.size	chCondSignalI, .-chCondSignalI
 199              		.section	.text.chCondBroadcast,"ax",%progbits
 200              		.align	1
 201              		.p2align 4,,15
 202              		.global	chCondBroadcast
 203              		.syntax unified
 204              		.thumb
 205              		.thumb_func
 206              		.fpu fpv4-sp-d16
 207              		.type	chCondBroadcast, %function
 208              	chCondBroadcast:
 209              	.LFB232:
 210              		.loc 1 130 0
 211              		.cfi_startproc
 212              		@ args = 0, pretend = 0, frame = 0
 213              		@ frame_needed = 0, uses_anonymous_args = 0
 214              	.LVL16:
 215 0000 38B5     		push	{r3, r4, r5, lr}
 216              		.cfi_def_cfa_offset 16
 217              		.cfi_offset 3, -16
 218              		.cfi_offset 4, -12
 219              		.cfi_offset 5, -8
 220              		.cfi_offset 14, -4
 221              	.LBB111:
 222              	.LBB112:
 223              	.LBB113:
 224              	.LBB114:
 225              		.loc 3 546 0
 226 0002 2023     		movs	r3, #32
 227              		.syntax unified
 228              	@ 546 "ChibiOS_3.0.2/os/ext/CMSIS/include/core_cmFunc.h" 1
ARM GAS  /tmp/ccsVS11G.s 			page 5


 229 0004 83F31188 		MSR basepri, r3
 230              	@ 0 "" 2
 231              	.LVL17:
 232              		.thumb
 233              		.syntax unified
 234              	.LBE114:
 235              	.LBE113:
 236              	.LBE112:
 237              	.LBE111:
 238              	.LBB115:
 239              	.LBB116:
 240              	.LBB117:
 241              	.LBB118:
 242              		.loc 2 631 0
 243 0008 0368     		ldr	r3, [r0]
 244              	.LVL18:
 245              	.LBE118:
 246              	.LBE117:
 247              		.loc 1 157 0
 248 000a 9842     		cmp	r0, r3
 249 000c 0CD0     		beq	.L9
 250 000e 0446     		mov	r4, r0
 251              		.loc 1 158 0
 252 0010 6FF00105 		mvn	r5, #1
 253              	.LVL19:
 254              	.L10:
 255              	.LBB120:
 256              	.LBB121:
 257              		.loc 2 674 0
 258 0014 1A68     		ldr	r2, [r3]
 259 0016 2260     		str	r2, [r4]
 260              	.LBE121:
 261              	.LBE120:
 262              		.loc 1 158 0
 263 0018 1846     		mov	r0, r3
 264              	.LBB123:
 265              	.LBB122:
 266              		.loc 2 675 0
 267 001a 5460     		str	r4, [r2, #4]
 268              	.LVL20:
 269              	.LBE122:
 270              	.LBE123:
 271              		.loc 1 158 0
 272 001c FFF7FEFF 		bl	chSchReadyI
 273              	.LVL21:
 274              	.LBB124:
 275              	.LBB119:
 276              		.loc 2 631 0
 277 0020 2368     		ldr	r3, [r4]
 278              	.LBE119:
 279              	.LBE124:
 280              		.loc 1 158 0
 281 0022 0562     		str	r5, [r0, #32]
 282              		.loc 1 157 0
 283 0024 A342     		cmp	r3, r4
 284 0026 F5D1     		bne	.L10
 285              	.LVL22:
ARM GAS  /tmp/ccsVS11G.s 			page 6


 286              	.L9:
 287              	.LBE116:
 288              	.LBE115:
 289              		.loc 1 134 0
 290 0028 FFF7FEFF 		bl	chSchRescheduleS
 291              	.LVL23:
 292              	.LBB125:
 293              	.LBB126:
 294              	.LBB127:
 295              	.LBB128:
 296              	.LBB129:
 297              		.loc 3 546 0
 298 002c 0023     		movs	r3, #0
 299              		.syntax unified
 300              	@ 546 "ChibiOS_3.0.2/os/ext/CMSIS/include/core_cmFunc.h" 1
 301 002e 83F31188 		MSR basepri, r3
 302              	@ 0 "" 2
 303              	.LVL24:
 304              		.thumb
 305              		.syntax unified
 306              	.LBE129:
 307              	.LBE128:
 308              	.LBE127:
 309              	.LBE126:
 310              	.LBE125:
 311              		.loc 1 136 0
 312 0032 38BD     		pop	{r3, r4, r5, pc}
 313              		.cfi_endproc
 314              	.LFE232:
 315              		.size	chCondBroadcast, .-chCondBroadcast
 316              		.section	.text.chCondBroadcastI,"ax",%progbits
 317              		.align	1
 318              		.p2align 4,,15
 319              		.global	chCondBroadcastI
 320              		.syntax unified
 321              		.thumb
 322              		.thumb_func
 323              		.fpu fpv4-sp-d16
 324              		.type	chCondBroadcastI, %function
 325              	chCondBroadcastI:
 326              	.LFB233:
 327              		.loc 1 149 0
 328              		.cfi_startproc
 329              		@ args = 0, pretend = 0, frame = 0
 330              		@ frame_needed = 0, uses_anonymous_args = 0
 331              	.LVL25:
 332 0000 38B5     		push	{r3, r4, r5, lr}
 333              		.cfi_def_cfa_offset 16
 334              		.cfi_offset 3, -16
 335              		.cfi_offset 4, -12
 336              		.cfi_offset 5, -8
 337              		.cfi_offset 14, -4
 338              	.LBB130:
 339              	.LBB131:
 340              		.loc 2 631 0
 341 0002 0368     		ldr	r3, [r0]
 342              	.LVL26:
ARM GAS  /tmp/ccsVS11G.s 			page 7


 343              	.LBE131:
 344              	.LBE130:
 345              		.loc 1 157 0
 346 0004 8342     		cmp	r3, r0
 347 0006 0CD0     		beq	.L13
 348 0008 0446     		mov	r4, r0
 349              		.loc 1 158 0
 350 000a 6FF00105 		mvn	r5, #1
 351              	.LVL27:
 352              	.L15:
 353              	.LBB133:
 354              	.LBB134:
 355              		.loc 2 674 0
 356 000e 1A68     		ldr	r2, [r3]
 357 0010 2260     		str	r2, [r4]
 358              	.LBE134:
 359              	.LBE133:
 360              		.loc 1 158 0
 361 0012 1846     		mov	r0, r3
 362              	.LBB136:
 363              	.LBB135:
 364              		.loc 2 675 0
 365 0014 5460     		str	r4, [r2, #4]
 366              	.LVL28:
 367              	.LBE135:
 368              	.LBE136:
 369              		.loc 1 158 0
 370 0016 FFF7FEFF 		bl	chSchReadyI
 371              	.LVL29:
 372              	.LBB137:
 373              	.LBB132:
 374              		.loc 2 631 0
 375 001a 2368     		ldr	r3, [r4]
 376              	.LBE132:
 377              	.LBE137:
 378              		.loc 1 158 0
 379 001c 0562     		str	r5, [r0, #32]
 380              		.loc 1 157 0
 381 001e A342     		cmp	r3, r4
 382 0020 F5D1     		bne	.L15
 383              	.LVL30:
 384              	.L13:
 385              		.loc 1 160 0
 386 0022 38BD     		pop	{r3, r4, r5, pc}
 387              		.cfi_endproc
 388              	.LFE233:
 389              		.size	chCondBroadcastI, .-chCondBroadcastI
 390              		.section	.text.chCondWaitS,"ax",%progbits
 391              		.align	1
 392              		.p2align 4,,15
 393              		.global	chCondWaitS
 394              		.syntax unified
 395              		.thumb
 396              		.thumb_func
 397              		.fpu fpv4-sp-d16
 398              		.type	chCondWaitS, %function
 399              	chCondWaitS:
ARM GAS  /tmp/ccsVS11G.s 			page 8


 400              	.LFB235:
 401              		.loc 1 205 0
 402              		.cfi_startproc
 403              		@ args = 0, pretend = 0, frame = 0
 404              		@ frame_needed = 0, uses_anonymous_args = 0
 405              	.LVL31:
 406 0000 F8B5     		push	{r3, r4, r5, r6, r7, lr}
 407              		.cfi_def_cfa_offset 24
 408              		.cfi_offset 3, -24
 409              		.cfi_offset 4, -20
 410              		.cfi_offset 5, -16
 411              		.cfi_offset 6, -12
 412              		.cfi_offset 7, -8
 413              		.cfi_offset 14, -4
 414              		.loc 1 206 0
 415 0002 114B     		ldr	r3, .L25
 416 0004 9C69     		ldr	r4, [r3, #24]
 417              	.LVL32:
 418              	.LBB138:
 419              	.LBB139:
 420              		.file 4 "ChibiOS_3.0.2/os/rt/include/chmtx.h"
 421              		.loc 4 146 0
 422 0006 A76B     		ldr	r7, [r4, #56]
 423              	.LBE139:
 424              	.LBE138:
 425              		.loc 1 205 0
 426 0008 0546     		mov	r5, r0
 427              		.loc 1 216 0
 428 000a 3846     		mov	r0, r7
 429              	.LVL33:
 430 000c FFF7FEFF 		bl	chMtxUnlockS
 431              	.LVL34:
 432              		.loc 1 221 0
 433 0010 2E46     		mov	r6, r5
 434              	.LVL35:
 435              		.loc 1 220 0
 436 0012 2562     		str	r5, [r4, #32]
 437              		.loc 1 221 0
 438 0014 2B46     		mov	r3, r5
 439 0016 03E0     		b	.L20
 440              	.LVL36:
 441              	.L24:
 442              	.LBB140:
 443              	.LBB141:
 444              		.loc 2 656 0
 445 0018 9968     		ldr	r1, [r3, #8]
 446 001a A268     		ldr	r2, [r4, #8]
 447 001c 9142     		cmp	r1, r2
 448 001e 10D3     		bcc	.L23
 449              	.LVL37:
 450              	.L20:
 451              		.loc 2 655 0
 452 0020 1B68     		ldr	r3, [r3]
 453              	.LVL38:
 454              		.loc 2 656 0
 455 0022 9D42     		cmp	r5, r3
 456 0024 F8D1     		bne	.L24
ARM GAS  /tmp/ccsVS11G.s 			page 9


 457              	.L19:
 458              		.loc 2 658 0
 459 0026 7368     		ldr	r3, [r6, #4]
 460              	.LVL39:
 461              	.LBE141:
 462              	.LBE140:
 463              		.loc 1 222 0
 464 0028 0720     		movs	r0, #7
 465              	.LBB144:
 466              	.LBB142:
 467              		.loc 2 658 0
 468 002a C4E90063 		strd	r6, r3, [r4]
 469              		.loc 2 659 0
 470 002e 1C60     		str	r4, [r3]
 471              		.loc 2 660 0
 472 0030 7460     		str	r4, [r6, #4]
 473              	.LVL40:
 474              	.LBE142:
 475              	.LBE144:
 476              		.loc 1 222 0
 477 0032 FFF7FEFF 		bl	chSchGoSleepS
 478              	.LVL41:
 479              		.loc 1 223 0
 480 0036 246A     		ldr	r4, [r4, #32]
 481              	.LVL42:
 482              		.loc 1 224 0
 483 0038 3846     		mov	r0, r7
 484 003a FFF7FEFF 		bl	chMtxLockS
 485              	.LVL43:
 486              		.loc 1 227 0
 487 003e 2046     		mov	r0, r4
 488 0040 F8BD     		pop	{r3, r4, r5, r6, r7, pc}
 489              	.LVL44:
 490              	.L23:
 491              	.LBB145:
 492              	.LBB143:
 493              		.loc 2 655 0
 494 0042 1E46     		mov	r6, r3
 495 0044 EFE7     		b	.L19
 496              	.L26:
 497 0046 00BF     		.align	2
 498              	.L25:
 499 0048 00000000 		.word	ch
 500              	.LBE143:
 501              	.LBE145:
 502              		.cfi_endproc
 503              	.LFE235:
 504              		.size	chCondWaitS, .-chCondWaitS
 505              		.section	.text.chCondWait,"ax",%progbits
 506              		.align	1
 507              		.p2align 4,,15
 508              		.global	chCondWait
 509              		.syntax unified
 510              		.thumb
 511              		.thumb_func
 512              		.fpu fpv4-sp-d16
 513              		.type	chCondWait, %function
ARM GAS  /tmp/ccsVS11G.s 			page 10


 514              	chCondWait:
 515              	.LFB234:
 516              		.loc 1 179 0
 517              		.cfi_startproc
 518              		@ args = 0, pretend = 0, frame = 0
 519              		@ frame_needed = 0, uses_anonymous_args = 0
 520              	.LVL45:
 521 0000 08B5     		push	{r3, lr}
 522              		.cfi_def_cfa_offset 8
 523              		.cfi_offset 3, -8
 524              		.cfi_offset 14, -4
 525              	.LBB146:
 526              	.LBB147:
 527              	.LBB148:
 528              	.LBB149:
 529              		.loc 3 546 0
 530 0002 2023     		movs	r3, #32
 531              		.syntax unified
 532              	@ 546 "ChibiOS_3.0.2/os/ext/CMSIS/include/core_cmFunc.h" 1
 533 0004 83F31188 		MSR basepri, r3
 534              	@ 0 "" 2
 535              	.LVL46:
 536              		.thumb
 537              		.syntax unified
 538              	.LBE149:
 539              	.LBE148:
 540              	.LBE147:
 541              	.LBE146:
 542              		.loc 1 183 0
 543 0008 FFF7FEFF 		bl	chCondWaitS
 544              	.LVL47:
 545              	.LBB150:
 546              	.LBB151:
 547              	.LBB152:
 548              	.LBB153:
 549              	.LBB154:
 550              		.loc 3 546 0
 551 000c 0023     		movs	r3, #0
 552              		.syntax unified
 553              	@ 546 "ChibiOS_3.0.2/os/ext/CMSIS/include/core_cmFunc.h" 1
 554 000e 83F31188 		MSR basepri, r3
 555              	@ 0 "" 2
 556              	.LVL48:
 557              		.thumb
 558              		.syntax unified
 559              	.LBE154:
 560              	.LBE153:
 561              	.LBE152:
 562              	.LBE151:
 563              	.LBE150:
 564              		.loc 1 186 0
 565 0012 08BD     		pop	{r3, pc}
 566              		.cfi_endproc
 567              	.LFE234:
 568              		.size	chCondWait, .-chCondWait
 569              		.section	.text.chCondWaitTimeoutS,"ax",%progbits
 570              		.align	1
ARM GAS  /tmp/ccsVS11G.s 			page 11


 571              		.p2align 4,,15
 572              		.global	chCondWaitTimeoutS
 573              		.syntax unified
 574              		.thumb
 575              		.thumb_func
 576              		.fpu fpv4-sp-d16
 577              		.type	chCondWaitTimeoutS, %function
 578              	chCondWaitTimeoutS:
 579              	.LFB237:
 580              		.loc 1 296 0
 581              		.cfi_startproc
 582              		@ args = 0, pretend = 0, frame = 0
 583              		@ frame_needed = 0, uses_anonymous_args = 0
 584              	.LVL49:
 585 0000 2DE9F041 		push	{r4, r5, r6, r7, r8, lr}
 586              		.cfi_def_cfa_offset 24
 587              		.cfi_offset 4, -24
 588              		.cfi_offset 5, -20
 589              		.cfi_offset 6, -16
 590              		.cfi_offset 7, -12
 591              		.cfi_offset 8, -8
 592              		.cfi_offset 14, -4
 593              	.LBB155:
 594              	.LBB156:
 595              	.LBB157:
 596              	.LBB158:
 597              		.file 5 "ChibiOS_3.0.2/os/rt/include/chthreads.h"
 598              		.loc 5 176 0
 599 0004 134C     		ldr	r4, .L40
 600              	.LBE158:
 601              	.LBE157:
 602              		.loc 4 146 0
 603 0006 A369     		ldr	r3, [r4, #24]
 604 0008 9F6B     		ldr	r7, [r3, #56]
 605              	.LBE156:
 606              	.LBE155:
 607              		.loc 1 296 0
 608 000a 0546     		mov	r5, r0
 609              		.loc 1 306 0
 610 000c 3846     		mov	r0, r7
 611              	.LVL50:
 612              		.loc 1 296 0
 613 000e 8846     		mov	r8, r1
 614              		.loc 1 306 0
 615 0010 FFF7FEFF 		bl	chMtxUnlockS
 616              	.LVL51:
 617              		.loc 1 310 0
 618 0014 A469     		ldr	r4, [r4, #24]
 619              		.loc 1 311 0
 620 0016 2E46     		mov	r6, r5
 621              	.LVL52:
 622              		.loc 1 310 0
 623 0018 2562     		str	r5, [r4, #32]
 624              		.loc 1 311 0
 625 001a 2B46     		mov	r3, r5
 626 001c 03E0     		b	.L31
 627              	.LVL53:
ARM GAS  /tmp/ccsVS11G.s 			page 12


 628              	.L39:
 629              	.LBB159:
 630              	.LBB160:
 631              		.loc 2 656 0
 632 001e 9868     		ldr	r0, [r3, #8]
 633 0020 A268     		ldr	r2, [r4, #8]
 634 0022 9042     		cmp	r0, r2
 635 0024 14D3     		bcc	.L38
 636              	.LVL54:
 637              	.L31:
 638              		.loc 2 655 0
 639 0026 1B68     		ldr	r3, [r3]
 640              	.LVL55:
 641              		.loc 2 656 0
 642 0028 9D42     		cmp	r5, r3
 643 002a F8D1     		bne	.L39
 644              	.L30:
 645              		.loc 2 658 0
 646 002c 7368     		ldr	r3, [r6, #4]
 647              	.LVL56:
 648 002e 6360     		str	r3, [r4, #4]
 649              		.loc 2 657 0
 650 0030 2660     		str	r6, [r4]
 651              	.LBE160:
 652              	.LBE159:
 653              		.loc 1 312 0
 654 0032 4146     		mov	r1, r8
 655              	.LBB164:
 656              	.LBB161:
 657              		.loc 2 659 0
 658 0034 1C60     		str	r4, [r3]
 659              	.LBE161:
 660              	.LBE164:
 661              		.loc 1 312 0
 662 0036 0720     		movs	r0, #7
 663              	.LBB165:
 664              	.LBB162:
 665              		.loc 2 660 0
 666 0038 7460     		str	r4, [r6, #4]
 667              	.LVL57:
 668              	.LBE162:
 669              	.LBE165:
 670              		.loc 1 312 0
 671 003a FFF7FEFF 		bl	chSchGoSleepTimeoutS
 672              	.LVL58:
 673              		.loc 1 313 0
 674 003e 431C     		adds	r3, r0, #1
 675              		.loc 1 312 0
 676 0040 0446     		mov	r4, r0
 677              	.LVL59:
 678              		.loc 1 313 0
 679 0042 02D0     		beq	.L29
 680              		.loc 1 314 0
 681 0044 3846     		mov	r0, r7
 682              	.LVL60:
 683 0046 FFF7FEFF 		bl	chMtxLockS
 684              	.LVL61:
ARM GAS  /tmp/ccsVS11G.s 			page 13


 685              	.L29:
 686              		.loc 1 318 0
 687 004a 2046     		mov	r0, r4
 688 004c BDE8F081 		pop	{r4, r5, r6, r7, r8, pc}
 689              	.LVL62:
 690              	.L38:
 691              	.LBB166:
 692              	.LBB163:
 693              		.loc 2 655 0
 694 0050 1E46     		mov	r6, r3
 695 0052 EBE7     		b	.L30
 696              	.L41:
 697              		.align	2
 698              	.L40:
 699 0054 00000000 		.word	ch
 700              	.LBE163:
 701              	.LBE166:
 702              		.cfi_endproc
 703              	.LFE237:
 704              		.size	chCondWaitTimeoutS, .-chCondWaitTimeoutS
 705              		.section	.text.chCondWaitTimeout,"ax",%progbits
 706              		.align	1
 707              		.p2align 4,,15
 708              		.global	chCondWaitTimeout
 709              		.syntax unified
 710              		.thumb
 711              		.thumb_func
 712              		.fpu fpv4-sp-d16
 713              		.type	chCondWaitTimeout, %function
 714              	chCondWaitTimeout:
 715              	.LFB236:
 716              		.loc 1 258 0
 717              		.cfi_startproc
 718              		@ args = 0, pretend = 0, frame = 0
 719              		@ frame_needed = 0, uses_anonymous_args = 0
 720              	.LVL63:
 721 0000 08B5     		push	{r3, lr}
 722              		.cfi_def_cfa_offset 8
 723              		.cfi_offset 3, -8
 724              		.cfi_offset 14, -4
 725              	.LBB167:
 726              	.LBB168:
 727              	.LBB169:
 728              	.LBB170:
 729              		.loc 3 546 0
 730 0002 2023     		movs	r3, #32
 731              		.syntax unified
 732              	@ 546 "ChibiOS_3.0.2/os/ext/CMSIS/include/core_cmFunc.h" 1
 733 0004 83F31188 		MSR basepri, r3
 734              	@ 0 "" 2
 735              	.LVL64:
 736              		.thumb
 737              		.syntax unified
 738              	.LBE170:
 739              	.LBE169:
 740              	.LBE168:
 741              	.LBE167:
ARM GAS  /tmp/ccsVS11G.s 			page 14


 742              		.loc 1 262 0
 743 0008 FFF7FEFF 		bl	chCondWaitTimeoutS
 744              	.LVL65:
 745              	.LBB171:
 746              	.LBB172:
 747              	.LBB173:
 748              	.LBB174:
 749              	.LBB175:
 750              		.loc 3 546 0
 751 000c 0023     		movs	r3, #0
 752              		.syntax unified
 753              	@ 546 "ChibiOS_3.0.2/os/ext/CMSIS/include/core_cmFunc.h" 1
 754 000e 83F31188 		MSR basepri, r3
 755              	@ 0 "" 2
 756              	.LVL66:
 757              		.thumb
 758              		.syntax unified
 759              	.LBE175:
 760              	.LBE174:
 761              	.LBE173:
 762              	.LBE172:
 763              	.LBE171:
 764              		.loc 1 266 0
 765 0012 08BD     		pop	{r3, pc}
 766              		.cfi_endproc
 767              	.LFE236:
 768              		.size	chCondWaitTimeout, .-chCondWaitTimeout
 769              		.text
 770              	.Letext0:
 771              		.file 6 "/usr/arm-none-eabi/include/machine/_default_types.h"
 772              		.file 7 "/usr/arm-none-eabi/include/sys/_stdint.h"
 773              		.file 8 "ChibiOS_3.0.2/os/rt/ports/ARMCMx/compilers/GCC/chtypes.h"
 774              		.file 9 "ChibiOS_3.0.2/os/rt/include/chsystypes.h"
 775              		.file 10 "ChibiOS_3.0.2/os/ext/CMSIS/include/core_cm4.h"
 776              		.file 11 "ChibiOS_3.0.2/os/ext/CMSIS/ST/system_stm32f4xx.h"
 777              		.file 12 "ChibiOS_3.0.2/os/rt/ports/ARMCMx/chcore.h"
 778              		.file 13 "ChibiOS_3.0.2/os/rt/ports/ARMCMx/chcore_v7m.h"
 779              		.file 14 "ChibiOS_3.0.2/os/rt/include/chtm.h"
 780              		.file 15 "ChibiOS_3.0.2/os/rt/include/chsem.h"
 781              		.file 16 "ChibiOS_3.0.2/os/rt/include/chregistry.h"
 782              		.file 17 "ChibiOS_3.0.2/os/rt/include/chcond.h"
 783              		.file 18 "ChibiOS_3.0.2/os/rt/include/chsys.h"