ARM GAS  /tmp/ccHlvbaL.s 			page 1


   1              		.cpu cortex-m4
   2              		.eabi_attribute 27, 1
   3              		.eabi_attribute 28, 1
   4              		.eabi_attribute 20, 1
   5              		.eabi_attribute 21, 1
   6              		.eabi_attribute 23, 3
   7              		.eabi_attribute 24, 1
   8              		.eabi_attribute 25, 1
   9              		.eabi_attribute 26, 1
  10              		.eabi_attribute 30, 2
  11              		.eabi_attribute 34, 1
  12              		.eabi_attribute 18, 4
  13              		.file	"chmsg.c"
  14              		.text
  15              	.Ltext0:
  16              		.cfi_sections	.debug_frame
  17              		.section	.text.chMsgSend,"ax",%progbits
  18              		.align	1
  19              		.p2align 4,,15
  20              		.global	chMsgSend
  21              		.syntax unified
  22              		.thumb
  23              		.thumb_func
  24              		.fpu fpv4-sp-d16
  25              		.type	chMsgSend, %function
  26              	chMsgSend:
  27              	.LFB229:
  28              		.file 1 "ChibiOS_3.0.2/os/rt/src/chmsg.c"
  29              		.loc 1 87 0
  30              		.cfi_startproc
  31              		@ args = 0, pretend = 0, frame = 0
  32              		@ frame_needed = 0, uses_anonymous_args = 0
  33              	.LVL0:
  34              		.loc 1 88 0
  35 0000 0E4B     		ldr	r3, .L6
  36              		.loc 1 87 0
  37 0002 10B5     		push	{r4, lr}
  38              		.cfi_def_cfa_offset 8
  39              		.cfi_offset 4, -8
  40              		.cfi_offset 14, -4
  41              	.LBB52:
  42              	.LBB53:
  43              	.LBB54:
  44              	.LBB55:
  45              		.file 2 "ChibiOS_3.0.2/os/ext/CMSIS/include/core_cmFunc.h"
  46              		.loc 2 546 0
  47 0004 2022     		movs	r2, #32
  48              	.LBE55:
  49              	.LBE54:
  50              	.LBE53:
  51              	.LBE52:
  52              		.loc 1 88 0
  53 0006 9C69     		ldr	r4, [r3, #24]
  54              	.LVL1:
  55              	.LBB59:
  56              	.LBB58:
  57              	.LBB57:
ARM GAS  /tmp/ccHlvbaL.s 			page 2


  58              	.LBB56:
  59              		.loc 2 546 0
  60              		.syntax unified
  61              	@ 546 "ChibiOS_3.0.2/os/ext/CMSIS/include/core_cmFunc.h" 1
  62 0008 82F31188 		MSR basepri, r2
  63              	@ 0 "" 2
  64              	.LVL2:
  65              		.thumb
  66              		.syntax unified
  67              	.LBE56:
  68              	.LBE57:
  69              	.LBE58:
  70              	.LBE59:
  71              	.LBB60:
  72              	.LBB61:
  73              		.file 3 "ChibiOS_3.0.2/os/rt/include/chschd.h"
  74              		.loc 3 666 0
  75 000c C26A     		ldr	r2, [r0, #44]
  76              	.LBE61:
  77              	.LBE60:
  78              		.loc 1 93 0
  79 000e 2163     		str	r1, [r4, #48]
  80              		.loc 1 94 0
  81 0010 00F12801 		add	r1, r0, #40
  82              	.LVL3:
  83              	.LBB65:
  84              	.LBB62:
  85              		.loc 3 666 0
  86 0014 6260     		str	r2, [r4, #4]
  87              	.LBE62:
  88              	.LBE65:
  89              		.loc 1 94 0
  90 0016 2162     		str	r1, [r4, #32]
  91              	.LVL4:
  92              	.LBB66:
  93              	.LBB63:
  94              		.loc 3 665 0
  95 0018 2160     		str	r1, [r4]
  96              		.loc 3 667 0
  97 001a 1460     		str	r4, [r2]
  98              	.LBE63:
  99              	.LBE66:
 100              		.loc 1 96 0
 101 001c 027F     		ldrb	r2, [r0, #28]	@ zero_extendqisi2
 102              	.LBB67:
 103              	.LBB64:
 104              		.loc 3 668 0
 105 001e C462     		str	r4, [r0, #44]
 106              	.LVL5:
 107              	.LBE64:
 108              	.LBE67:
 109              		.loc 1 96 0
 110 0020 0E2A     		cmp	r2, #14
 111 0022 07D0     		beq	.L5
 112              	.LVL6:
 113              	.L2:
 114              		.loc 1 99 0
ARM GAS  /tmp/ccHlvbaL.s 			page 3


 115 0024 0C20     		movs	r0, #12
 116 0026 FFF7FEFF 		bl	chSchGoSleepS
 117              	.LVL7:
 118              		.loc 1 100 0
 119 002a 206A     		ldr	r0, [r4, #32]
 120              	.LVL8:
 121              	.LBB68:
 122              	.LBB69:
 123              	.LBB70:
 124              	.LBB71:
 125              	.LBB72:
 126              		.loc 2 546 0
 127 002c 0023     		movs	r3, #0
 128              		.syntax unified
 129              	@ 546 "ChibiOS_3.0.2/os/ext/CMSIS/include/core_cmFunc.h" 1
 130 002e 83F31188 		MSR basepri, r3
 131              	@ 0 "" 2
 132              	.LVL9:
 133              		.thumb
 134              		.syntax unified
 135              	.LBE72:
 136              	.LBE71:
 137              	.LBE70:
 138              	.LBE69:
 139              	.LBE68:
 140              		.loc 1 104 0
 141 0032 10BD     		pop	{r4, pc}
 142              	.LVL10:
 143              	.L5:
 144              		.loc 1 97 0
 145 0034 FFF7FEFF 		bl	chSchReadyI
 146              	.LVL11:
 147 0038 F4E7     		b	.L2
 148              	.L7:
 149 003a 00BF     		.align	2
 150              	.L6:
 151 003c 00000000 		.word	ch
 152              		.cfi_endproc
 153              	.LFE229:
 154              		.size	chMsgSend, .-chMsgSend
 155              		.section	.text.chMsgWait,"ax",%progbits
 156              		.align	1
 157              		.p2align 4,,15
 158              		.global	chMsgWait
 159              		.syntax unified
 160              		.thumb
 161              		.thumb_func
 162              		.fpu fpv4-sp-d16
 163              		.type	chMsgWait, %function
 164              	chMsgWait:
 165              	.LFB230:
 166              		.loc 1 120 0
 167              		.cfi_startproc
 168              		@ args = 0, pretend = 0, frame = 0
 169              		@ frame_needed = 0, uses_anonymous_args = 0
 170              	.LVL12:
 171 0000 10B5     		push	{r4, lr}
ARM GAS  /tmp/ccHlvbaL.s 			page 4


 172              		.cfi_def_cfa_offset 8
 173              		.cfi_offset 4, -8
 174              		.cfi_offset 14, -4
 175              	.LBB73:
 176              	.LBB74:
 177              	.LBB75:
 178              	.LBB76:
 179              		.loc 2 546 0
 180 0002 2023     		movs	r3, #32
 181              		.syntax unified
 182              	@ 546 "ChibiOS_3.0.2/os/ext/CMSIS/include/core_cmFunc.h" 1
 183 0004 83F31188 		MSR basepri, r3
 184              	@ 0 "" 2
 185              	.LVL13:
 186              		.thumb
 187              		.syntax unified
 188              	.LBE76:
 189              	.LBE75:
 190              	.LBE74:
 191              	.LBE73:
 192              		.loc 1 124 0
 193 0008 0B4C     		ldr	r4, .L12
 194 000a A269     		ldr	r2, [r4, #24]
 195              	.LVL14:
 196              	.LBB77:
 197              	.LBB78:
 198              		.file 4 "ChibiOS_3.0.2/os/rt/include/chmsg.h"
 199              		.loc 4 83 0
 200 000c 1346     		mov	r3, r2
 201 000e 53F8280F 		ldr	r0, [r3, #40]!
 202              	.LVL15:
 203              	.LBE78:
 204              	.LBE77:
 205              		.loc 1 124 0
 206 0012 9842     		cmp	r0, r3
 207 0014 08D0     		beq	.L11
 208              	.L9:
 209              	.LVL16:
 210              	.LBB79:
 211              	.LBB80:
 212              		.loc 3 674 0
 213 0016 0168     		ldr	r1, [r0]
 214 0018 9162     		str	r1, [r2, #40]
 215              	.LVL17:
 216              	.LBE80:
 217              	.LBE79:
 218              		.loc 1 128 0
 219 001a 0D22     		movs	r2, #13
 220              	.LBB82:
 221              	.LBB81:
 222              		.loc 3 675 0
 223 001c 4B60     		str	r3, [r1, #4]
 224              	.LVL18:
 225              	.LBE81:
 226              	.LBE82:
 227              	.LBB83:
 228              	.LBB84:
ARM GAS  /tmp/ccHlvbaL.s 			page 5


 229              	.LBB85:
 230              	.LBB86:
 231              	.LBB87:
 232              		.loc 2 546 0
 233 001e 0023     		movs	r3, #0
 234              	.LBE87:
 235              	.LBE86:
 236              	.LBE85:
 237              	.LBE84:
 238              	.LBE83:
 239              		.loc 1 128 0
 240 0020 0277     		strb	r2, [r0, #28]
 241              	.LVL19:
 242              	.LBB92:
 243              	.LBB91:
 244              	.LBB90:
 245              	.LBB89:
 246              	.LBB88:
 247              		.loc 2 546 0
 248              		.syntax unified
 249              	@ 546 "ChibiOS_3.0.2/os/ext/CMSIS/include/core_cmFunc.h" 1
 250 0022 83F31188 		MSR basepri, r3
 251              	@ 0 "" 2
 252              	.LVL20:
 253              		.thumb
 254              		.syntax unified
 255              	.LBE88:
 256              	.LBE89:
 257              	.LBE90:
 258              	.LBE91:
 259              	.LBE92:
 260              		.loc 1 132 0
 261 0026 10BD     		pop	{r4, pc}
 262              	.L11:
 263              		.loc 1 125 0
 264 0028 0E20     		movs	r0, #14
 265 002a FFF7FEFF 		bl	chSchGoSleepS
 266              	.LVL21:
 267 002e A269     		ldr	r2, [r4, #24]
 268 0030 906A     		ldr	r0, [r2, #40]
 269 0032 02F12803 		add	r3, r2, #40
 270 0036 EEE7     		b	.L9
 271              	.L13:
 272              		.align	2
 273              	.L12:
 274 0038 00000000 		.word	ch
 275              		.cfi_endproc
 276              	.LFE230:
 277              		.size	chMsgWait, .-chMsgWait
 278              		.section	.text.chMsgRelease,"ax",%progbits
 279              		.align	1
 280              		.p2align 4,,15
 281              		.global	chMsgRelease
 282              		.syntax unified
 283              		.thumb
 284              		.thumb_func
 285              		.fpu fpv4-sp-d16
ARM GAS  /tmp/ccHlvbaL.s 			page 6


 286              		.type	chMsgRelease, %function
 287              	chMsgRelease:
 288              	.LFB231:
 289              		.loc 1 144 0
 290              		.cfi_startproc
 291              		@ args = 0, pretend = 0, frame = 0
 292              		@ frame_needed = 0, uses_anonymous_args = 0
 293              	.LVL22:
 294 0000 08B5     		push	{r3, lr}
 295              		.cfi_def_cfa_offset 8
 296              		.cfi_offset 3, -8
 297              		.cfi_offset 14, -4
 298              	.LBB93:
 299              	.LBB94:
 300              	.LBB95:
 301              	.LBB96:
 302              		.loc 2 546 0
 303 0002 2023     		movs	r3, #32
 304              		.syntax unified
 305              	@ 546 "ChibiOS_3.0.2/os/ext/CMSIS/include/core_cmFunc.h" 1
 306 0004 83F31188 		MSR basepri, r3
 307              	@ 0 "" 2
 308              	.LVL23:
 309              		.thumb
 310              		.syntax unified
 311              	.LBE96:
 312              	.LBE95:
 313              	.LBE94:
 314              	.LBE93:
 315              	.LBB97:
 316              	.LBB98:
 317              		.loc 4 115 0
 318 0008 FFF7FEFF 		bl	chSchWakeupS
 319              	.LVL24:
 320              	.LBE98:
 321              	.LBE97:
 322              	.LBB99:
 323              	.LBB100:
 324              	.LBB101:
 325              	.LBB102:
 326              	.LBB103:
 327              		.loc 2 546 0
 328 000c 0023     		movs	r3, #0
 329              		.syntax unified
 330              	@ 546 "ChibiOS_3.0.2/os/ext/CMSIS/include/core_cmFunc.h" 1
 331 000e 83F31188 		MSR basepri, r3
 332              	@ 0 "" 2
 333              	.LVL25:
 334              		.thumb
 335              		.syntax unified
 336              	.LBE103:
 337              	.LBE102:
 338              	.LBE101:
 339              	.LBE100:
 340              	.LBE99:
 341              		.loc 1 150 0
 342 0012 08BD     		pop	{r3, pc}
ARM GAS  /tmp/ccHlvbaL.s 			page 7


 343              		.cfi_endproc
 344              	.LFE231:
 345              		.size	chMsgRelease, .-chMsgRelease
 346              		.text
 347              	.Letext0:
 348              		.file 5 "/usr/arm-none-eabi/include/machine/_default_types.h"
 349              		.file 6 "/usr/arm-none-eabi/include/sys/_stdint.h"
 350              		.file 7 "ChibiOS_3.0.2/os/rt/ports/ARMCMx/compilers/GCC/chtypes.h"
 351              		.file 8 "ChibiOS_3.0.2/os/rt/include/chsystypes.h"
 352              		.file 9 "ChibiOS_3.0.2/os/ext/CMSIS/include/core_cm4.h"
 353              		.file 10 "ChibiOS_3.0.2/os/ext/CMSIS/ST/system_stm32f4xx.h"
 354              		.file 11 "ChibiOS_3.0.2/os/rt/ports/ARMCMx/chcore.h"
 355              		.file 12 "ChibiOS_3.0.2/os/rt/ports/ARMCMx/chcore_v7m.h"
 356              		.file 13 "ChibiOS_3.0.2/os/rt/include/chtm.h"
 357              		.file 14 "ChibiOS_3.0.2/os/rt/include/chsem.h"
 358              		.file 15 "ChibiOS_3.0.2/os/rt/include/chmtx.h"
 359              		.file 16 "ChibiOS_3.0.2/os/rt/include/chregistry.h"
 360              		.file 17 "ChibiOS_3.0.2/os/rt/include/chsys.h"