ARM GAS  /tmp/ccsrcL7C.s 			page 1


   1              		.cpu cortex-m4
   2              		.eabi_attribute 27, 1
   3              		.eabi_attribute 28, 1
   4              		.eabi_attribute 20, 1
   5              		.eabi_attribute 21, 1
   6              		.eabi_attribute 23, 3
   7              		.eabi_attribute 24, 1
   8              		.eabi_attribute 25, 1
   9              		.eabi_attribute 26, 1
  10              		.eabi_attribute 30, 2
  11              		.eabi_attribute 34, 1
  12              		.eabi_attribute 18, 4
  13              		.file	"chmtx.c"
  14              		.text
  15              	.Ltext0:
  16              		.cfi_sections	.debug_frame
  17              		.section	.text.chMtxObjectInit,"ax",%progbits
  18              		.align	1
  19              		.p2align 4,,15
  20              		.global	chMtxObjectInit
  21              		.syntax unified
  22              		.thumb
  23              		.thumb_func
  24              		.fpu fpv4-sp-d16
  25              		.type	chMtxObjectInit, %function
  26              	chMtxObjectInit:
  27              	.LFB229:
  28              		.file 1 "ChibiOS_3.0.2/os/rt/src/chmtx.c"
  29              		.loc 1 103 0
  30              		.cfi_startproc
  31              		@ args = 0, pretend = 0, frame = 0
  32              		@ frame_needed = 0, uses_anonymous_args = 0
  33              		@ link register save eliminated.
  34              	.LVL0:
  35              		.loc 1 108 0
  36 0000 0023     		movs	r3, #0
  37              	.LBB103:
  38              	.LBB104:
  39              		.file 2 "ChibiOS_3.0.2/os/rt/include/chschd.h"
  40              		.loc 2 605 0
  41 0002 C0E90000 		strd	r0, r0, [r0]
  42              	.LVL1:
  43              	.LBE104:
  44              	.LBE103:
  45              		.loc 1 108 0
  46 0006 8360     		str	r3, [r0, #8]
  47              		.loc 1 112 0
  48 0008 7047     		bx	lr
  49              		.cfi_endproc
  50              	.LFE229:
  51              		.size	chMtxObjectInit, .-chMtxObjectInit
  52 000a 00BF     		.section	.text.chMtxLockS,"ax",%progbits
  53              		.align	1
  54              		.p2align 4,,15
  55              		.global	chMtxLockS
  56              		.syntax unified
  57              		.thumb
ARM GAS  /tmp/ccsrcL7C.s 			page 2


  58              		.thumb_func
  59              		.fpu fpv4-sp-d16
  60              		.type	chMtxLockS, %function
  61              	chMtxLockS:
  62              	.LFB231:
  63              		.loc 1 139 0
  64              		.cfi_startproc
  65              		@ args = 0, pretend = 0, frame = 0
  66              		@ frame_needed = 0, uses_anonymous_args = 0
  67              	.LVL2:
  68 0000 F8B5     		push	{r3, r4, r5, r6, r7, lr}
  69              		.cfi_def_cfa_offset 24
  70              		.cfi_offset 3, -24
  71              		.cfi_offset 4, -20
  72              		.cfi_offset 5, -16
  73              		.cfi_offset 6, -12
  74              		.cfi_offset 7, -8
  75              		.cfi_offset 14, -4
  76              		.loc 1 140 0
  77 0002 364A     		ldr	r2, .L33
  78              		.loc 1 146 0
  79 0004 8368     		ldr	r3, [r0, #8]
  80              		.loc 1 140 0
  81 0006 9569     		ldr	r5, [r2, #24]
  82              	.LVL3:
  83              		.loc 1 146 0
  84 0008 002B     		cmp	r3, #0
  85 000a 3FD0     		beq	.L25
  86              	.LBB105:
  87              		.loc 1 165 0
  88 000c A968     		ldr	r1, [r5, #8]
  89 000e 9A68     		ldr	r2, [r3, #8]
  90 0010 9142     		cmp	r1, r2
  91 0012 0446     		mov	r4, r0
  92              	.LVL4:
  93 0014 06D9     		bls	.L6
  94              	.LVL5:
  95              	.L12:
  96              		.loc 1 170 0
  97 0016 1A7F     		ldrb	r2, [r3, #28]	@ zero_extendqisi2
  98              		.loc 1 167 0
  99 0018 9960     		str	r1, [r3, #8]
 100              		.loc 1 170 0
 101 001a 062A     		cmp	r2, #6
 102 001c 3BD0     		beq	.L7
 103 001e 072A     		cmp	r2, #7
 104 0020 15D0     		beq	.L8
 105 0022 42B3     		cbz	r2, .L26
 106              	.LVL6:
 107              	.L6:
 108              		.loc 1 212 0
 109 0024 2646     		mov	r6, r4
 110              	.LVL7:
 111 0026 2346     		mov	r3, r4
 112 0028 03E0     		b	.L17
 113              	.LVL8:
 114              	.L28:
ARM GAS  /tmp/ccsrcL7C.s 			page 3


 115              	.LBB106:
 116              	.LBB107:
 117              		.loc 2 656 0
 118 002a 9968     		ldr	r1, [r3, #8]
 119 002c AA68     		ldr	r2, [r5, #8]
 120 002e 9142     		cmp	r1, r2
 121 0030 2AD3     		bcc	.L27
 122              	.L17:
 123              		.loc 2 655 0
 124 0032 1B68     		ldr	r3, [r3]
 125              	.LVL9:
 126              		.loc 2 656 0
 127 0034 9C42     		cmp	r4, r3
 128 0036 F8D1     		bne	.L28
 129              	.L16:
 130              		.loc 2 658 0
 131 0038 7368     		ldr	r3, [r6, #4]
 132              	.LVL10:
 133              	.LBE107:
 134              	.LBE106:
 135              		.loc 1 214 0
 136 003a 0620     		movs	r0, #6
 137              	.LBB110:
 138              	.LBB108:
 139              		.loc 2 658 0
 140 003c C5E90063 		strd	r6, r3, [r5]
 141              		.loc 2 659 0
 142 0040 1D60     		str	r5, [r3]
 143              		.loc 2 660 0
 144 0042 7560     		str	r5, [r6, #4]
 145              	.LVL11:
 146              	.LBE108:
 147              	.LBE110:
 148              		.loc 1 213 0
 149 0044 2C62     		str	r4, [r5, #32]
 150              	.LBE105:
 151              		.loc 1 236 0
 152 0046 BDE8F840 		pop	{r3, r4, r5, r6, r7, lr}
 153              		.cfi_remember_state
 154              		.cfi_restore 14
 155              		.cfi_restore 7
 156              		.cfi_restore 6
 157              		.cfi_restore 5
 158              		.cfi_restore 4
 159              		.cfi_restore 3
 160              		.cfi_def_cfa_offset 0
 161              	.LVL12:
 162              	.LBB136:
 163              		.loc 1 214 0
 164 004a FFF7FEBF 		b	chSchGoSleepS
 165              	.LVL13:
 166              	.L8:
 167              		.cfi_restore_state
 168              	.LBB111:
 169              	.LBB112:
 170              		.loc 2 691 0
 171 004e D3E90002 		ldrd	r0, r2, [r3]
ARM GAS  /tmp/ccsrcL7C.s 			page 4


 172 0052 1060     		str	r0, [r2]
 173              	.LBE112:
 174              	.LBE111:
 175              		.loc 1 193 0
 176 0054 1E6A     		ldr	r6, [r3, #32]
 177              	.LBB114:
 178              	.LBB113:
 179              		.loc 2 692 0
 180 0056 1868     		ldr	r0, [r3]
 181 0058 4260     		str	r2, [r0, #4]
 182              	.LVL14:
 183              	.LBE113:
 184              	.LBE114:
 185              		.loc 1 193 0
 186 005a 3246     		mov	r2, r6
 187 005c 02E0     		b	.L14
 188              	.LVL15:
 189              	.L30:
 190              	.LBB115:
 191              	.LBB116:
 192              		.loc 2 656 0
 193 005e 9068     		ldr	r0, [r2, #8]
 194 0060 8842     		cmp	r0, r1
 195 0062 32D3     		bcc	.L29
 196              	.LVL16:
 197              	.L14:
 198              		.loc 2 655 0
 199 0064 1268     		ldr	r2, [r2]
 200              	.LVL17:
 201              		.loc 2 656 0
 202 0066 9642     		cmp	r6, r2
 203 0068 F9D1     		bne	.L30
 204              		.loc 2 658 0
 205 006a 7268     		ldr	r2, [r6, #4]
 206              	.LVL18:
 207 006c C3E90062 		strd	r6, r2, [r3]
 208              		.loc 2 659 0
 209 0070 1360     		str	r3, [r2]
 210              		.loc 2 660 0
 211 0072 7360     		str	r3, [r6, #4]
 212 0074 D6E7     		b	.L6
 213              	.LVL19:
 214              	.L26:
 215              	.LBE116:
 216              	.LBE115:
 217              	.LBB118:
 218              	.LBB119:
 219              		.loc 2 691 0
 220 0076 D3E90012 		ldrd	r1, r2, [r3]
 221 007a 1160     		str	r1, [r2]
 222              		.loc 2 692 0
 223 007c 1968     		ldr	r1, [r3]
 224              	.LBE119:
 225              	.LBE118:
 226              		.loc 1 202 0
 227 007e 1846     		mov	r0, r3
 228              	.LBB121:
ARM GAS  /tmp/ccsrcL7C.s 			page 5


 229              	.LBB120:
 230              		.loc 2 692 0
 231 0080 4A60     		str	r2, [r1, #4]
 232              	.LVL20:
 233              	.LBE120:
 234              	.LBE121:
 235              		.loc 1 202 0
 236 0082 FFF7FEFF 		bl	chSchReadyI
 237              	.LVL21:
 238              		.loc 1 203 0
 239 0086 CDE7     		b	.L6
 240              	.LVL22:
 241              	.L27:
 242              	.LBB122:
 243              	.LBB109:
 244              		.loc 2 655 0
 245 0088 1E46     		mov	r6, r3
 246 008a D5E7     		b	.L16
 247              	.LVL23:
 248              	.L25:
 249              	.LBE109:
 250              	.LBE122:
 251              	.LBE136:
 252              		.loc 1 233 0
 253 008c AB6B     		ldr	r3, [r5, #56]
 254 008e C0E90253 		strd	r5, r3, [r0, #8]
 255              		.loc 1 234 0
 256 0092 A863     		str	r0, [r5, #56]
 257              		.loc 1 236 0
 258 0094 F8BD     		pop	{r3, r4, r5, r6, r7, pc}
 259              	.LVL24:
 260              	.L7:
 261              	.LBB137:
 262              	.LBB123:
 263              	.LBB124:
 264              		.loc 2 691 0
 265 0096 D3E90002 		ldrd	r0, r2, [r3]
 266 009a 1060     		str	r0, [r2]
 267              	.LBE124:
 268              	.LBE123:
 269              		.loc 1 173 0
 270 009c 1E6A     		ldr	r6, [r3, #32]
 271              	.LBB127:
 272              	.LBB125:
 273              		.loc 2 692 0
 274 009e 1868     		ldr	r0, [r3]
 275              	.LBE125:
 276              	.LBE127:
 277              		.loc 1 173 0
 278 00a0 3746     		mov	r7, r6
 279              	.LBB128:
 280              	.LBB126:
 281              		.loc 2 692 0
 282 00a2 4260     		str	r2, [r0, #4]
 283              	.LVL25:
 284              	.LBE126:
 285              	.LBE128:
ARM GAS  /tmp/ccsrcL7C.s 			page 6


 286              		.loc 1 173 0
 287 00a4 3246     		mov	r2, r6
 288 00a6 02E0     		b	.L11
 289              	.LVL26:
 290              	.L32:
 291              	.LBB129:
 292              	.LBB130:
 293              		.loc 2 656 0
 294 00a8 9068     		ldr	r0, [r2, #8]
 295 00aa 8842     		cmp	r0, r1
 296 00ac 14D3     		bcc	.L31
 297              	.LVL27:
 298              	.L11:
 299              		.loc 2 655 0
 300 00ae 1268     		ldr	r2, [r2]
 301              	.LVL28:
 302              		.loc 2 656 0
 303 00b0 9642     		cmp	r6, r2
 304 00b2 F9D1     		bne	.L32
 305              	.L10:
 306              		.loc 2 658 0
 307 00b4 7A68     		ldr	r2, [r7, #4]
 308              	.LVL29:
 309              	.LBE130:
 310              	.LBE129:
 311              		.loc 1 165 0
 312 00b6 A968     		ldr	r1, [r5, #8]
 313              	.LBB133:
 314              	.LBB131:
 315              		.loc 2 658 0
 316 00b8 C3E90072 		strd	r7, r2, [r3]
 317              		.loc 2 659 0
 318 00bc 1360     		str	r3, [r2]
 319              		.loc 2 660 0
 320 00be 7B60     		str	r3, [r7, #4]
 321              	.LVL30:
 322              	.LBE131:
 323              	.LBE133:
 324              		.loc 1 174 0
 325 00c0 B368     		ldr	r3, [r6, #8]
 326              	.LVL31:
 327              		.loc 1 165 0
 328 00c2 9A68     		ldr	r2, [r3, #8]
 329 00c4 8A42     		cmp	r2, r1
 330 00c6 A6D3     		bcc	.L12
 331 00c8 ACE7     		b	.L6
 332              	.LVL32:
 333              	.L29:
 334              	.LBB134:
 335              	.LBB117:
 336              		.loc 2 655 0
 337 00ca 1646     		mov	r6, r2
 338              	.LVL33:
 339              		.loc 2 658 0
 340 00cc 7268     		ldr	r2, [r6, #4]
 341              	.LVL34:
 342 00ce C3E90062 		strd	r6, r2, [r3]
ARM GAS  /tmp/ccsrcL7C.s 			page 7


 343              		.loc 2 659 0
 344 00d2 1360     		str	r3, [r2]
 345              		.loc 2 660 0
 346 00d4 7360     		str	r3, [r6, #4]
 347 00d6 A5E7     		b	.L6
 348              	.LVL35:
 349              	.L31:
 350              	.LBE117:
 351              	.LBE134:
 352              	.LBB135:
 353              	.LBB132:
 354              		.loc 2 655 0
 355 00d8 1746     		mov	r7, r2
 356 00da EBE7     		b	.L10
 357              	.L34:
 358              		.align	2
 359              	.L33:
 360 00dc 00000000 		.word	ch
 361              	.LBE132:
 362              	.LBE135:
 363              	.LBE137:
 364              		.cfi_endproc
 365              	.LFE231:
 366              		.size	chMtxLockS, .-chMtxLockS
 367              		.section	.text.chMtxLock,"ax",%progbits
 368              		.align	1
 369              		.p2align 4,,15
 370              		.global	chMtxLock
 371              		.syntax unified
 372              		.thumb
 373              		.thumb_func
 374              		.fpu fpv4-sp-d16
 375              		.type	chMtxLock, %function
 376              	chMtxLock:
 377              	.LFB230:
 378              		.loc 1 123 0
 379              		.cfi_startproc
 380              		@ args = 0, pretend = 0, frame = 0
 381              		@ frame_needed = 0, uses_anonymous_args = 0
 382              	.LVL36:
 383 0000 08B5     		push	{r3, lr}
 384              		.cfi_def_cfa_offset 8
 385              		.cfi_offset 3, -8
 386              		.cfi_offset 14, -4
 387              	.LBB138:
 388              	.LBB139:
 389              	.LBB140:
 390              	.LBB141:
 391              		.file 3 "ChibiOS_3.0.2/os/ext/CMSIS/include/core_cmFunc.h"
 392              		.loc 3 546 0
 393 0002 2023     		movs	r3, #32
 394              		.syntax unified
 395              	@ 546 "ChibiOS_3.0.2/os/ext/CMSIS/include/core_cmFunc.h" 1
 396 0004 83F31188 		MSR basepri, r3
 397              	@ 0 "" 2
 398              	.LVL37:
 399              		.thumb
ARM GAS  /tmp/ccsrcL7C.s 			page 8


 400              		.syntax unified
 401              	.LBE141:
 402              	.LBE140:
 403              	.LBE139:
 404              	.LBE138:
 405              		.loc 1 126 0
 406 0008 FFF7FEFF 		bl	chMtxLockS
 407              	.LVL38:
 408              	.LBB142:
 409              	.LBB143:
 410              	.LBB144:
 411              	.LBB145:
 412              	.LBB146:
 413              		.loc 3 546 0
 414 000c 0023     		movs	r3, #0
 415              		.syntax unified
 416              	@ 546 "ChibiOS_3.0.2/os/ext/CMSIS/include/core_cmFunc.h" 1
 417 000e 83F31188 		MSR basepri, r3
 418              	@ 0 "" 2
 419              	.LVL39:
 420              		.thumb
 421              		.syntax unified
 422              	.LBE146:
 423              	.LBE145:
 424              	.LBE144:
 425              	.LBE143:
 426              	.LBE142:
 427              		.loc 1 128 0
 428 0012 08BD     		pop	{r3, pc}
 429              		.cfi_endproc
 430              	.LFE230:
 431              		.size	chMtxLock, .-chMtxLock
 432              		.section	.text.chMtxTryLock,"ax",%progbits
 433              		.align	1
 434              		.p2align 4,,15
 435              		.global	chMtxTryLock
 436              		.syntax unified
 437              		.thumb
 438              		.thumb_func
 439              		.fpu fpv4-sp-d16
 440              		.type	chMtxTryLock, %function
 441              	chMtxTryLock:
 442              	.LFB232:
 443              		.loc 1 255 0
 444              		.cfi_startproc
 445              		@ args = 0, pretend = 0, frame = 0
 446              		@ frame_needed = 0, uses_anonymous_args = 0
 447              		@ link register save eliminated.
 448              	.LVL40:
 449              		.loc 1 255 0
 450 0000 0346     		mov	r3, r0
 451              	.LBB160:
 452              	.LBB161:
 453              	.LBB162:
 454              	.LBB163:
 455              		.loc 3 546 0
 456 0002 2022     		movs	r2, #32
ARM GAS  /tmp/ccsrcL7C.s 			page 9


 457              		.syntax unified
 458              	@ 546 "ChibiOS_3.0.2/os/ext/CMSIS/include/core_cmFunc.h" 1
 459 0004 82F31188 		MSR basepri, r2
 460              	@ 0 "" 2
 461              	.LVL41:
 462              		.thumb
 463              		.syntax unified
 464              	.LBE163:
 465              	.LBE162:
 466              	.LBE161:
 467              	.LBE160:
 468              	.LBB164:
 469              	.LBB165:
 470              		.loc 1 287 0
 471 0008 8268     		ldr	r2, [r0, #8]
 472 000a 22B1     		cbz	r2, .L40
 473              		.loc 1 297 0
 474 000c 0020     		movs	r0, #0
 475              	.LVL42:
 476              	.LBE165:
 477              	.LBE164:
 478              	.LBB169:
 479              	.LBB170:
 480              	.LBB171:
 481              	.LBB172:
 482              	.LBB173:
 483              		.loc 3 546 0
 484 000e 0023     		movs	r3, #0
 485              	.LVL43:
 486              		.syntax unified
 487              	@ 546 "ChibiOS_3.0.2/os/ext/CMSIS/include/core_cmFunc.h" 1
 488 0010 83F31188 		MSR basepri, r3
 489              	@ 0 "" 2
 490              	.LVL44:
 491              		.thumb
 492              		.syntax unified
 493              	.LBE173:
 494              	.LBE172:
 495              	.LBE171:
 496              	.LBE170:
 497              	.LBE169:
 498              		.loc 1 263 0
 499 0014 7047     		bx	lr
 500              	.LVL45:
 501              	.L40:
 502              	.LBB178:
 503              	.LBB168:
 504              	.LBB166:
 505              	.LBB167:
 506              		.loc 1 305 0
 507 0016 054A     		ldr	r2, .L41
 508 0018 9269     		ldr	r2, [r2, #24]
 509 001a 8260     		str	r2, [r0, #8]
 510              		.loc 1 306 0
 511 001c 916B     		ldr	r1, [r2, #56]
 512 001e C160     		str	r1, [r0, #12]
 513              		.loc 1 307 0
ARM GAS  /tmp/ccsrcL7C.s 			page 10


 514 0020 9363     		str	r3, [r2, #56]
 515              	.LVL46:
 516 0022 0120     		movs	r0, #1
 517              	.LVL47:
 518              	.LBE167:
 519              	.LBE166:
 520              	.LBE168:
 521              	.LBE178:
 522              	.LBB179:
 523              	.LBB177:
 524              	.LBB176:
 525              	.LBB175:
 526              	.LBB174:
 527              		.loc 3 546 0
 528 0024 0023     		movs	r3, #0
 529              	.LVL48:
 530              		.syntax unified
 531              	@ 546 "ChibiOS_3.0.2/os/ext/CMSIS/include/core_cmFunc.h" 1
 532 0026 83F31188 		MSR basepri, r3
 533              	@ 0 "" 2
 534              	.LVL49:
 535              		.thumb
 536              		.syntax unified
 537              	.LBE174:
 538              	.LBE175:
 539              	.LBE176:
 540              	.LBE177:
 541              	.LBE179:
 542              		.loc 1 263 0
 543 002a 7047     		bx	lr
 544              	.L42:
 545              		.align	2
 546              	.L41:
 547 002c 00000000 		.word	ch
 548              		.cfi_endproc
 549              	.LFE232:
 550              		.size	chMtxTryLock, .-chMtxTryLock
 551              		.section	.text.chMtxTryLockS,"ax",%progbits
 552              		.align	1
 553              		.p2align 4,,15
 554              		.global	chMtxTryLockS
 555              		.syntax unified
 556              		.thumb
 557              		.thumb_func
 558              		.fpu fpv4-sp-d16
 559              		.type	chMtxTryLockS, %function
 560              	chMtxTryLockS:
 561              	.LFB233:
 562              		.loc 1 282 0
 563              		.cfi_startproc
 564              		@ args = 0, pretend = 0, frame = 0
 565              		@ frame_needed = 0, uses_anonymous_args = 0
 566              		@ link register save eliminated.
 567              	.LVL50:
 568              		.loc 1 287 0
 569 0000 8268     		ldr	r2, [r0, #8]
 570              		.loc 1 282 0
ARM GAS  /tmp/ccsrcL7C.s 			page 11


 571 0002 0346     		mov	r3, r0
 572              		.loc 1 287 0
 573 0004 0AB1     		cbz	r2, .L46
 574              		.loc 1 297 0
 575 0006 0020     		movs	r0, #0
 576              	.LVL51:
 577              		.loc 1 309 0
 578 0008 7047     		bx	lr
 579              	.LVL52:
 580              	.L46:
 581              	.LBB182:
 582              	.LBB183:
 583              		.loc 1 305 0
 584 000a 044A     		ldr	r2, .L47
 585 000c 9269     		ldr	r2, [r2, #24]
 586 000e 8260     		str	r2, [r0, #8]
 587              		.loc 1 306 0
 588 0010 916B     		ldr	r1, [r2, #56]
 589 0012 C160     		str	r1, [r0, #12]
 590              		.loc 1 307 0
 591 0014 0120     		movs	r0, #1
 592              	.LVL53:
 593 0016 9363     		str	r3, [r2, #56]
 594              	.LVL54:
 595 0018 7047     		bx	lr
 596              	.L48:
 597 001a 00BF     		.align	2
 598              	.L47:
 599 001c 00000000 		.word	ch
 600              	.LBE183:
 601              	.LBE182:
 602              		.cfi_endproc
 603              	.LFE233:
 604              		.size	chMtxTryLockS, .-chMtxTryLockS
 605              		.section	.text.chMtxUnlock,"ax",%progbits
 606              		.align	1
 607              		.p2align 4,,15
 608              		.global	chMtxUnlock
 609              		.syntax unified
 610              		.thumb
 611              		.thumb_func
 612              		.fpu fpv4-sp-d16
 613              		.type	chMtxUnlock, %function
 614              	chMtxUnlock:
 615              	.LFB234:
 616              		.loc 1 323 0
 617              		.cfi_startproc
 618              		@ args = 0, pretend = 0, frame = 0
 619              		@ frame_needed = 0, uses_anonymous_args = 0
 620              	.LVL55:
 621              		.loc 1 324 0
 622 0000 174B     		ldr	r3, .L60
 623              		.loc 1 323 0
 624 0002 70B5     		push	{r4, r5, r6, lr}
 625              		.cfi_def_cfa_offset 16
 626              		.cfi_offset 4, -16
 627              		.cfi_offset 5, -12
ARM GAS  /tmp/ccsrcL7C.s 			page 12


 628              		.cfi_offset 6, -8
 629              		.cfi_offset 14, -4
 630              		.loc 1 324 0
 631 0004 9D69     		ldr	r5, [r3, #24]
 632              	.LVL56:
 633              	.LBB184:
 634              	.LBB185:
 635              	.LBB186:
 636              	.LBB187:
 637              		.loc 3 546 0
 638 0006 2023     		movs	r3, #32
 639              		.syntax unified
 640              	@ 546 "ChibiOS_3.0.2/os/ext/CMSIS/include/core_cmFunc.h" 1
 641 0008 83F31188 		MSR basepri, r3
 642              	@ 0 "" 2
 643              	.LVL57:
 644              		.thumb
 645              		.syntax unified
 646              	.LBE187:
 647              	.LBE186:
 648              	.LBE185:
 649              	.LBE184:
 650              	.LBB188:
 651              	.LBB189:
 652              	.LBB190:
 653              	.LBB191:
 654              		.loc 2 631 0
 655 000c 0468     		ldr	r4, [r0]
 656              	.LBE191:
 657              	.LBE190:
 658              	.LBE189:
 659              	.LBE188:
 660              		.loc 1 344 0
 661 000e C368     		ldr	r3, [r0, #12]
 662 0010 AB63     		str	r3, [r5, #56]
 663              		.loc 1 347 0
 664 0012 8442     		cmp	r4, r0
 665 0014 1DD0     		beq	.L50
 666              	.LBB192:
 667              		.loc 1 352 0
 668 0016 E96B     		ldr	r1, [r5, #60]
 669              	.LVL58:
 670              		.loc 1 354 0
 671 0018 4BB1     		cbz	r3, .L51
 672              	.L53:
 673              	.LVL59:
 674              	.LBB193:
 675              	.LBB194:
 676              	.LBB195:
 677              	.LBB196:
 678              		.loc 2 631 0
 679 001a 1A68     		ldr	r2, [r3]
 680              	.LVL60:
 681              	.LBE196:
 682              	.LBE195:
 683              	.LBE194:
 684              	.LBE193:
ARM GAS  /tmp/ccsrcL7C.s 			page 13


 685              		.loc 1 358 0
 686 001c 9342     		cmp	r3, r2
 687 001e 03D0     		beq	.L52
 688 0020 9268     		ldr	r2, [r2, #8]
 689 0022 9142     		cmp	r1, r2
 690 0024 38BF     		it	cc
 691 0026 1146     		movcc	r1, r2
 692              	.LVL61:
 693              	.L52:
 694              		.loc 1 362 0
 695 0028 DB68     		ldr	r3, [r3, #12]
 696              	.LVL62:
 697              		.loc 1 354 0
 698 002a 002B     		cmp	r3, #0
 699 002c F5D1     		bne	.L53
 700              	.L51:
 701 002e 0346     		mov	r3, r0
 702              	.LVL63:
 703              	.LBB197:
 704              	.LBB198:
 705              		.loc 2 674 0
 706 0030 2268     		ldr	r2, [r4]
 707              	.LBE198:
 708              	.LBE197:
 709              		.loc 1 376 0
 710 0032 A66B     		ldr	r6, [r4, #56]
 711              		.loc 1 367 0
 712 0034 A960     		str	r1, [r5, #8]
 713              	.LVL64:
 714              		.loc 1 383 0
 715 0036 2046     		mov	r0, r4
 716              	.LVL65:
 717              	.LBB200:
 718              	.LBB199:
 719              		.loc 2 674 0
 720 0038 1A60     		str	r2, [r3]
 721              		.loc 2 675 0
 722 003a 5360     		str	r3, [r2, #4]
 723              	.LVL66:
 724              	.LBE199:
 725              	.LBE200:
 726              		.loc 1 376 0
 727 003c C3E90246 		strd	r4, r6, [r3, #8]
 728              		.loc 1 377 0
 729 0040 A363     		str	r3, [r4, #56]
 730              		.loc 1 383 0
 731 0042 FFF7FEFF 		bl	chSchReadyI
 732              	.LVL67:
 733              		.loc 1 384 0
 734 0046 FFF7FEFF 		bl	chSchRescheduleS
 735              	.LVL68:
 736              	.LBE192:
 737              	.LBB201:
 738              	.LBB202:
 739              	.LBB203:
 740              	.LBB204:
 741              	.LBB205:
ARM GAS  /tmp/ccsrcL7C.s 			page 14


 742              		.loc 3 546 0
 743 004a 0023     		movs	r3, #0
 744              		.syntax unified
 745              	@ 546 "ChibiOS_3.0.2/os/ext/CMSIS/include/core_cmFunc.h" 1
 746 004c 83F31188 		MSR basepri, r3
 747              	@ 0 "" 2
 748              	.LVL69:
 749              		.thumb
 750              		.syntax unified
 751              	.LBE205:
 752              	.LBE204:
 753              	.LBE203:
 754              	.LBE202:
 755              	.LBE201:
 756              		.loc 1 394 0
 757 0050 70BD     		pop	{r4, r5, r6, pc}
 758              	.LVL70:
 759              	.L50:
 760              		.loc 1 387 0
 761 0052 0023     		movs	r3, #0
 762 0054 A360     		str	r3, [r4, #8]
 763              	.LVL71:
 764              	.LBB210:
 765              	.LBB209:
 766              	.LBB208:
 767              	.LBB207:
 768              	.LBB206:
 769              		.loc 3 546 0
 770 0056 0023     		movs	r3, #0
 771              		.syntax unified
 772              	@ 546 "ChibiOS_3.0.2/os/ext/CMSIS/include/core_cmFunc.h" 1
 773 0058 83F31188 		MSR basepri, r3
 774              	@ 0 "" 2
 775              	.LVL72:
 776              		.thumb
 777              		.syntax unified
 778              	.LBE206:
 779              	.LBE207:
 780              	.LBE208:
 781              	.LBE209:
 782              	.LBE210:
 783              		.loc 1 394 0
 784 005c 70BD     		pop	{r4, r5, r6, pc}
 785              	.LVL73:
 786              	.L61:
 787 005e 00BF     		.align	2
 788              	.L60:
 789 0060 00000000 		.word	ch
 790              		.cfi_endproc
 791              	.LFE234:
 792              		.size	chMtxUnlock, .-chMtxUnlock
 793              		.section	.text.chMtxUnlockS,"ax",%progbits
 794              		.align	1
 795              		.p2align 4,,15
 796              		.global	chMtxUnlockS
 797              		.syntax unified
 798              		.thumb
ARM GAS  /tmp/ccsrcL7C.s 			page 15


 799              		.thumb_func
 800              		.fpu fpv4-sp-d16
 801              		.type	chMtxUnlockS, %function
 802              	chMtxUnlockS:
 803              	.LFB235:
 804              		.loc 1 410 0
 805              		.cfi_startproc
 806              		@ args = 0, pretend = 0, frame = 0
 807              		@ frame_needed = 0, uses_anonymous_args = 0
 808              		@ link register save eliminated.
 809              	.LVL74:
 810              		.loc 1 411 0
 811 0000 124B     		ldr	r3, .L72
 812              		.loc 1 410 0
 813 0002 30B4     		push	{r4, r5}
 814              		.cfi_def_cfa_offset 8
 815              		.cfi_offset 4, -8
 816              		.cfi_offset 5, -4
 817              	.LBB211:
 818              	.LBB212:
 819              	.LBB213:
 820              	.LBB214:
 821              		.loc 2 631 0
 822 0004 0468     		ldr	r4, [r0]
 823              	.LBE214:
 824              	.LBE213:
 825              	.LBE212:
 826              	.LBE211:
 827              		.loc 1 411 0
 828 0006 9D69     		ldr	r5, [r3, #24]
 829              	.LVL75:
 830              		.loc 1 430 0
 831 0008 C368     		ldr	r3, [r0, #12]
 832 000a AB63     		str	r3, [r5, #56]
 833              		.loc 1 433 0
 834 000c 8442     		cmp	r4, r0
 835 000e 18D0     		beq	.L63
 836 0010 0146     		mov	r1, r0
 837              	.LBB215:
 838              		.loc 1 438 0
 839 0012 E86B     		ldr	r0, [r5, #60]
 840              	.LVL76:
 841              		.loc 1 440 0
 842 0014 4BB1     		cbz	r3, .L64
 843              	.L66:
 844              	.LVL77:
 845              	.LBB216:
 846              	.LBB217:
 847              	.LBB218:
 848              	.LBB219:
 849              		.loc 2 631 0
 850 0016 1A68     		ldr	r2, [r3]
 851              	.LVL78:
 852              	.LBE219:
 853              	.LBE218:
 854              	.LBE217:
 855              	.LBE216:
ARM GAS  /tmp/ccsrcL7C.s 			page 16


 856              		.loc 1 444 0
 857 0018 9342     		cmp	r3, r2
 858 001a 03D0     		beq	.L65
 859 001c 9268     		ldr	r2, [r2, #8]
 860 001e 9042     		cmp	r0, r2
 861 0020 38BF     		it	cc
 862 0022 1046     		movcc	r0, r2
 863              	.LVL79:
 864              	.L65:
 865              		.loc 1 448 0
 866 0024 DB68     		ldr	r3, [r3, #12]
 867              	.LVL80:
 868              		.loc 1 440 0
 869 0026 002B     		cmp	r3, #0
 870 0028 F5D1     		bne	.L66
 871              	.L64:
 872              		.loc 1 462 0
 873 002a A26B     		ldr	r2, [r4, #56]
 874              	.LBB220:
 875              	.LBB221:
 876              		.loc 2 674 0
 877 002c 2368     		ldr	r3, [r4]
 878              	.LVL81:
 879              	.LBE221:
 880              	.LBE220:
 881              		.loc 1 453 0
 882 002e A860     		str	r0, [r5, #8]
 883              	.LVL82:
 884              	.LBB224:
 885              	.LBB222:
 886              		.loc 2 674 0
 887 0030 0B60     		str	r3, [r1]
 888              	.LBE222:
 889              	.LBE224:
 890              		.loc 1 464 0
 891 0032 2046     		mov	r0, r4
 892              	.LVL83:
 893              	.LBB225:
 894              	.LBB223:
 895              		.loc 2 675 0
 896 0034 5960     		str	r1, [r3, #4]
 897              	.LVL84:
 898              	.LBE223:
 899              	.LBE225:
 900              		.loc 1 462 0
 901 0036 C1E90242 		strd	r4, r2, [r1, #8]
 902              		.loc 1 463 0
 903 003a A163     		str	r1, [r4, #56]
 904              	.LBE215:
 905              		.loc 1 472 0
 906 003c 30BC     		pop	{r4, r5}
 907              		.cfi_remember_state
 908              		.cfi_restore 5
 909              		.cfi_restore 4
 910              		.cfi_def_cfa_offset 0
 911              	.LVL85:
 912              	.LBB226:
ARM GAS  /tmp/ccsrcL7C.s 			page 17


 913              		.loc 1 464 0
 914 003e FFF7FEBF 		b	chSchReadyI
 915              	.LVL86:
 916              	.L63:
 917              		.cfi_restore_state
 918              	.LBE226:
 919              		.loc 1 467 0
 920 0042 0023     		movs	r3, #0
 921 0044 A360     		str	r3, [r4, #8]
 922              		.loc 1 472 0
 923 0046 30BC     		pop	{r4, r5}
 924              		.cfi_restore 5
 925              		.cfi_restore 4
 926              		.cfi_def_cfa_offset 0
 927              	.LVL87:
 928 0048 7047     		bx	lr
 929              	.L73:
 930 004a 00BF     		.align	2
 931              	.L72:
 932 004c 00000000 		.word	ch
 933              		.cfi_endproc
 934              	.LFE235:
 935              		.size	chMtxUnlockS, .-chMtxUnlockS
 936              		.section	.text.chMtxUnlockAll,"ax",%progbits
 937              		.align	1
 938              		.p2align 4,,15
 939              		.global	chMtxUnlockAll
 940              		.syntax unified
 941              		.thumb
 942              		.thumb_func
 943              		.fpu fpv4-sp-d16
 944              		.type	chMtxUnlockAll, %function
 945              	chMtxUnlockAll:
 946              	.LFB236:
 947              		.loc 1 485 0
 948              		.cfi_startproc
 949              		@ args = 0, pretend = 0, frame = 0
 950              		@ frame_needed = 0, uses_anonymous_args = 0
 951              		.loc 1 486 0
 952 0000 134A     		ldr	r2, .L85
 953              		.loc 1 485 0
 954 0002 70B5     		push	{r4, r5, r6, lr}
 955              		.cfi_def_cfa_offset 16
 956              		.cfi_offset 4, -16
 957              		.cfi_offset 5, -12
 958              		.cfi_offset 6, -8
 959              		.cfi_offset 14, -4
 960              	.LBB227:
 961              	.LBB228:
 962              	.LBB229:
 963              	.LBB230:
 964              		.loc 3 546 0
 965 0004 2023     		movs	r3, #32
 966              	.LBE230:
 967              	.LBE229:
 968              	.LBE228:
 969              	.LBE227:
ARM GAS  /tmp/ccsrcL7C.s 			page 18


 970              		.loc 1 486 0
 971 0006 9469     		ldr	r4, [r2, #24]
 972              	.LVL88:
 973              	.LBB234:
 974              	.LBB233:
 975              	.LBB232:
 976              	.LBB231:
 977              		.loc 3 546 0
 978              		.syntax unified
 979              	@ 546 "ChibiOS_3.0.2/os/ext/CMSIS/include/core_cmFunc.h" 1
 980 0008 83F31188 		MSR basepri, r3
 981              	@ 0 "" 2
 982              	.LVL89:
 983              		.thumb
 984              		.syntax unified
 985              	.LBE231:
 986              	.LBE232:
 987              	.LBE233:
 988              	.LBE234:
 989              		.loc 1 489 0
 990 000c A36B     		ldr	r3, [r4, #56]
 991 000e B3B1     		cbz	r3, .L75
 992              	.LBB235:
 993              		.loc 1 507 0
 994 0010 0026     		movs	r6, #0
 995              	.L78:
 996              	.LVL90:
 997              	.LBB236:
 998              	.LBB237:
 999              	.LBB238:
 1000              	.LBB239:
 1001              		.loc 2 631 0
 1002 0012 1A68     		ldr	r2, [r3]
 1003              	.LVL91:
 1004              	.LBE239:
 1005              	.LBE238:
 1006              	.LBE237:
 1007              	.LBE236:
 1008              		.loc 1 492 0
 1009 0014 D968     		ldr	r1, [r3, #12]
 1010 0016 A163     		str	r1, [r4, #56]
 1011              	.LVL92:
 1012              		.loc 1 493 0
 1013 0018 9342     		cmp	r3, r2
 1014              	.LBB240:
 1015              		.loc 1 501 0
 1016 001a 1046     		mov	r0, r2
 1017              	.LBE240:
 1018              		.loc 1 493 0
 1019 001c 13D0     		beq	.L76
 1020              	.LBB243:
 1021              		.loc 1 499 0
 1022 001e 956B     		ldr	r5, [r2, #56]
 1023              	.LBB241:
 1024              	.LBB242:
 1025              		.loc 2 674 0
 1026 0020 1168     		ldr	r1, [r2]
ARM GAS  /tmp/ccsrcL7C.s 			page 19


 1027 0022 1960     		str	r1, [r3]
 1028              		.loc 2 675 0
 1029 0024 4B60     		str	r3, [r1, #4]
 1030              	.LVL93:
 1031              	.LBE242:
 1032              	.LBE241:
 1033              		.loc 1 499 0
 1034 0026 C3E90225 		strd	r2, r5, [r3, #8]
 1035              		.loc 1 500 0
 1036 002a 9363     		str	r3, [r2, #56]
 1037              		.loc 1 501 0
 1038 002c FFF7FEFF 		bl	chSchReadyI
 1039              	.LVL94:
 1040 0030 A36B     		ldr	r3, [r4, #56]
 1041              	.LBE243:
 1042              	.LBE235:
 1043              		.loc 1 509 0
 1044 0032 002B     		cmp	r3, #0
 1045 0034 EDD1     		bne	.L78
 1046              	.L84:
 1047              		.loc 1 510 0
 1048 0036 E36B     		ldr	r3, [r4, #60]
 1049 0038 A360     		str	r3, [r4, #8]
 1050              		.loc 1 511 0
 1051 003a FFF7FEFF 		bl	chSchRescheduleS
 1052              	.LVL95:
 1053              	.L75:
 1054              	.LBB244:
 1055              	.LBB245:
 1056              	.LBB246:
 1057              	.LBB247:
 1058              	.LBB248:
 1059              		.loc 3 546 0
 1060 003e 0023     		movs	r3, #0
 1061              		.syntax unified
 1062              	@ 546 "ChibiOS_3.0.2/os/ext/CMSIS/include/core_cmFunc.h" 1
 1063 0040 83F31188 		MSR basepri, r3
 1064              	@ 0 "" 2
 1065              	.LVL96:
 1066              		.thumb
 1067              		.syntax unified
 1068              	.LBE248:
 1069              	.LBE247:
 1070              	.LBE246:
 1071              	.LBE245:
 1072              	.LBE244:
 1073              		.loc 1 514 0
 1074 0044 70BD     		pop	{r4, r5, r6, pc}
 1075              	.LVL97:
 1076              	.L76:
 1077              	.LBB249:
 1078              		.loc 1 507 0
 1079 0046 9E60     		str	r6, [r3, #8]
 1080 0048 0B46     		mov	r3, r1
 1081              	.LVL98:
 1082              	.LBE249:
 1083              		.loc 1 509 0
ARM GAS  /tmp/ccsrcL7C.s 			page 20


 1084 004a 002B     		cmp	r3, #0
 1085 004c E1D1     		bne	.L78
 1086 004e F2E7     		b	.L84
 1087              	.L86:
 1088              		.align	2
 1089              	.L85:
 1090 0050 00000000 		.word	ch
 1091              		.cfi_endproc
 1092              	.LFE236:
 1093              		.size	chMtxUnlockAll, .-chMtxUnlockAll
 1094              		.text
 1095              	.Letext0:
 1096              		.file 4 "/usr/arm-none-eabi/include/machine/_default_types.h"
 1097              		.file 5 "/usr/arm-none-eabi/include/sys/_stdint.h"
 1098              		.file 6 "ChibiOS_3.0.2/os/rt/ports/ARMCMx/compilers/GCC/chtypes.h"
 1099              		.file 7 "ChibiOS_3.0.2/os/rt/include/chsystypes.h"
 1100              		.file 8 "ChibiOS_3.0.2/os/ext/CMSIS/include/core_cm4.h"
 1101              		.file 9 "ChibiOS_3.0.2/os/ext/CMSIS/ST/system_stm32f4xx.h"
 1102              		.file 10 "ChibiOS_3.0.2/os/rt/ports/ARMCMx/chcore.h"
 1103              		.file 11 "ChibiOS_3.0.2/os/rt/ports/ARMCMx/chcore_v7m.h"
 1104              		.file 12 "ChibiOS_3.0.2/os/rt/include/chtm.h"
 1105              		.file 13 "ChibiOS_3.0.2/os/rt/include/chsem.h"
 1106              		.file 14 "ChibiOS_3.0.2/os/rt/include/chmtx.h"
 1107              		.file 15 "ChibiOS_3.0.2/os/rt/include/chregistry.h"
 1108              		.file 16 "ChibiOS_3.0.2/os/rt/include/chsys.h"