ARM GAS  /tmp/ccWW9b6U.s 			page 1


   1              		.cpu cortex-m4
   2              		.eabi_attribute 27, 1
   3              		.eabi_attribute 28, 1
   4              		.eabi_attribute 20, 1
   5              		.eabi_attribute 21, 1
   6              		.eabi_attribute 23, 3
   7              		.eabi_attribute 24, 1
   8              		.eabi_attribute 25, 1
   9              		.eabi_attribute 26, 1
  10              		.eabi_attribute 30, 2
  11              		.eabi_attribute 34, 1
  12              		.eabi_attribute 18, 4
  13              		.file	"chqueues.c"
  14              		.text
  15              	.Ltext0:
  16              		.cfi_sections	.debug_frame
  17              		.section	.text.chIQObjectInit,"ax",%progbits
  18              		.align	1
  19              		.p2align 4,,15
  20              		.global	chIQObjectInit
  21              		.syntax unified
  22              		.thumb
  23              		.thumb_func
  24              		.fpu fpv4-sp-d16
  25              		.type	chIQObjectInit, %function
  26              	chIQObjectInit:
  27              	.LFB229:
  28              		.file 1 "ChibiOS_3.0.2/os/rt/src/chqueues.c"
  29              		.loc 1 88 0
  30              		.cfi_startproc
  31              		@ args = 4, pretend = 0, frame = 0
  32              		@ frame_needed = 0, uses_anonymous_args = 0
  33              		@ link register save eliminated.
  34              	.LVL0:
  35 0000 30B4     		push	{r4, r5}
  36              		.cfi_def_cfa_offset 8
  37              		.cfi_offset 4, -8
  38              		.cfi_offset 5, -4
  39              		.loc 1 88 0
  40 0002 029C     		ldr	r4, [sp, #8]
  41              		.loc 1 97 0
  42 0004 0462     		str	r4, [r0, #32]
  43              		.loc 1 91 0
  44 0006 0025     		movs	r5, #0
  45              		.loc 1 95 0
  46 0008 0A44     		add	r2, r2, r1
  47              	.LVL1:
  48              		.loc 1 91 0
  49 000a 8560     		str	r5, [r0, #8]
  50              		.loc 1 95 0
  51 000c 0261     		str	r2, [r0, #16]
  52              	.LBB108:
  53              	.LBB109:
  54              	.LBB110:
  55              		.file 2 "ChibiOS_3.0.2/os/rt/include/chschd.h"
  56              		.loc 2 605 0
  57 000e C0E90000 		strd	r0, r0, [r0]
ARM GAS  /tmp/ccWW9b6U.s 			page 2


  58              	.LVL2:
  59              	.LBE110:
  60              	.LBE109:
  61              	.LBE108:
  62              		.loc 1 92 0
  63 0012 C160     		str	r1, [r0, #12]
  64              		.loc 1 94 0
  65 0014 C0E90511 		strd	r1, r1, [r0, #20]
  66              		.loc 1 96 0
  67 0018 C361     		str	r3, [r0, #28]
  68              		.loc 1 98 0
  69 001a 30BC     		pop	{r4, r5}
  70              		.cfi_restore 5
  71              		.cfi_restore 4
  72              		.cfi_def_cfa_offset 0
  73              	.LVL3:
  74 001c 7047     		bx	lr
  75              		.cfi_endproc
  76              	.LFE229:
  77              		.size	chIQObjectInit, .-chIQObjectInit
  78 001e 00BF     		.section	.text.chIQResetI,"ax",%progbits
  79              		.align	1
  80              		.p2align 4,,15
  81              		.global	chIQResetI
  82              		.syntax unified
  83              		.thumb
  84              		.thumb_func
  85              		.fpu fpv4-sp-d16
  86              		.type	chIQResetI, %function
  87              	chIQResetI:
  88              	.LFB230:
  89              		.loc 1 111 0
  90              		.cfi_startproc
  91              		@ args = 0, pretend = 0, frame = 0
  92              		@ frame_needed = 0, uses_anonymous_args = 0
  93              		@ link register save eliminated.
  94              	.LVL4:
  95              		.loc 1 115 0
  96 0000 C268     		ldr	r2, [r0, #12]
  97              		.loc 1 117 0
  98 0002 0021     		movs	r1, #0
  99 0004 8160     		str	r1, [r0, #8]
 100              		.loc 1 116 0
 101 0006 C0E90522 		strd	r2, r2, [r0, #20]
 102              		.loc 1 118 0
 103 000a 6FF00101 		mvn	r1, #1
 104 000e FFF7FEBF 		b	chThdDequeueAllI
 105              	.LVL5:
 106              		.cfi_endproc
 107              	.LFE230:
 108              		.size	chIQResetI, .-chIQResetI
 109 0012 00BF     		.section	.text.chIQPutI,"ax",%progbits
 110              		.align	1
 111              		.p2align 4,,15
 112              		.global	chIQPutI
 113              		.syntax unified
 114              		.thumb
ARM GAS  /tmp/ccWW9b6U.s 			page 3


 115              		.thumb_func
 116              		.fpu fpv4-sp-d16
 117              		.type	chIQPutI, %function
 118              	chIQPutI:
 119              	.LFB231:
 120              		.loc 1 134 0
 121              		.cfi_startproc
 122              		@ args = 0, pretend = 0, frame = 0
 123              		@ frame_needed = 0, uses_anonymous_args = 0
 124              	.LVL6:
 125              	.LBB111:
 126              	.LBB112:
 127              		.file 3 "ChibiOS_3.0.2/os/rt/include/chqueues.h"
 128              		.loc 3 324 0
 129 0000 D0E90532 		ldrd	r3, r2, [r0, #20]
 130 0004 9342     		cmp	r3, r2
 131 0006 11D0     		beq	.L14
 132              	.L6:
 133              	.LVL7:
 134              	.LBE112:
 135              	.LBE111:
 136              		.loc 1 142 0
 137 0008 8268     		ldr	r2, [r0, #8]
 138              		.loc 1 134 0
 139 000a 10B5     		push	{r4, lr}
 140              		.cfi_def_cfa_offset 8
 141              		.cfi_offset 4, -8
 142              		.cfi_offset 14, -4
 143              		.loc 1 142 0
 144 000c 0132     		adds	r2, r2, #1
 145              		.loc 1 143 0
 146 000e 5C1C     		adds	r4, r3, #1
 147              		.loc 1 142 0
 148 0010 8260     		str	r2, [r0, #8]
 149              		.loc 1 143 0
 150 0012 4461     		str	r4, [r0, #20]
 151 0014 1970     		strb	r1, [r3]
 152              		.loc 1 144 0
 153 0016 D0E90432 		ldrd	r3, r2, [r0, #16]
 154 001a 9A42     		cmp	r2, r3
 155 001c 01D3     		bcc	.L9
 156              		.loc 1 145 0
 157 001e C368     		ldr	r3, [r0, #12]
 158 0020 4361     		str	r3, [r0, #20]
 159              	.L9:
 160              		.loc 1 148 0
 161 0022 0021     		movs	r1, #0
 162              	.LVL8:
 163 0024 FFF7FEFF 		bl	chThdDequeueNextI
 164              	.LVL9:
 165              		.loc 1 150 0
 166 0028 0020     		movs	r0, #0
 167              		.loc 1 151 0
 168 002a 10BD     		pop	{r4, pc}
 169              	.LVL10:
 170              	.L14:
 171              		.cfi_def_cfa_offset 0
ARM GAS  /tmp/ccWW9b6U.s 			page 4


 172              		.cfi_restore 4
 173              		.cfi_restore 14
 174              	.LBB114:
 175              	.LBB113:
 176              		.loc 3 324 0
 177 002c 8268     		ldr	r2, [r0, #8]
 178 002e 002A     		cmp	r2, #0
 179 0030 EAD0     		beq	.L6
 180              	.LBE113:
 181              	.LBE114:
 182              		.loc 1 139 0
 183 0032 6FF00300 		mvn	r0, #3
 184              	.LVL11:
 185              		.loc 1 151 0
 186 0036 7047     		bx	lr
 187              		.cfi_endproc
 188              	.LFE231:
 189              		.size	chIQPutI, .-chIQPutI
 190              		.section	.text.chIQGetTimeout,"ax",%progbits
 191              		.align	1
 192              		.p2align 4,,15
 193              		.global	chIQGetTimeout
 194              		.syntax unified
 195              		.thumb
 196              		.thumb_func
 197              		.fpu fpv4-sp-d16
 198              		.type	chIQGetTimeout, %function
 199              	chIQGetTimeout:
 200              	.LFB232:
 201              		.loc 1 173 0
 202              		.cfi_startproc
 203              		@ args = 0, pretend = 0, frame = 0
 204              		@ frame_needed = 0, uses_anonymous_args = 0
 205              	.LVL12:
 206 0000 70B5     		push	{r4, r5, r6, lr}
 207              		.cfi_def_cfa_offset 16
 208              		.cfi_offset 4, -16
 209              		.cfi_offset 5, -12
 210              		.cfi_offset 6, -8
 211              		.cfi_offset 14, -4
 212              	.LBB115:
 213              	.LBB116:
 214              	.LBB117:
 215              	.LBB118:
 216              		.file 4 "ChibiOS_3.0.2/os/ext/CMSIS/include/core_cmFunc.h"
 217              		.loc 4 546 0
 218 0002 2023     		movs	r3, #32
 219              	.LBE118:
 220              	.LBE117:
 221              	.LBE116:
 222              	.LBE115:
 223              		.loc 1 173 0
 224 0004 0E46     		mov	r6, r1
 225 0006 0446     		mov	r4, r0
 226              	.LBB122:
 227              	.LBB121:
 228              	.LBB120:
ARM GAS  /tmp/ccWW9b6U.s 			page 5


 229              	.LBB119:
 230              		.loc 4 546 0
 231              		.syntax unified
 232              	@ 546 "ChibiOS_3.0.2/os/ext/CMSIS/include/core_cmFunc.h" 1
 233 0008 83F31188 		MSR basepri, r3
 234              	@ 0 "" 2
 235              	.LVL13:
 236              		.thumb
 237              		.syntax unified
 238              	.LBE119:
 239              	.LBE120:
 240              	.LBE121:
 241              	.LBE122:
 242              		.loc 1 177 0
 243 000c C369     		ldr	r3, [r0, #28]
 244 000e 2BB1     		cbz	r3, .L17
 245              		.loc 1 178 0
 246 0010 9847     		blx	r3
 247              	.LVL14:
 248 0012 03E0     		b	.L17
 249              	.LVL15:
 250              	.L19:
 251              	.LBB123:
 252              		.loc 1 182 0
 253 0014 FFF7FEFF 		bl	chThdEnqueueTimeoutS
 254              	.LVL16:
 255              		.loc 1 183 0
 256 0018 0028     		cmp	r0, #0
 257 001a 15DB     		blt	.L26
 258              	.LVL17:
 259              	.L17:
 260              	.LBE123:
 261              	.LBB129:
 262              	.LBB130:
 263              		.loc 3 307 0
 264 001c A568     		ldr	r5, [r4, #8]
 265              	.LVL18:
 266              	.LBE130:
 267              	.LBE129:
 268              	.LBB131:
 269              		.loc 1 182 0
 270 001e 3146     		mov	r1, r6
 271 0020 2046     		mov	r0, r4
 272              	.LBE131:
 273              		.loc 1 181 0
 274 0022 002D     		cmp	r5, #0
 275 0024 F6D0     		beq	.L19
 276              	.LVL19:
 277              		.loc 1 190 0
 278 0026 A169     		ldr	r1, [r4, #24]
 279              	.LVL20:
 280              		.loc 1 189 0
 281 0028 A368     		ldr	r3, [r4, #8]
 282              		.loc 1 191 0
 283 002a 2569     		ldr	r5, [r4, #16]
 284              		.loc 1 190 0
 285 002c 4A1C     		adds	r2, r1, #1
ARM GAS  /tmp/ccWW9b6U.s 			page 6


 286              		.loc 1 189 0
 287 002e 013B     		subs	r3, r3, #1
 288              		.loc 1 191 0
 289 0030 AA42     		cmp	r2, r5
 290              		.loc 1 189 0
 291 0032 A360     		str	r3, [r4, #8]
 292              		.loc 1 190 0
 293 0034 A261     		str	r2, [r4, #24]
 294              		.loc 1 192 0
 295 0036 28BF     		it	cs
 296 0038 E368     		ldrcs	r3, [r4, #12]
 297              		.loc 1 190 0
 298 003a 0878     		ldrb	r0, [r1]	@ zero_extendqisi2
 299              	.LVL21:
 300              		.loc 1 192 0
 301 003c 28BF     		it	cs
 302 003e A361     		strcs	r3, [r4, #24]
 303              	.LVL22:
 304              	.LBB132:
 305              	.LBB133:
 306              	.LBB134:
 307              	.LBB135:
 308              	.LBB136:
 309              		.loc 4 546 0
 310 0040 0023     		movs	r3, #0
 311              		.syntax unified
 312              	@ 546 "ChibiOS_3.0.2/os/ext/CMSIS/include/core_cmFunc.h" 1
 313 0042 83F31188 		MSR basepri, r3
 314              	@ 0 "" 2
 315              	.LVL23:
 316              		.thumb
 317              		.syntax unified
 318              	.LBE136:
 319              	.LBE135:
 320              	.LBE134:
 321              	.LBE133:
 322              	.LBE132:
 323              		.loc 1 197 0
 324 0046 70BD     		pop	{r4, r5, r6, pc}
 325              	.LVL24:
 326              	.L26:
 327              	.LBB137:
 328              	.LBB124:
 329              	.LBB125:
 330              	.LBB126:
 331              	.LBB127:
 332              	.LBB128:
 333              		.loc 4 546 0
 334              		.syntax unified
 335              	@ 546 "ChibiOS_3.0.2/os/ext/CMSIS/include/core_cmFunc.h" 1
 336 0048 85F31188 		MSR basepri, r5
 337              	@ 0 "" 2
 338              	.LVL25:
 339              		.thumb
 340              		.syntax unified
 341              	.LBE128:
 342              	.LBE127:
ARM GAS  /tmp/ccWW9b6U.s 			page 7


 343              	.LBE126:
 344              	.LBE125:
 345              	.LBE124:
 346              	.LBE137:
 347              		.loc 1 197 0
 348 004c 70BD     		pop	{r4, r5, r6, pc}
 349              		.cfi_endproc
 350              	.LFE232:
 351              		.size	chIQGetTimeout, .-chIQGetTimeout
 352 004e 00BF     		.section	.text.chIQReadTimeout,"ax",%progbits
 353              		.align	1
 354              		.p2align 4,,15
 355              		.global	chIQReadTimeout
 356              		.syntax unified
 357              		.thumb
 358              		.thumb_func
 359              		.fpu fpv4-sp-d16
 360              		.type	chIQReadTimeout, %function
 361              	chIQReadTimeout:
 362              	.LFB233:
 363              		.loc 1 224 0
 364              		.cfi_startproc
 365              		@ args = 0, pretend = 0, frame = 8
 366              		@ frame_needed = 0, uses_anonymous_args = 0
 367              	.LVL26:
 368 0000 2DE9F04F 		push	{r4, r5, r6, r7, r8, r9, r10, fp, lr}
 369              		.cfi_def_cfa_offset 36
 370              		.cfi_offset 4, -36
 371              		.cfi_offset 5, -32
 372              		.cfi_offset 6, -28
 373              		.cfi_offset 7, -24
 374              		.cfi_offset 8, -20
 375              		.cfi_offset 9, -16
 376              		.cfi_offset 10, -12
 377              		.cfi_offset 11, -8
 378              		.cfi_offset 14, -4
 379 0004 0446     		mov	r4, r0
 380 0006 83B0     		sub	sp, sp, #12
 381              		.cfi_def_cfa_offset 48
 382              		.loc 1 224 0
 383 0008 8946     		mov	r9, r1
 384 000a 9346     		mov	fp, r2
 385 000c 1D46     		mov	r5, r3
 386              		.loc 1 225 0
 387 000e D0F81C80 		ldr	r8, [r0, #28]
 388              	.LVL27:
 389              	.LBB138:
 390              	.LBB139:
 391              	.LBB140:
 392              	.LBB141:
 393              		.loc 4 546 0
 394 0012 2027     		movs	r7, #32
 395              		.syntax unified
 396              	@ 546 "ChibiOS_3.0.2/os/ext/CMSIS/include/core_cmFunc.h" 1
 397 0014 87F31188 		MSR basepri, r7
 398              	@ 0 "" 2
 399              	.LVL28:
ARM GAS  /tmp/ccWW9b6U.s 			page 8


 400              		.thumb
 401              		.syntax unified
 402              	.LBE141:
 403              	.LBE140:
 404              	.LBE139:
 405              	.LBE138:
 406              		.loc 1 226 0
 407 0018 0026     		movs	r6, #0
 408              	.LBB142:
 409              	.LBB143:
 410              	.LBB144:
 411              	.LBB145:
 412              		.loc 4 546 0
 413 001a 0197     		str	r7, [sp, #4]
 414              	.LBE145:
 415              	.LBE144:
 416              	.LBE143:
 417              	.LBE142:
 418              	.LBB149:
 419              	.LBB150:
 420              	.LBB151:
 421              	.LBB152:
 422              	.LBB153:
 423 001c B246     		mov	r10, r6
 424              	.LVL29:
 425              	.L33:
 426              	.LBE153:
 427              	.LBE152:
 428              	.LBE151:
 429              	.LBE150:
 430              	.LBE149:
 431              		.loc 1 232 0
 432 001e B8F1000F 		cmp	r8, #0
 433 0022 05D0     		beq	.L29
 434              		.loc 1 233 0
 435 0024 2046     		mov	r0, r4
 436              	.LVL30:
 437 0026 C047     		blx	r8
 438              	.LVL31:
 439 0028 02E0     		b	.L29
 440              	.LVL32:
 441              	.L31:
 442              		.loc 1 237 0
 443 002a FFF7FEFF 		bl	chThdEnqueueTimeoutS
 444              	.LVL33:
 445 002e E0B9     		cbnz	r0, .L40
 446              	.L29:
 447              	.LVL34:
 448              	.LBB158:
 449              	.LBB159:
 450              		.loc 3 307 0
 451 0030 A768     		ldr	r7, [r4, #8]
 452              	.LVL35:
 453              	.LBE159:
 454              	.LBE158:
 455              		.loc 1 237 0
 456 0032 2946     		mov	r1, r5
ARM GAS  /tmp/ccWW9b6U.s 			page 9


 457 0034 2046     		mov	r0, r4
 458              		.loc 1 236 0
 459 0036 002F     		cmp	r7, #0
 460 0038 F7D0     		beq	.L31
 461              	.LVL36:
 462              		.loc 1 244 0
 463 003a A269     		ldr	r2, [r4, #24]
 464              		.loc 1 243 0
 465 003c A368     		ldr	r3, [r4, #8]
 466              		.loc 1 244 0
 467 003e 511C     		adds	r1, r2, #1
 468              	.LVL37:
 469              		.loc 1 243 0
 470 0040 013B     		subs	r3, r3, #1
 471              		.loc 1 244 0
 472 0042 A161     		str	r1, [r4, #24]
 473              		.loc 1 243 0
 474 0044 A360     		str	r3, [r4, #8]
 475              		.loc 1 244 0
 476 0046 1378     		ldrb	r3, [r2]	@ zero_extendqisi2
 477 0048 09F8013B 		strb	r3, [r9], #1
 478              	.LVL38:
 479              		.loc 1 245 0
 480 004c 2369     		ldr	r3, [r4, #16]
 481 004e A269     		ldr	r2, [r4, #24]
 482 0050 9A42     		cmp	r2, r3
 483              		.loc 1 246 0
 484 0052 24BF     		itt	cs
 485 0054 E368     		ldrcs	r3, [r4, #12]
 486 0056 A361     		strcs	r3, [r4, #24]
 487              	.LVL39:
 488              	.LBB160:
 489              	.LBB157:
 490              	.LBB156:
 491              	.LBB155:
 492              	.LBB154:
 493              		.loc 4 546 0
 494              		.syntax unified
 495              	@ 546 "ChibiOS_3.0.2/os/ext/CMSIS/include/core_cmFunc.h" 1
 496 0058 8AF31188 		MSR basepri, r10
 497              	@ 0 "" 2
 498              	.LVL40:
 499              		.thumb
 500              		.syntax unified
 501              	.LBE154:
 502              	.LBE155:
 503              	.LBE156:
 504              	.LBE157:
 505              	.LBE160:
 506              		.loc 1 250 0
 507 005c 0136     		adds	r6, r6, #1
 508              	.LVL41:
 509              		.loc 1 251 0
 510 005e B345     		cmp	fp, r6
 511 0060 05D0     		beq	.L27
 512              	.LVL42:
 513              	.LBB161:
ARM GAS  /tmp/ccWW9b6U.s 			page 10


 514              	.LBB148:
 515              	.LBB147:
 516              	.LBB146:
 517              		.loc 4 546 0
 518 0062 019B     		ldr	r3, [sp, #4]
 519              		.syntax unified
 520              	@ 546 "ChibiOS_3.0.2/os/ext/CMSIS/include/core_cmFunc.h" 1
 521 0064 83F31188 		MSR basepri, r3
 522              	@ 0 "" 2
 523              	.LVL43:
 524              		.thumb
 525              		.syntax unified
 526 0068 D9E7     		b	.L33
 527              	.LVL44:
 528              	.L40:
 529              	.LBE146:
 530              	.LBE147:
 531              	.LBE148:
 532              	.LBE161:
 533              	.LBB162:
 534              	.LBB163:
 535              	.LBB164:
 536              	.LBB165:
 537              	.LBB166:
 538              		.syntax unified
 539              	@ 546 "ChibiOS_3.0.2/os/ext/CMSIS/include/core_cmFunc.h" 1
 540 006a 87F31188 		MSR basepri, r7
 541              	@ 0 "" 2
 542              	.LVL45:
 543              		.thumb
 544              		.syntax unified
 545              	.L27:
 546              	.LBE166:
 547              	.LBE165:
 548              	.LBE164:
 549              	.LBE163:
 550              	.LBE162:
 551              		.loc 1 257 0
 552 006e 3046     		mov	r0, r6
 553 0070 03B0     		add	sp, sp, #12
 554              		.cfi_def_cfa_offset 36
 555              		@ sp needed
 556 0072 BDE8F08F 		pop	{r4, r5, r6, r7, r8, r9, r10, fp, pc}
 557              		.cfi_endproc
 558              	.LFE233:
 559              		.size	chIQReadTimeout, .-chIQReadTimeout
 560 0076 00BF     		.section	.text.chOQObjectInit,"ax",%progbits
 561              		.align	1
 562              		.p2align 4,,15
 563              		.global	chOQObjectInit
 564              		.syntax unified
 565              		.thumb
 566              		.thumb_func
 567              		.fpu fpv4-sp-d16
 568              		.type	chOQObjectInit, %function
 569              	chOQObjectInit:
 570              	.LFB234:
ARM GAS  /tmp/ccWW9b6U.s 			page 11


 571              		.loc 1 276 0
 572              		.cfi_startproc
 573              		@ args = 4, pretend = 0, frame = 0
 574              		@ frame_needed = 0, uses_anonymous_args = 0
 575              		@ link register save eliminated.
 576              	.LVL46:
 577 0000 30B4     		push	{r4, r5}
 578              		.cfi_def_cfa_offset 8
 579              		.cfi_offset 4, -8
 580              		.cfi_offset 5, -4
 581              		.loc 1 276 0
 582 0002 029C     		ldr	r4, [sp, #8]
 583              		.loc 1 279 0
 584 0004 8260     		str	r2, [r0, #8]
 585              		.loc 1 283 0
 586 0006 8D18     		adds	r5, r1, r2
 587              		.loc 1 280 0
 588 0008 C0E90315 		strd	r1, r5, [r0, #12]
 589              		.loc 1 285 0
 590 000c C0E90734 		strd	r3, r4, [r0, #28]
 591              	.LBB167:
 592              	.LBB168:
 593              	.LBB169:
 594              		.loc 2 605 0
 595 0010 C0E90000 		strd	r0, r0, [r0]
 596              	.LVL47:
 597              	.LBE169:
 598              	.LBE168:
 599              	.LBE167:
 600              		.loc 1 282 0
 601 0014 C0E90511 		strd	r1, r1, [r0, #20]
 602              		.loc 1 286 0
 603 0018 30BC     		pop	{r4, r5}
 604              		.cfi_restore 5
 605              		.cfi_restore 4
 606              		.cfi_def_cfa_offset 0
 607              	.LVL48:
 608 001a 7047     		bx	lr
 609              		.cfi_endproc
 610              	.LFE234:
 611              		.size	chOQObjectInit, .-chOQObjectInit
 612              		.section	.text.chOQResetI,"ax",%progbits
 613              		.align	1
 614              		.p2align 4,,15
 615              		.global	chOQResetI
 616              		.syntax unified
 617              		.thumb
 618              		.thumb_func
 619              		.fpu fpv4-sp-d16
 620              		.type	chOQResetI, %function
 621              	chOQResetI:
 622              	.LFB235:
 623              		.loc 1 299 0
 624              		.cfi_startproc
 625              		@ args = 0, pretend = 0, frame = 0
 626              		@ frame_needed = 0, uses_anonymous_args = 0
 627              		@ link register save eliminated.
ARM GAS  /tmp/ccWW9b6U.s 			page 12


 628              	.LVL49:
 629 0000 10B4     		push	{r4}
 630              		.cfi_def_cfa_offset 4
 631              		.cfi_offset 4, -4
 632              		.loc 1 305 0
 633 0002 D0E90342 		ldrd	r4, r2, [r0, #12]
 634 0006 121B     		subs	r2, r2, r4
 635              		.loc 1 303 0
 636 0008 8461     		str	r4, [r0, #24]
 637              		.loc 1 304 0
 638 000a 4461     		str	r4, [r0, #20]
 639              		.loc 1 306 0
 640 000c 6FF00101 		mvn	r1, #1
 641              		.loc 1 305 0
 642 0010 8260     		str	r2, [r0, #8]
 643              		.loc 1 307 0
 644 0012 5DF8044B 		ldr	r4, [sp], #4
 645              		.cfi_restore 4
 646              		.cfi_def_cfa_offset 0
 647              		.loc 1 306 0
 648 0016 FFF7FEBF 		b	chThdDequeueAllI
 649              	.LVL50:
 650              		.cfi_endproc
 651              	.LFE235:
 652              		.size	chOQResetI, .-chOQResetI
 653 001a 00BF     		.section	.text.chOQPutTimeout,"ax",%progbits
 654              		.align	1
 655              		.p2align 4,,15
 656              		.global	chOQPutTimeout
 657              		.syntax unified
 658              		.thumb
 659              		.thumb_func
 660              		.fpu fpv4-sp-d16
 661              		.type	chOQPutTimeout, %function
 662              	chOQPutTimeout:
 663              	.LFB236:
 664              		.loc 1 331 0
 665              		.cfi_startproc
 666              		@ args = 0, pretend = 0, frame = 0
 667              		@ frame_needed = 0, uses_anonymous_args = 0
 668              	.LVL51:
 669 0000 F8B5     		push	{r3, r4, r5, r6, r7, lr}
 670              		.cfi_def_cfa_offset 24
 671              		.cfi_offset 3, -24
 672              		.cfi_offset 4, -20
 673              		.cfi_offset 5, -16
 674              		.cfi_offset 6, -12
 675              		.cfi_offset 7, -8
 676              		.cfi_offset 14, -4
 677              		.loc 1 331 0
 678 0002 0446     		mov	r4, r0
 679 0004 0F46     		mov	r7, r1
 680 0006 1646     		mov	r6, r2
 681              	.LBB170:
 682              	.LBB171:
 683              	.LBB172:
 684              	.LBB173:
ARM GAS  /tmp/ccWW9b6U.s 			page 13


 685              		.loc 4 546 0
 686 0008 2023     		movs	r3, #32
 687              		.syntax unified
 688              	@ 546 "ChibiOS_3.0.2/os/ext/CMSIS/include/core_cmFunc.h" 1
 689 000a 83F31188 		MSR basepri, r3
 690              	@ 0 "" 2
 691              	.LVL52:
 692              		.thumb
 693              		.syntax unified
 694 000e 03E0     		b	.L46
 695              	.LVL53:
 696              	.L48:
 697              	.LBE173:
 698              	.LBE172:
 699              	.LBE171:
 700              	.LBE170:
 701              	.LBB174:
 702              		.loc 1 335 0
 703 0010 FFF7FEFF 		bl	chThdEnqueueTimeoutS
 704              	.LVL54:
 705              		.loc 1 336 0
 706 0014 0028     		cmp	r0, #0
 707 0016 18DB     		blt	.L56
 708              	.LVL55:
 709              	.L46:
 710              	.LBE174:
 711              	.LBB180:
 712              	.LBB181:
 713              		.loc 3 407 0
 714 0018 A568     		ldr	r5, [r4, #8]
 715              	.LVL56:
 716              	.LBE181:
 717              	.LBE180:
 718              	.LBB182:
 719              		.loc 1 335 0
 720 001a 3146     		mov	r1, r6
 721 001c 2046     		mov	r0, r4
 722              	.LBE182:
 723              		.loc 1 334 0
 724 001e 002D     		cmp	r5, #0
 725 0020 F6D0     		beq	.L48
 726              	.LVL57:
 727              		.loc 1 343 0
 728 0022 6269     		ldr	r2, [r4, #20]
 729              		.loc 1 342 0
 730 0024 A368     		ldr	r3, [r4, #8]
 731              		.loc 1 343 0
 732 0026 511C     		adds	r1, r2, #1
 733              	.LVL58:
 734              		.loc 1 342 0
 735 0028 013B     		subs	r3, r3, #1
 736              		.loc 1 343 0
 737 002a 6161     		str	r1, [r4, #20]
 738              		.loc 1 342 0
 739 002c A360     		str	r3, [r4, #8]
 740              		.loc 1 343 0
 741 002e 1770     		strb	r7, [r2]
ARM GAS  /tmp/ccWW9b6U.s 			page 14


 742              		.loc 1 344 0
 743 0030 D4E90432 		ldrd	r3, r2, [r4, #16]
 744 0034 9A42     		cmp	r2, r3
 745              		.loc 1 345 0
 746 0036 24BF     		itt	cs
 747 0038 E368     		ldrcs	r3, [r4, #12]
 748 003a 6361     		strcs	r3, [r4, #20]
 749              		.loc 1 348 0
 750 003c E369     		ldr	r3, [r4, #28]
 751 003e 03B1     		cbz	r3, .L50
 752              		.loc 1 349 0
 753 0040 9847     		blx	r3
 754              	.LVL59:
 755              	.L50:
 756              	.LBB183:
 757              	.LBB184:
 758              	.LBB185:
 759              	.LBB186:
 760              	.LBB187:
 761              		.loc 4 546 0
 762 0042 0020     		movs	r0, #0
 763              		.syntax unified
 764              	@ 546 "ChibiOS_3.0.2/os/ext/CMSIS/include/core_cmFunc.h" 1
 765 0044 80F31188 		MSR basepri, r0
 766              	@ 0 "" 2
 767              	.LVL60:
 768              		.thumb
 769              		.syntax unified
 770              	.LBE187:
 771              	.LBE186:
 772              	.LBE185:
 773              	.LBE184:
 774              	.LBE183:
 775              		.loc 1 354 0
 776 0048 F8BD     		pop	{r3, r4, r5, r6, r7, pc}
 777              	.LVL61:
 778              	.L56:
 779              	.LBB188:
 780              	.LBB175:
 781              	.LBB176:
 782              	.LBB177:
 783              	.LBB178:
 784              	.LBB179:
 785              		.loc 4 546 0
 786              		.syntax unified
 787              	@ 546 "ChibiOS_3.0.2/os/ext/CMSIS/include/core_cmFunc.h" 1
 788 004a 85F31188 		MSR basepri, r5
 789              	@ 0 "" 2
 790              	.LVL62:
 791              		.thumb
 792              		.syntax unified
 793              	.LBE179:
 794              	.LBE178:
 795              	.LBE177:
 796              	.LBE176:
 797              	.LBE175:
 798              	.LBE188:
ARM GAS  /tmp/ccWW9b6U.s 			page 15


 799              		.loc 1 354 0
 800 004e F8BD     		pop	{r3, r4, r5, r6, r7, pc}
 801              		.cfi_endproc
 802              	.LFE236:
 803              		.size	chOQPutTimeout, .-chOQPutTimeout
 804              		.section	.text.chOQGetI,"ax",%progbits
 805              		.align	1
 806              		.p2align 4,,15
 807              		.global	chOQGetI
 808              		.syntax unified
 809              		.thumb
 810              		.thumb_func
 811              		.fpu fpv4-sp-d16
 812              		.type	chOQGetI, %function
 813              	chOQGetI:
 814              	.LFB237:
 815              		.loc 1 366 0
 816              		.cfi_startproc
 817              		@ args = 0, pretend = 0, frame = 0
 818              		@ frame_needed = 0, uses_anonymous_args = 0
 819              	.LVL63:
 820 0000 38B5     		push	{r3, r4, r5, lr}
 821              		.cfi_def_cfa_offset 16
 822              		.cfi_offset 3, -16
 823              		.cfi_offset 4, -12
 824              		.cfi_offset 5, -8
 825              		.cfi_offset 14, -4
 826              	.LBB189:
 827              	.LBB190:
 828              		.loc 3 390 0
 829 0002 D0E90523 		ldrd	r2, r3, [r0, #20]
 830 0006 9A42     		cmp	r2, r3
 831 0008 0FD0     		beq	.L64
 832              	.L58:
 833              	.LVL64:
 834              	.LBE190:
 835              	.LBE189:
 836              		.loc 1 375 0
 837 000a 8268     		ldr	r2, [r0, #8]
 838              		.loc 1 377 0
 839 000c 0569     		ldr	r5, [r0, #16]
 840              		.loc 1 376 0
 841 000e 591C     		adds	r1, r3, #1
 842              		.loc 1 375 0
 843 0010 0132     		adds	r2, r2, #1
 844 0012 8260     		str	r2, [r0, #8]
 845              		.loc 1 376 0
 846 0014 8161     		str	r1, [r0, #24]
 847              		.loc 1 377 0
 848 0016 A942     		cmp	r1, r5
 849              		.loc 1 376 0
 850 0018 1C78     		ldrb	r4, [r3]	@ zero_extendqisi2
 851              	.LVL65:
 852              		.loc 1 377 0
 853 001a 01D3     		bcc	.L61
 854              		.loc 1 378 0
 855 001c C368     		ldr	r3, [r0, #12]
ARM GAS  /tmp/ccWW9b6U.s 			page 16


 856 001e 8361     		str	r3, [r0, #24]
 857              	.L61:
 858              		.loc 1 381 0
 859 0020 0021     		movs	r1, #0
 860 0022 FFF7FEFF 		bl	chThdDequeueNextI
 861              	.LVL66:
 862              		.loc 1 383 0
 863 0026 2046     		mov	r0, r4
 864              		.loc 1 384 0
 865 0028 38BD     		pop	{r3, r4, r5, pc}
 866              	.LVL67:
 867              	.L64:
 868              	.LBB192:
 869              	.LBB191:
 870              		.loc 3 390 0
 871 002a 8268     		ldr	r2, [r0, #8]
 872 002c 002A     		cmp	r2, #0
 873 002e ECD0     		beq	.L58
 874              	.LBE191:
 875              	.LBE192:
 876              		.loc 1 372 0
 877 0030 6FF00200 		mvn	r0, #2
 878              	.LVL68:
 879              		.loc 1 384 0
 880 0034 38BD     		pop	{r3, r4, r5, pc}
 881              		.cfi_endproc
 882              	.LFE237:
 883              		.size	chOQGetI, .-chOQGetI
 884 0036 00BF     		.section	.text.chOQWriteTimeout,"ax",%progbits
 885              		.align	1
 886              		.p2align 4,,15
 887              		.global	chOQWriteTimeout
 888              		.syntax unified
 889              		.thumb
 890              		.thumb_func
 891              		.fpu fpv4-sp-d16
 892              		.type	chOQWriteTimeout, %function
 893              	chOQWriteTimeout:
 894              	.LFB238:
 895              		.loc 1 411 0
 896              		.cfi_startproc
 897              		@ args = 0, pretend = 0, frame = 8
 898              		@ frame_needed = 0, uses_anonymous_args = 0
 899              	.LVL69:
 900 0000 2DE9F04F 		push	{r4, r5, r6, r7, r8, r9, r10, fp, lr}
 901              		.cfi_def_cfa_offset 36
 902              		.cfi_offset 4, -36
 903              		.cfi_offset 5, -32
 904              		.cfi_offset 6, -28
 905              		.cfi_offset 7, -24
 906              		.cfi_offset 8, -20
 907              		.cfi_offset 9, -16
 908              		.cfi_offset 10, -12
 909              		.cfi_offset 11, -8
 910              		.cfi_offset 14, -4
 911 0004 83B0     		sub	sp, sp, #12
 912              		.cfi_def_cfa_offset 48
ARM GAS  /tmp/ccWW9b6U.s 			page 17


 913              		.loc 1 411 0
 914 0006 0446     		mov	r4, r0
 915 0008 0D46     		mov	r5, r1
 916 000a 1646     		mov	r6, r2
 917 000c 0193     		str	r3, [sp, #4]
 918              		.loc 1 412 0
 919 000e D0F81C80 		ldr	r8, [r0, #28]
 920              	.LVL70:
 921              	.LBB193:
 922              	.LBB194:
 923              	.LBB195:
 924              	.LBB196:
 925              		.loc 4 546 0
 926 0012 4FF02009 		mov	r9, #32
 927              		.syntax unified
 928              	@ 546 "ChibiOS_3.0.2/os/ext/CMSIS/include/core_cmFunc.h" 1
 929 0016 89F31188 		MSR basepri, r9
 930              	@ 0 "" 2
 931              	.LVL71:
 932              		.thumb
 933              		.syntax unified
 934              	.LBE196:
 935              	.LBE195:
 936              	.LBE194:
 937              	.LBE193:
 938              		.loc 1 413 0
 939 001a 0027     		movs	r7, #0
 940              	.LBB197:
 941              	.LBB198:
 942              	.LBB199:
 943              	.LBB200:
 944              	.LBB201:
 945              		.loc 4 546 0
 946 001c BA46     		mov	r10, r7
 947              	.LVL72:
 948              	.L66:
 949              	.LBE201:
 950              	.LBE200:
 951              	.LBE199:
 952              	.LBE198:
 953              	.LBE197:
 954              	.LBB206:
 955              	.LBB207:
 956              		.loc 3 407 0
 957 001e A368     		ldr	r3, [r4, #8]
 958              	.LVL73:
 959              	.LBE207:
 960              	.LBE206:
 961              		.loc 1 427 0
 962 0020 05F1010B 		add	fp, r5, #1
 963              	.LVL74:
 964              		.loc 1 433 0
 965 0024 2046     		mov	r0, r4
 966              		.loc 1 419 0
 967 0026 03B3     		cbz	r3, .L69
 968              	.LVL75:
 969              	.L82:
ARM GAS  /tmp/ccWW9b6U.s 			page 18


 970              		.loc 1 427 0
 971 0028 6169     		ldr	r1, [r4, #20]
 972              		.loc 1 426 0
 973 002a A368     		ldr	r3, [r4, #8]
 974              		.loc 1 427 0
 975 002c 4A1C     		adds	r2, r1, #1
 976              		.loc 1 426 0
 977 002e 013B     		subs	r3, r3, #1
 978              		.loc 1 427 0
 979 0030 6261     		str	r2, [r4, #20]
 980              		.loc 1 426 0
 981 0032 A360     		str	r3, [r4, #8]
 982              		.loc 1 427 0
 983 0034 2B78     		ldrb	r3, [r5]	@ zero_extendqisi2
 984 0036 0B70     		strb	r3, [r1]
 985              		.loc 1 428 0
 986 0038 D4E90431 		ldrd	r3, r1, [r4, #16]
 987 003c 9942     		cmp	r1, r3
 988              		.loc 1 429 0
 989 003e 24BF     		itt	cs
 990 0040 E368     		ldrcs	r3, [r4, #12]
 991 0042 6361     		strcs	r3, [r4, #20]
 992              		.loc 1 432 0
 993 0044 B8F1000F 		cmp	r8, #0
 994 0048 00D0     		beq	.L71
 995              		.loc 1 433 0
 996 004a C047     		blx	r8
 997              	.LVL76:
 998              	.L71:
 999              	.LBB209:
 1000              	.LBB205:
 1001              	.LBB204:
 1002              	.LBB203:
 1003              	.LBB202:
 1004              		.loc 4 546 0
 1005              		.syntax unified
 1006              	@ 546 "ChibiOS_3.0.2/os/ext/CMSIS/include/core_cmFunc.h" 1
 1007 004c 8AF31188 		MSR basepri, r10
 1008              	@ 0 "" 2
 1009              	.LVL77:
 1010              		.thumb
 1011              		.syntax unified
 1012              	.LBE202:
 1013              	.LBE203:
 1014              	.LBE204:
 1015              	.LBE205:
 1016              	.LBE209:
 1017              		.loc 1 438 0
 1018 0050 013E     		subs	r6, r6, #1
 1019              	.LVL78:
 1020              		.loc 1 437 0
 1021 0052 07F10107 		add	r7, r7, #1
 1022              	.LVL79:
 1023              		.loc 1 438 0
 1024 0056 12D0     		beq	.L65
 1025              	.LBB210:
 1026              	.LBB211:
ARM GAS  /tmp/ccWW9b6U.s 			page 19


 1027              	.LBB212:
 1028              	.LBB213:
 1029              		.loc 4 546 0
 1030              		.syntax unified
 1031              	@ 546 "ChibiOS_3.0.2/os/ext/CMSIS/include/core_cmFunc.h" 1
 1032 0058 89F31188 		MSR basepri, r9
 1033              	@ 0 "" 2
 1034              	.LVL80:
 1035              		.thumb
 1036              		.syntax unified
 1037              	.LBE213:
 1038              	.LBE212:
 1039              	.LBE211:
 1040              	.LBE210:
 1041              	.LBB214:
 1042              	.LBB208:
 1043              		.loc 3 407 0
 1044 005c A368     		ldr	r3, [r4, #8]
 1045              	.LBE208:
 1046              	.LBE214:
 1047              		.loc 1 427 0
 1048 005e 5D46     		mov	r5, fp
 1049              	.LVL81:
 1050 0060 05F1010B 		add	fp, r5, #1
 1051              	.LVL82:
 1052              		.loc 1 433 0
 1053 0064 2046     		mov	r0, r4
 1054              		.loc 1 419 0
 1055 0066 002B     		cmp	r3, #0
 1056 0068 DED1     		bne	.L82
 1057              	.LVL83:
 1058              	.L69:
 1059              		.loc 1 420 0
 1060 006a 0199     		ldr	r1, [sp, #4]
 1061 006c 0093     		str	r3, [sp]
 1062 006e 2046     		mov	r0, r4
 1063              	.LVL84:
 1064 0070 FFF7FEFF 		bl	chThdEnqueueTimeoutS
 1065              	.LVL85:
 1066 0074 009B     		ldr	r3, [sp]
 1067 0076 0028     		cmp	r0, #0
 1068 0078 D1D0     		beq	.L66
 1069              	.LVL86:
 1070              	.LBB215:
 1071              	.LBB216:
 1072              	.LBB217:
 1073              	.LBB218:
 1074              	.LBB219:
 1075              		.loc 4 546 0
 1076              		.syntax unified
 1077              	@ 546 "ChibiOS_3.0.2/os/ext/CMSIS/include/core_cmFunc.h" 1
 1078 007a 83F31188 		MSR basepri, r3
 1079              	@ 0 "" 2
 1080              	.LVL87:
 1081              		.thumb
 1082              		.syntax unified
 1083              	.L65:
ARM GAS  /tmp/ccWW9b6U.s 			page 20


 1084              	.LBE219:
 1085              	.LBE218:
 1086              	.LBE217:
 1087              	.LBE216:
 1088              	.LBE215:
 1089              		.loc 1 443 0
 1090 007e 3846     		mov	r0, r7
 1091 0080 03B0     		add	sp, sp, #12
 1092              		.cfi_def_cfa_offset 36
 1093              		@ sp needed
 1094 0082 BDE8F08F 		pop	{r4, r5, r6, r7, r8, r9, r10, fp, pc}
 1095              		.cfi_endproc
 1096              	.LFE238:
 1097              		.size	chOQWriteTimeout, .-chOQWriteTimeout
 1098 0086 00BF     		.text
 1099              	.Letext0:
 1100              		.file 5 "/usr/lib/gcc/arm-none-eabi/7.3.1/include/stddef.h"
 1101              		.file 6 "/usr/arm-none-eabi/include/machine/_default_types.h"
 1102              		.file 7 "/usr/arm-none-eabi/include/sys/_stdint.h"
 1103              		.file 8 "ChibiOS_3.0.2/os/rt/ports/ARMCMx/compilers/GCC/chtypes.h"
 1104              		.file 9 "ChibiOS_3.0.2/os/rt/include/chsystypes.h"
 1105              		.file 10 "ChibiOS_3.0.2/os/ext/CMSIS/include/core_cm4.h"
 1106              		.file 11 "ChibiOS_3.0.2/os/ext/CMSIS/ST/system_stm32f4xx.h"
 1107              		.file 12 "ChibiOS_3.0.2/os/rt/ports/ARMCMx/chcore.h"
 1108              		.file 13 "ChibiOS_3.0.2/os/rt/ports/ARMCMx/chcore_v7m.h"
 1109              		.file 14 "ChibiOS_3.0.2/os/rt/include/chtm.h"
 1110              		.file 15 "ChibiOS_3.0.2/os/rt/include/chsem.h"
 1111              		.file 16 "ChibiOS_3.0.2/os/rt/include/chmtx.h"
 1112              		.file 17 "ChibiOS_3.0.2/os/rt/include/chregistry.h"
 1113              		.file 18 "ChibiOS_3.0.2/os/rt/include/chsys.h"
 1114              		.file 19 "ChibiOS_3.0.2/os/rt/include/chthreads.h"