ARM GAS  /tmp/ccUycMxT.s 			page 1


   1              		.cpu cortex-m4
   2              		.eabi_attribute 27, 1
   3              		.eabi_attribute 28, 1
   4              		.eabi_attribute 20, 1
   5              		.eabi_attribute 21, 1
   6              		.eabi_attribute 23, 3
   7              		.eabi_attribute 24, 1
   8              		.eabi_attribute 25, 1
   9              		.eabi_attribute 26, 1
  10              		.eabi_attribute 30, 2
  11              		.eabi_attribute 34, 1
  12              		.eabi_attribute 18, 4
  13              		.file	"chsys.c"
  14              		.text
  15              	.Ltext0:
  16              		.cfi_sections	.debug_frame
  17              		.section	.text._idle_thread,"ax",%progbits
  18              		.align	1
  19              		.p2align 4,,15
  20              		.syntax unified
  21              		.thumb
  22              		.thumb_func
  23              		.fpu fpv4-sp-d16
  24              		.type	_idle_thread, %function
  25              	_idle_thread:
  26              	.LFB229:
  27              		.file 1 "ChibiOS_3.0.2/os/rt/src/chsys.c"
  28              		.loc 1 65 0
  29              		.cfi_startproc
  30              		@ Volatile: function does not return.
  31              		@ args = 0, pretend = 0, frame = 0
  32              		@ frame_needed = 0, uses_anonymous_args = 0
  33              		@ link register save eliminated.
  34              	.LVL0:
  35              	.L2:
  36 0000 FEE7     		b	.L2
  37              		.cfi_endproc
  38              	.LFE229:
  39              		.size	_idle_thread, .-_idle_thread
  40 0002 00BF     		.section	.text.chSysInit,"ax",%progbits
  41              		.align	1
  42              		.p2align 4,,15
  43              		.global	chSysInit
  44              		.syntax unified
  45              		.thumb
  46              		.thumb_func
  47              		.fpu fpv4-sp-d16
  48              		.type	chSysInit, %function
  49              	chSysInit:
  50              	.LFB230:
  51              		.loc 1 93 0
  52              		.cfi_startproc
  53              		@ args = 0, pretend = 0, frame = 0
  54              		@ frame_needed = 0, uses_anonymous_args = 0
  55              	.LBB157:
  56              	.LBB158:
  57              		.file 2 "ChibiOS_3.0.2/os/rt/ports/ARMCMx/chcore_v7m.h"
ARM GAS  /tmp/ccUycMxT.s 			page 2


  58              		.loc 2 377 0
  59 0000 204B     		ldr	r3, .L6
  60              	.LBB159:
  61              	.LBB160:
  62              		.file 3 "ChibiOS_3.0.2/os/ext/CMSIS/include/core_cm4.h"
  63              		.loc 3 1442 0
  64 0002 214A     		ldr	r2, .L6+4
  65              	.LBE160:
  66              	.LBE159:
  67              		.loc 2 383 0
  68 0004 2148     		ldr	r0, .L6+8
  69              	.LBE158:
  70              	.LBE157:
  71              		.loc 1 93 0
  72 0006 30B5     		push	{r4, r5, lr}
  73              		.cfi_def_cfa_offset 12
  74              		.cfi_offset 4, -12
  75              		.cfi_offset 5, -8
  76              		.cfi_offset 14, -4
  77              	.LBB174:
  78              	.LBB171:
  79              		.loc 2 377 0
  80 0008 0024     		movs	r4, #0
  81 000a 9C60     		str	r4, [r3, #8]
  82              	.LVL1:
  83              	.LBB162:
  84              	.LBB161:
  85              		.loc 3 1440 0
  86 000c D968     		ldr	r1, [r3, #12]
  87              	.LVL2:
  88              		.loc 3 1441 0
  89 000e 4FF6FF05 		movw	r5, #63743
  90 0012 2940     		ands	r1, r1, r5
  91              	.LVL3:
  92              		.loc 3 1442 0
  93 0014 0A43     		orrs	r2, r2, r1
  94              	.LVL4:
  95              		.loc 3 1445 0
  96 0016 DA60     		str	r2, [r3, #12]
  97              	.LVL5:
  98              	.LBE161:
  99              	.LBE162:
 100              		.loc 2 383 0
 101 0018 C268     		ldr	r2, [r0, #12]
 102              		.loc 2 384 0
 103 001a 1D49     		ldr	r1, .L6+12
 104              	.LBE171:
 105              	.LBE174:
 106              		.loc 1 119 0
 107 001c 1D4D     		ldr	r5, .L6+16
 108              	.LBB175:
 109              	.LBB172:
 110              		.loc 2 383 0
 111 001e 42F08072 		orr	r2, r2, #16777216
 112 0022 C260     		str	r2, [r0, #12]
 113              		.loc 2 384 0
 114 0024 0A68     		ldr	r2, [r1]
ARM GAS  /tmp/ccUycMxT.s 			page 3


 115 0026 42F00102 		orr	r2, r2, #1
 116 002a 0A60     		str	r2, [r1]
 117              	.LVL6:
 118              	.LBB163:
 119              	.LBB164:
 120              		.loc 3 1553 0
 121 002c 1020     		movs	r0, #16
 122              	.LBE164:
 123              	.LBE163:
 124              	.LBB166:
 125              	.LBB167:
 126 002e 2022     		movs	r2, #32
 127              	.LBE167:
 128              	.LBE166:
 129              	.LBE172:
 130              	.LBE175:
 131              		.loc 1 93 0
 132 0030 83B0     		sub	sp, sp, #12
 133              		.cfi_def_cfa_offset 24
 134              	.LBB176:
 135              	.LBB173:
 136              	.LBB169:
 137              	.LBB165:
 138              		.loc 3 1553 0
 139 0032 D877     		strb	r0, [r3, #31]
 140              	.LVL7:
 141              	.LBE165:
 142              	.LBE169:
 143              	.LBB170:
 144              	.LBB168:
 145 0034 83F82220 		strb	r2, [r3, #34]
 146              	.LVL8:
 147              	.LBE168:
 148              	.LBE170:
 149              	.LBE173:
 150              	.LBE176:
 151              		.loc 1 99 0
 152 0038 FFF7FEFF 		bl	_scheduler_init
 153              	.LVL9:
 154              		.loc 1 100 0
 155 003c FFF7FEFF 		bl	_vt_init
 156              	.LVL10:
 157              		.loc 1 102 0
 158 0040 FFF7FEFF 		bl	_tm_init
 159              	.LVL11:
 160              		.loc 1 105 0
 161 0044 FFF7FEFF 		bl	_core_init
 162              	.LVL12:
 163              		.loc 1 108 0
 164 0048 FFF7FEFF 		bl	_heap_init
 165              	.LVL13:
 166              		.loc 1 119 0
 167 004c 2846     		mov	r0, r5
 168 004e 4021     		movs	r1, #64
 169 0050 FFF7FEFF 		bl	_thread_init
 170              	.LVL14:
 171 0054 A5F13003 		sub	r3, r5, #48
ARM GAS  /tmp/ccUycMxT.s 			page 4


 172              		.loc 1 125 0
 173 0058 0122     		movs	r2, #1
 174              		.loc 1 119 0
 175 005a 9861     		str	r0, [r3, #24]
 176              		.loc 1 125 0
 177 005c 0277     		strb	r2, [r0, #28]
 178              	.LVL15:
 179              	.LBB177:
 180              	.LBB178:
 181              	.LBB179:
 182              	.LBB180:
 183              		.file 4 "ChibiOS_3.0.2/os/ext/CMSIS/include/core_cmFunc.h"
 184              		.loc 4 546 0
 185              		.syntax unified
 186              	@ 546 "ChibiOS_3.0.2/os/ext/CMSIS/include/core_cmFunc.h" 1
 187 005e 84F31188 		MSR basepri, r4
 188              	@ 0 "" 2
 189              	.LVL16:
 190              		.thumb
 191              		.syntax unified
 192              	.LBE180:
 193              	.LBE179:
 194              	.LBB181:
 195              	.LBB182:
 196              		.loc 4 331 0
 197              		.syntax unified
 198              	@ 331 "ChibiOS_3.0.2/os/ext/CMSIS/include/core_cmFunc.h" 1
 199 0062 62B6     		cpsie i
 200              	@ 0 "" 2
 201              	.LVL17:
 202              		.thumb
 203              		.syntax unified
 204              	.LBE182:
 205              	.LBE181:
 206              	.LBE178:
 207              	.LBE177:
 208              	.LBB183:
 209              	.LBB184:
 210              		.file 5 "ChibiOS_3.0.2/os/rt/include/chregistry.h"
 211              		.loc 5 135 0
 212 0064 9B69     		ldr	r3, [r3, #24]
 213 0066 0C49     		ldr	r1, .L6+20
 214 0068 9961     		str	r1, [r3, #24]
 215              	.LVL18:
 216              	.LBE184:
 217              	.LBE183:
 218              	.LBB185:
 219              		.loc 1 144 0
 220 006a 05F14800 		add	r0, r5, #72
 221 006e 0094     		str	r4, [sp]
 222 0070 0A4B     		ldr	r3, .L6+24
 223 0072 4FF4B071 		mov	r1, #352
 224 0076 FFF7FEFF 		bl	chThdCreateStatic
 225              	.LVL19:
 226              	.LBB186:
 227              	.LBB187:
 228              		.loc 5 175 0
ARM GAS  /tmp/ccUycMxT.s 			page 5


 229 007a 094B     		ldr	r3, .L6+28
 230 007c 8361     		str	r3, [r0, #24]
 231              	.LVL20:
 232              	.LBE187:
 233              	.LBE186:
 234              	.LBE185:
 235              		.loc 1 152 0
 236 007e 03B0     		add	sp, sp, #12
 237              		.cfi_def_cfa_offset 12
 238              		@ sp needed
 239 0080 30BD     		pop	{r4, r5, pc}
 240              	.L7:
 241 0082 00BF     		.align	2
 242              	.L6:
 243 0084 00ED00E0 		.word	-536810240
 244 0088 0003FA05 		.word	100270848
 245 008c F0ED00E0 		.word	-536810000
 246 0090 001000E0 		.word	-536866816
 247 0094 30000000 		.word	ch+48
 248 0098 00000000 		.word	ch_debug
 249 009c 00000000 		.word	_idle_thread
 250 00a0 00000000 		.word	.LC0
 251              		.cfi_endproc
 252              	.LFE230:
 253              		.size	chSysInit, .-chSysInit
 254              		.section	.text.chSysHalt,"ax",%progbits
 255              		.align	1
 256              		.p2align 4,,15
 257              		.global	chSysHalt
 258              		.syntax unified
 259              		.thumb
 260              		.thumb_func
 261              		.fpu fpv4-sp-d16
 262              		.type	chSysHalt, %function
 263              	chSysHalt:
 264              	.LFB231:
 265              		.loc 1 166 0
 266              		.cfi_startproc
 267              		@ Volatile: function does not return.
 268              		@ args = 0, pretend = 0, frame = 0
 269              		@ frame_needed = 0, uses_anonymous_args = 0
 270              		@ link register save eliminated.
 271              	.LVL21:
 272              	.LBB188:
 273              	.LBB189:
 274              	.LBB190:
 275              		.loc 4 342 0
 276              		.syntax unified
 277              	@ 342 "ChibiOS_3.0.2/os/ext/CMSIS/include/core_cmFunc.h" 1
 278 0000 72B6     		cpsid i
 279              	@ 0 "" 2
 280              		.thumb
 281              		.syntax unified
 282              	.LBE190:
 283              	.LBE189:
 284              	.LBE188:
 285              		.loc 1 175 0
ARM GAS  /tmp/ccUycMxT.s 			page 6


 286 0002 014B     		ldr	r3, .L10
 287 0004 D862     		str	r0, [r3, #44]
 288              	.L9:
 289 0006 FEE7     		b	.L9
 290              	.L11:
 291              		.align	2
 292              	.L10:
 293 0008 00000000 		.word	ch
 294              		.cfi_endproc
 295              	.LFE231:
 296              		.size	chSysHalt, .-chSysHalt
 297              		.section	.text.chSysIntegrityCheckI,"ax",%progbits
 298              		.align	1
 299              		.p2align 4,,15
 300              		.global	chSysIntegrityCheckI
 301              		.syntax unified
 302              		.thumb
 303              		.thumb_func
 304              		.fpu fpv4-sp-d16
 305              		.type	chSysIntegrityCheckI, %function
 306              	chSysIntegrityCheckI:
 307              	.LFB232:
 308              		.loc 1 206 0
 309              		.cfi_startproc
 310              		@ args = 0, pretend = 0, frame = 0
 311              		@ frame_needed = 0, uses_anonymous_args = 0
 312              		@ link register save eliminated.
 313              	.LVL22:
 314              		.loc 1 212 0
 315 0000 C207     		lsls	r2, r0, #31
 316              		.loc 1 206 0
 317 0002 10B4     		push	{r4}
 318              		.cfi_def_cfa_offset 4
 319              		.cfi_offset 4, -4
 320              		.loc 1 212 0
 321 0004 12D5     		bpl	.L13
 322              	.LVL23:
 323              	.LBB191:
 324              		.loc 1 217 0
 325 0006 2A4B     		ldr	r3, .L56
 326 0008 D3E90014 		ldrd	r1, r4, [r3]
 327              		.loc 1 218 0
 328 000c 9942     		cmp	r1, r3
 329 000e 43D0     		beq	.L14
 330              		.loc 1 216 0
 331 0010 0022     		movs	r2, #0
 332              	.LVL24:
 333              	.L15:
 334              		.loc 1 220 0
 335 0012 0968     		ldr	r1, [r1]
 336              	.LVL25:
 337              		.loc 1 218 0
 338 0014 9942     		cmp	r1, r3
 339              		.loc 1 219 0
 340 0016 02F10102 		add	r2, r2, #1
 341              	.LVL26:
 342              		.loc 1 218 0
ARM GAS  /tmp/ccUycMxT.s 			page 7


 343 001a FAD1     		bne	.L15
 344              	.LVL27:
 345              		.loc 1 225 0
 346 001c 8C42     		cmp	r4, r1
 347 001e 37D0     		beq	.L39
 348              	.LVL28:
 349              	.L19:
 350              		.loc 1 227 0
 351 0020 6468     		ldr	r4, [r4, #4]
 352              	.LVL29:
 353              		.loc 1 225 0
 354 0022 9C42     		cmp	r4, r3
 355              		.loc 1 226 0
 356 0024 02F1FF32 		add	r2, r2, #-1
 357              	.LVL30:
 358              		.loc 1 225 0
 359 0028 FAD1     		bne	.L19
 360              		.loc 1 231 0
 361 002a 8ABB     		cbnz	r2, .L39
 362              	.LVL31:
 363              	.L13:
 364              	.LBE191:
 365              		.loc 1 237 0
 366 002c 8307     		lsls	r3, r0, #30
 367 002e 13D5     		bpl	.L20
 368              	.LVL32:
 369              	.LBB192:
 370              		.loc 1 242 0
 371 0030 1F4C     		ldr	r4, .L56
 372 0032 D4E90721 		ldrd	r2, r1, [r4, #28]
 373              		.loc 1 243 0
 374 0036 1C34     		adds	r4, r4, #28
 375 0038 A242     		cmp	r2, r4
 376 003a 31D0     		beq	.L21
 377              		.loc 1 241 0
 378 003c 0023     		movs	r3, #0
 379              	.LVL33:
 380              	.L22:
 381              		.loc 1 245 0
 382 003e 1268     		ldr	r2, [r2]
 383              	.LVL34:
 384              		.loc 1 243 0
 385 0040 A242     		cmp	r2, r4
 386              		.loc 1 244 0
 387 0042 03F10103 		add	r3, r3, #1
 388              	.LVL35:
 389              		.loc 1 243 0
 390 0046 FAD1     		bne	.L22
 391              	.LVL36:
 392              		.loc 1 250 0
 393 0048 9142     		cmp	r1, r2
 394 004a 21D0     		beq	.L39
 395              	.LVL37:
 396              	.L25:
 397              		.loc 1 252 0
 398 004c 4968     		ldr	r1, [r1, #4]
 399              	.LVL38:
ARM GAS  /tmp/ccUycMxT.s 			page 8


 400              		.loc 1 250 0
 401 004e A142     		cmp	r1, r4
 402              		.loc 1 251 0
 403 0050 03F1FF33 		add	r3, r3, #-1
 404              	.LVL39:
 405              		.loc 1 250 0
 406 0054 FAD1     		bne	.L25
 407              		.loc 1 256 0
 408 0056 DBB9     		cbnz	r3, .L39
 409              	.LVL40:
 410              	.L20:
 411              	.LBE192:
 412              		.loc 1 262 0
 413 0058 10F00400 		ands	r0, r0, #4
 414              	.LVL41:
 415 005c 15D0     		beq	.L18
 416              	.LVL42:
 417              	.LBB193:
 418              		.loc 1 267 0
 419 005e 144B     		ldr	r3, .L56
 420 0060 D3E90421 		ldrd	r2, r1, [r3, #16]
 421              		.loc 1 268 0
 422 0064 9A42     		cmp	r2, r3
 423              		.loc 1 266 0
 424 0066 4FF00000 		mov	r0, #0
 425              		.loc 1 268 0
 426 006a 1DD0     		beq	.L26
 427              	.LVL43:
 428              	.L27:
 429              		.loc 1 270 0
 430 006c 1269     		ldr	r2, [r2, #16]
 431              	.LVL44:
 432              		.loc 1 268 0
 433 006e 9A42     		cmp	r2, r3
 434              		.loc 1 269 0
 435 0070 00F10100 		add	r0, r0, #1
 436              	.LVL45:
 437              		.loc 1 268 0
 438 0074 FAD1     		bne	.L27
 439              	.LVL46:
 440              		.loc 1 275 0
 441 0076 9142     		cmp	r1, r2
 442 0078 0AD0     		beq	.L39
 443              	.LVL47:
 444              	.L30:
 445              		.loc 1 277 0
 446 007a 4969     		ldr	r1, [r1, #20]
 447              	.LVL48:
 448              		.loc 1 275 0
 449 007c 9942     		cmp	r1, r3
 450              		.loc 1 276 0
 451 007e 00F1FF30 		add	r0, r0, #-1
 452              	.LVL49:
 453              		.loc 1 275 0
 454 0082 FAD1     		bne	.L30
 455              		.loc 1 281 0
 456 0084 0030     		adds	r0, r0, #0
ARM GAS  /tmp/ccUycMxT.s 			page 9


 457 0086 18BF     		it	ne
 458 0088 0120     		movne	r0, #1
 459              	.LVL50:
 460              	.L18:
 461              	.LBE193:
 462              		.loc 1 294 0
 463 008a 5DF8044B 		ldr	r4, [sp], #4
 464              		.cfi_remember_state
 465              		.cfi_restore 4
 466              		.cfi_def_cfa_offset 0
 467 008e 7047     		bx	lr
 468              	.L39:
 469              		.cfi_restore_state
 470              	.LBB194:
 471              		.loc 1 232 0
 472 0090 0120     		movs	r0, #1
 473              	.LBE194:
 474              		.loc 1 294 0
 475 0092 5DF8044B 		ldr	r4, [sp], #4
 476              		.cfi_remember_state
 477              		.cfi_restore 4
 478              		.cfi_def_cfa_offset 0
 479 0096 7047     		bx	lr
 480              	.LVL51:
 481              	.L14:
 482              		.cfi_restore_state
 483              	.LBB195:
 484              		.loc 1 225 0
 485 0098 9C42     		cmp	r4, r3
 486 009a C7D0     		beq	.L13
 487              		.loc 1 216 0
 488 009c 0022     		movs	r2, #0
 489 009e BFE7     		b	.L19
 490              	.LVL52:
 491              	.L21:
 492              	.LBE195:
 493              	.LBB196:
 494              		.loc 1 250 0
 495 00a0 A142     		cmp	r1, r4
 496 00a2 D9D0     		beq	.L20
 497              		.loc 1 241 0
 498 00a4 0023     		movs	r3, #0
 499 00a6 D1E7     		b	.L25
 500              	.LVL53:
 501              	.L26:
 502              	.LBE196:
 503              	.LBB197:
 504              		.loc 1 275 0
 505 00a8 9142     		cmp	r1, r2
 506 00aa E6D1     		bne	.L30
 507 00ac EDE7     		b	.L18
 508              	.L57:
 509 00ae 00BF     		.align	2
 510              	.L56:
 511 00b0 00000000 		.word	ch
 512              	.LBE197:
 513              		.cfi_endproc
ARM GAS  /tmp/ccUycMxT.s 			page 10


 514              	.LFE232:
 515              		.size	chSysIntegrityCheckI, .-chSysIntegrityCheckI
 516              		.section	.text.chSysTimerHandlerI,"ax",%progbits
 517              		.align	1
 518              		.p2align 4,,15
 519              		.global	chSysTimerHandlerI
 520              		.syntax unified
 521              		.thumb
 522              		.thumb_func
 523              		.fpu fpv4-sp-d16
 524              		.type	chSysTimerHandlerI, %function
 525              	chSysTimerHandlerI:
 526              	.LFB233:
 527              		.loc 1 307 0
 528              		.cfi_startproc
 529              		@ args = 0, pretend = 0, frame = 0
 530              		@ frame_needed = 0, uses_anonymous_args = 0
 531 0000 2DE9F047 		push	{r4, r5, r6, r7, r8, r9, r10, lr}
 532              		.cfi_def_cfa_offset 32
 533              		.cfi_offset 4, -32
 534              		.cfi_offset 5, -28
 535              		.cfi_offset 6, -24
 536              		.cfi_offset 7, -20
 537              		.cfi_offset 8, -16
 538              		.cfi_offset 9, -12
 539              		.cfi_offset 10, -8
 540              		.cfi_offset 14, -4
 541              	.LBB223:
 542              	.LBB224:
 543              		.file 6 "ChibiOS_3.0.2/os/rt/include/chvt.h"
 544              		.loc 6 494 0
 545 0004 1C4D     		ldr	r5, .L67
 546              	.LBB225:
 547              	.LBB226:
 548              	.LBB227:
 549              	.LBB228:
 550              		.file 7 "ChibiOS_3.0.2/os/hal/ports/STM32/LLD/TIMv1/st_lld.h"
 551              		.loc 7 129 0
 552 0006 4FF08047 		mov	r7, #1073741824
 553              	.LBE228:
 554              	.LBE227:
 555              	.LBE226:
 556              	.LBE225:
 557              		.loc 6 494 0
 558 000a EC69     		ldr	r4, [r5, #28]
 559              	.LVL54:
 560              		.loc 6 501 0
 561 000c AB6A     		ldr	r3, [r5, #40]
 562              	.LBB232:
 563              	.LBB231:
 564              	.LBB230:
 565              	.LBB229:
 566              		.loc 7 129 0
 567 000e 786A     		ldr	r0, [r7, #36]
 568              	.LVL55:
 569              	.LBE229:
 570              	.LBE230:
ARM GAS  /tmp/ccUycMxT.s 			page 11


 571              	.LBE231:
 572              	.LBE232:
 573              		.loc 6 501 0
 574 0010 A168     		ldr	r1, [r4, #8]
 575 0012 C21A     		subs	r2, r0, r3
 576 0014 8A42     		cmp	r2, r1
 577 0016 05F11C09 		add	r9, r5, #28
 578 001a 1ED3     		bcc	.L59
 579              	.LBB233:
 580              		.loc 6 510 0
 581 001c 0026     		movs	r6, #0
 582              	.LBB234:
 583              	.LBB235:
 584              	.LBB236:
 585              	.LBB237:
 586              	.LBB238:
 587              		.loc 4 546 0
 588 001e 4FF02008 		mov	r8, #32
 589 0022 0CE0     		b	.L61
 590              	.LVL56:
 591              	.L60:
 592              	.LBE238:
 593              	.LBE237:
 594              	.LBE236:
 595              	.LBE235:
 596              	.LBE234:
 597              	.LBB243:
 598              	.LBB244:
 599              	.LBB245:
 600              	.LBB246:
 601              	.LBB247:
 602              		.syntax unified
 603              	@ 546 "ChibiOS_3.0.2/os/ext/CMSIS/include/core_cmFunc.h" 1
 604 0024 86F31188 		MSR basepri, r6
 605              	@ 0 "" 2
 606              	.LVL57:
 607              		.thumb
 608              		.syntax unified
 609              	.LBE247:
 610              	.LBE246:
 611              	.LBE245:
 612              	.LBE244:
 613              	.LBE243:
 614              		.loc 6 523 0
 615 0028 2069     		ldr	r0, [r4, #16]
 616 002a D047     		blx	r10
 617              	.LVL58:
 618              	.LBB248:
 619              	.LBB242:
 620              	.LBB241:
 621              	.LBB240:
 622              	.LBB239:
 623              		.loc 4 546 0
 624              		.syntax unified
 625              	@ 546 "ChibiOS_3.0.2/os/ext/CMSIS/include/core_cmFunc.h" 1
 626 002c 88F31188 		MSR basepri, r8
 627              	@ 0 "" 2
ARM GAS  /tmp/ccUycMxT.s 			page 12


 628              	.LVL59:
 629              		.thumb
 630              		.syntax unified
 631              	.LBE239:
 632              	.LBE240:
 633              	.LBE241:
 634              	.LBE242:
 635              	.LBE248:
 636              		.loc 6 531 0
 637 0030 EC69     		ldr	r4, [r5, #28]
 638              	.LVL60:
 639              	.LBB249:
 640              	.LBB250:
 641              	.LBB251:
 642              	.LBB252:
 643              		.loc 7 129 0
 644 0032 786A     		ldr	r0, [r7, #36]
 645              	.LBE252:
 646              	.LBE251:
 647              	.LBE250:
 648              	.LBE249:
 649              	.LBE233:
 650              		.loc 6 501 0
 651 0034 AB6A     		ldr	r3, [r5, #40]
 652 0036 A168     		ldr	r1, [r4, #8]
 653 0038 C21A     		subs	r2, r0, r3
 654 003a 9142     		cmp	r1, r2
 655 003c 0DD8     		bhi	.L59
 656              	.LVL61:
 657              	.L61:
 658              	.LBB255:
 659              		.loc 6 507 0
 660 003e 2268     		ldr	r2, [r4]
 661              		.loc 6 509 0
 662 0040 D4F80CA0 		ldr	r10, [r4, #12]
 663              	.LVL62:
 664              		.loc 6 505 0
 665 0044 0B44     		add	r3, r3, r1
 666              		.loc 6 513 0
 667 0046 4A45     		cmp	r2, r9
 668              		.loc 6 505 0
 669 0048 AB62     		str	r3, [r5, #40]
 670              		.loc 6 507 0
 671 004a C2F80490 		str	r9, [r2, #4]
 672              		.loc 6 508 0
 673 004e EA61     		str	r2, [r5, #28]
 674              		.loc 6 510 0
 675 0050 E660     		str	r6, [r4, #12]
 676              		.loc 6 513 0
 677 0052 E7D1     		bne	.L60
 678              	.LBB253:
 679              	.LBB254:
 680              		.file 8 "ChibiOS_3.0.2/os/rt/ports/ARMCMx/chcore_timer.h"
 681              		.loc 8 83 0
 682 0054 FFF7FEFF 		bl	stStopAlarm
 683              	.LVL63:
 684 0058 E4E7     		b	.L60
ARM GAS  /tmp/ccUycMxT.s 			page 13


 685              	.LVL64:
 686              	.L59:
 687              	.LBE254:
 688              	.LBE253:
 689              	.LBE255:
 690              		.loc 6 536 0
 691 005a 4C45     		cmp	r4, r9
 692 005c 09D0     		beq	.L58
 693              		.loc 6 541 0
 694 005e 0B44     		add	r3, r3, r1
 695 0060 1B1A     		subs	r3, r3, r0
 696              	.LVL65:
 697              	.LBB256:
 698              	.LBB257:
 699              		.loc 8 95 0
 700 0062 022B     		cmp	r3, #2
 701 0064 2CBF     		ite	cs
 702 0066 C018     		addcs	r0, r0, r3
 703 0068 0230     		addcc	r0, r0, #2
 704              	.LBE257:
 705              	.LBE256:
 706              	.LBE224:
 707              	.LBE223:
 708              		.loc 1 325 0
 709 006a BDE8F047 		pop	{r4, r5, r6, r7, r8, r9, r10, lr}
 710              		.cfi_remember_state
 711              		.cfi_restore 14
 712              		.cfi_restore 10
 713              		.cfi_restore 9
 714              		.cfi_restore 8
 715              		.cfi_restore 7
 716              		.cfi_restore 6
 717              		.cfi_restore 5
 718              		.cfi_restore 4
 719              		.cfi_def_cfa_offset 0
 720              	.LVL66:
 721              	.LBB261:
 722              	.LBB260:
 723              	.LBB259:
 724              	.LBB258:
 725              		.loc 8 95 0
 726 006e FFF7FEBF 		b	stSetAlarm
 727              	.LVL67:
 728              	.L58:
 729              		.cfi_restore_state
 730              	.LBE258:
 731              	.LBE259:
 732              	.LBE260:
 733              	.LBE261:
 734              		.loc 1 325 0
 735 0072 BDE8F087 		pop	{r4, r5, r6, r7, r8, r9, r10, pc}
 736              	.LVL68:
 737              	.L68:
 738 0076 00BF     		.align	2
 739              	.L67:
 740 0078 00000000 		.word	ch
 741              		.cfi_endproc
ARM GAS  /tmp/ccUycMxT.s 			page 14


 742              	.LFE233:
 743              		.size	chSysTimerHandlerI, .-chSysTimerHandlerI
 744              		.section	.text.chSysGetStatusAndLockX,"ax",%progbits
 745              		.align	1
 746              		.p2align 4,,15
 747              		.global	chSysGetStatusAndLockX
 748              		.syntax unified
 749              		.thumb
 750              		.thumb_func
 751              		.fpu fpv4-sp-d16
 752              		.type	chSysGetStatusAndLockX, %function
 753              	chSysGetStatusAndLockX:
 754              	.LFB234:
 755              		.loc 1 340 0
 756              		.cfi_startproc
 757              		@ args = 0, pretend = 0, frame = 0
 758              		@ frame_needed = 0, uses_anonymous_args = 0
 759              		@ link register save eliminated.
 760              	.LBB262:
 761              	.LBB263:
 762              	.LBB264:
 763              	.LBB265:
 764              		.loc 4 533 0
 765              		.syntax unified
 766              	@ 533 "ChibiOS_3.0.2/os/ext/CMSIS/include/core_cmFunc.h" 1
 767 0000 EFF31280 		MRS r0, basepri_max
 768              	@ 0 "" 2
 769              		.thumb
 770              		.syntax unified
 771              	.LBE265:
 772              	.LBE264:
 773              	.LBE263:
 774              	.LBE262:
 775              		.loc 1 343 0
 776 0004 20B9     		cbnz	r0, .L69
 777              	.LBB266:
 778              	.LBB267:
 779              	.LBB268:
 780              	.LBB269:
 781              		.loc 4 383 0
 782              		.syntax unified
 783              	@ 383 "ChibiOS_3.0.2/os/ext/CMSIS/include/core_cmFunc.h" 1
 784 0006 EFF30583 		MRS r3, ipsr
 785              	@ 0 "" 2
 786              	.LVL69:
 787              		.thumb
 788              		.syntax unified
 789              	.LBE269:
 790              	.LBE268:
 791              	.LBE267:
 792              	.LBE266:
 793              	.LBB270:
 794              	.LBB271:
 795              	.LBB272:
 796              	.LBB273:
 797              		.loc 4 546 0
 798 000a 2023     		movs	r3, #32
ARM GAS  /tmp/ccUycMxT.s 			page 15


 799              		.syntax unified
 800              	@ 546 "ChibiOS_3.0.2/os/ext/CMSIS/include/core_cmFunc.h" 1
 801 000c 83F31188 		MSR basepri, r3
 802              	@ 0 "" 2
 803              	.LVL70:
 804              		.thumb
 805              		.syntax unified
 806              	.L69:
 807              	.LBE273:
 808              	.LBE272:
 809              	.LBE271:
 810              	.LBE270:
 811              		.loc 1 352 0
 812 0010 7047     		bx	lr
 813              		.cfi_endproc
 814              	.LFE234:
 815              		.size	chSysGetStatusAndLockX, .-chSysGetStatusAndLockX
 816 0012 00BF     		.section	.text.chSysRestoreStatusX,"ax",%progbits
 817              		.align	1
 818              		.p2align 4,,15
 819              		.global	chSysRestoreStatusX
 820              		.syntax unified
 821              		.thumb
 822              		.thumb_func
 823              		.fpu fpv4-sp-d16
 824              		.type	chSysRestoreStatusX, %function
 825              	chSysRestoreStatusX:
 826              	.LFB235:
 827              		.loc 1 363 0
 828              		.cfi_startproc
 829              		@ args = 0, pretend = 0, frame = 0
 830              		@ frame_needed = 0, uses_anonymous_args = 0
 831              	.LVL71:
 832              		.loc 1 365 0
 833 0000 40B9     		cbnz	r0, .L76
 834              		.loc 1 363 0
 835 0002 10B5     		push	{r4, lr}
 836              		.cfi_def_cfa_offset 8
 837              		.cfi_offset 4, -8
 838              		.cfi_offset 14, -4
 839              	.LBB274:
 840              	.LBB275:
 841              	.LBB276:
 842              	.LBB277:
 843              		.loc 4 383 0
 844              		.syntax unified
 845              	@ 383 "ChibiOS_3.0.2/os/ext/CMSIS/include/core_cmFunc.h" 1
 846 0004 EFF30584 		MRS r4, ipsr
 847              	@ 0 "" 2
 848              		.thumb
 849              		.syntax unified
 850              	.LBE277:
 851              	.LBE276:
 852              		.loc 2 436 0
 853 0008 C4F30804 		ubfx	r4, r4, #0, #9
 854              	.LBE275:
 855              	.LBE274:
ARM GAS  /tmp/ccUycMxT.s 			page 16


 856              		.loc 1 366 0
 857 000c 1CB1     		cbz	r4, .L74
 858              	.LVL72:
 859              	.LBB278:
 860              	.LBB279:
 861              	.LBB280:
 862              	.LBB281:
 863              	.LBB282:
 864              		.loc 4 546 0
 865              		.syntax unified
 866              	@ 546 "ChibiOS_3.0.2/os/ext/CMSIS/include/core_cmFunc.h" 1
 867 000e 80F31188 		MSR basepri, r0
 868              	@ 0 "" 2
 869              	.LVL73:
 870              		.thumb
 871              		.syntax unified
 872              	.LBE282:
 873              	.LBE281:
 874              	.LBE280:
 875              	.LBE279:
 876              	.LBE278:
 877              		.loc 1 374 0
 878 0012 10BD     		pop	{r4, pc}
 879              	.L76:
 880              		.cfi_def_cfa_offset 0
 881              		.cfi_restore 4
 882              		.cfi_restore 14
 883 0014 7047     		bx	lr
 884              	.L74:
 885              		.cfi_def_cfa_offset 8
 886              		.cfi_offset 4, -8
 887              		.cfi_offset 14, -4
 888              		.loc 1 370 0
 889 0016 FFF7FEFF 		bl	chSchRescheduleS
 890              	.LVL74:
 891              	.LBB283:
 892              	.LBB284:
 893              	.LBB285:
 894              	.LBB286:
 895              	.LBB287:
 896              		.loc 4 546 0
 897              		.syntax unified
 898              	@ 546 "ChibiOS_3.0.2/os/ext/CMSIS/include/core_cmFunc.h" 1
 899 001a 84F31188 		MSR basepri, r4
 900              	@ 0 "" 2
 901              	.LVL75:
 902              		.thumb
 903              		.syntax unified
 904              	.LBE287:
 905              	.LBE286:
 906              	.LBE285:
 907              	.LBE284:
 908              	.LBE283:
 909              		.loc 1 374 0
 910 001e 10BD     		pop	{r4, pc}
 911              		.cfi_endproc
 912              	.LFE235:
ARM GAS  /tmp/ccUycMxT.s 			page 17


 913              		.size	chSysRestoreStatusX, .-chSysRestoreStatusX
 914              		.section	.text.chSysIsCounterWithinX,"ax",%progbits
 915              		.align	1
 916              		.p2align 4,,15
 917              		.global	chSysIsCounterWithinX
 918              		.syntax unified
 919              		.thumb
 920              		.thumb_func
 921              		.fpu fpv4-sp-d16
 922              		.type	chSysIsCounterWithinX, %function
 923              	chSysIsCounterWithinX:
 924              	.LFB236:
 925              		.loc 1 395 0
 926              		.cfi_startproc
 927              		@ args = 0, pretend = 0, frame = 0
 928              		@ frame_needed = 0, uses_anonymous_args = 0
 929              		@ link register save eliminated.
 930              	.LVL76:
 931              		.loc 1 397 0
 932 0000 401A     		subs	r0, r0, r1
 933              	.LVL77:
 934 0002 521A     		subs	r2, r2, r1
 935              	.LVL78:
 936              		.loc 1 398 0
 937 0004 9042     		cmp	r0, r2
 938 0006 2CBF     		ite	cs
 939 0008 0020     		movcs	r0, #0
 940 000a 0120     		movcc	r0, #1
 941 000c 7047     		bx	lr
 942              		.cfi_endproc
 943              	.LFE236:
 944              		.size	chSysIsCounterWithinX, .-chSysIsCounterWithinX
 945 000e 00BF     		.section	.text.chSysPolledDelayX,"ax",%progbits
 946              		.align	1
 947              		.p2align 4,,15
 948              		.global	chSysPolledDelayX
 949              		.syntax unified
 950              		.thumb
 951              		.thumb_func
 952              		.fpu fpv4-sp-d16
 953              		.type	chSysPolledDelayX, %function
 954              	chSysPolledDelayX:
 955              	.LFB237:
 956              		.loc 1 411 0
 957              		.cfi_startproc
 958              		@ args = 0, pretend = 0, frame = 0
 959              		@ frame_needed = 0, uses_anonymous_args = 0
 960              		@ link register save eliminated.
 961              	.LVL79:
 962              	.LBB288:
 963              	.LBB289:
 964              		.loc 2 548 0
 965 0000 034A     		ldr	r2, .L83
 966 0002 5168     		ldr	r1, [r2, #4]
 967              	.LVL80:
 968              	.L81:
 969              	.LBE289:
ARM GAS  /tmp/ccUycMxT.s 			page 18


 970              	.LBE288:
 971              	.LBB290:
 972              	.LBB291:
 973              		.loc 2 548 0 is_stmt 0 discriminator 1
 974 0004 5368     		ldr	r3, [r2, #4]
 975              	.LBE291:
 976              	.LBE290:
 977              	.LBB292:
 978              	.LBB293:
 979              		.loc 1 397 0 is_stmt 1 discriminator 1
 980 0006 5B1A     		subs	r3, r3, r1
 981              	.LBE293:
 982              	.LBE292:
 983              		.loc 1 415 0 discriminator 1
 984 0008 9842     		cmp	r0, r3
 985 000a FBD8     		bhi	.L81
 986              		.loc 1 417 0
 987 000c 7047     		bx	lr
 988              	.L84:
 989 000e 00BF     		.align	2
 990              	.L83:
 991 0010 001000E0 		.word	-536866816
 992              		.cfi_endproc
 993              	.LFE237:
 994              		.size	chSysPolledDelayX, .-chSysPolledDelayX
 995              		.section	.rodata.chSysInit.str1.4,"aMS",%progbits,1
 996              		.align	2
 997              	.LC0:
 998 0000 69646C65 		.ascii	"idle\000"
 998      00
 999              		.text
 1000              	.Letext0:
 1001              		.file 9 "/usr/arm-none-eabi/include/machine/_default_types.h"
 1002              		.file 10 "/usr/arm-none-eabi/include/sys/_stdint.h"
 1003              		.file 11 "ChibiOS_3.0.2/os/rt/ports/ARMCMx/compilers/GCC/chtypes.h"
 1004              		.file 12 "ChibiOS_3.0.2/os/rt/include/chsystypes.h"
 1005              		.file 13 "ChibiOS_3.0.2/os/rt/include/chschd.h"
 1006              		.file 14 "ChibiOS_3.0.2/os/ext/CMSIS/ST/stm32f407xx.h"
 1007              		.file 15 "ChibiOS_3.0.2/os/ext/CMSIS/ST/system_stm32f4xx.h"
 1008              		.file 16 "ChibiOS_3.0.2/os/rt/ports/ARMCMx/chcore.h"
 1009              		.file 17 "ChibiOS_3.0.2/os/hal/ports/STM32/LLD/TIMv1/stm32_tim.h"
 1010              		.file 18 "ChibiOS_3.0.2/os/rt/include/chtm.h"
 1011              		.file 19 "ChibiOS_3.0.2/os/rt/include/chsem.h"
 1012              		.file 20 "ChibiOS_3.0.2/os/rt/include/chmtx.h"
 1013              		.file 21 "ChibiOS_3.0.2/os/rt/include/chthreads.h"
 1014              		.file 22 "ChibiOS_3.0.2/os/rt/include/chsys.h"
 1015              		.file 23 "ChibiOS_3.0.2/os/hal/include/st.h"
 1016              		.file 24 "ChibiOS_3.0.2/os/rt/include/chmemcore.h"
 1017              		.file 25 "ChibiOS_3.0.2/os/rt/include/chheap.h"