ARM GAS  /tmp/ccMwx8Ze.s 			page 1


   1              		.cpu cortex-m4
   2              		.eabi_attribute 27, 1
   3              		.eabi_attribute 28, 1
   4              		.eabi_attribute 20, 1
   5              		.eabi_attribute 21, 1
   6              		.eabi_attribute 23, 3
   7              		.eabi_attribute 24, 1
   8              		.eabi_attribute 25, 1
   9              		.eabi_attribute 26, 1
  10              		.eabi_attribute 30, 2
  11              		.eabi_attribute 34, 1
  12              		.eabi_attribute 18, 4
  13              		.file	"chthreads.c"
  14              		.text
  15              	.Ltext0:
  16              		.cfi_sections	.debug_frame
  17              		.section	.text._thread_init,"ax",%progbits
  18              		.align	1
  19              		.p2align 4,,15
  20              		.global	_thread_init
  21              		.syntax unified
  22              		.thumb
  23              		.thumb_func
  24              		.fpu fpv4-sp-d16
  25              		.type	_thread_init, %function
  26              	_thread_init:
  27              	.LFB229:
  28              		.file 1 "ChibiOS_3.0.2/os/rt/src/chthreads.c"
  29              		.loc 1 91 0
  30              		.cfi_startproc
  31              		@ args = 0, pretend = 0, frame = 0
  32              		@ frame_needed = 0, uses_anonymous_args = 0
  33              		@ link register save eliminated.
  34              	.LVL0:
  35 0000 70B4     		push	{r4, r5, r6}
  36              		.cfi_def_cfa_offset 12
  37              		.cfi_offset 4, -12
  38              		.cfi_offset 5, -8
  39              		.cfi_offset 6, -4
  40              		.loc 1 114 0
  41 0002 0C4A     		ldr	r2, .L4
  42              		.loc 1 100 0
  43 0004 C163     		str	r1, [r0, #60]
  44              		.loc 1 114 0
  45 0006 5469     		ldr	r4, [r2, #20]
  46              		.loc 1 93 0
  47 0008 8160     		str	r1, [r0, #8]
  48              		.loc 1 95 0
  49 000a 0125     		movs	r5, #1
  50              		.loc 1 101 0
  51 000c 0021     		movs	r1, #0
  52              	.LVL1:
  53              		.loc 1 113 0
  54 000e 0226     		movs	r6, #2
  55              		.loc 1 95 0
  56 0010 8577     		strb	r5, [r0, #30]
  57              		.loc 1 104 0
ARM GAS  /tmp/ccMwx8Ze.s 			page 2


  58 0012 C0E90D11 		strd	r1, r1, [r0, #52]
  59              		.loc 1 117 0
  60 0016 00F12405 		add	r5, r0, #36
  61              		.loc 1 113 0
  62 001a 8161     		str	r1, [r0, #24]
  63              		.loc 1 120 0
  64 001c 00F12801 		add	r1, r0, #40
  65              		.loc 1 114 0
  66 0020 4461     		str	r4, [r0, #20]
  67 0022 0261     		str	r2, [r0, #16]
  68              		.loc 1 113 0
  69 0024 8683     		strh	r6, [r0, #28]	@ movhi
  70              		.loc 1 114 0
  71 0026 2061     		str	r0, [r4, #16]
  72              	.LBB200:
  73              	.LBB201:
  74              		.file 2 "ChibiOS_3.0.2/os/rt/include/chschd.h"
  75              		.loc 2 604 0
  76 0028 C0E90951 		strd	r5, r1, [r0, #36]
  77              	.LBE201:
  78              	.LBE200:
  79              		.loc 1 114 0
  80 002c 5061     		str	r0, [r2, #20]
  81              	.LVL2:
  82              	.LBB203:
  83              	.LBB202:
  84              		.loc 2 605 0
  85 002e C162     		str	r1, [r0, #44]
  86              	.LBE202:
  87              	.LBE203:
  88              		.loc 1 133 0
  89 0030 70BC     		pop	{r4, r5, r6}
  90              		.cfi_restore 6
  91              		.cfi_restore 5
  92              		.cfi_restore 4
  93              		.cfi_def_cfa_offset 0
  94              	.LVL3:
  95 0032 7047     		bx	lr
  96              	.L5:
  97              		.align	2
  98              	.L4:
  99 0034 00000000 		.word	ch
 100              		.cfi_endproc
 101              	.LFE229:
 102              		.size	_thread_init, .-_thread_init
 103              		.section	.text.chThdCreateI,"ax",%progbits
 104              		.align	1
 105              		.p2align 4,,15
 106              		.global	chThdCreateI
 107              		.syntax unified
 108              		.thumb
 109              		.thumb_func
 110              		.fpu fpv4-sp-d16
 111              		.type	chThdCreateI, %function
 112              	chThdCreateI:
 113              	.LFB230:
 114              		.loc 1 178 0
ARM GAS  /tmp/ccMwx8Ze.s 			page 3


 115              		.cfi_startproc
 116              		@ args = 4, pretend = 0, frame = 0
 117              		@ frame_needed = 0, uses_anonymous_args = 0
 118              		@ link register save eliminated.
 119              	.LVL4:
 120 0000 F0B4     		push	{r4, r5, r6, r7}
 121              		.cfi_def_cfa_offset 16
 122              		.cfi_offset 4, -16
 123              		.cfi_offset 5, -12
 124              		.cfi_offset 6, -8
 125              		.cfi_offset 7, -4
 126              	.LBB204:
 127              	.LBB205:
 128              		.loc 1 114 0
 129 0002 104E     		ldr	r6, .L8
 130              	.LBE205:
 131              	.LBE204:
 132              		.loc 1 178 0
 133 0004 049D     		ldr	r5, [sp, #16]
 134              	.LBB212:
 135              	.LBB210:
 136              		.loc 1 114 0
 137 0006 7769     		ldr	r7, [r6, #20]
 138              	.LBE210:
 139              	.LBE212:
 140              		.loc 1 187 0
 141 0008 6439     		subs	r1, r1, #100
 142              	.LVL5:
 143 000a 0144     		add	r1, r1, r0
 144              	.LVL6:
 145 000c C160     		str	r1, [r0, #12]
 146 000e C1E91035 		strd	r3, r5, [r1, #64]
 147 0012 0D4B     		ldr	r3, .L8+4
 148              	.LVL7:
 149 0014 0B66     		str	r3, [r1, #96]
 150              	.LVL8:
 151              	.LBB213:
 152              	.LBB211:
 153              		.loc 1 113 0
 154 0016 0223     		movs	r3, #2
 155              		.loc 1 93 0
 156 0018 8260     		str	r2, [r0, #8]
 157              		.loc 1 95 0
 158 001a 0125     		movs	r5, #1
 159              		.loc 1 100 0
 160 001c C263     		str	r2, [r0, #60]
 161              		.loc 1 113 0
 162 001e 8383     		strh	r3, [r0, #28]	@ movhi
 163              	.LVL9:
 164              		.loc 1 117 0
 165 0020 00F12401 		add	r1, r0, #36
 166              		.loc 1 101 0
 167 0024 0023     		movs	r3, #0
 168              		.loc 1 120 0
 169 0026 00F12802 		add	r2, r0, #40
 170              	.LVL10:
 171              		.loc 1 114 0
ARM GAS  /tmp/ccMwx8Ze.s 			page 4


 172 002a C0E90467 		strd	r6, r7, [r0, #16]
 173              		.loc 1 95 0
 174 002e 8577     		strb	r5, [r0, #30]
 175              		.loc 1 104 0
 176 0030 C0E90D33 		strd	r3, r3, [r0, #52]
 177              		.loc 1 113 0
 178 0034 8361     		str	r3, [r0, #24]
 179              		.loc 1 114 0
 180 0036 3861     		str	r0, [r7, #16]
 181 0038 7061     		str	r0, [r6, #20]
 182              	.LVL11:
 183              	.LBB206:
 184              	.LBB207:
 185              		.loc 2 566 0
 186 003a 4162     		str	r1, [r0, #36]
 187              	.LBE207:
 188              	.LBE206:
 189              	.LBB208:
 190              	.LBB209:
 191              		.loc 2 605 0
 192 003c C0E90A22 		strd	r2, r2, [r0, #40]
 193              	.LVL12:
 194              	.LBE209:
 195              	.LBE208:
 196              	.LBE211:
 197              	.LBE213:
 198              		.loc 1 190 0
 199 0040 F0BC     		pop	{r4, r5, r6, r7}
 200              		.cfi_restore 7
 201              		.cfi_restore 6
 202              		.cfi_restore 5
 203              		.cfi_restore 4
 204              		.cfi_def_cfa_offset 0
 205              	.LVL13:
 206 0042 7047     		bx	lr
 207              	.L9:
 208              		.align	2
 209              	.L8:
 210 0044 00000000 		.word	ch
 211 0048 00000000 		.word	_port_thread_start
 212              		.cfi_endproc
 213              	.LFE230:
 214              		.size	chThdCreateI, .-chThdCreateI
 215              		.section	.text.chThdCreateStatic,"ax",%progbits
 216              		.align	1
 217              		.p2align 4,,15
 218              		.global	chThdCreateStatic
 219              		.syntax unified
 220              		.thumb
 221              		.thumb_func
 222              		.fpu fpv4-sp-d16
 223              		.type	chThdCreateStatic, %function
 224              	chThdCreateStatic:
 225              	.LFB231:
 226              		.loc 1 209 0
 227              		.cfi_startproc
 228              		@ args = 4, pretend = 0, frame = 0
ARM GAS  /tmp/ccMwx8Ze.s 			page 5


 229              		@ frame_needed = 0, uses_anonymous_args = 0
 230              	.LVL14:
 231 0000 F8B5     		push	{r3, r4, r5, r6, r7, lr}
 232              		.cfi_def_cfa_offset 24
 233              		.cfi_offset 3, -24
 234              		.cfi_offset 4, -20
 235              		.cfi_offset 5, -16
 236              		.cfi_offset 6, -12
 237              		.cfi_offset 7, -8
 238              		.cfi_offset 14, -4
 239              		.loc 1 209 0
 240 0002 0446     		mov	r4, r0
 241              	.LBB214:
 242              	.LBB215:
 243              	.LBB216:
 244              	.LBB217:
 245              		.file 3 "ChibiOS_3.0.2/os/ext/CMSIS/include/core_cmFunc.h"
 246              		.loc 3 546 0
 247 0004 2026     		movs	r6, #32
 248              		.syntax unified
 249              	@ 546 "ChibiOS_3.0.2/os/ext/CMSIS/include/core_cmFunc.h" 1
 250 0006 86F31188 		MSR basepri, r6
 251              	@ 0 "" 2
 252              	.LVL15:
 253              		.thumb
 254              		.syntax unified
 255              	.LBE217:
 256              	.LBE216:
 257              	.LBE215:
 258              	.LBE214:
 259              	.LBB218:
 260              	.LBB219:
 261              		.loc 1 187 0
 262 000a 6439     		subs	r1, r1, #100
 263              	.LVL16:
 264 000c 0144     		add	r1, r1, r0
 265              	.LVL17:
 266              	.LBB220:
 267              	.LBB221:
 268              		.loc 1 114 0
 269 000e 124E     		ldr	r6, .L12
 270              	.LBE221:
 271              	.LBE220:
 272              		.loc 1 187 0
 273 0010 124D     		ldr	r5, .L12+4
 274              	.LBB228:
 275              	.LBB224:
 276              		.loc 1 114 0
 277 0012 7769     		ldr	r7, [r6, #20]
 278              	.LBE224:
 279              	.LBE228:
 280              		.loc 1 187 0
 281 0014 C160     		str	r1, [r0, #12]
 282 0016 0B64     		str	r3, [r1, #64]
 283 0018 069B     		ldr	r3, [sp, #24]
 284              	.LVL18:
 285 001a 4B64     		str	r3, [r1, #68]
ARM GAS  /tmp/ccMwx8Ze.s 			page 6


 286              	.LBB229:
 287              	.LBB225:
 288              		.loc 1 113 0
 289 001c 0223     		movs	r3, #2
 290              	.LBE225:
 291              	.LBE229:
 292              		.loc 1 187 0
 293 001e 0D66     		str	r5, [r1, #96]
 294              	.LVL19:
 295              	.LBB230:
 296              	.LBB226:
 297              		.loc 1 117 0
 298 0020 00F1240C 		add	ip, r0, #36
 299              		.loc 1 101 0
 300 0024 0025     		movs	r5, #0
 301              		.loc 1 113 0
 302 0026 8383     		strh	r3, [r0, #28]	@ movhi
 303              	.LVL20:
 304              		.loc 1 95 0
 305 0028 0121     		movs	r1, #1
 306              		.loc 1 120 0
 307 002a 00F12803 		add	r3, r0, #40
 308              		.loc 1 93 0
 309 002e 8260     		str	r2, [r0, #8]
 310              		.loc 1 95 0
 311 0030 8177     		strb	r1, [r0, #30]
 312              		.loc 1 114 0
 313 0032 C0E90467 		strd	r6, r7, [r0, #16]
 314              		.loc 1 100 0
 315 0036 C263     		str	r2, [r0, #60]
 316              		.loc 1 104 0
 317 0038 C0E90D55 		strd	r5, r5, [r0, #52]
 318              		.loc 1 113 0
 319 003c 8561     		str	r5, [r0, #24]
 320              	.LBE226:
 321              	.LBE230:
 322              	.LBE219:
 323              	.LBE218:
 324              		.loc 1 223 0
 325 003e 2946     		mov	r1, r5
 326              	.LBB233:
 327              	.LBB232:
 328              	.LBB231:
 329              	.LBB227:
 330              		.loc 1 114 0
 331 0040 3861     		str	r0, [r7, #16]
 332              	.LBB222:
 333              	.LBB223:
 334              		.loc 2 604 0
 335 0042 C0E909C3 		strd	ip, r3, [r0, #36]
 336              		.loc 2 605 0
 337 0046 C362     		str	r3, [r0, #44]
 338              	.LBE223:
 339              	.LBE222:
 340              		.loc 1 114 0
 341 0048 7061     		str	r0, [r6, #20]
 342              	.LVL21:
ARM GAS  /tmp/ccMwx8Ze.s 			page 7


 343              	.LBE227:
 344              	.LBE231:
 345              	.LBE232:
 346              	.LBE233:
 347              		.loc 1 223 0
 348 004a FFF7FEFF 		bl	chSchWakeupS
 349              	.LVL22:
 350              	.LBB234:
 351              	.LBB235:
 352              	.LBB236:
 353              	.LBB237:
 354              	.LBB238:
 355              		.loc 3 546 0
 356              		.syntax unified
 357              	@ 546 "ChibiOS_3.0.2/os/ext/CMSIS/include/core_cmFunc.h" 1
 358 004e 85F31188 		MSR basepri, r5
 359              	@ 0 "" 2
 360              	.LVL23:
 361              		.thumb
 362              		.syntax unified
 363              	.LBE238:
 364              	.LBE237:
 365              	.LBE236:
 366              	.LBE235:
 367              	.LBE234:
 368              		.loc 1 227 0
 369 0052 2046     		mov	r0, r4
 370 0054 F8BD     		pop	{r3, r4, r5, r6, r7, pc}
 371              	.LVL24:
 372              	.L13:
 373 0056 00BF     		.align	2
 374              	.L12:
 375 0058 00000000 		.word	ch
 376 005c 00000000 		.word	_port_thread_start
 377              		.cfi_endproc
 378              	.LFE231:
 379              		.size	chThdCreateStatic, .-chThdCreateStatic
 380              		.section	.text.chThdStart,"ax",%progbits
 381              		.align	1
 382              		.p2align 4,,15
 383              		.global	chThdStart
 384              		.syntax unified
 385              		.thumb
 386              		.thumb_func
 387              		.fpu fpv4-sp-d16
 388              		.type	chThdStart, %function
 389              	chThdStart:
 390              	.LFB232:
 391              		.loc 1 238 0
 392              		.cfi_startproc
 393              		@ args = 0, pretend = 0, frame = 0
 394              		@ frame_needed = 0, uses_anonymous_args = 0
 395              	.LVL25:
 396 0000 08B5     		push	{r3, lr}
 397              		.cfi_def_cfa_offset 8
 398              		.cfi_offset 3, -8
 399              		.cfi_offset 14, -4
ARM GAS  /tmp/ccMwx8Ze.s 			page 8


 400              	.LBB239:
 401              	.LBB240:
 402              	.LBB241:
 403              	.LBB242:
 404              		.loc 3 546 0
 405 0002 2023     		movs	r3, #32
 406              		.syntax unified
 407              	@ 546 "ChibiOS_3.0.2/os/ext/CMSIS/include/core_cmFunc.h" 1
 408 0004 83F31188 		MSR basepri, r3
 409              	@ 0 "" 2
 410              	.LVL26:
 411              		.thumb
 412              		.syntax unified
 413              	.LBE242:
 414              	.LBE241:
 415              	.LBE240:
 416              	.LBE239:
 417              	.LBB243:
 418              	.LBB244:
 419              		.file 4 "ChibiOS_3.0.2/os/rt/include/chthreads.h"
 420              		.loc 4 249 0
 421 0008 FFF7FEFF 		bl	chSchReadyI
 422              	.LVL27:
 423              	.LBE244:
 424              	.LBE243:
 425              	.LBB245:
 426              	.LBB246:
 427              	.LBB247:
 428              	.LBB248:
 429              	.LBB249:
 430              		.loc 3 546 0
 431 000c 0023     		movs	r3, #0
 432              		.syntax unified
 433              	@ 546 "ChibiOS_3.0.2/os/ext/CMSIS/include/core_cmFunc.h" 1
 434 000e 83F31188 		MSR basepri, r3
 435              	@ 0 "" 2
 436              	.LVL28:
 437              		.thumb
 438              		.syntax unified
 439              	.LBE249:
 440              	.LBE248:
 441              	.LBE247:
 442              	.LBE246:
 443              	.LBE245:
 444              		.loc 1 245 0
 445 0012 08BD     		pop	{r3, pc}
 446              		.cfi_endproc
 447              	.LFE232:
 448              		.size	chThdStart, .-chThdStart
 449              		.section	.text.chThdSetPriority,"ax",%progbits
 450              		.align	1
 451              		.p2align 4,,15
 452              		.global	chThdSetPriority
 453              		.syntax unified
 454              		.thumb
 455              		.thumb_func
 456              		.fpu fpv4-sp-d16
ARM GAS  /tmp/ccMwx8Ze.s 			page 9


 457              		.type	chThdSetPriority, %function
 458              	chThdSetPriority:
 459              	.LFB233:
 460              		.loc 1 259 0
 461              		.cfi_startproc
 462              		@ args = 0, pretend = 0, frame = 0
 463              		@ frame_needed = 0, uses_anonymous_args = 0
 464              	.LVL29:
 465 0000 10B5     		push	{r4, lr}
 466              		.cfi_def_cfa_offset 8
 467              		.cfi_offset 4, -8
 468              		.cfi_offset 14, -4
 469              	.LBB250:
 470              	.LBB251:
 471              	.LBB252:
 472              	.LBB253:
 473              		.loc 3 546 0
 474 0002 2023     		movs	r3, #32
 475              		.syntax unified
 476              	@ 546 "ChibiOS_3.0.2/os/ext/CMSIS/include/core_cmFunc.h" 1
 477 0004 83F31188 		MSR basepri, r3
 478              	@ 0 "" 2
 479              	.LVL30:
 480              		.thumb
 481              		.syntax unified
 482              	.LBE253:
 483              	.LBE252:
 484              	.LBE251:
 485              	.LBE250:
 486              		.loc 1 266 0
 487 0008 084B     		ldr	r3, .L20
 488 000a 9B69     		ldr	r3, [r3, #24]
 489 000c DC6B     		ldr	r4, [r3, #60]
 490              	.LVL31:
 491              		.loc 1 267 0
 492 000e 9968     		ldr	r1, [r3, #8]
 493 0010 A142     		cmp	r1, r4
 494 0012 01D0     		beq	.L17
 495              		.loc 1 267 0 is_stmt 0 discriminator 1
 496 0014 8142     		cmp	r1, r0
 497 0016 00D2     		bcs	.L18
 498              	.L17:
 499              		.loc 1 268 0 is_stmt 1
 500 0018 9860     		str	r0, [r3, #8]
 501              	.L18:
 502              		.loc 1 270 0
 503 001a D863     		str	r0, [r3, #60]
 504              		.loc 1 275 0
 505 001c FFF7FEFF 		bl	chSchRescheduleS
 506              	.LVL32:
 507              	.LBB254:
 508              	.LBB255:
 509              	.LBB256:
 510              	.LBB257:
 511              	.LBB258:
 512              		.loc 3 546 0
 513 0020 0023     		movs	r3, #0
ARM GAS  /tmp/ccMwx8Ze.s 			page 10


 514              		.syntax unified
 515              	@ 546 "ChibiOS_3.0.2/os/ext/CMSIS/include/core_cmFunc.h" 1
 516 0022 83F31188 		MSR basepri, r3
 517              	@ 0 "" 2
 518              	.LVL33:
 519              		.thumb
 520              		.syntax unified
 521              	.LBE258:
 522              	.LBE257:
 523              	.LBE256:
 524              	.LBE255:
 525              	.LBE254:
 526              		.loc 1 279 0
 527 0026 2046     		mov	r0, r4
 528 0028 10BD     		pop	{r4, pc}
 529              	.LVL34:
 530              	.L21:
 531 002a 00BF     		.align	2
 532              	.L20:
 533 002c 00000000 		.word	ch
 534              		.cfi_endproc
 535              	.LFE233:
 536              		.size	chThdSetPriority, .-chThdSetPriority
 537              		.section	.text.chThdTerminate,"ax",%progbits
 538              		.align	1
 539              		.p2align 4,,15
 540              		.global	chThdTerminate
 541              		.syntax unified
 542              		.thumb
 543              		.thumb_func
 544              		.fpu fpv4-sp-d16
 545              		.type	chThdTerminate, %function
 546              	chThdTerminate:
 547              	.LFB234:
 548              		.loc 1 293 0
 549              		.cfi_startproc
 550              		@ args = 0, pretend = 0, frame = 0
 551              		@ frame_needed = 0, uses_anonymous_args = 0
 552              		@ link register save eliminated.
 553              	.LVL35:
 554              	.LBB259:
 555              	.LBB260:
 556              	.LBB261:
 557              	.LBB262:
 558              		.loc 3 546 0
 559 0000 2023     		movs	r3, #32
 560              		.syntax unified
 561              	@ 546 "ChibiOS_3.0.2/os/ext/CMSIS/include/core_cmFunc.h" 1
 562 0002 83F31188 		MSR basepri, r3
 563              	@ 0 "" 2
 564              	.LVL36:
 565              		.thumb
 566              		.syntax unified
 567              	.LBE262:
 568              	.LBE261:
 569              	.LBE260:
 570              	.LBE259:
ARM GAS  /tmp/ccMwx8Ze.s 			page 11


 571              		.loc 1 296 0
 572 0006 437F     		ldrb	r3, [r0, #29]	@ zero_extendqisi2
 573 0008 43F00403 		orr	r3, r3, #4
 574 000c 4377     		strb	r3, [r0, #29]
 575              	.LVL37:
 576              	.LBB263:
 577              	.LBB264:
 578              	.LBB265:
 579              	.LBB266:
 580              	.LBB267:
 581              		.loc 3 546 0
 582 000e 0023     		movs	r3, #0
 583              		.syntax unified
 584              	@ 546 "ChibiOS_3.0.2/os/ext/CMSIS/include/core_cmFunc.h" 1
 585 0010 83F31188 		MSR basepri, r3
 586              	@ 0 "" 2
 587              	.LVL38:
 588              		.thumb
 589              		.syntax unified
 590              	.LBE267:
 591              	.LBE266:
 592              	.LBE265:
 593              	.LBE264:
 594              	.LBE263:
 595              		.loc 1 298 0
 596 0014 7047     		bx	lr
 597              		.cfi_endproc
 598              	.LFE234:
 599              		.size	chThdTerminate, .-chThdTerminate
 600 0016 00BF     		.section	.text.chThdSleep,"ax",%progbits
 601              		.align	1
 602              		.p2align 4,,15
 603              		.global	chThdSleep
 604              		.syntax unified
 605              		.thumb
 606              		.thumb_func
 607              		.fpu fpv4-sp-d16
 608              		.type	chThdSleep, %function
 609              	chThdSleep:
 610              	.LFB235:
 611              		.loc 1 312 0
 612              		.cfi_startproc
 613              		@ args = 0, pretend = 0, frame = 0
 614              		@ frame_needed = 0, uses_anonymous_args = 0
 615              	.LVL39:
 616 0000 08B5     		push	{r3, lr}
 617              		.cfi_def_cfa_offset 8
 618              		.cfi_offset 3, -8
 619              		.cfi_offset 14, -4
 620              		.loc 1 312 0
 621 0002 0146     		mov	r1, r0
 622              	.LBB268:
 623              	.LBB269:
 624              	.LBB270:
 625              	.LBB271:
 626              		.loc 3 546 0
 627 0004 2023     		movs	r3, #32
ARM GAS  /tmp/ccMwx8Ze.s 			page 12


 628              		.syntax unified
 629              	@ 546 "ChibiOS_3.0.2/os/ext/CMSIS/include/core_cmFunc.h" 1
 630 0006 83F31188 		MSR basepri, r3
 631              	@ 0 "" 2
 632              	.LVL40:
 633              		.thumb
 634              		.syntax unified
 635              	.LBE271:
 636              	.LBE270:
 637              	.LBE269:
 638              	.LBE268:
 639              	.LBB272:
 640              	.LBB273:
 641              		.loc 4 268 0
 642 000a 0820     		movs	r0, #8
 643              	.LVL41:
 644 000c FFF7FEFF 		bl	chSchGoSleepTimeoutS
 645              	.LVL42:
 646              	.LBE273:
 647              	.LBE272:
 648              	.LBB274:
 649              	.LBB275:
 650              	.LBB276:
 651              	.LBB277:
 652              	.LBB278:
 653              		.loc 3 546 0
 654 0010 0023     		movs	r3, #0
 655              		.syntax unified
 656              	@ 546 "ChibiOS_3.0.2/os/ext/CMSIS/include/core_cmFunc.h" 1
 657 0012 83F31188 		MSR basepri, r3
 658              	@ 0 "" 2
 659              	.LVL43:
 660              		.thumb
 661              		.syntax unified
 662              	.LBE278:
 663              	.LBE277:
 664              	.LBE276:
 665              	.LBE275:
 666              	.LBE274:
 667              		.loc 1 317 0
 668 0016 08BD     		pop	{r3, pc}
 669              		.cfi_endproc
 670              	.LFE235:
 671              		.size	chThdSleep, .-chThdSleep
 672              		.section	.text.chThdSleepUntil,"ax",%progbits
 673              		.align	1
 674              		.p2align 4,,15
 675              		.global	chThdSleepUntil
 676              		.syntax unified
 677              		.thumb
 678              		.thumb_func
 679              		.fpu fpv4-sp-d16
 680              		.type	chThdSleepUntil, %function
 681              	chThdSleepUntil:
 682              	.LFB236:
 683              		.loc 1 332 0
 684              		.cfi_startproc
ARM GAS  /tmp/ccMwx8Ze.s 			page 13


 685              		@ args = 0, pretend = 0, frame = 0
 686              		@ frame_needed = 0, uses_anonymous_args = 0
 687              	.LVL44:
 688 0000 08B5     		push	{r3, lr}
 689              		.cfi_def_cfa_offset 8
 690              		.cfi_offset 3, -8
 691              		.cfi_offset 14, -4
 692              	.LBB279:
 693              	.LBB280:
 694              	.LBB281:
 695              	.LBB282:
 696              		.loc 3 546 0
 697 0002 2023     		movs	r3, #32
 698              		.syntax unified
 699              	@ 546 "ChibiOS_3.0.2/os/ext/CMSIS/include/core_cmFunc.h" 1
 700 0004 83F31188 		MSR basepri, r3
 701              	@ 0 "" 2
 702              	.LVL45:
 703              		.thumb
 704              		.syntax unified
 705              	.LBE282:
 706              	.LBE281:
 707              	.LBE280:
 708              	.LBE279:
 709              	.LBB283:
 710              	.LBB284:
 711              	.LBB285:
 712              	.LBB286:
 713              		.file 5 "ChibiOS_3.0.2/os/hal/ports/STM32/LLD/TIMv1/st_lld.h"
 714              		.loc 5 129 0
 715 0008 4FF08043 		mov	r3, #1073741824
 716 000c 596A     		ldr	r1, [r3, #36]
 717              	.LVL46:
 718              	.LBE286:
 719              	.LBE285:
 720              	.LBE284:
 721              	.LBE283:
 722              		.loc 1 336 0
 723 000e 411A     		subs	r1, r0, r1
 724              	.LVL47:
 725 0010 02D0     		beq	.L26
 726              	.LVL48:
 727              	.LBB287:
 728              	.LBB288:
 729              		.loc 4 268 0
 730 0012 0820     		movs	r0, #8
 731 0014 FFF7FEFF 		bl	chSchGoSleepTimeoutS
 732              	.LVL49:
 733              	.L26:
 734              	.LBE288:
 735              	.LBE287:
 736              	.LBB289:
 737              	.LBB290:
 738              	.LBB291:
 739              	.LBB292:
 740              	.LBB293:
 741              		.loc 3 546 0
ARM GAS  /tmp/ccMwx8Ze.s 			page 14


 742 0018 0023     		movs	r3, #0
 743              		.syntax unified
 744              	@ 546 "ChibiOS_3.0.2/os/ext/CMSIS/include/core_cmFunc.h" 1
 745 001a 83F31188 		MSR basepri, r3
 746              	@ 0 "" 2
 747              	.LVL50:
 748              		.thumb
 749              		.syntax unified
 750              	.LBE293:
 751              	.LBE292:
 752              	.LBE291:
 753              	.LBE290:
 754              	.LBE289:
 755              		.loc 1 340 0
 756 001e 08BD     		pop	{r3, pc}
 757              		.cfi_endproc
 758              	.LFE236:
 759              		.size	chThdSleepUntil, .-chThdSleepUntil
 760              		.section	.text.chThdSleepUntilWindowed,"ax",%progbits
 761              		.align	1
 762              		.p2align 4,,15
 763              		.global	chThdSleepUntilWindowed
 764              		.syntax unified
 765              		.thumb
 766              		.thumb_func
 767              		.fpu fpv4-sp-d16
 768              		.type	chThdSleepUntilWindowed, %function
 769              	chThdSleepUntilWindowed:
 770              	.LFB237:
 771              		.loc 1 356 0
 772              		.cfi_startproc
 773              		@ args = 0, pretend = 0, frame = 0
 774              		@ frame_needed = 0, uses_anonymous_args = 0
 775              	.LVL51:
 776 0000 10B5     		push	{r4, lr}
 777              		.cfi_def_cfa_offset 8
 778              		.cfi_offset 4, -8
 779              		.cfi_offset 14, -4
 780              	.LBB294:
 781              	.LBB295:
 782              	.LBB296:
 783              	.LBB297:
 784              		.loc 3 546 0
 785 0002 2023     		movs	r3, #32
 786              	.LBE297:
 787              	.LBE296:
 788              	.LBE295:
 789              	.LBE294:
 790              		.loc 1 356 0
 791 0004 0C46     		mov	r4, r1
 792              	.LBB301:
 793              	.LBB300:
 794              	.LBB299:
 795              	.LBB298:
 796              		.loc 3 546 0
 797              		.syntax unified
 798              	@ 546 "ChibiOS_3.0.2/os/ext/CMSIS/include/core_cmFunc.h" 1
ARM GAS  /tmp/ccMwx8Ze.s 			page 15


 799 0006 83F31188 		MSR basepri, r3
 800              	@ 0 "" 2
 801              	.LVL52:
 802              		.thumb
 803              		.syntax unified
 804              	.LBE298:
 805              	.LBE299:
 806              	.LBE300:
 807              	.LBE301:
 808              	.LBB302:
 809              	.LBB303:
 810              	.LBB304:
 811              	.LBB305:
 812              		.loc 5 129 0
 813 000a 4FF08042 		mov	r2, #1073741824
 814              	.LBE305:
 815              	.LBE304:
 816              	.LBE303:
 817              	.LBE302:
 818              	.LBB309:
 819              	.LBB310:
 820              		.file 6 "ChibiOS_3.0.2/os/rt/include/chvt.h"
 821              		.loc 6 288 0
 822 000e 0B1A     		subs	r3, r1, r0
 823              	.LBE310:
 824              	.LBE309:
 825              	.LBB312:
 826              	.LBB308:
 827              	.LBB307:
 828              	.LBB306:
 829              		.loc 5 129 0
 830 0010 516A     		ldr	r1, [r2, #36]
 831              	.LVL53:
 832              	.LBE306:
 833              	.LBE307:
 834              	.LBE308:
 835              	.LBE312:
 836              	.LBB313:
 837              	.LBB311:
 838              		.loc 6 288 0
 839 0012 081A     		subs	r0, r1, r0
 840              	.LVL54:
 841              	.LBE311:
 842              	.LBE313:
 843              		.loc 1 361 0
 844 0014 9842     		cmp	r0, r3
 845 0016 03D2     		bcs	.L32
 846              	.LVL55:
 847              	.LBB314:
 848              	.LBB315:
 849              		.loc 4 268 0
 850 0018 611A     		subs	r1, r4, r1
 851              	.LVL56:
 852 001a 0820     		movs	r0, #8
 853 001c FFF7FEFF 		bl	chSchGoSleepTimeoutS
 854              	.LVL57:
 855              	.L32:
ARM GAS  /tmp/ccMwx8Ze.s 			page 16


 856              	.LBE315:
 857              	.LBE314:
 858              	.LBB316:
 859              	.LBB317:
 860              	.LBB318:
 861              	.LBB319:
 862              	.LBB320:
 863              		.loc 3 546 0
 864 0020 0023     		movs	r3, #0
 865              		.syntax unified
 866              	@ 546 "ChibiOS_3.0.2/os/ext/CMSIS/include/core_cmFunc.h" 1
 867 0022 83F31188 		MSR basepri, r3
 868              	@ 0 "" 2
 869              	.LVL58:
 870              		.thumb
 871              		.syntax unified
 872              	.LBE320:
 873              	.LBE319:
 874              	.LBE318:
 875              	.LBE317:
 876              	.LBE316:
 877              		.loc 1 367 0
 878 0026 2046     		mov	r0, r4
 879 0028 10BD     		pop	{r4, pc}
 880              		.cfi_endproc
 881              	.LFE237:
 882              		.size	chThdSleepUntilWindowed, .-chThdSleepUntilWindowed
 883 002a 00BF     		.section	.text.chThdYield,"ax",%progbits
 884              		.align	1
 885              		.p2align 4,,15
 886              		.global	chThdYield
 887              		.syntax unified
 888              		.thumb
 889              		.thumb_func
 890              		.fpu fpv4-sp-d16
 891              		.type	chThdYield, %function
 892              	chThdYield:
 893              	.LFB238:
 894              		.loc 1 376 0
 895              		.cfi_startproc
 896              		@ args = 0, pretend = 0, frame = 0
 897              		@ frame_needed = 0, uses_anonymous_args = 0
 898              	.LVL59:
 899 0000 08B5     		push	{r3, lr}
 900              		.cfi_def_cfa_offset 8
 901              		.cfi_offset 3, -8
 902              		.cfi_offset 14, -4
 903              	.LBB321:
 904              	.LBB322:
 905              	.LBB323:
 906              	.LBB324:
 907              		.loc 3 546 0
 908 0002 2023     		movs	r3, #32
 909              		.syntax unified
 910              	@ 546 "ChibiOS_3.0.2/os/ext/CMSIS/include/core_cmFunc.h" 1
 911 0004 83F31188 		MSR basepri, r3
 912              	@ 0 "" 2
ARM GAS  /tmp/ccMwx8Ze.s 			page 17


 913              	.LVL60:
 914              		.thumb
 915              		.syntax unified
 916              	.LBE324:
 917              	.LBE323:
 918              	.LBE322:
 919              	.LBE321:
 920              	.LBB325:
 921              	.LBB326:
 922              	.LBB327:
 923              	.LBB328:
 924              		.loc 2 731 0
 925 0008 064B     		ldr	r3, .L37
 926 000a 1A68     		ldr	r2, [r3]
 927 000c 9B69     		ldr	r3, [r3, #24]
 928              	.LBE328:
 929              	.LBE327:
 930              		.loc 2 745 0
 931 000e 9268     		ldr	r2, [r2, #8]
 932 0010 9B68     		ldr	r3, [r3, #8]
 933 0012 9A42     		cmp	r2, r3
 934 0014 01D3     		bcc	.L35
 935              		.loc 2 746 0
 936 0016 FFF7FEFF 		bl	chSchDoRescheduleBehind
 937              	.LVL61:
 938              	.L35:
 939              	.LBE326:
 940              	.LBE325:
 941              	.LBB329:
 942              	.LBB330:
 943              	.LBB331:
 944              	.LBB332:
 945              	.LBB333:
 946              		.loc 3 546 0
 947 001a 0023     		movs	r3, #0
 948              		.syntax unified
 949              	@ 546 "ChibiOS_3.0.2/os/ext/CMSIS/include/core_cmFunc.h" 1
 950 001c 83F31188 		MSR basepri, r3
 951              	@ 0 "" 2
 952              	.LVL62:
 953              		.thumb
 954              		.syntax unified
 955              	.LBE333:
 956              	.LBE332:
 957              	.LBE331:
 958              	.LBE330:
 959              	.LBE329:
 960              		.loc 1 381 0
 961 0020 08BD     		pop	{r3, pc}
 962              	.L38:
 963 0022 00BF     		.align	2
 964              	.L37:
 965 0024 00000000 		.word	ch
 966              		.cfi_endproc
 967              	.LFE238:
 968              		.size	chThdYield, .-chThdYield
 969              		.section	.text.chThdExitS,"ax",%progbits
ARM GAS  /tmp/ccMwx8Ze.s 			page 18


 970              		.align	1
 971              		.p2align 4,,15
 972              		.global	chThdExitS
 973              		.syntax unified
 974              		.thumb
 975              		.thumb_func
 976              		.fpu fpv4-sp-d16
 977              		.type	chThdExitS, %function
 978              	chThdExitS:
 979              	.LFB240:
 980              		.loc 1 418 0
 981              		.cfi_startproc
 982              		@ args = 0, pretend = 0, frame = 0
 983              		@ frame_needed = 0, uses_anonymous_args = 0
 984              	.LVL63:
 985 0000 38B5     		push	{r3, r4, r5, lr}
 986              		.cfi_def_cfa_offset 16
 987              		.cfi_offset 3, -16
 988              		.cfi_offset 4, -12
 989              		.cfi_offset 5, -8
 990              		.cfi_offset 14, -4
 991              		.loc 1 419 0
 992 0002 0E4B     		ldr	r3, .L45
 993 0004 9C69     		ldr	r4, [r3, #24]
 994              	.LVL64:
 995              	.LBB334:
 996              	.LBB335:
 997              		.loc 2 592 0
 998 0006 636A     		ldr	r3, [r4, #36]
 999              	.LBE335:
 1000              	.LBE334:
 1001              		.loc 1 421 0
 1002 0008 2062     		str	r0, [r4, #32]
 1003              		.loc 1 426 0
 1004 000a 04F12405 		add	r5, r4, #36
 1005 000e AB42     		cmp	r3, r5
 1006 0010 07D0     		beq	.L40
 1007              	.LVL65:
 1008              	.L41:
 1009              	.LBB337:
 1010              	.LBB338:
 1011              		.loc 2 646 0
 1012 0012 1A68     		ldr	r2, [r3]
 1013 0014 6262     		str	r2, [r4, #36]
 1014              	.LVL66:
 1015              	.LBE338:
 1016              	.LBE337:
 1017              		.loc 1 427 0
 1018 0016 1846     		mov	r0, r3
 1019 0018 FFF7FEFF 		bl	chSchReadyI
 1020              	.LVL67:
 1021              	.LBB339:
 1022              	.LBB336:
 1023              		.loc 2 592 0
 1024 001c 636A     		ldr	r3, [r4, #36]
 1025              	.LVL68:
 1026              	.LBE336:
ARM GAS  /tmp/ccMwx8Ze.s 			page 19


 1027              	.LBE339:
 1028              		.loc 1 426 0
 1029 001e AB42     		cmp	r3, r5
 1030 0020 F7D1     		bne	.L41
 1031              	.L40:
 1032              		.loc 1 433 0
 1033 0022 637F     		ldrb	r3, [r4, #29]	@ zero_extendqisi2
 1034 0024 9B07     		lsls	r3, r3, #30
 1035 0026 04D1     		bne	.L42
 1036              		.loc 1 434 0
 1037 0028 D4E90423 		ldrd	r2, r3, [r4, #16]
 1038 002c 1A61     		str	r2, [r3, #16]
 1039 002e 2269     		ldr	r2, [r4, #16]
 1040 0030 5361     		str	r3, [r2, #20]
 1041              	.L42:
 1042              		.loc 1 437 0
 1043 0032 0F20     		movs	r0, #15
 1044              		.loc 1 441 0
 1045 0034 BDE83840 		pop	{r3, r4, r5, lr}
 1046              		.cfi_restore 14
 1047              		.cfi_restore 5
 1048              		.cfi_restore 4
 1049              		.cfi_restore 3
 1050              		.cfi_def_cfa_offset 0
 1051              	.LVL69:
 1052              		.loc 1 437 0
 1053 0038 FFF7FEBF 		b	chSchGoSleepS
 1054              	.LVL70:
 1055              	.L46:
 1056              		.align	2
 1057              	.L45:
 1058 003c 00000000 		.word	ch
 1059              		.cfi_endproc
 1060              	.LFE240:
 1061              		.size	chThdExitS, .-chThdExitS
 1062              		.section	.text.chThdExit,"ax",%progbits
 1063              		.align	1
 1064              		.p2align 4,,15
 1065              		.global	chThdExit
 1066              		.syntax unified
 1067              		.thumb
 1068              		.thumb_func
 1069              		.fpu fpv4-sp-d16
 1070              		.type	chThdExit, %function
 1071              	chThdExit:
 1072              	.LFB239:
 1073              		.loc 1 397 0
 1074              		.cfi_startproc
 1075              		@ args = 0, pretend = 0, frame = 0
 1076              		@ frame_needed = 0, uses_anonymous_args = 0
 1077              		@ link register save eliminated.
 1078              	.LVL71:
 1079              	.LBB340:
 1080              	.LBB341:
 1081              	.LBB342:
 1082              	.LBB343:
 1083              		.loc 3 546 0
ARM GAS  /tmp/ccMwx8Ze.s 			page 20


 1084 0000 2023     		movs	r3, #32
 1085              		.syntax unified
 1086              	@ 546 "ChibiOS_3.0.2/os/ext/CMSIS/include/core_cmFunc.h" 1
 1087 0002 83F31188 		MSR basepri, r3
 1088              	@ 0 "" 2
 1089              	.LVL72:
 1090              		.thumb
 1091              		.syntax unified
 1092              	.LBE343:
 1093              	.LBE342:
 1094              	.LBE341:
 1095              	.LBE340:
 1096              		.loc 1 400 0
 1097 0006 FFF7FEBF 		b	chThdExitS
 1098              	.LVL73:
 1099              		.cfi_endproc
 1100              	.LFE239:
 1101              		.size	chThdExit, .-chThdExit
 1102 000a 00BF     		.section	.text.chThdWait,"ax",%progbits
 1103              		.align	1
 1104              		.p2align 4,,15
 1105              		.global	chThdWait
 1106              		.syntax unified
 1107              		.thumb
 1108              		.thumb_func
 1109              		.fpu fpv4-sp-d16
 1110              		.type	chThdWait, %function
 1111              	chThdWait:
 1112              	.LFB241:
 1113              		.loc 1 475 0
 1114              		.cfi_startproc
 1115              		@ args = 0, pretend = 0, frame = 0
 1116              		@ frame_needed = 0, uses_anonymous_args = 0
 1117              	.LVL74:
 1118 0000 38B5     		push	{r3, r4, r5, lr}
 1119              		.cfi_def_cfa_offset 16
 1120              		.cfi_offset 3, -16
 1121              		.cfi_offset 4, -12
 1122              		.cfi_offset 5, -8
 1123              		.cfi_offset 14, -4
 1124              		.loc 1 475 0
 1125 0002 0446     		mov	r4, r0
 1126              	.LBB344:
 1127              	.LBB345:
 1128              	.LBB346:
 1129              	.LBB347:
 1130              		.loc 3 546 0
 1131 0004 2023     		movs	r3, #32
 1132              		.syntax unified
 1133              	@ 546 "ChibiOS_3.0.2/os/ext/CMSIS/include/core_cmFunc.h" 1
 1134 0006 83F31188 		MSR basepri, r3
 1135              	@ 0 "" 2
 1136              	.LVL75:
 1137              		.thumb
 1138              		.syntax unified
 1139              	.LBE347:
 1140              	.LBE346:
ARM GAS  /tmp/ccMwx8Ze.s 			page 21


 1141              	.LBE345:
 1142              	.LBE344:
 1143              		.loc 1 485 0
 1144 000a 037F     		ldrb	r3, [r0, #28]	@ zero_extendqisi2
 1145 000c 0F2B     		cmp	r3, #15
 1146 000e 07D0     		beq	.L49
 1147              		.loc 1 486 0
 1148 0010 084B     		ldr	r3, .L54
 1149              	.LBB348:
 1150              	.LBB349:
 1151              		.loc 2 639 0
 1152 0012 426A     		ldr	r2, [r0, #36]
 1153              	.LBE349:
 1154              	.LBE348:
 1155              		.loc 1 486 0
 1156 0014 9B69     		ldr	r3, [r3, #24]
 1157              	.LVL76:
 1158              		.loc 1 487 0
 1159 0016 0920     		movs	r0, #9
 1160              	.LVL77:
 1161              	.LBB351:
 1162              	.LBB350:
 1163              		.loc 2 639 0
 1164 0018 1A60     		str	r2, [r3]
 1165              		.loc 2 640 0
 1166 001a 6362     		str	r3, [r4, #36]
 1167              	.LVL78:
 1168              	.LBE350:
 1169              	.LBE351:
 1170              		.loc 1 487 0
 1171 001c FFF7FEFF 		bl	chSchGoSleepS
 1172              	.LVL79:
 1173              	.L49:
 1174              		.loc 1 489 0
 1175 0020 256A     		ldr	r5, [r4, #32]
 1176              	.LVL80:
 1177              	.LBB352:
 1178              	.LBB353:
 1179              	.LBB354:
 1180              	.LBB355:
 1181              	.LBB356:
 1182              		.loc 3 546 0
 1183 0022 0023     		movs	r3, #0
 1184              		.syntax unified
 1185              	@ 546 "ChibiOS_3.0.2/os/ext/CMSIS/include/core_cmFunc.h" 1
 1186 0024 83F31188 		MSR basepri, r3
 1187              	@ 0 "" 2
 1188              	.LVL81:
 1189              		.thumb
 1190              		.syntax unified
 1191              	.LBE356:
 1192              	.LBE355:
 1193              	.LBE354:
 1194              	.LBE353:
 1195              	.LBE352:
 1196              		.loc 1 494 0
 1197 0028 2046     		mov	r0, r4
ARM GAS  /tmp/ccMwx8Ze.s 			page 22


 1198 002a FFF7FEFF 		bl	chThdRelease
 1199              	.LVL82:
 1200              		.loc 1 498 0
 1201 002e 2846     		mov	r0, r5
 1202 0030 38BD     		pop	{r3, r4, r5, pc}
 1203              	.LVL83:
 1204              	.L55:
 1205 0032 00BF     		.align	2
 1206              	.L54:
 1207 0034 00000000 		.word	ch
 1208              		.cfi_endproc
 1209              	.LFE241:
 1210              		.size	chThdWait, .-chThdWait
 1211              		.section	.text.chThdSuspendS,"ax",%progbits
 1212              		.align	1
 1213              		.p2align 4,,15
 1214              		.global	chThdSuspendS
 1215              		.syntax unified
 1216              		.thumb
 1217              		.thumb_func
 1218              		.fpu fpv4-sp-d16
 1219              		.type	chThdSuspendS, %function
 1220              	chThdSuspendS:
 1221              	.LFB242:
 1222              		.loc 1 511 0
 1223              		.cfi_startproc
 1224              		@ args = 0, pretend = 0, frame = 0
 1225              		@ frame_needed = 0, uses_anonymous_args = 0
 1226              	.LVL84:
 1227 0000 10B5     		push	{r4, lr}
 1228              		.cfi_def_cfa_offset 8
 1229              		.cfi_offset 4, -8
 1230              		.cfi_offset 14, -4
 1231              	.LBB357:
 1232              	.LBB358:
 1233              		.loc 4 176 0
 1234 0002 054C     		ldr	r4, .L58
 1235 0004 A369     		ldr	r3, [r4, #24]
 1236              	.LBE358:
 1237              	.LBE357:
 1238              		.loc 1 516 0
 1239 0006 0360     		str	r3, [r0]
 1240              		.loc 1 511 0
 1241 0008 0246     		mov	r2, r0
 1242              		.loc 1 517 0
 1243 000a 1A62     		str	r2, [r3, #32]
 1244              		.loc 1 518 0
 1245 000c 0320     		movs	r0, #3
 1246              	.LVL85:
 1247 000e FFF7FEFF 		bl	chSchGoSleepS
 1248              	.LVL86:
 1249              		.loc 1 520 0
 1250 0012 A369     		ldr	r3, [r4, #24]
 1251              		.loc 1 521 0
 1252 0014 186A     		ldr	r0, [r3, #32]
 1253 0016 10BD     		pop	{r4, pc}
 1254              	.L59:
ARM GAS  /tmp/ccMwx8Ze.s 			page 23


 1255              		.align	2
 1256              	.L58:
 1257 0018 00000000 		.word	ch
 1258              		.cfi_endproc
 1259              	.LFE242:
 1260              		.size	chThdSuspendS, .-chThdSuspendS
 1261              		.section	.text.chThdSuspendTimeoutS,"ax",%progbits
 1262              		.align	1
 1263              		.p2align 4,,15
 1264              		.global	chThdSuspendTimeoutS
 1265              		.syntax unified
 1266              		.thumb
 1267              		.thumb_func
 1268              		.fpu fpv4-sp-d16
 1269              		.type	chThdSuspendTimeoutS, %function
 1270              	chThdSuspendTimeoutS:
 1271              	.LFB243:
 1272              		.loc 1 542 0
 1273              		.cfi_startproc
 1274              		@ args = 0, pretend = 0, frame = 0
 1275              		@ frame_needed = 0, uses_anonymous_args = 0
 1276              		@ link register save eliminated.
 1277              	.LVL87:
 1278              	.LBB359:
 1279              	.LBB360:
 1280              		.loc 4 176 0
 1281 0000 054B     		ldr	r3, .L62
 1282              	.LBE360:
 1283              	.LBE359:
 1284              		.loc 1 542 0
 1285 0002 0246     		mov	r2, r0
 1286              	.LBB362:
 1287              	.LBB361:
 1288              		.loc 4 176 0
 1289 0004 9B69     		ldr	r3, [r3, #24]
 1290              	.LBE361:
 1291              	.LBE362:
 1292              		.loc 1 547 0
 1293 0006 21B1     		cbz	r1, .L61
 1294              		.loc 1 551 0
 1295 0008 0360     		str	r3, [r0]
 1296              		.loc 1 554 0
 1297 000a 0320     		movs	r0, #3
 1298              	.LVL88:
 1299              		.loc 1 552 0
 1300 000c 1A62     		str	r2, [r3, #32]
 1301              		.loc 1 554 0
 1302 000e FFF7FEBF 		b	chSchGoSleepTimeoutS
 1303              	.LVL89:
 1304              	.L61:
 1305              		.loc 1 555 0
 1306 0012 4FF0FF30 		mov	r0, #-1
 1307              	.LVL90:
 1308 0016 7047     		bx	lr
 1309              	.L63:
 1310              		.align	2
 1311              	.L62:
ARM GAS  /tmp/ccMwx8Ze.s 			page 24


 1312 0018 00000000 		.word	ch
 1313              		.cfi_endproc
 1314              	.LFE243:
 1315              		.size	chThdSuspendTimeoutS, .-chThdSuspendTimeoutS
 1316              		.section	.text.chThdResumeI,"ax",%progbits
 1317              		.align	1
 1318              		.p2align 4,,15
 1319              		.global	chThdResumeI
 1320              		.syntax unified
 1321              		.thumb
 1322              		.thumb_func
 1323              		.fpu fpv4-sp-d16
 1324              		.type	chThdResumeI, %function
 1325              	chThdResumeI:
 1326              	.LFB244:
 1327              		.loc 1 567 0
 1328              		.cfi_startproc
 1329              		@ args = 0, pretend = 0, frame = 0
 1330              		@ frame_needed = 0, uses_anonymous_args = 0
 1331              		@ link register save eliminated.
 1332              	.LVL91:
 1333              		.loc 1 569 0
 1334 0000 0368     		ldr	r3, [r0]
 1335 0002 2BB1     		cbz	r3, .L64
 1336              	.LVL92:
 1337              	.LBB363:
 1338              		.loc 1 575 0
 1339 0004 0022     		movs	r2, #0
 1340 0006 0260     		str	r2, [r0]
 1341              		.loc 1 577 0
 1342 0008 1846     		mov	r0, r3
 1343              	.LVL93:
 1344              		.loc 1 576 0
 1345 000a 1962     		str	r1, [r3, #32]
 1346              		.loc 1 577 0
 1347 000c FFF7FEBF 		b	chSchReadyI
 1348              	.LVL94:
 1349              	.L64:
 1350              	.LBE363:
 1351              		.loc 1 579 0
 1352 0010 7047     		bx	lr
 1353              		.cfi_endproc
 1354              	.LFE244:
 1355              		.size	chThdResumeI, .-chThdResumeI
 1356 0012 00BF     		.section	.text.chThdResumeS,"ax",%progbits
 1357              		.align	1
 1358              		.p2align 4,,15
 1359              		.global	chThdResumeS
 1360              		.syntax unified
 1361              		.thumb
 1362              		.thumb_func
 1363              		.fpu fpv4-sp-d16
 1364              		.type	chThdResumeS, %function
 1365              	chThdResumeS:
 1366              	.LFB245:
 1367              		.loc 1 591 0
 1368              		.cfi_startproc
ARM GAS  /tmp/ccMwx8Ze.s 			page 25


 1369              		@ args = 0, pretend = 0, frame = 0
 1370              		@ frame_needed = 0, uses_anonymous_args = 0
 1371              		@ link register save eliminated.
 1372              	.LVL95:
 1373              		.loc 1 591 0
 1374 0000 0346     		mov	r3, r0
 1375              		.loc 1 593 0
 1376 0002 0068     		ldr	r0, [r0]
 1377              	.LVL96:
 1378 0004 18B1     		cbz	r0, .L66
 1379              	.LVL97:
 1380              	.LBB364:
 1381              		.loc 1 599 0
 1382 0006 0022     		movs	r2, #0
 1383 0008 1A60     		str	r2, [r3]
 1384              		.loc 1 600 0
 1385 000a FFF7FEBF 		b	chSchWakeupS
 1386              	.LVL98:
 1387              	.L66:
 1388              	.LBE364:
 1389              		.loc 1 602 0
 1390 000e 7047     		bx	lr
 1391              		.cfi_endproc
 1392              	.LFE245:
 1393              		.size	chThdResumeS, .-chThdResumeS
 1394              		.section	.text.chThdResume,"ax",%progbits
 1395              		.align	1
 1396              		.p2align 4,,15
 1397              		.global	chThdResume
 1398              		.syntax unified
 1399              		.thumb
 1400              		.thumb_func
 1401              		.fpu fpv4-sp-d16
 1402              		.type	chThdResume, %function
 1403              	chThdResume:
 1404              	.LFB246:
 1405              		.loc 1 614 0
 1406              		.cfi_startproc
 1407              		@ args = 0, pretend = 0, frame = 0
 1408              		@ frame_needed = 0, uses_anonymous_args = 0
 1409              	.LVL99:
 1410              	.LBB365:
 1411              	.LBB366:
 1412              	.LBB367:
 1413              	.LBB368:
 1414              		.loc 3 546 0
 1415 0000 2023     		movs	r3, #32
 1416              		.syntax unified
 1417              	@ 546 "ChibiOS_3.0.2/os/ext/CMSIS/include/core_cmFunc.h" 1
 1418 0002 83F31188 		MSR basepri, r3
 1419              	@ 0 "" 2
 1420              	.LVL100:
 1421              		.thumb
 1422              		.syntax unified
 1423              	.LBE368:
 1424              	.LBE367:
 1425              	.LBE366:
ARM GAS  /tmp/ccMwx8Ze.s 			page 26


 1426              	.LBE365:
 1427              	.LBB369:
 1428              	.LBB370:
 1429              		.loc 1 593 0
 1430 0006 0268     		ldr	r2, [r0]
 1431 0008 52B1     		cbz	r2, .L74
 1432 000a 0346     		mov	r3, r0
 1433              	.LVL101:
 1434              	.LBE370:
 1435              	.LBE369:
 1436              		.loc 1 614 0
 1437 000c 10B5     		push	{r4, lr}
 1438              		.cfi_def_cfa_offset 8
 1439              		.cfi_offset 4, -8
 1440              		.cfi_offset 14, -4
 1441              	.LBB373:
 1442              	.LBB372:
 1443              	.LBB371:
 1444              		.loc 1 599 0
 1445 000e 0024     		movs	r4, #0
 1446 0010 1C60     		str	r4, [r3]
 1447              		.loc 1 600 0
 1448 0012 1046     		mov	r0, r2
 1449              	.LVL102:
 1450 0014 FFF7FEFF 		bl	chSchWakeupS
 1451              	.LVL103:
 1452              	.LBE371:
 1453              	.LBE372:
 1454              	.LBE373:
 1455              	.LBB374:
 1456              	.LBB375:
 1457              	.LBB376:
 1458              	.LBB377:
 1459              	.LBB378:
 1460              		.loc 3 546 0
 1461 0018 0023     		movs	r3, #0
 1462              		.syntax unified
 1463              	@ 546 "ChibiOS_3.0.2/os/ext/CMSIS/include/core_cmFunc.h" 1
 1464 001a 83F31188 		MSR basepri, r3
 1465              	@ 0 "" 2
 1466              	.LVL104:
 1467              		.thumb
 1468              		.syntax unified
 1469              	.LBE378:
 1470              	.LBE377:
 1471              	.LBE376:
 1472              	.LBE375:
 1473              	.LBE374:
 1474              		.loc 1 619 0
 1475 001e 10BD     		pop	{r4, pc}
 1476              	.LVL105:
 1477              	.L74:
 1478              		.cfi_def_cfa_offset 0
 1479              		.cfi_restore 4
 1480              		.cfi_restore 14
 1481              	.LBB383:
 1482              	.LBB382:
ARM GAS  /tmp/ccMwx8Ze.s 			page 27


 1483              	.LBB381:
 1484              	.LBB380:
 1485              	.LBB379:
 1486              		.loc 3 546 0
 1487 0020 0023     		movs	r3, #0
 1488              		.syntax unified
 1489              	@ 546 "ChibiOS_3.0.2/os/ext/CMSIS/include/core_cmFunc.h" 1
 1490 0022 83F31188 		MSR basepri, r3
 1491              	@ 0 "" 2
 1492              	.LVL106:
 1493              		.thumb
 1494              		.syntax unified
 1495 0026 7047     		bx	lr
 1496              	.LBE379:
 1497              	.LBE380:
 1498              	.LBE381:
 1499              	.LBE382:
 1500              	.LBE383:
 1501              		.cfi_endproc
 1502              	.LFE246:
 1503              		.size	chThdResume, .-chThdResume
 1504              		.section	.text.chThdEnqueueTimeoutS,"ax",%progbits
 1505              		.align	1
 1506              		.p2align 4,,15
 1507              		.global	chThdEnqueueTimeoutS
 1508              		.syntax unified
 1509              		.thumb
 1510              		.thumb_func
 1511              		.fpu fpv4-sp-d16
 1512              		.type	chThdEnqueueTimeoutS, %function
 1513              	chThdEnqueueTimeoutS:
 1514              	.LFB247:
 1515              		.loc 1 644 0
 1516              		.cfi_startproc
 1517              		@ args = 0, pretend = 0, frame = 0
 1518              		@ frame_needed = 0, uses_anonymous_args = 0
 1519              		@ link register save eliminated.
 1520              	.LVL107:
 1521              		.loc 1 646 0
 1522 0000 69B1     		cbz	r1, .L78
 1523              		.loc 1 650 0
 1524 0002 084B     		ldr	r3, .L82
 1525              		.loc 1 644 0
 1526 0004 10B4     		push	{r4}
 1527              		.cfi_def_cfa_offset 4
 1528              		.cfi_offset 4, -4
 1529 0006 0246     		mov	r2, r0
 1530              	.LBB384:
 1531              	.LBB385:
 1532              		.loc 2 666 0
 1533 0008 4468     		ldr	r4, [r0, #4]
 1534              	.LBE385:
 1535              	.LBE384:
 1536              		.loc 1 650 0
 1537 000a 9B69     		ldr	r3, [r3, #24]
 1538              	.LVL108:
 1539              		.loc 1 652 0
ARM GAS  /tmp/ccMwx8Ze.s 			page 28


 1540 000c 0420     		movs	r0, #4
 1541              	.LVL109:
 1542              	.LBB387:
 1543              	.LBB386:
 1544              		.loc 2 666 0
 1545 000e C3E90024 		strd	r2, r4, [r3]
 1546              		.loc 2 667 0
 1547 0012 2360     		str	r3, [r4]
 1548              		.loc 2 668 0
 1549 0014 5360     		str	r3, [r2, #4]
 1550              	.LVL110:
 1551              	.LBE386:
 1552              	.LBE387:
 1553              		.loc 1 653 0
 1554 0016 5DF8044B 		ldr	r4, [sp], #4
 1555              		.cfi_restore 4
 1556              		.cfi_def_cfa_offset 0
 1557              		.loc 1 652 0
 1558 001a FFF7FEBF 		b	chSchGoSleepTimeoutS
 1559              	.LVL111:
 1560              	.L78:
 1561              		.loc 1 653 0
 1562 001e 4FF0FF30 		mov	r0, #-1
 1563              	.LVL112:
 1564 0022 7047     		bx	lr
 1565              	.L83:
 1566              		.align	2
 1567              	.L82:
 1568 0024 00000000 		.word	ch
 1569              		.cfi_endproc
 1570              	.LFE247:
 1571              		.size	chThdEnqueueTimeoutS, .-chThdEnqueueTimeoutS
 1572              		.section	.text.chThdDequeueNextI,"ax",%progbits
 1573              		.align	1
 1574              		.p2align 4,,15
 1575              		.global	chThdDequeueNextI
 1576              		.syntax unified
 1577              		.thumb
 1578              		.thumb_func
 1579              		.fpu fpv4-sp-d16
 1580              		.type	chThdDequeueNextI, %function
 1581              	chThdDequeueNextI:
 1582              	.LFB248:
 1583              		.loc 1 664 0
 1584              		.cfi_startproc
 1585              		@ args = 0, pretend = 0, frame = 0
 1586              		@ frame_needed = 0, uses_anonymous_args = 0
 1587              		@ link register save eliminated.
 1588              	.LVL113:
 1589              	.LBB388:
 1590              	.LBB389:
 1591              		.loc 2 631 0
 1592 0000 0268     		ldr	r2, [r0]
 1593              	.LVL114:
 1594              	.LBE389:
 1595              	.LBE388:
 1596              		.loc 1 666 0
ARM GAS  /tmp/ccMwx8Ze.s 			page 29


 1597 0002 9042     		cmp	r0, r2
 1598 0004 0AD0     		beq	.L84
 1599              		.loc 1 664 0
 1600 0006 10B4     		push	{r4}
 1601              		.cfi_def_cfa_offset 4
 1602              		.cfi_offset 4, -4
 1603              	.LBB390:
 1604              	.LBB391:
 1605              	.LBB392:
 1606              	.LBB393:
 1607              		.loc 2 674 0
 1608 0008 1468     		ldr	r4, [r2]
 1609 000a 0460     		str	r4, [r0]
 1610 000c 0346     		mov	r3, r0
 1611              	.LVL115:
 1612              		.loc 2 675 0
 1613 000e 6360     		str	r3, [r4, #4]
 1614              	.LVL116:
 1615              	.LBE393:
 1616              	.LBE392:
 1617              		.loc 4 322 0
 1618 0010 1046     		mov	r0, r2
 1619              	.LVL117:
 1620              		.loc 4 321 0
 1621 0012 1162     		str	r1, [r2, #32]
 1622              	.LBE391:
 1623              	.LBE390:
 1624              		.loc 1 669 0
 1625 0014 5DF8044B 		ldr	r4, [sp], #4
 1626              		.cfi_restore 4
 1627              		.cfi_def_cfa_offset 0
 1628              	.LBB395:
 1629              	.LBB394:
 1630              		.loc 4 322 0
 1631 0018 FFF7FEBF 		b	chSchReadyI
 1632              	.LVL118:
 1633              	.L84:
 1634 001c 7047     		bx	lr
 1635              	.LBE394:
 1636              	.LBE395:
 1637              		.cfi_endproc
 1638              	.LFE248:
 1639              		.size	chThdDequeueNextI, .-chThdDequeueNextI
 1640 001e 00BF     		.section	.text.chThdDequeueAllI,"ax",%progbits
 1641              		.align	1
 1642              		.p2align 4,,15
 1643              		.global	chThdDequeueAllI
 1644              		.syntax unified
 1645              		.thumb
 1646              		.thumb_func
 1647              		.fpu fpv4-sp-d16
 1648              		.type	chThdDequeueAllI, %function
 1649              	chThdDequeueAllI:
 1650              	.LFB249:
 1651              		.loc 1 679 0
 1652              		.cfi_startproc
 1653              		@ args = 0, pretend = 0, frame = 0
ARM GAS  /tmp/ccMwx8Ze.s 			page 30


 1654              		@ frame_needed = 0, uses_anonymous_args = 0
 1655              	.LVL119:
 1656 0000 38B5     		push	{r3, r4, r5, lr}
 1657              		.cfi_def_cfa_offset 16
 1658              		.cfi_offset 3, -16
 1659              		.cfi_offset 4, -12
 1660              		.cfi_offset 5, -8
 1661              		.cfi_offset 14, -4
 1662              	.LBB396:
 1663              	.LBB397:
 1664              		.loc 2 631 0
 1665 0002 0368     		ldr	r3, [r0]
 1666              	.LVL120:
 1667              	.LBE397:
 1668              	.LBE396:
 1669              		.loc 1 681 0
 1670 0004 9842     		cmp	r0, r3
 1671 0006 0BD0     		beq	.L89
 1672 0008 0446     		mov	r4, r0
 1673 000a 0D46     		mov	r5, r1
 1674              	.LVL121:
 1675              	.L91:
 1676              	.LBB399:
 1677              	.LBB400:
 1678              	.LBB401:
 1679              	.LBB402:
 1680              		.loc 2 674 0
 1681 000c 1A68     		ldr	r2, [r3]
 1682 000e 2260     		str	r2, [r4]
 1683              	.LBE402:
 1684              	.LBE401:
 1685              		.loc 4 322 0
 1686 0010 1846     		mov	r0, r3
 1687              	.LBB404:
 1688              	.LBB403:
 1689              		.loc 2 675 0
 1690 0012 5460     		str	r4, [r2, #4]
 1691              	.LVL122:
 1692              	.LBE403:
 1693              	.LBE404:
 1694              		.loc 4 321 0
 1695 0014 1D62     		str	r5, [r3, #32]
 1696              		.loc 4 322 0
 1697 0016 FFF7FEFF 		bl	chSchReadyI
 1698              	.LVL123:
 1699              	.LBE400:
 1700              	.LBE399:
 1701              	.LBB405:
 1702              	.LBB398:
 1703              		.loc 2 631 0
 1704 001a 2368     		ldr	r3, [r4]
 1705              	.LVL124:
 1706              	.LBE398:
 1707              	.LBE405:
 1708              		.loc 1 681 0
 1709 001c 9C42     		cmp	r4, r3
 1710 001e F5D1     		bne	.L91
ARM GAS  /tmp/ccMwx8Ze.s 			page 31


 1711              	.LVL125:
 1712              	.L89:
 1713              		.loc 1 684 0
 1714 0020 38BD     		pop	{r3, r4, r5, pc}
 1715              		.cfi_endproc
 1716              	.LFE249:
 1717              		.size	chThdDequeueAllI, .-chThdDequeueAllI
 1718 0022 00BF     		.text
 1719              	.Letext0:
 1720              		.file 7 "/usr/lib/gcc/arm-none-eabi/7.3.1/include/stddef.h"
 1721              		.file 8 "/usr/arm-none-eabi/include/machine/_default_types.h"
 1722              		.file 9 "/usr/arm-none-eabi/include/sys/_stdint.h"
 1723              		.file 10 "ChibiOS_3.0.2/os/rt/ports/ARMCMx/compilers/GCC/chtypes.h"
 1724              		.file 11 "ChibiOS_3.0.2/os/rt/include/chsystypes.h"
 1725              		.file 12 "ChibiOS_3.0.2/os/ext/CMSIS/include/core_cm4.h"
 1726              		.file 13 "ChibiOS_3.0.2/os/ext/CMSIS/ST/system_stm32f4xx.h"
 1727              		.file 14 "ChibiOS_3.0.2/os/rt/ports/ARMCMx/chcore.h"
 1728              		.file 15 "ChibiOS_3.0.2/os/rt/ports/ARMCMx/chcore_v7m.h"
 1729              		.file 16 "ChibiOS_3.0.2/os/hal/ports/STM32/LLD/TIMv1/stm32_tim.h"
 1730              		.file 17 "ChibiOS_3.0.2/os/rt/include/chtm.h"
 1731              		.file 18 "ChibiOS_3.0.2/os/rt/include/chsem.h"
 1732              		.file 19 "ChibiOS_3.0.2/os/rt/include/chmtx.h"
 1733              		.file 20 "ChibiOS_3.0.2/os/rt/include/chregistry.h"
 1734              		.file 21 "ChibiOS_3.0.2/os/rt/include/chsys.h"
 1735              		.file 22 "ChibiOS_3.0.2/os/rt/ports/ARMCMx/chcore_timer.h"
 1736              		.file 23 "ChibiOS_3.0.2/os/rt/include/chdynamic.h"