ARM GAS  /tmp/cc5W6e9l.s 			page 1


   1              		.cpu cortex-m4
   2              		.eabi_attribute 27, 1
   3              		.eabi_attribute 28, 1
   4              		.eabi_attribute 20, 1
   5              		.eabi_attribute 21, 1
   6              		.eabi_attribute 23, 3
   7              		.eabi_attribute 24, 1
   8              		.eabi_attribute 25, 1
   9              		.eabi_attribute 26, 1
  10              		.eabi_attribute 30, 2
  11              		.eabi_attribute 34, 1
  12              		.eabi_attribute 18, 4
  13              		.file	"chtm.c"
  14              		.text
  15              	.Ltext0:
  16              		.cfi_sections	.debug_frame
  17              		.section	.text.chTMObjectInit,"ax",%progbits
  18              		.align	1
  19              		.p2align 4,,15
  20              		.global	chTMObjectInit
  21              		.syntax unified
  22              		.thumb
  23              		.thumb_func
  24              		.fpu fpv4-sp-d16
  25              		.type	chTMObjectInit, %function
  26              	chTMObjectInit:
  27              	.LFB231:
  28              		.file 1 "ChibiOS_3.0.2/os/rt/src/chtm.c"
  29              		.loc 1 99 0
  30              		.cfi_startproc
  31              		@ args = 0, pretend = 0, frame = 0
  32              		@ frame_needed = 0, uses_anonymous_args = 0
  33              		@ link register save eliminated.
  34              	.LVL0:
  35              		.loc 1 105 0
  36 0000 0022     		movs	r2, #0
  37 0002 0023     		movs	r3, #0
  38 0004 C0E90423 		strd	r2, [r0, #16]
  39              		.loc 1 102 0
  40 0008 0023     		movs	r3, #0
  41 000a 4FF0FF32 		mov	r2, #-1
  42 000e C0E90023 		strd	r2, r3, [r0]
  43              		.loc 1 104 0
  44 0012 C0E90233 		strd	r3, r3, [r0, #8]
  45              		.loc 1 106 0
  46 0016 7047     		bx	lr
  47              		.cfi_endproc
  48              	.LFE231:
  49              		.size	chTMObjectInit, .-chTMObjectInit
  50              		.section	.text.chTMStartMeasurementX,"ax",%progbits
  51              		.align	1
  52              		.p2align 4,,15
  53              		.global	chTMStartMeasurementX
  54              		.syntax unified
  55              		.thumb
  56              		.thumb_func
  57              		.fpu fpv4-sp-d16
ARM GAS  /tmp/cc5W6e9l.s 			page 2


  58              		.type	chTMStartMeasurementX, %function
  59              	chTMStartMeasurementX:
  60              	.LFB232:
  61              		.loc 1 116 0
  62              		.cfi_startproc
  63              		@ args = 0, pretend = 0, frame = 0
  64              		@ frame_needed = 0, uses_anonymous_args = 0
  65              		@ link register save eliminated.
  66              	.LVL1:
  67              	.LBB14:
  68              	.LBB15:
  69              		.file 2 "ChibiOS_3.0.2/os/rt/ports/ARMCMx/chcore_v7m.h"
  70              		.loc 2 548 0
  71 0000 014B     		ldr	r3, .L4
  72 0002 5B68     		ldr	r3, [r3, #4]
  73              	.LBE15:
  74              	.LBE14:
  75              		.loc 1 118 0
  76 0004 8360     		str	r3, [r0, #8]
  77              		.loc 1 119 0
  78 0006 7047     		bx	lr
  79              	.L5:
  80              		.align	2
  81              	.L4:
  82 0008 001000E0 		.word	-536866816
  83              		.cfi_endproc
  84              	.LFE232:
  85              		.size	chTMStartMeasurementX, .-chTMStartMeasurementX
  86              		.section	.text.chTMStopMeasurementX,"ax",%progbits
  87              		.align	1
  88              		.p2align 4,,15
  89              		.global	chTMStopMeasurementX
  90              		.syntax unified
  91              		.thumb
  92              		.thumb_func
  93              		.fpu fpv4-sp-d16
  94              		.type	chTMStopMeasurementX, %function
  95              	chTMStopMeasurementX:
  96              	.LFB233:
  97              		.loc 1 129 0
  98              		.cfi_startproc
  99              		@ args = 0, pretend = 0, frame = 0
 100              		@ frame_needed = 0, uses_anonymous_args = 0
 101              		@ link register save eliminated.
 102              	.LVL2:
 103              	.LBB16:
 104              	.LBB17:
 105              		.loc 2 548 0
 106 0000 0F4B     		ldr	r3, .L11
 107              	.LBE17:
 108              	.LBE16:
 109              		.loc 1 131 0
 110 0002 104A     		ldr	r2, .L11+4
 111              	.LBB19:
 112              	.LBB18:
 113              		.loc 2 548 0
 114 0004 5B68     		ldr	r3, [r3, #4]
ARM GAS  /tmp/cc5W6e9l.s 			page 3


 115              	.LBE18:
 116              	.LBE19:
 117              	.LBB20:
 118              	.LBB21:
 119              		.loc 1 57 0
 120 0006 C168     		ldr	r1, [r0, #12]
 121              	.LBE21:
 122              	.LBE20:
 123              		.loc 1 129 0
 124 0008 F0B4     		push	{r4, r5, r6, r7}
 125              		.cfi_def_cfa_offset 16
 126              		.cfi_offset 4, -16
 127              		.cfi_offset 5, -12
 128              		.cfi_offset 6, -8
 129              		.cfi_offset 7, -4
 130              	.LBB25:
 131              	.LBB22:
 132              		.loc 1 58 0
 133 000a 8468     		ldr	r4, [r0, #8]
 134              	.LBE22:
 135              	.LBE25:
 136              		.loc 1 131 0
 137 000c 566F     		ldr	r6, [r2, #116]
 138              	.LVL3:
 139              	.LBB26:
 140              	.LBB23:
 141              		.loc 1 61 0
 142 000e 4268     		ldr	r2, [r0, #4]
 143              		.loc 1 58 0
 144 0010 1B1B     		subs	r3, r3, r4
 145              		.loc 1 59 0
 146 0012 D0E90445 		ldrd	r4, [r0, #16]
 147              		.loc 1 58 0
 148 0016 9B1B     		subs	r3, r3, r6
 149              		.loc 1 59 0
 150 0018 E618     		adds	r6, r4, r3
 151              	.LVL4:
 152 001a 45F10007 		adc	r7, r5, #0
 153              		.loc 1 57 0
 154 001e 0131     		adds	r1, r1, #1
 155              		.loc 1 61 0
 156 0020 9342     		cmp	r3, r2
 157              		.loc 1 58 0
 158 0022 C0E90231 		strd	r3, r1, [r0, #8]
 159              		.loc 1 59 0
 160 0026 C0E90467 		strd	r6, [r0, #16]
 161              		.loc 1 61 0
 162 002a 05D8     		bhi	.L10
 163              		.loc 1 64 0
 164 002c 0268     		ldr	r2, [r0]
 165 002e 9342     		cmp	r3, r2
 166              		.loc 1 65 0
 167 0030 38BF     		it	cc
 168 0032 0360     		strcc	r3, [r0]
 169              	.LVL5:
 170              	.LBE23:
 171              	.LBE26:
ARM GAS  /tmp/cc5W6e9l.s 			page 4


 172              		.loc 1 132 0
 173 0034 F0BC     		pop	{r4, r5, r6, r7}
 174              		.cfi_remember_state
 175              		.cfi_restore 7
 176              		.cfi_restore 6
 177              		.cfi_restore 5
 178              		.cfi_restore 4
 179              		.cfi_def_cfa_offset 0
 180 0036 7047     		bx	lr
 181              	.LVL6:
 182              	.L10:
 183              		.cfi_restore_state
 184              	.LBB27:
 185              	.LBB24:
 186              		.loc 1 62 0
 187 0038 4360     		str	r3, [r0, #4]
 188              	.LBE24:
 189              	.LBE27:
 190              		.loc 1 132 0
 191 003a F0BC     		pop	{r4, r5, r6, r7}
 192              		.cfi_restore 7
 193              		.cfi_restore 6
 194              		.cfi_restore 5
 195              		.cfi_restore 4
 196              		.cfi_def_cfa_offset 0
 197 003c 7047     		bx	lr
 198              	.L12:
 199 003e 00BF     		.align	2
 200              	.L11:
 201 0040 001000E0 		.word	-536866816
 202 0044 00000000 		.word	ch
 203              		.cfi_endproc
 204              	.LFE233:
 205              		.size	chTMStopMeasurementX, .-chTMStopMeasurementX
 206              		.section	.text._tm_init,"ax",%progbits
 207              		.align	1
 208              		.p2align 4,,15
 209              		.global	_tm_init
 210              		.syntax unified
 211              		.thumb
 212              		.thumb_func
 213              		.fpu fpv4-sp-d16
 214              		.type	_tm_init, %function
 215              	_tm_init:
 216              	.LFB230:
 217              		.loc 1 79 0
 218              		.cfi_startproc
 219              		@ args = 0, pretend = 0, frame = 24
 220              		@ frame_needed = 0, uses_anonymous_args = 0
 221 0000 10B5     		push	{r4, lr}
 222              		.cfi_def_cfa_offset 8
 223              		.cfi_offset 4, -8
 224              		.cfi_offset 14, -4
 225              		.loc 1 85 0
 226 0002 0C4C     		ldr	r4, .L15
 227              		.loc 1 79 0
 228 0004 86B0     		sub	sp, sp, #24
ARM GAS  /tmp/cc5W6e9l.s 			page 5


 229              		.cfi_def_cfa_offset 32
 230              		.loc 1 85 0
 231 0006 0023     		movs	r3, #0
 232              	.LBB28:
 233              	.LBB29:
 234              		.loc 1 101 0
 235 0008 4FF0FF31 		mov	r1, #-1
 236              		.loc 1 105 0
 237 000c 0022     		movs	r2, #0
 238              	.LBE29:
 239              	.LBE28:
 240              		.loc 1 87 0
 241 000e 6846     		mov	r0, sp
 242              		.loc 1 85 0
 243 0010 6367     		str	r3, [r4, #116]
 244              	.LVL7:
 245              	.LBB31:
 246              	.LBB30:
 247              		.loc 1 103 0
 248 0012 CDE90133 		strd	r3, r3, [sp, #4]
 249              		.loc 1 104 0
 250 0016 0393     		str	r3, [sp, #12]
 251              		.loc 1 105 0
 252 0018 0023     		movs	r3, #0
 253 001a CDE90423 		strd	r2, [sp, #16]
 254              	.LVL8:
 255              		.loc 1 101 0
 256 001e 0091     		str	r1, [sp]
 257              	.LBE30:
 258              	.LBE31:
 259              		.loc 1 87 0
 260 0020 FFF7FEFF 		bl	chTMStartMeasurementX
 261              	.LVL9:
 262              		.loc 1 88 0
 263 0024 6846     		mov	r0, sp
 264 0026 FFF7FEFF 		bl	chTMStopMeasurementX
 265              	.LVL10:
 266              		.loc 1 89 0
 267 002a 029B     		ldr	r3, [sp, #8]
 268 002c 6367     		str	r3, [r4, #116]
 269              		.loc 1 90 0
 270 002e 06B0     		add	sp, sp, #24
 271              		.cfi_def_cfa_offset 8
 272              		@ sp needed
 273 0030 10BD     		pop	{r4, pc}
 274              	.L16:
 275 0032 00BF     		.align	2
 276              	.L15:
 277 0034 00000000 		.word	ch
 278              		.cfi_endproc
 279              	.LFE230:
 280              		.size	_tm_init, .-_tm_init
 281              		.section	.text.chTMChainMeasurementToX,"ax",%progbits
 282              		.align	1
 283              		.p2align 4,,15
 284              		.global	chTMChainMeasurementToX
 285              		.syntax unified
ARM GAS  /tmp/cc5W6e9l.s 			page 6


 286              		.thumb
 287              		.thumb_func
 288              		.fpu fpv4-sp-d16
 289              		.type	chTMChainMeasurementToX, %function
 290              	chTMChainMeasurementToX:
 291              	.LFB234:
 292              		.loc 1 147 0
 293              		.cfi_startproc
 294              		@ args = 0, pretend = 0, frame = 0
 295              		@ frame_needed = 0, uses_anonymous_args = 0
 296              		@ link register save eliminated.
 297              	.LVL11:
 298              	.LBB32:
 299              	.LBB33:
 300              		.loc 2 548 0
 301 0000 0E4B     		ldr	r3, .L22
 302              	.LBE33:
 303              	.LBE32:
 304              	.LBB35:
 305              	.LBB36:
 306              		.loc 1 61 0
 307 0002 4268     		ldr	r2, [r0, #4]
 308              	.LBE36:
 309              	.LBE35:
 310              	.LBB39:
 311              	.LBB34:
 312              		.loc 2 548 0
 313 0004 5B68     		ldr	r3, [r3, #4]
 314              	.LBE34:
 315              	.LBE39:
 316              		.loc 1 147 0
 317 0006 F0B4     		push	{r4, r5, r6, r7}
 318              		.cfi_def_cfa_offset 16
 319              		.cfi_offset 4, -16
 320              		.cfi_offset 5, -12
 321              		.cfi_offset 6, -8
 322              		.cfi_offset 7, -4
 323              		.loc 1 150 0
 324 0008 8B60     		str	r3, [r1, #8]
 325              	.LVL12:
 326              	.LBB40:
 327              	.LBB37:
 328              		.loc 1 57 0
 329 000a D0E90261 		ldrd	r6, r1, [r0, #8]
 330              	.LVL13:
 331              		.loc 1 59 0
 332 000e D0E90445 		ldrd	r4, [r0, #16]
 333              		.loc 1 58 0
 334 0012 9B1B     		subs	r3, r3, r6
 335              	.LVL14:
 336              		.loc 1 59 0
 337 0014 E618     		adds	r6, r4, r3
 338 0016 45F10007 		adc	r7, r5, #0
 339              		.loc 1 57 0
 340 001a 0131     		adds	r1, r1, #1
 341              		.loc 1 61 0
 342 001c 9342     		cmp	r3, r2
ARM GAS  /tmp/cc5W6e9l.s 			page 7


 343              		.loc 1 58 0
 344 001e C0E90231 		strd	r3, r1, [r0, #8]
 345              	.LVL15:
 346              		.loc 1 59 0
 347 0022 C0E90467 		strd	r6, [r0, #16]
 348              		.loc 1 61 0
 349 0026 05D8     		bhi	.L21
 350              		.loc 1 64 0
 351 0028 0268     		ldr	r2, [r0]
 352 002a 9342     		cmp	r3, r2
 353              		.loc 1 65 0
 354 002c 38BF     		it	cc
 355 002e 0360     		strcc	r3, [r0]
 356              	.LVL16:
 357              	.LBE37:
 358              	.LBE40:
 359              		.loc 1 154 0
 360 0030 F0BC     		pop	{r4, r5, r6, r7}
 361              		.cfi_remember_state
 362              		.cfi_restore 7
 363              		.cfi_restore 6
 364              		.cfi_restore 5
 365              		.cfi_restore 4
 366              		.cfi_def_cfa_offset 0
 367 0032 7047     		bx	lr
 368              	.LVL17:
 369              	.L21:
 370              		.cfi_restore_state
 371              	.LBB41:
 372              	.LBB38:
 373              		.loc 1 62 0
 374 0034 4360     		str	r3, [r0, #4]
 375              	.LBE38:
 376              	.LBE41:
 377              		.loc 1 154 0
 378 0036 F0BC     		pop	{r4, r5, r6, r7}
 379              		.cfi_restore 7
 380              		.cfi_restore 6
 381              		.cfi_restore 5
 382              		.cfi_restore 4
 383              		.cfi_def_cfa_offset 0
 384 0038 7047     		bx	lr
 385              	.L23:
 386 003a 00BF     		.align	2
 387              	.L22:
 388 003c 001000E0 		.word	-536866816
 389              		.cfi_endproc
 390              	.LFE234:
 391              		.size	chTMChainMeasurementToX, .-chTMChainMeasurementToX
 392              		.text
 393              	.Letext0:
 394              		.file 3 "/usr/arm-none-eabi/include/machine/_default_types.h"
 395              		.file 4 "/usr/arm-none-eabi/include/sys/_stdint.h"
 396              		.file 5 "ChibiOS_3.0.2/os/rt/ports/ARMCMx/compilers/GCC/chtypes.h"
 397              		.file 6 "ChibiOS_3.0.2/os/rt/include/chsystypes.h"
 398              		.file 7 "ChibiOS_3.0.2/os/rt/include/chschd.h"
 399              		.file 8 "ChibiOS_3.0.2/os/ext/CMSIS/include/core_cm4.h"
ARM GAS  /tmp/cc5W6e9l.s 			page 8


 400              		.file 9 "ChibiOS_3.0.2/os/ext/CMSIS/ST/system_stm32f4xx.h"
 401              		.file 10 "ChibiOS_3.0.2/os/rt/ports/ARMCMx/chcore.h"
 402              		.file 11 "ChibiOS_3.0.2/os/rt/include/chtm.h"
 403              		.file 12 "ChibiOS_3.0.2/os/rt/include/chsem.h"
 404              		.file 13 "ChibiOS_3.0.2/os/rt/include/chmtx.h"
 405              		.file 14 "ChibiOS_3.0.2/os/rt/include/chregistry.h"