ARM GAS  /tmp/cctlqmh5.s 			page 1


   1              		.cpu cortex-m4
   2              		.eabi_attribute 27, 1
   3              		.eabi_attribute 28, 1
   4              		.eabi_attribute 20, 1
   5              		.eabi_attribute 21, 1
   6              		.eabi_attribute 23, 3
   7              		.eabi_attribute 24, 1
   8              		.eabi_attribute 25, 1
   9              		.eabi_attribute 26, 1
  10              		.eabi_attribute 30, 2
  11              		.eabi_attribute 34, 1
  12              		.eabi_attribute 18, 4
  13              		.file	"chvt.c"
  14              		.text
  15              	.Ltext0:
  16              		.cfi_sections	.debug_frame
  17              		.section	.text._vt_init,"ax",%progbits
  18              		.align	1
  19              		.p2align 4,,15
  20              		.global	_vt_init
  21              		.syntax unified
  22              		.thumb
  23              		.thumb_func
  24              		.fpu fpv4-sp-d16
  25              		.type	_vt_init, %function
  26              	_vt_init:
  27              	.LFB229:
  28              		.file 1 "ChibiOS_3.0.2/os/rt/src/chvt.c"
  29              		.loc 1 61 0
  30              		.cfi_startproc
  31              		@ args = 0, pretend = 0, frame = 0
  32              		@ frame_needed = 0, uses_anonymous_args = 0
  33              		@ link register save eliminated.
  34              		.loc 1 63 0
  35 0000 054B     		ldr	r3, .L3
  36              		.loc 1 65 0
  37 0002 4FF0FF30 		mov	r0, #-1
  38              		.loc 1 69 0
  39 0006 0021     		movs	r1, #0
  40              		.loc 1 63 0
  41 0008 03F11C02 		add	r2, r3, #28
  42              		.loc 1 69 0
  43 000c C3E90901 		strd	r0, r1, [r3, #36]
  44              		.loc 1 64 0
  45 0010 C3E90722 		strd	r2, r2, [r3, #28]
  46              		.loc 1 71 0
  47 0014 7047     		bx	lr
  48              	.L4:
  49 0016 00BF     		.align	2
  50              	.L3:
  51 0018 00000000 		.word	ch
  52              		.cfi_endproc
  53              	.LFE229:
  54              		.size	_vt_init, .-_vt_init
  55              		.section	.text.chVTDoSetI,"ax",%progbits
  56              		.align	1
  57              		.p2align 4,,15
ARM GAS  /tmp/cctlqmh5.s 			page 2


  58              		.global	chVTDoSetI
  59              		.syntax unified
  60              		.thumb
  61              		.thumb_func
  62              		.fpu fpv4-sp-d16
  63              		.type	chVTDoSetI, %function
  64              	chVTDoSetI:
  65              	.LFB230:
  66              		.loc 1 96 0
  67              		.cfi_startproc
  68              		@ args = 0, pretend = 0, frame = 0
  69              		@ frame_needed = 0, uses_anonymous_args = 0
  70              	.LVL0:
  71 0000 F8B5     		push	{r3, r4, r5, r6, r7, lr}
  72              		.cfi_def_cfa_offset 24
  73              		.cfi_offset 3, -24
  74              		.cfi_offset 4, -20
  75              		.cfi_offset 5, -16
  76              		.cfi_offset 6, -12
  77              		.cfi_offset 7, -8
  78              		.cfi_offset 14, -4
  79              	.LBB27:
  80              		.loc 1 117 0
  81 0002 1C4F     		ldr	r7, .L14
  82 0004 3D46     		mov	r5, r7
  83 0006 0229     		cmp	r1, #2
  84 0008 55F81C4F 		ldr	r4, [r5, #28]!
  85              	.LBE27:
  86              		.loc 1 103 0
  87 000c 0361     		str	r3, [r0, #16]
  88              	.LBB42:
  89              	.LBB28:
  90              	.LBB29:
  91              	.LBB30:
  92              	.LBB31:
  93              		.file 2 "ChibiOS_3.0.2/os/hal/ports/STM32/LLD/TIMv1/st_lld.h"
  94              		.loc 2 129 0
  95 000e 4FF08043 		mov	r3, #1073741824
  96              	.LVL1:
  97 0012 38BF     		it	cc
  98 0014 0221     		movcc	r1, #2
  99              	.LVL2:
 100              	.LBE31:
 101              	.LBE30:
 102              	.LBE29:
 103              	.LBE28:
 104              		.loc 1 117 0
 105 0016 AC42     		cmp	r4, r5
 106              	.LBE42:
 107              		.loc 1 96 0
 108 0018 0646     		mov	r6, r0
 109              		.loc 1 104 0
 110 001a C260     		str	r2, [r0, #12]
 111              	.LBB43:
 112              	.LBB35:
 113              	.LBB34:
 114              	.LBB33:
ARM GAS  /tmp/cctlqmh5.s 			page 3


 115              	.LBB32:
 116              		.loc 2 129 0
 117 001c 586A     		ldr	r0, [r3, #36]
 118              	.LVL3:
 119              	.LBE32:
 120              	.LBE33:
 121              	.LBE34:
 122              	.LBE35:
 123              		.loc 1 117 0
 124 001e 1ED0     		beq	.L12
 125              		.loc 1 136 0
 126 0020 BD6A     		ldr	r5, [r7, #40]
 127              		.loc 1 137 0
 128 0022 A368     		ldr	r3, [r4, #8]
 129              		.loc 1 136 0
 130 0024 0844     		add	r0, r0, r1
 131 0026 451B     		subs	r5, r0, r5
 132              	.LVL4:
 133              		.loc 1 137 0
 134 0028 AB42     		cmp	r3, r5
 135 002a 13D8     		bhi	.L13
 136              	.LVL5:
 137              	.L7:
 138              	.LBE43:
 139              		.loc 1 151 0
 140 002c 9D42     		cmp	r5, r3
 141 002e 04D9     		bls	.L8
 142              	.LVL6:
 143              	.L9:
 144              		.loc 1 153 0
 145 0030 2468     		ldr	r4, [r4]
 146              	.LVL7:
 147              		.loc 1 152 0
 148 0032 ED1A     		subs	r5, r5, r3
 149              	.LVL8:
 150              		.loc 1 151 0
 151 0034 A368     		ldr	r3, [r4, #8]
 152 0036 AB42     		cmp	r3, r5
 153 0038 FAD3     		bcc	.L9
 154              	.LVL9:
 155              	.L8:
 156              		.loc 1 158 0
 157 003a 6368     		ldr	r3, [r4, #4]
 158 003c C6E90043 		strd	r4, r3, [r6]
 159              		.loc 1 159 0
 160 0040 1E60     		str	r6, [r3]
 161              		.loc 1 160 0
 162 0042 6660     		str	r6, [r4, #4]
 163              		.loc 1 161 0
 164 0044 B560     		str	r5, [r6, #8]
 165              		.loc 1 165 0
 166 0046 A368     		ldr	r3, [r4, #8]
 167              		.loc 1 166 0
 168 0048 4FF0FF32 		mov	r2, #-1
 169              		.loc 1 165 0
 170 004c 5D1B     		subs	r5, r3, r5
 171              	.LVL10:
ARM GAS  /tmp/cctlqmh5.s 			page 4


 172 004e A560     		str	r5, [r4, #8]
 173              	.LVL11:
 174              		.loc 1 166 0
 175 0050 7A62     		str	r2, [r7, #36]
 176              		.loc 1 167 0
 177 0052 F8BD     		pop	{r3, r4, r5, r6, r7, pc}
 178              	.LVL12:
 179              	.L13:
 180              	.LBB44:
 181              	.LBB36:
 182              	.LBB37:
 183              		.file 3 "ChibiOS_3.0.2/os/rt/ports/ARMCMx/chcore_timer.h"
 184              		.loc 3 95 0
 185 0054 FFF7FEFF 		bl	stSetAlarm
 186              	.LVL13:
 187 0058 FC69     		ldr	r4, [r7, #28]
 188 005a A368     		ldr	r3, [r4, #8]
 189 005c E6E7     		b	.L7
 190              	.LVL14:
 191              	.L12:
 192              	.LBE37:
 193              	.LBE36:
 194              		.loc 1 121 0
 195 005e B862     		str	r0, [r7, #40]
 196              		.loc 1 123 0
 197 0060 C7E90766 		strd	r6, r6, [r7, #28]
 198              	.LBB38:
 199              	.LBB39:
 200              		.loc 3 73 0
 201 0064 0844     		add	r0, r0, r1
 202              	.LBE39:
 203              	.LBE38:
 204              		.loc 1 125 0
 205 0066 C6E90044 		strd	r4, r4, [r6]
 206              		.loc 1 126 0
 207 006a B160     		str	r1, [r6, #8]
 208              	.LVL15:
 209              	.LBE44:
 210              		.loc 1 167 0
 211 006c BDE8F840 		pop	{r3, r4, r5, r6, r7, lr}
 212              		.cfi_restore 14
 213              		.cfi_restore 7
 214              		.cfi_restore 6
 215              		.cfi_restore 5
 216              		.cfi_restore 4
 217              		.cfi_restore 3
 218              		.cfi_def_cfa_offset 0
 219              	.LVL16:
 220              	.LBB45:
 221              	.LBB41:
 222              	.LBB40:
 223              		.loc 3 73 0
 224 0070 FFF7FEBF 		b	stStartAlarm
 225              	.LVL17:
 226              	.L15:
 227              		.align	2
 228              	.L14:
ARM GAS  /tmp/cctlqmh5.s 			page 5


 229 0074 00000000 		.word	ch
 230              	.LBE40:
 231              	.LBE41:
 232              	.LBE45:
 233              		.cfi_endproc
 234              	.LFE230:
 235              		.size	chVTDoSetI, .-chVTDoSetI
 236              		.section	.text.chVTDoResetI,"ax",%progbits
 237              		.align	1
 238              		.p2align 4,,15
 239              		.global	chVTDoResetI
 240              		.syntax unified
 241              		.thumb
 242              		.thumb_func
 243              		.fpu fpv4-sp-d16
 244              		.type	chVTDoResetI, %function
 245              	chVTDoResetI:
 246              	.LFB231:
 247              		.loc 1 177 0
 248              		.cfi_startproc
 249              		@ args = 0, pretend = 0, frame = 0
 250              		@ frame_needed = 0, uses_anonymous_args = 0
 251              		@ link register save eliminated.
 252              	.LVL18:
 253              		.loc 1 201 0
 254 0000 1B4B     		ldr	r3, .L24
 255 0002 DA69     		ldr	r2, [r3, #28]
 256 0004 8242     		cmp	r2, r0
 257              		.loc 1 177 0
 258 0006 10B4     		push	{r4}
 259              		.cfi_def_cfa_offset 4
 260              		.cfi_offset 4, -4
 261              		.loc 1 201 0
 262 0008 10D0     		beq	.L17
 263              		.loc 1 203 0
 264 000a D0E90021 		ldrd	r2, r1, [r0]
 265 000e 0A60     		str	r2, [r1]
 266              		.loc 1 204 0
 267 0010 0268     		ldr	r2, [r0]
 268              		.loc 1 208 0
 269 0012 1C33     		adds	r3, r3, #28
 270              		.loc 1 205 0
 271 0014 0024     		movs	r4, #0
 272              		.loc 1 208 0
 273 0016 9A42     		cmp	r2, r3
 274              		.loc 1 204 0
 275 0018 5160     		str	r1, [r2, #4]
 276              		.loc 1 205 0
 277 001a C460     		str	r4, [r0, #12]
 278              		.loc 1 208 0
 279 001c 03D0     		beq	.L16
 280              		.loc 1 209 0
 281 001e 8168     		ldr	r1, [r0, #8]
 282 0020 9368     		ldr	r3, [r2, #8]
 283 0022 0B44     		add	r3, r3, r1
 284 0024 9360     		str	r3, [r2, #8]
 285              	.LVL19:
ARM GAS  /tmp/cctlqmh5.s 			page 6


 286              	.L16:
 287              		.loc 1 255 0
 288 0026 5DF8044B 		ldr	r4, [sp], #4
 289              		.cfi_remember_state
 290              		.cfi_restore 4
 291              		.cfi_def_cfa_offset 0
 292 002a 7047     		bx	lr
 293              	.LVL20:
 294              	.L17:
 295              		.cfi_restore_state
 296              		.loc 1 215 0
 297 002c 1846     		mov	r0, r3
 298              	.LVL21:
 299 002e 1168     		ldr	r1, [r2]
 300 0030 40F81C1F 		str	r1, [r0, #28]!
 301              		.loc 1 217 0
 302 0034 0024     		movs	r4, #0
 303              		.loc 1 220 0
 304 0036 8142     		cmp	r1, r0
 305              		.loc 1 216 0
 306 0038 4860     		str	r0, [r1, #4]
 307              		.loc 1 217 0
 308 003a D460     		str	r4, [r2, #12]
 309              		.loc 1 220 0
 310 003c 13D0     		beq	.L23
 311              		.loc 1 227 0
 312 003e 9468     		ldr	r4, [r2, #8]
 313 0040 8868     		ldr	r0, [r1, #8]
 314              		.loc 1 236 0
 315 0042 9A6A     		ldr	r2, [r3, #40]
 316              		.loc 1 227 0
 317 0044 0444     		add	r4, r4, r0
 318              	.LBB46:
 319              	.LBB47:
 320              	.LBB48:
 321              	.LBB49:
 322              		.loc 2 129 0
 323 0046 4FF08040 		mov	r0, #1073741824
 324              	.LBE49:
 325              	.LBE48:
 326              	.LBE47:
 327              	.LBE46:
 328              		.loc 1 227 0
 329 004a 8C60     		str	r4, [r1, #8]
 330              	.LBB53:
 331              	.LBB52:
 332              	.LBB51:
 333              	.LBB50:
 334              		.loc 2 129 0
 335 004c 406A     		ldr	r0, [r0, #36]
 336              	.LBE50:
 337              	.LBE51:
 338              	.LBE52:
 339              	.LBE53:
 340              		.loc 1 236 0
 341 004e 821A     		subs	r2, r0, r2
 342              	.LVL22:
ARM GAS  /tmp/cctlqmh5.s 			page 7


 343              		.loc 1 240 0
 344 0050 9442     		cmp	r4, r2
 345 0052 E8D9     		bls	.L16
 346              		.loc 1 245 0
 347 0054 A31A     		subs	r3, r4, r2
 348              	.LVL23:
 349              	.LBB54:
 350              	.LBB55:
 351              		.loc 3 95 0
 352 0056 022B     		cmp	r3, #2
 353 0058 2CBF     		ite	cs
 354 005a C018     		addcs	r0, r0, r3
 355 005c 0230     		addcc	r0, r0, #2
 356              	.LVL24:
 357              	.LBE55:
 358              	.LBE54:
 359              		.loc 1 255 0
 360 005e 5DF8044B 		ldr	r4, [sp], #4
 361              		.cfi_remember_state
 362              		.cfi_restore 4
 363              		.cfi_def_cfa_offset 0
 364              	.LBB57:
 365              	.LBB56:
 366              		.loc 3 95 0
 367 0062 FFF7FEBF 		b	stSetAlarm
 368              	.LVL25:
 369              	.L23:
 370              		.cfi_restore_state
 371              	.LBE56:
 372              	.LBE57:
 373              		.loc 1 255 0
 374 0066 5DF8044B 		ldr	r4, [sp], #4
 375              		.cfi_restore 4
 376              		.cfi_def_cfa_offset 0
 377              	.LBB58:
 378              	.LBB59:
 379              		.loc 3 83 0
 380 006a FFF7FEBF 		b	stStopAlarm
 381              	.LVL26:
 382              	.L25:
 383 006e 00BF     		.align	2
 384              	.L24:
 385 0070 00000000 		.word	ch
 386              	.LBE59:
 387              	.LBE58:
 388              		.cfi_endproc
 389              	.LFE231:
 390              		.size	chVTDoResetI, .-chVTDoResetI
 391              		.text
 392              	.Letext0:
 393              		.file 4 "/usr/arm-none-eabi/include/machine/_default_types.h"
 394              		.file 5 "/usr/arm-none-eabi/include/sys/_stdint.h"
 395              		.file 6 "ChibiOS_3.0.2/os/rt/ports/ARMCMx/compilers/GCC/chtypes.h"
 396              		.file 7 "ChibiOS_3.0.2/os/rt/include/chsystypes.h"
 397              		.file 8 "ChibiOS_3.0.2/os/rt/include/chschd.h"
 398              		.file 9 "ChibiOS_3.0.2/os/ext/CMSIS/include/core_cm4.h"
 399              		.file 10 "ChibiOS_3.0.2/os/ext/CMSIS/ST/system_stm32f4xx.h"
ARM GAS  /tmp/cctlqmh5.s 			page 8


 400              		.file 11 "ChibiOS_3.0.2/os/rt/ports/ARMCMx/chcore.h"
 401              		.file 12 "ChibiOS_3.0.2/os/rt/ports/ARMCMx/chcore_v7m.h"
 402              		.file 13 "ChibiOS_3.0.2/os/hal/ports/STM32/LLD/TIMv1/stm32_tim.h"
 403              		.file 14 "ChibiOS_3.0.2/os/rt/include/chtm.h"
 404              		.file 15 "ChibiOS_3.0.2/os/rt/include/chsem.h"
 405              		.file 16 "ChibiOS_3.0.2/os/rt/include/chmtx.h"
 406              		.file 17 "ChibiOS_3.0.2/os/rt/include/chregistry.h"
 407              		.file 18 "ChibiOS_3.0.2/os/rt/include/chvt.h"
 408              		.file 19 "ChibiOS_3.0.2/os/hal/include/st.h"