ARM GAS  /tmp/cc99C1lL.s 			page 1


   1              		.cpu cortex-m4
   2              		.eabi_attribute 27, 1
   3              		.eabi_attribute 28, 1
   4              		.eabi_attribute 20, 1
   5              		.eabi_attribute 21, 1
   6              		.eabi_attribute 23, 3
   7              		.eabi_attribute 24, 1
   8              		.eabi_attribute 25, 1
   9              		.eabi_attribute 26, 1
  10              		.eabi_attribute 30, 2
  11              		.eabi_attribute 34, 1
  12              		.eabi_attribute 18, 4
  13              		.file	"comm_uart.c"
  14              		.text
  15              	.Ltext0:
  16              		.cfi_sections	.debug_frame
  17              		.section	.text.txend1,"ax",%progbits
  18              		.align	1
  19              		.p2align 4,,15
  20              		.syntax unified
  21              		.thumb
  22              		.thumb_func
  23              		.fpu fpv4-sp-d16
  24              		.type	txend1, %function
  25              	txend1:
  26              	.LFB260:
  27              		.file 1 "comm_uart.c"
  28              		.loc 1 61 0
  29              		.cfi_startproc
  30              		@ args = 0, pretend = 0, frame = 0
  31              		@ frame_needed = 0, uses_anonymous_args = 0
  32              		@ link register save eliminated.
  33              	.LVL0:
  34              		.loc 1 63 0
  35 0000 7047     		bx	lr
  36              		.cfi_endproc
  37              	.LFE260:
  38              		.size	txend1, .-txend1
  39 0002 00BF     		.section	.text.rxerr,"ax",%progbits
  40              		.align	1
  41              		.p2align 4,,15
  42              		.syntax unified
  43              		.thumb
  44              		.thumb_func
  45              		.fpu fpv4-sp-d16
  46              		.type	rxerr, %function
  47              	rxerr:
  48              	.LFB262:
  49              		.loc 1 76 0
  50              		.cfi_startproc
  51              		@ args = 0, pretend = 0, frame = 0
  52              		@ frame_needed = 0, uses_anonymous_args = 0
  53              		@ link register save eliminated.
  54              	.LVL1:
  55              		.loc 1 79 0
  56 0000 7047     		bx	lr
  57              		.cfi_endproc
ARM GAS  /tmp/cc99C1lL.s 			page 2


  58              	.LFE262:
  59              		.size	rxerr, .-rxerr
  60 0002 00BF     		.section	.text.timer_thread,"ax",%progbits
  61              		.align	1
  62              		.p2align 4,,15
  63              		.syntax unified
  64              		.thumb
  65              		.thumb_func
  66              		.fpu fpv4-sp-d16
  67              		.type	timer_thread, %function
  68              	timer_thread:
  69              	.LFB267:
  70              		.loc 1 185 0
  71              		.cfi_startproc
  72              		@ Volatile: function does not return.
  73              		@ args = 0, pretend = 0, frame = 0
  74              		@ frame_needed = 0, uses_anonymous_args = 0
  75              	.LVL2:
  76 0000 08B5     		push	{r3, lr}
  77              		.cfi_def_cfa_offset 8
  78              		.cfi_offset 3, -8
  79              		.cfi_offset 14, -4
  80              	.LBB8:
  81              	.LBB9:
  82              		.file 2 "ChibiOS_3.0.2/os/rt/include/chregistry.h"
  83              		.loc 2 135 0
  84 0002 054B     		ldr	r3, .L7
  85 0004 054A     		ldr	r2, .L7+4
  86 0006 9B69     		ldr	r3, [r3, #24]
  87 0008 9A61     		str	r2, [r3, #24]
  88              	.LVL3:
  89              	.L5:
  90              	.LBE9:
  91              	.LBE8:
  92              		.loc 1 190 0 discriminator 1
  93 000a FFF7FEFF 		bl	bldc_interface_uart_run_timer
  94              	.LVL4:
  95              		.loc 1 191 0 discriminator 1
  96 000e 0A20     		movs	r0, #10
  97 0010 FFF7FEFF 		bl	chThdSleep
  98              	.LVL5:
  99 0014 F9E7     		b	.L5
 100              	.L8:
 101 0016 00BF     		.align	2
 102              	.L7:
 103 0018 00000000 		.word	ch
 104 001c 00000000 		.word	.LC0
 105              		.cfi_endproc
 106              	.LFE267:
 107              		.size	timer_thread, .-timer_thread
 108              		.section	.text.packet_process_thread,"ax",%progbits
 109              		.align	1
 110              		.p2align 4,,15
 111              		.syntax unified
 112              		.thumb
 113              		.thumb_func
 114              		.fpu fpv4-sp-d16
ARM GAS  /tmp/cc99C1lL.s 			page 3


 115              		.type	packet_process_thread, %function
 116              	packet_process_thread:
 117              	.LFB265:
 118              		.loc 1 129 0
 119              		.cfi_startproc
 120              		@ Volatile: function does not return.
 121              		@ args = 0, pretend = 0, frame = 0
 122              		@ frame_needed = 0, uses_anonymous_args = 0
 123              	.LVL6:
 124              	.LBB10:
 125              	.LBB11:
 126              		.loc 2 135 0
 127 0000 0F4B     		ldr	r3, .L16
 128              	.LBE11:
 129              	.LBE10:
 130              		.loc 1 134 0
 131 0002 104A     		ldr	r2, .L16+4
 132              	.LBB14:
 133              	.LBB12:
 134              		.loc 2 135 0
 135 0004 9B69     		ldr	r3, [r3, #24]
 136 0006 1049     		ldr	r1, .L16+8
 137 0008 104C     		ldr	r4, .L16+12
 138 000a 114E     		ldr	r6, .L16+16
 139 000c 114D     		ldr	r5, .L16+20
 140              	.LBE12:
 141              	.LBE14:
 142              		.loc 1 129 0
 143 000e 80B5     		push	{r7, lr}
 144              		.cfi_def_cfa_offset 8
 145              		.cfi_offset 7, -8
 146              		.cfi_offset 14, -4
 147              	.LBB15:
 148              	.LBB13:
 149              		.loc 2 135 0
 150 0010 9961     		str	r1, [r3, #24]
 151              	.LVL7:
 152              	.LBE13:
 153              	.LBE15:
 154              		.loc 1 134 0
 155 0012 1360     		str	r3, [r2]
 156              		.loc 1 147 0
 157 0014 0027     		movs	r7, #0
 158              	.LVL8:
 159              	.L13:
 160              		.loc 1 137 0
 161 0016 0120     		movs	r0, #1
 162 0018 FFF7FEFF 		bl	chEvtWaitAny
 163              	.LVL9:
 164 001c 2368     		ldr	r3, [r4]
 165              	.L11:
 166              		.loc 1 143 0
 167 001e 2A68     		ldr	r2, [r5]
 168 0020 9A42     		cmp	r2, r3
 169              		.loc 1 144 0
 170 0022 03F10101 		add	r1, r3, #1
 171              		.loc 1 143 0
ARM GAS  /tmp/cc99C1lL.s 			page 4


 172 0026 F6D0     		beq	.L13
 173              		.loc 1 144 0
 174 0028 F05C     		ldrb	r0, [r6, r3]	@ zero_extendqisi2
 175 002a 2160     		str	r1, [r4]
 176 002c FFF7FEFF 		bl	bldc_interface_uart_process_byte
 177              	.LVL10:
 178              		.loc 1 146 0
 179 0030 2368     		ldr	r3, [r4]
 180 0032 B3F5806F 		cmp	r3, #1024
 181              		.loc 1 147 0
 182 0036 04BF     		itt	eq
 183 0038 2760     		streq	r7, [r4]
 184 003a 0023     		moveq	r3, #0
 185 003c EFE7     		b	.L11
 186              	.L17:
 187 003e 00BF     		.align	2
 188              	.L16:
 189 0040 00000000 		.word	ch
 190 0044 00000000 		.word	.LANCHOR0
 191 0048 00000000 		.word	.LC1
 192 004c 00000000 		.word	.LANCHOR1
 193 0050 00000000 		.word	.LANCHOR2
 194 0054 00000000 		.word	.LANCHOR3
 195              		.cfi_endproc
 196              	.LFE265:
 197              		.size	packet_process_thread, .-packet_process_thread
 198              		.section	.text.rxchar,"ax",%progbits
 199              		.align	1
 200              		.p2align 4,,15
 201              		.syntax unified
 202              		.thumb
 203              		.thumb_func
 204              		.fpu fpv4-sp-d16
 205              		.type	rxchar, %function
 206              	rxchar:
 207              	.LFB263:
 208              		.loc 1 85 0
 209              		.cfi_startproc
 210              		@ args = 0, pretend = 0, frame = 0
 211              		@ frame_needed = 0, uses_anonymous_args = 0
 212              		@ link register save eliminated.
 213              	.LVL11:
 214              		.loc 1 98 0
 215 0000 094B     		ldr	r3, .L21
 216 0002 1868     		ldr	r0, [r3]
 217              	.LVL12:
 218 0004 421C     		adds	r2, r0, #1
 219              		.loc 1 100 0
 220 0006 B2F5806F 		cmp	r2, #1024
 221              		.loc 1 85 0
 222 000a 10B4     		push	{r4}
 223              		.cfi_def_cfa_offset 4
 224              		.cfi_offset 4, -4
 225              		.loc 1 98 0
 226 000c 1A60     		str	r2, [r3]
 227              		.loc 1 101 0
 228 000e 08BF     		it	eq
ARM GAS  /tmp/cc99C1lL.s 			page 5


 229 0010 0022     		moveq	r2, #0
 230              		.loc 1 98 0
 231 0012 064C     		ldr	r4, .L21+4
 232              		.loc 1 101 0
 233 0014 08BF     		it	eq
 234 0016 1A60     		streq	r2, [r3]
 235              		.loc 1 104 0
 236 0018 054B     		ldr	r3, .L21+8
 237              		.loc 1 98 0
 238 001a 2154     		strb	r1, [r4, r0]
 239              		.loc 1 104 0
 240 001c 0121     		movs	r1, #1
 241              	.LVL13:
 242 001e 1868     		ldr	r0, [r3]
 243              		.loc 1 105 0
 244 0020 5DF8044B 		ldr	r4, [sp], #4
 245              		.cfi_restore 4
 246              		.cfi_def_cfa_offset 0
 247              		.loc 1 104 0
 248 0024 FFF7FEBF 		b	chEvtSignalI
 249              	.LVL14:
 250              	.L22:
 251              		.align	2
 252              	.L21:
 253 0028 00000000 		.word	.LANCHOR3
 254 002c 00000000 		.word	.LANCHOR2
 255 0030 00000000 		.word	.LANCHOR0
 256              		.cfi_endproc
 257              	.LFE263:
 258              		.size	rxchar, .-rxchar
 259              		.section	.text.send_packet,"ax",%progbits
 260              		.align	1
 261              		.p2align 4,,15
 262              		.syntax unified
 263              		.thumb
 264              		.thumb_func
 265              		.fpu fpv4-sp-d16
 266              		.type	send_packet, %function
 267              	send_packet:
 268              	.LFB266:
 269              		.loc 1 161 0
 270              		.cfi_startproc
 271              		@ args = 0, pretend = 0, frame = 0
 272              		@ frame_needed = 0, uses_anonymous_args = 0
 273              	.LVL15:
 274              		.loc 1 162 0
 275 0000 40F20523 		movw	r3, #517
 276 0004 9942     		cmp	r1, r3
 277 0006 18D8     		bhi	.L23
 278              		.loc 1 161 0
 279 0008 70B5     		push	{r4, r5, r6, lr}
 280              		.cfi_def_cfa_offset 16
 281              		.cfi_offset 4, -16
 282              		.cfi_offset 5, -12
 283              		.cfi_offset 6, -8
 284              		.cfi_offset 14, -4
 285              	.LBB18:
ARM GAS  /tmp/cc99C1lL.s 			page 6


 286              	.LBB19:
 287              		.loc 1 167 0
 288 000a 0C4D     		ldr	r5, .L32
 289 000c 6B78     		ldrb	r3, [r5, #1]	@ zero_extendqisi2
 290 000e 012B     		cmp	r3, #1
 291 0010 0646     		mov	r6, r0
 292 0012 0C46     		mov	r4, r1
 293 0014 05D1     		bne	.L25
 294              	.LVL16:
 295              	.L26:
 296              		.loc 1 168 0
 297 0016 0120     		movs	r0, #1
 298 0018 FFF7FEFF 		bl	chThdSleep
 299              	.LVL17:
 300              		.loc 1 167 0
 301 001c 6B78     		ldrb	r3, [r5, #1]	@ zero_extendqisi2
 302 001e 012B     		cmp	r3, #1
 303 0020 F9D0     		beq	.L26
 304              	.L25:
 305              		.loc 1 174 0
 306 0022 3146     		mov	r1, r6
 307 0024 2246     		mov	r2, r4
 308 0026 0648     		ldr	r0, .L32+4
 309 0028 FFF7FEFF 		bl	memcpy
 310              	.LVL18:
 311              		.loc 1 177 0
 312 002c 2146     		mov	r1, r4
 313 002e 044A     		ldr	r2, .L32+4
 314 0030 0248     		ldr	r0, .L32
 315              	.LBE19:
 316              	.LBE18:
 317              		.loc 1 178 0
 318 0032 BDE87040 		pop	{r4, r5, r6, lr}
 319              		.cfi_restore 14
 320              		.cfi_restore 6
 321              		.cfi_restore 5
 322              		.cfi_restore 4
 323              		.cfi_def_cfa_offset 0
 324              	.LVL19:
 325              	.LBB21:
 326              	.LBB20:
 327              		.loc 1 177 0
 328 0036 FFF7FEBF 		b	uartStartSend
 329              	.LVL20:
 330              	.L23:
 331 003a 7047     		bx	lr
 332              	.L33:
 333              		.align	2
 334              	.L32:
 335 003c 00000000 		.word	UARTD3
 336 0040 00000000 		.word	.LANCHOR4
 337              	.LBE20:
 338              	.LBE21:
 339              		.cfi_endproc
 340              	.LFE266:
 341              		.size	send_packet, .-send_packet
 342              		.section	.text.rxend,"ax",%progbits
ARM GAS  /tmp/cc99C1lL.s 			page 7


 343              		.align	1
 344              		.p2align 4,,15
 345              		.syntax unified
 346              		.thumb
 347              		.thumb_func
 348              		.fpu fpv4-sp-d16
 349              		.type	rxend, %function
 350              	rxend:
 351              	.LFB273:
 352              		.cfi_startproc
 353              		@ args = 0, pretend = 0, frame = 0
 354              		@ frame_needed = 0, uses_anonymous_args = 0
 355              		@ link register save eliminated.
 356 0000 7047     		bx	lr
 357              		.cfi_endproc
 358              	.LFE273:
 359              		.size	rxend, .-rxend
 360 0002 00BF     		.section	.text.txend2,"ax",%progbits
 361              		.align	1
 362              		.p2align 4,,15
 363              		.syntax unified
 364              		.thumb
 365              		.thumb_func
 366              		.fpu fpv4-sp-d16
 367              		.type	txend2, %function
 368              	txend2:
 369              	.LFB271:
 370              		.cfi_startproc
 371              		@ args = 0, pretend = 0, frame = 0
 372              		@ frame_needed = 0, uses_anonymous_args = 0
 373              		@ link register save eliminated.
 374 0000 7047     		bx	lr
 375              		.cfi_endproc
 376              	.LFE271:
 377              		.size	txend2, .-txend2
 378 0002 00BF     		.section	.text.comm_uart_init,"ax",%progbits
 379              		.align	1
 380              		.p2align 4,,15
 381              		.global	comm_uart_init
 382              		.syntax unified
 383              		.thumb
 384              		.thumb_func
 385              		.fpu fpv4-sp-d16
 386              		.type	comm_uart_init, %function
 387              	comm_uart_init:
 388              	.LFB268:
 389              		.loc 1 195 0
 390              		.cfi_startproc
 391              		@ args = 0, pretend = 0, frame = 0
 392              		@ frame_needed = 0, uses_anonymous_args = 0
 393              		.loc 1 195 0
 394 0000 10B5     		push	{r4, lr}
 395              		.cfi_def_cfa_offset 8
 396              		.cfi_offset 4, -8
 397              		.cfi_offset 14, -4
 398              		.loc 1 198 0
 399 0002 154C     		ldr	r4, .L38
ARM GAS  /tmp/cc99C1lL.s 			page 8


 400              		.loc 1 197 0
 401 0004 1549     		ldr	r1, .L38+4
 402 0006 1648     		ldr	r0, .L38+8
 403              		.loc 1 195 0
 404 0008 82B0     		sub	sp, sp, #8
 405              		.cfi_def_cfa_offset 16
 406              		.loc 1 197 0
 407 000a FFF7FEFF 		bl	uartStart
 408              	.LVL21:
 409              		.loc 1 198 0
 410 000e 2046     		mov	r0, r4
 411 0010 40F2BA32 		movw	r2, #954
 412 0014 4FF48061 		mov	r1, #1024
 413 0018 FFF7FEFF 		bl	_pal_lld_setgroupmode
 414              	.LVL22:
 415              		.loc 1 201 0
 416 001c 2046     		mov	r0, r4
 417 001e 40F2BA32 		movw	r2, #954
 418 0022 4FF40061 		mov	r1, #2048
 419 0026 FFF7FEFF 		bl	_pal_lld_setgroupmode
 420              	.LVL23:
 421              		.loc 1 209 0
 422 002a 0024     		movs	r4, #0
 423              		.loc 1 206 0
 424 002c 0D48     		ldr	r0, .L38+12
 425 002e FFF7FEFF 		bl	bldc_interface_uart_init
 426              	.LVL24:
 427              		.loc 1 209 0
 428 0032 0094     		str	r4, [sp]
 429 0034 0C4B     		ldr	r3, .L38+16
 430 0036 0D48     		ldr	r0, .L38+20
 431 0038 4022     		movs	r2, #64
 432 003a 41F25011 		movw	r1, #4432
 433 003e FFF7FEFF 		bl	chThdCreateStatic
 434              	.LVL25:
 435              		.loc 1 213 0
 436 0042 0094     		str	r4, [sp]
 437 0044 0A4B     		ldr	r3, .L38+24
 438 0046 0B48     		ldr	r0, .L38+28
 439 0048 4022     		movs	r2, #64
 440 004a 4FF45471 		mov	r1, #848
 441 004e FFF7FEFF 		bl	chThdCreateStatic
 442              	.LVL26:
 443              		.loc 1 215 0
 444 0052 02B0     		add	sp, sp, #8
 445              		.cfi_def_cfa_offset 8
 446              		@ sp needed
 447 0054 10BD     		pop	{r4, pc}
 448              	.L39:
 449 0056 00BF     		.align	2
 450              	.L38:
 451 0058 00040240 		.word	1073873920
 452 005c 00000000 		.word	.LANCHOR5
 453 0060 00000000 		.word	UARTD3
 454 0064 00000000 		.word	send_packet
 455 0068 00000000 		.word	packet_process_thread
 456 006c 00000000 		.word	packet_process_thread_wa
ARM GAS  /tmp/cc99C1lL.s 			page 9


 457 0070 00000000 		.word	timer_thread
 458 0074 00000000 		.word	.LANCHOR6
 459              		.cfi_endproc
 460              	.LFE268:
 461              		.size	comm_uart_init, .-comm_uart_init
 462              		.section	.bss.buffer.9160,"aw",%nobits
 463              		.align	2
 464              		.set	.LANCHOR4,. + 0
 465              		.type	buffer.9160, %object
 466              		.size	buffer.9160, 517
 467              	buffer.9160:
 468 0000 00000000 		.space	517
 468      00000000 
 468      00000000 
 468      00000000 
 468      00000000 
 469              		.section	.bss.packet_process_thread_wa,"aw",%nobits
 470              		.align	3
 471              		.type	packet_process_thread_wa, %object
 472              		.size	packet_process_thread_wa, 4432
 473              	packet_process_thread_wa:
 474 0000 00000000 		.space	4432
 474      00000000 
 474      00000000 
 474      00000000 
 474      00000000 
 475              		.section	.bss.process_tp,"aw",%nobits
 476              		.align	2
 477              		.set	.LANCHOR0,. + 0
 478              		.type	process_tp, %object
 479              		.size	process_tp, 4
 480              	process_tp:
 481 0000 00000000 		.space	4
 482              		.section	.bss.serial_rx_buffer,"aw",%nobits
 483              		.align	2
 484              		.set	.LANCHOR2,. + 0
 485              		.type	serial_rx_buffer, %object
 486              		.size	serial_rx_buffer, 1024
 487              	serial_rx_buffer:
 488 0000 00000000 		.space	1024
 488      00000000 
 488      00000000 
 488      00000000 
 488      00000000 
 489              		.section	.bss.serial_rx_read_pos,"aw",%nobits
 490              		.align	2
 491              		.set	.LANCHOR1,. + 0
 492              		.type	serial_rx_read_pos, %object
 493              		.size	serial_rx_read_pos, 4
 494              	serial_rx_read_pos:
 495 0000 00000000 		.space	4
 496              		.section	.bss.serial_rx_write_pos,"aw",%nobits
 497              		.align	2
 498              		.set	.LANCHOR3,. + 0
 499              		.type	serial_rx_write_pos, %object
 500              		.size	serial_rx_write_pos, 4
 501              	serial_rx_write_pos:
ARM GAS  /tmp/cc99C1lL.s 			page 10


 502 0000 00000000 		.space	4
 503              		.section	.bss.timer_thread_wa,"aw",%nobits
 504              		.align	3
 505              		.set	.LANCHOR6,. + 0
 506              		.type	timer_thread_wa, %object
 507              		.size	timer_thread_wa, 848
 508              	timer_thread_wa:
 509 0000 00000000 		.space	848
 509      00000000 
 509      00000000 
 509      00000000 
 509      00000000 
 510              		.section	.data.uart_cfg,"aw",%progbits
 511              		.align	2
 512              		.set	.LANCHOR5,. + 0
 513              		.type	uart_cfg, %object
 514              		.size	uart_cfg, 32
 515              	uart_cfg:
 516 0000 00000000 		.word	txend1
 517 0004 00000000 		.word	txend2
 518 0008 00000000 		.word	rxend
 519 000c 00000000 		.word	rxchar
 520 0010 00000000 		.word	rxerr
 521 0014 00C20100 		.word	115200
 522 0018 0000     		.short	0
 523 001a 0040     		.short	16384
 524 001c 0000     		.short	0
 525 001e 0000     		.space	2
 526              		.section	.rodata.packet_process_thread.str1.4,"aMS",%progbits,1
 527              		.align	2
 528              	.LC1:
 529 0000 636F6D6D 		.ascii	"comm_uart\000"
 529      5F756172 
 529      7400
 530              		.section	.rodata.timer_thread.str1.4,"aMS",%progbits,1
 531              		.align	2
 532              	.LC0:
 533 0000 7061636B 		.ascii	"packet timer\000"
 533      65742074 
 533      696D6572 
 533      00
 534              		.text
 535              	.Letext0:
 536              		.file 3 "/usr/lib/gcc/arm-none-eabi/7.3.1/include/stddef.h"
 537              		.file 4 "/usr/arm-none-eabi/include/machine/_default_types.h"
 538              		.file 5 "/usr/arm-none-eabi/include/sys/_stdint.h"
 539              		.file 6 "ChibiOS_3.0.2/os/rt/ports/ARMCMx/compilers/GCC/chtypes.h"
 540              		.file 7 "ChibiOS_3.0.2/os/rt/include/chsystypes.h"
 541              		.file 8 "ChibiOS_3.0.2/os/rt/include/chschd.h"
 542              		.file 9 "ChibiOS_3.0.2/os/ext/CMSIS/include/core_cm4.h"
 543              		.file 10 "ChibiOS_3.0.2/os/ext/CMSIS/ST/system_stm32f4xx.h"
 544              		.file 11 "ChibiOS_3.0.2/os/ext/CMSIS/ST/stm32f407xx.h"
 545              		.file 12 "ChibiOS_3.0.2/os/rt/ports/ARMCMx/chcore.h"
 546              		.file 13 "ChibiOS_3.0.2/os/rt/ports/ARMCMx/chcore_v7m.h"
 547              		.file 14 "ChibiOS_3.0.2/os/rt/include/chtm.h"
 548              		.file 15 "ChibiOS_3.0.2/os/rt/include/chsem.h"
 549              		.file 16 "ChibiOS_3.0.2/os/rt/include/chmtx.h"
ARM GAS  /tmp/cc99C1lL.s 			page 11


 550              		.file 17 "ChibiOS_3.0.2/os/rt/include/chqueues.h"
 551              		.file 18 "ChibiOS_3.0.2/os/hal/ports/STM32/STM32F4xx/stm32_dma.h"
 552              		.file 19 "ChibiOS_3.0.2/os/hal/ports/STM32/LLD/GPIOv2/pal_lld.h"
 553              		.file 20 "ChibiOS_3.0.2/os/hal/include/uart.h"
 554              		.file 21 "ChibiOS_3.0.2/os/hal/ports/STM32/LLD/USARTv1/uart_lld.h"
 555              		.file 22 "ChibiOS_3.0.2/os/hal/include/usb.h"
 556              		.file 23 "ChibiOS_3.0.2/os/hal/ports/STM32/LLD/OTGv1/usb_lld.h"
 557              		.file 24 "ChibiOS_3.0.2/os/hal/ports/STM32/LLD/OTGv1/stm32_otg.h"
 558              		.file 25 "/usr/arm-none-eabi/include/sys/lock.h"
 559              		.file 26 "/usr/arm-none-eabi/include/sys/_types.h"
 560              		.file 27 "/usr/arm-none-eabi/include/sys/reent.h"
 561              		.file 28 "bldc_interface_uart.h"
 562              		.file 29 "ChibiOS_3.0.2/os/rt/include/chthreads.h"
 563              		.file 30 "ChibiOS_3.0.2/os/rt/include/chevents.h"
 564              		.file 31 "<built-in>"