ARM GAS  /tmp/ccTAg9Zs.s 			page 1


   1              		.cpu cortex-m4
   2              		.eabi_attribute 27, 1
   3              		.eabi_attribute 28, 1
   4              		.eabi_attribute 20, 1
   5              		.eabi_attribute 21, 1
   6              		.eabi_attribute 23, 3
   7              		.eabi_attribute 24, 1
   8              		.eabi_attribute 25, 1
   9              		.eabi_attribute 26, 1
  10              		.eabi_attribute 30, 2
  11              		.eabi_attribute 34, 1
  12              		.eabi_attribute 18, 4
  13              		.file	"hal.c"
  14              		.text
  15              	.Ltext0:
  16              		.cfi_sections	.debug_frame
  17              		.section	.text.halInit,"ax",%progbits
  18              		.align	1
  19              		.p2align 4,,15
  20              		.global	halInit
  21              		.syntax unified
  22              		.thumb
  23              		.thumb_func
  24              		.fpu fpv4-sp-d16
  25              		.type	halInit, %function
  26              	halInit:
  27              	.LFB260:
  28              		.file 1 "ChibiOS_3.0.2/os/hal/src/hal.c"
  29              		.loc 1 56 0
  30              		.cfi_startproc
  31              		@ args = 0, pretend = 0, frame = 0
  32              		@ frame_needed = 0, uses_anonymous_args = 0
  33 0000 08B5     		push	{r3, lr}
  34              		.cfi_def_cfa_offset 8
  35              		.cfi_offset 3, -8
  36              		.cfi_offset 14, -4
  37              		.loc 1 62 0
  38 0002 FFF7FEFF 		bl	hal_lld_init
  39              	.LVL0:
  40              		.loc 1 65 0
  41 0006 0748     		ldr	r0, .L4
  42 0008 FFF7FEFF 		bl	_pal_lld_init
  43              	.LVL1:
  44              		.loc 1 107 0
  45 000c FFF7FEFF 		bl	uartInit
  46              	.LVL2:
  47              		.loc 1 110 0
  48 0010 FFF7FEFF 		bl	usbInit
  49              	.LVL3:
  50              		.loc 1 116 0
  51 0014 FFF7FEFF 		bl	sduInit
  52              	.LVL4:
  53              		.loc 1 130 0
  54 0018 FFF7FEFF 		bl	boardInit
  55              	.LVL5:
  56              		.loc 1 139 0
  57 001c BDE80840 		pop	{r3, lr}
ARM GAS  /tmp/ccTAg9Zs.s 			page 2


  58              		.cfi_restore 14
  59              		.cfi_restore 3
  60              		.cfi_def_cfa_offset 0
  61              		.loc 1 137 0
  62 0020 FFF7FEBF 		b	stInit
  63              	.LVL6:
  64              	.L5:
  65              		.align	2
  66              	.L4:
  67 0024 00000000 		.word	pal_default_config
  68              		.cfi_endproc
  69              	.LFE260:
  70              		.size	halInit, .-halInit
  71              		.text
  72              	.Letext0:
  73              		.file 2 "/usr/lib/gcc/arm-none-eabi/7.3.1/include/stddef.h"
  74              		.file 3 "/usr/arm-none-eabi/include/machine/_default_types.h"
  75              		.file 4 "/usr/arm-none-eabi/include/sys/_stdint.h"
  76              		.file 5 "ChibiOS_3.0.2/os/rt/ports/ARMCMx/compilers/GCC/chtypes.h"
  77              		.file 6 "ChibiOS_3.0.2/os/rt/include/chsystypes.h"
  78              		.file 7 "ChibiOS_3.0.2/os/rt/include/chschd.h"
  79              		.file 8 "ChibiOS_3.0.2/os/ext/CMSIS/include/core_cm4.h"
  80              		.file 9 "ChibiOS_3.0.2/os/ext/CMSIS/ST/system_stm32f4xx.h"
  81              		.file 10 "ChibiOS_3.0.2/os/ext/CMSIS/ST/stm32f407xx.h"
  82              		.file 11 "ChibiOS_3.0.2/os/rt/ports/ARMCMx/chcore.h"
  83              		.file 12 "ChibiOS_3.0.2/os/rt/ports/ARMCMx/chcore_v7m.h"
  84              		.file 13 "ChibiOS_3.0.2/os/rt/include/chtm.h"
  85              		.file 14 "ChibiOS_3.0.2/os/rt/include/chsem.h"
  86              		.file 15 "ChibiOS_3.0.2/os/rt/include/chmtx.h"
  87              		.file 16 "ChibiOS_3.0.2/os/rt/include/chregistry.h"
  88              		.file 17 "ChibiOS_3.0.2/os/rt/include/chqueues.h"
  89              		.file 18 "ChibiOS_3.0.2/os/hal/ports/STM32/STM32F4xx/stm32_dma.h"
  90              		.file 19 "ChibiOS_3.0.2/os/hal/ports/STM32/LLD/GPIOv2/pal_lld.h"
  91              		.file 20 "ChibiOS_3.0.2/os/hal/include/uart.h"
  92              		.file 21 "ChibiOS_3.0.2/os/hal/ports/STM32/LLD/USARTv1/uart_lld.h"
  93              		.file 22 "ChibiOS_3.0.2/os/hal/include/usb.h"
  94              		.file 23 "ChibiOS_3.0.2/os/hal/ports/STM32/LLD/OTGv1/usb_lld.h"
  95              		.file 24 "ChibiOS_3.0.2/os/hal/ports/STM32/LLD/OTGv1/stm32_otg.h"
  96              		.file 25 "ChibiOS_3.0.2/os/hal/ports/STM32/STM32F4xx/hal_lld.h"
  97              		.file 26 "ChibiOS_3.0.2/os/hal/include/serial_usb.h"
  98              		.file 27 "ChibiOS_3.0.2/os/hal/boards/ST_STM32F4_DISCOVERY/board.h"
  99              		.file 28 "ChibiOS_3.0.2/os/hal/include/st.h"
 100              		.file 29 "ChibiOS_3.0.2/os/hal/osal/rt/osal.h"
 101              		.section	.debug_info,"",%progbits
 102              	.Ldebug_info0:
 103 0000 3C190000 		.4byte	0x193c
 104 0004 0400     		.2byte	0x4
 105 0006 00000000 		.4byte	.Ldebug_abbrev0
 106 000a 04       		.byte	0x4
 107 000b 01       		.uleb128 0x1
 108 000c B70A0000 		.4byte	.LASF371
 109 0010 0C       		.byte	0xc
 110 0011 84080000 		.4byte	.LASF372
 111 0015 E70B0000 		.4byte	.LASF373
 112 0019 00000000 		.4byte	.Ldebug_ranges0+0
 113 001d 00000000 		.4byte	0
 114 0021 00000000 		.4byte	.Ldebug_line0
ARM GAS  /tmp/ccTAg9Zs.s 			page 3


 115 0025 02       		.uleb128 0x2
 116 0026 04       		.byte	0x4
 117 0027 05       		.byte	0x5
 118 0028 696E7400 		.ascii	"int\000"
 119 002c 03       		.uleb128 0x3
 120 002d 18000000 		.4byte	.LASF4
 121 0031 02       		.byte	0x2
 122 0032 D8       		.byte	0xd8
 123 0033 3C000000 		.4byte	0x3c
 124 0037 04       		.uleb128 0x4
 125 0038 2C000000 		.4byte	0x2c
 126 003c 05       		.uleb128 0x5
 127 003d 04       		.byte	0x4
 128 003e 07       		.byte	0x7
 129 003f 39080000 		.4byte	.LASF0
 130 0043 05       		.uleb128 0x5
 131 0044 08       		.byte	0x8
 132 0045 05       		.byte	0x5
 133 0046 33070000 		.4byte	.LASF1
 134 004a 05       		.uleb128 0x5
 135 004b 08       		.byte	0x8
 136 004c 04       		.byte	0x4
 137 004d 49090000 		.4byte	.LASF2
 138 0051 05       		.uleb128 0x5
 139 0052 01       		.byte	0x1
 140 0053 06       		.byte	0x6
 141 0054 88020000 		.4byte	.LASF3
 142 0058 03       		.uleb128 0x3
 143 0059 68010000 		.4byte	.LASF5
 144 005d 03       		.byte	0x3
 145 005e 2B       		.byte	0x2b
 146 005f 63000000 		.4byte	0x63
 147 0063 05       		.uleb128 0x5
 148 0064 01       		.byte	0x1
 149 0065 08       		.byte	0x8
 150 0066 F1020000 		.4byte	.LASF6
 151 006a 05       		.uleb128 0x5
 152 006b 02       		.byte	0x2
 153 006c 05       		.byte	0x5
 154 006d 390D0000 		.4byte	.LASF7
 155 0071 03       		.uleb128 0x3
 156 0072 CE030000 		.4byte	.LASF8
 157 0076 03       		.byte	0x3
 158 0077 39       		.byte	0x39
 159 0078 7C000000 		.4byte	0x7c
 160 007c 05       		.uleb128 0x5
 161 007d 02       		.byte	0x2
 162 007e 07       		.byte	0x7
 163 007f 060F0000 		.4byte	.LASF9
 164 0083 03       		.uleb128 0x3
 165 0084 880F0000 		.4byte	.LASF10
 166 0088 03       		.byte	0x3
 167 0089 4D       		.byte	0x4d
 168 008a 8E000000 		.4byte	0x8e
 169 008e 05       		.uleb128 0x5
 170 008f 04       		.byte	0x4
 171 0090 05       		.byte	0x5
ARM GAS  /tmp/ccTAg9Zs.s 			page 4


 172 0091 C6010000 		.4byte	.LASF11
 173 0095 03       		.uleb128 0x3
 174 0096 17070000 		.4byte	.LASF12
 175 009a 03       		.byte	0x3
 176 009b 4F       		.byte	0x4f
 177 009c A0000000 		.4byte	0xa0
 178 00a0 05       		.uleb128 0x5
 179 00a1 04       		.byte	0x4
 180 00a2 07       		.byte	0x7
 181 00a3 6F050000 		.4byte	.LASF13
 182 00a7 03       		.uleb128 0x3
 183 00a8 5C050000 		.4byte	.LASF14
 184 00ac 03       		.byte	0x3
 185 00ad 69       		.byte	0x69
 186 00ae B2000000 		.4byte	0xb2
 187 00b2 05       		.uleb128 0x5
 188 00b3 08       		.byte	0x8
 189 00b4 07       		.byte	0x7
 190 00b5 160A0000 		.4byte	.LASF15
 191 00b9 03       		.uleb128 0x3
 192 00ba 9B020000 		.4byte	.LASF16
 193 00be 04       		.byte	0x4
 194 00bf 18       		.byte	0x18
 195 00c0 58000000 		.4byte	0x58
 196 00c4 06       		.uleb128 0x6
 197 00c5 B9000000 		.4byte	0xb9
 198 00c9 03       		.uleb128 0x3
 199 00ca 450A0000 		.4byte	.LASF17
 200 00ce 04       		.byte	0x4
 201 00cf 24       		.byte	0x24
 202 00d0 71000000 		.4byte	0x71
 203 00d4 04       		.uleb128 0x4
 204 00d5 C9000000 		.4byte	0xc9
 205 00d9 03       		.uleb128 0x3
 206 00da 7C000000 		.4byte	.LASF18
 207 00de 04       		.byte	0x4
 208 00df 2C       		.byte	0x2c
 209 00e0 83000000 		.4byte	0x83
 210 00e4 04       		.uleb128 0x4
 211 00e5 D9000000 		.4byte	0xd9
 212 00e9 03       		.uleb128 0x3
 213 00ea CD0E0000 		.4byte	.LASF19
 214 00ee 04       		.byte	0x4
 215 00ef 30       		.byte	0x30
 216 00f0 95000000 		.4byte	0x95
 217 00f4 04       		.uleb128 0x4
 218 00f5 E9000000 		.4byte	0xe9
 219 00f9 03       		.uleb128 0x3
 220 00fa 580D0000 		.4byte	.LASF20
 221 00fe 04       		.byte	0x4
 222 00ff 3C       		.byte	0x3c
 223 0100 A7000000 		.4byte	0xa7
 224 0104 03       		.uleb128 0x3
 225 0105 5E080000 		.4byte	.LASF21
 226 0109 05       		.byte	0x5
 227 010a 45       		.byte	0x45
 228 010b E9000000 		.4byte	0xe9
ARM GAS  /tmp/ccTAg9Zs.s 			page 5


 229 010f 03       		.uleb128 0x3
 230 0110 C60C0000 		.4byte	.LASF22
 231 0114 05       		.byte	0x5
 232 0115 48       		.byte	0x48
 233 0116 B9000000 		.4byte	0xb9
 234 011a 03       		.uleb128 0x3
 235 011b F2010000 		.4byte	.LASF23
 236 011f 05       		.byte	0x5
 237 0120 49       		.byte	0x49
 238 0121 B9000000 		.4byte	0xb9
 239 0125 03       		.uleb128 0x3
 240 0126 6D0E0000 		.4byte	.LASF24
 241 012a 05       		.byte	0x5
 242 012b 4A       		.byte	0x4a
 243 012c B9000000 		.4byte	0xb9
 244 0130 03       		.uleb128 0x3
 245 0131 5A000000 		.4byte	.LASF25
 246 0135 05       		.byte	0x5
 247 0136 4C       		.byte	0x4c
 248 0137 E9000000 		.4byte	0xe9
 249 013b 03       		.uleb128 0x3
 250 013c 6A0A0000 		.4byte	.LASF26
 251 0140 05       		.byte	0x5
 252 0141 4D       		.byte	0x4d
 253 0142 D9000000 		.4byte	0xd9
 254 0146 03       		.uleb128 0x3
 255 0147 CA020000 		.4byte	.LASF27
 256 014b 05       		.byte	0x5
 257 014c 4F       		.byte	0x4f
 258 014d E9000000 		.4byte	0xe9
 259 0151 03       		.uleb128 0x3
 260 0152 8E040000 		.4byte	.LASF28
 261 0156 05       		.byte	0x5
 262 0157 51       		.byte	0x51
 263 0158 D9000000 		.4byte	0xd9
 264 015c 03       		.uleb128 0x3
 265 015d 32000000 		.4byte	.LASF29
 266 0161 06       		.byte	0x6
 267 0162 33       		.byte	0x33
 268 0163 E9000000 		.4byte	0xe9
 269 0167 03       		.uleb128 0x3
 270 0168 40090000 		.4byte	.LASF30
 271 016c 06       		.byte	0x6
 272 016d 3F       		.byte	0x3f
 273 016e 72010000 		.4byte	0x172
 274 0172 07       		.uleb128 0x7
 275 0173 D0050000 		.4byte	.LASF50
 276 0177 44       		.byte	0x44
 277 0178 07       		.byte	0x7
 278 0179 C2       		.byte	0xc2
 279 017a 5F020000 		.4byte	0x25f
 280 017e 08       		.uleb128 0x8
 281 017f CF010000 		.4byte	.LASF31
 282 0183 07       		.byte	0x7
 283 0184 C3       		.byte	0xc3
 284 0185 6A020000 		.4byte	0x26a
 285 0189 00       		.byte	0
ARM GAS  /tmp/ccTAg9Zs.s 			page 6


 286 018a 08       		.uleb128 0x8
 287 018b EB010000 		.4byte	.LASF32
 288 018f 07       		.byte	0x7
 289 0190 C5       		.byte	0xc5
 290 0191 6A020000 		.4byte	0x26a
 291 0195 04       		.byte	0x4
 292 0196 08       		.uleb128 0x8
 293 0197 BD030000 		.4byte	.LASF33
 294 019b 07       		.byte	0x7
 295 019c C7       		.byte	0xc7
 296 019d 30010000 		.4byte	0x130
 297 01a1 08       		.byte	0x8
 298 01a2 08       		.uleb128 0x8
 299 01a3 54000000 		.4byte	.LASF34
 300 01a7 07       		.byte	0x7
 301 01a8 C8       		.byte	0xc8
 302 01a9 91050000 		.4byte	0x591
 303 01ad 0C       		.byte	0xc
 304 01ae 08       		.uleb128 0x8
 305 01af B3010000 		.4byte	.LASF35
 306 01b3 07       		.byte	0x7
 307 01b4 CA       		.byte	0xca
 308 01b5 6A020000 		.4byte	0x26a
 309 01b9 10       		.byte	0x10
 310 01ba 08       		.uleb128 0x8
 311 01bb 3D0A0000 		.4byte	.LASF36
 312 01bf 07       		.byte	0x7
 313 01c0 CB       		.byte	0xcb
 314 01c1 6A020000 		.4byte	0x26a
 315 01c5 14       		.byte	0x14
 316 01c6 08       		.uleb128 0x8
 317 01c7 DF0F0000 		.4byte	.LASF37
 318 01cb 07       		.byte	0x7
 319 01cc D2       		.byte	0xd2
 320 01cd D6070000 		.4byte	0x7d6
 321 01d1 18       		.byte	0x18
 322 01d2 08       		.uleb128 0x8
 323 01d3 26100000 		.4byte	.LASF38
 324 01d7 07       		.byte	0x7
 325 01d8 DD       		.byte	0xdd
 326 01d9 1A010000 		.4byte	0x11a
 327 01dd 1C       		.byte	0x1c
 328 01de 08       		.uleb128 0x8
 329 01df 10080000 		.4byte	.LASF39
 330 01e3 07       		.byte	0x7
 331 01e4 E1       		.byte	0xe1
 332 01e5 0F010000 		.4byte	0x10f
 333 01e9 1D       		.byte	0x1d
 334 01ea 08       		.uleb128 0x8
 335 01eb 39090000 		.4byte	.LASF40
 336 01ef 07       		.byte	0x7
 337 01f0 E6       		.byte	0xe6
 338 01f1 25010000 		.4byte	0x125
 339 01f5 1E       		.byte	0x1e
 340 01f6 09       		.uleb128 0x9
 341 01f7 705F7500 		.ascii	"p_u\000"
 342 01fb 07       		.byte	0x7
ARM GAS  /tmp/ccTAg9Zs.s 			page 7


 343 01fc 3101     		.2byte	0x131
 344 01fe 11070000 		.4byte	0x711
 345 0202 20       		.byte	0x20
 346 0203 0A       		.uleb128 0xa
 347 0204 F4070000 		.4byte	.LASF41
 348 0208 07       		.byte	0x7
 349 0209 3601     		.2byte	0x136
 350 020b 70020000 		.4byte	0x270
 351 020f 24       		.byte	0x24
 352 0210 0A       		.uleb128 0xa
 353 0211 6B000000 		.4byte	.LASF42
 354 0215 07       		.byte	0x7
 355 0216 3C01     		.2byte	0x13c
 356 0218 94020000 		.4byte	0x294
 357 021c 28       		.byte	0x28
 358 021d 0A       		.uleb128 0xa
 359 021e 20100000 		.4byte	.LASF43
 360 0222 07       		.byte	0x7
 361 0223 4001     		.2byte	0x140
 362 0225 3B010000 		.4byte	0x13b
 363 0229 30       		.byte	0x30
 364 022a 0A       		.uleb128 0xa
 365 022b D3040000 		.4byte	.LASF44
 366 022f 07       		.byte	0x7
 367 0230 4601     		.2byte	0x146
 368 0232 46010000 		.4byte	0x146
 369 0236 34       		.byte	0x34
 370 0237 0A       		.uleb128 0xa
 371 0238 0B020000 		.4byte	.LASF45
 372 023c 07       		.byte	0x7
 373 023d 4D01     		.2byte	0x14d
 374 023f D0070000 		.4byte	0x7d0
 375 0243 38       		.byte	0x38
 376 0244 0A       		.uleb128 0xa
 377 0245 75090000 		.4byte	.LASF46
 378 0249 07       		.byte	0x7
 379 024a 5101     		.2byte	0x151
 380 024c 30010000 		.4byte	0x130
 381 0250 3C       		.byte	0x3c
 382 0251 0A       		.uleb128 0xa
 383 0252 70080000 		.4byte	.LASF47
 384 0256 07       		.byte	0x7
 385 0257 5801     		.2byte	0x158
 386 0259 47030000 		.4byte	0x347
 387 025d 40       		.byte	0x40
 388 025e 00       		.byte	0
 389 025f 03       		.uleb128 0x3
 390 0260 55090000 		.4byte	.LASF48
 391 0264 06       		.byte	0x6
 392 0265 44       		.byte	0x44
 393 0266 6A020000 		.4byte	0x26a
 394 026a 0B       		.uleb128 0xb
 395 026b 04       		.byte	0x4
 396 026c 67010000 		.4byte	0x167
 397 0270 03       		.uleb128 0x3
 398 0271 850E0000 		.4byte	.LASF49
 399 0275 06       		.byte	0x6
ARM GAS  /tmp/ccTAg9Zs.s 			page 8


 400 0276 49       		.byte	0x49
 401 0277 7B020000 		.4byte	0x27b
 402 027b 07       		.uleb128 0x7
 403 027c 9C060000 		.4byte	.LASF51
 404 0280 04       		.byte	0x4
 405 0281 07       		.byte	0x7
 406 0282 B0       		.byte	0xb0
 407 0283 94020000 		.4byte	0x294
 408 0287 08       		.uleb128 0x8
 409 0288 CF010000 		.4byte	.LASF31
 410 028c 07       		.byte	0x7
 411 028d B1       		.byte	0xb1
 412 028e 6A020000 		.4byte	0x26a
 413 0292 00       		.byte	0
 414 0293 00       		.byte	0
 415 0294 03       		.uleb128 0x3
 416 0295 FB010000 		.4byte	.LASF52
 417 0299 06       		.byte	0x6
 418 029a 50       		.byte	0x50
 419 029b 9F020000 		.4byte	0x29f
 420 029f 07       		.uleb128 0x7
 421 02a0 750A0000 		.4byte	.LASF53
 422 02a4 08       		.byte	0x8
 423 02a5 07       		.byte	0x7
 424 02a6 B7       		.byte	0xb7
 425 02a7 C4020000 		.4byte	0x2c4
 426 02ab 08       		.uleb128 0x8
 427 02ac CF010000 		.4byte	.LASF31
 428 02b0 07       		.byte	0x7
 429 02b1 B8       		.byte	0xb8
 430 02b2 6A020000 		.4byte	0x26a
 431 02b6 00       		.byte	0
 432 02b7 08       		.uleb128 0x8
 433 02b8 EB010000 		.4byte	.LASF32
 434 02bc 07       		.byte	0x7
 435 02bd B9       		.byte	0xb9
 436 02be 6A020000 		.4byte	0x26a
 437 02c2 04       		.byte	0x4
 438 02c3 00       		.byte	0
 439 02c4 03       		.uleb128 0x3
 440 02c5 41060000 		.4byte	.LASF54
 441 02c9 06       		.byte	0x6
 442 02ca 57       		.byte	0x57
 443 02cb CF020000 		.4byte	0x2cf
 444 02cf 0C       		.uleb128 0xc
 445 02d0 F0040000 		.4byte	.LASF55
 446 02d4 1C       		.byte	0x1c
 447 02d5 07       		.byte	0x7
 448 02d6 9001     		.2byte	0x190
 449 02d8 2B030000 		.4byte	0x32b
 450 02dc 0A       		.uleb128 0xa
 451 02dd 830C0000 		.4byte	.LASF56
 452 02e1 07       		.byte	0x7
 453 02e2 9101     		.2byte	0x191
 454 02e4 94020000 		.4byte	0x294
 455 02e8 00       		.byte	0
 456 02e9 0A       		.uleb128 0xa
ARM GAS  /tmp/ccTAg9Zs.s 			page 9


 457 02ea AF0D0000 		.4byte	.LASF57
 458 02ee 07       		.byte	0x7
 459 02ef 9201     		.2byte	0x192
 460 02f1 30010000 		.4byte	0x130
 461 02f5 08       		.byte	0x8
 462 02f6 0A       		.uleb128 0xa
 463 02f7 76000000 		.4byte	.LASF58
 464 02fb 07       		.byte	0x7
 465 02fc 9401     		.2byte	0x194
 466 02fe 91050000 		.4byte	0x591
 467 0302 0C       		.byte	0xc
 468 0303 0A       		.uleb128 0xa
 469 0304 33030000 		.4byte	.LASF59
 470 0308 07       		.byte	0x7
 471 0309 9701     		.2byte	0x197
 472 030b 6A020000 		.4byte	0x26a
 473 030f 10       		.byte	0x10
 474 0310 0A       		.uleb128 0xa
 475 0311 0A0D0000 		.4byte	.LASF60
 476 0315 07       		.byte	0x7
 477 0316 9801     		.2byte	0x198
 478 0318 6A020000 		.4byte	0x26a
 479 031c 14       		.byte	0x14
 480 031d 0A       		.uleb128 0xa
 481 031e D00B0000 		.4byte	.LASF61
 482 0322 07       		.byte	0x7
 483 0323 9B01     		.2byte	0x19b
 484 0325 6A020000 		.4byte	0x26a
 485 0329 18       		.byte	0x18
 486 032a 00       		.byte	0
 487 032b 03       		.uleb128 0x3
 488 032c 9D000000 		.4byte	.LASF62
 489 0330 06       		.byte	0x6
 490 0331 5C       		.byte	0x5c
 491 0332 36030000 		.4byte	0x336
 492 0336 0B       		.uleb128 0xb
 493 0337 04       		.byte	0x4
 494 0338 3C030000 		.4byte	0x33c
 495 033c 0D       		.uleb128 0xd
 496 033d 47030000 		.4byte	0x347
 497 0341 0E       		.uleb128 0xe
 498 0342 47030000 		.4byte	0x347
 499 0346 00       		.byte	0
 500 0347 0F       		.uleb128 0xf
 501 0348 04       		.byte	0x4
 502 0349 03       		.uleb128 0x3
 503 034a 31060000 		.4byte	.LASF63
 504 034e 06       		.byte	0x6
 505 034f 61       		.byte	0x61
 506 0350 54030000 		.4byte	0x354
 507 0354 0C       		.uleb128 0xc
 508 0355 D0090000 		.4byte	.LASF64
 509 0359 14       		.byte	0x14
 510 035a 07       		.byte	0x7
 511 035b 6B01     		.2byte	0x16b
 512 035d A3030000 		.4byte	0x3a3
 513 0361 0A       		.uleb128 0xa
ARM GAS  /tmp/ccTAg9Zs.s 			page 10


 514 0362 78070000 		.4byte	.LASF65
 515 0366 07       		.byte	0x7
 516 0367 6C01     		.2byte	0x16c
 517 0369 ED070000 		.4byte	0x7ed
 518 036d 00       		.byte	0
 519 036e 0A       		.uleb128 0xa
 520 036f 88070000 		.4byte	.LASF66
 521 0373 07       		.byte	0x7
 522 0374 6D01     		.2byte	0x16d
 523 0376 ED070000 		.4byte	0x7ed
 524 037a 04       		.byte	0x4
 525 037b 0A       		.uleb128 0xa
 526 037c BC090000 		.4byte	.LASF67
 527 0380 07       		.byte	0x7
 528 0381 6E01     		.2byte	0x16e
 529 0383 5C010000 		.4byte	0x15c
 530 0387 08       		.byte	0x8
 531 0388 0A       		.uleb128 0xa
 532 0389 9E040000 		.4byte	.LASF68
 533 038d 07       		.byte	0x7
 534 038e 6F01     		.2byte	0x16f
 535 0390 2B030000 		.4byte	0x32b
 536 0394 0C       		.byte	0xc
 537 0395 0A       		.uleb128 0xa
 538 0396 4A010000 		.4byte	.LASF69
 539 039a 07       		.byte	0x7
 540 039b 7101     		.2byte	0x171
 541 039d 47030000 		.4byte	0x347
 542 03a1 10       		.byte	0x10
 543 03a2 00       		.byte	0
 544 03a3 03       		.uleb128 0x3
 545 03a4 E2050000 		.4byte	.LASF70
 546 03a8 06       		.byte	0x6
 547 03a9 66       		.byte	0x66
 548 03aa AE030000 		.4byte	0x3ae
 549 03ae 0C       		.uleb128 0xc
 550 03af AD000000 		.4byte	.LASF71
 551 03b3 10       		.byte	0x10
 552 03b4 07       		.byte	0x7
 553 03b5 7B01     		.2byte	0x17b
 554 03b7 F0030000 		.4byte	0x3f0
 555 03bb 0A       		.uleb128 0xa
 556 03bc 78070000 		.4byte	.LASF65
 557 03c0 07       		.byte	0x7
 558 03c1 7C01     		.2byte	0x17c
 559 03c3 ED070000 		.4byte	0x7ed
 560 03c7 00       		.byte	0
 561 03c8 0A       		.uleb128 0xa
 562 03c9 88070000 		.4byte	.LASF66
 563 03cd 07       		.byte	0x7
 564 03ce 7E01     		.2byte	0x17e
 565 03d0 ED070000 		.4byte	0x7ed
 566 03d4 04       		.byte	0x4
 567 03d5 0A       		.uleb128 0xa
 568 03d6 BC090000 		.4byte	.LASF67
 569 03da 07       		.byte	0x7
 570 03db 8001     		.2byte	0x180
ARM GAS  /tmp/ccTAg9Zs.s 			page 11


 571 03dd 5C010000 		.4byte	0x15c
 572 03e1 08       		.byte	0x8
 573 03e2 0A       		.uleb128 0xa
 574 03e3 FA0E0000 		.4byte	.LASF72
 575 03e7 07       		.byte	0x7
 576 03e8 8801     		.2byte	0x188
 577 03ea 5C010000 		.4byte	0x15c
 578 03ee 0C       		.byte	0xc
 579 03ef 00       		.byte	0
 580 03f0 03       		.uleb128 0x3
 581 03f1 4A030000 		.4byte	.LASF73
 582 03f5 06       		.byte	0x6
 583 03f6 6B       		.byte	0x6b
 584 03f7 FB030000 		.4byte	0x3fb
 585 03fb 0C       		.uleb128 0xc
 586 03fc C20D0000 		.4byte	.LASF74
 587 0400 04       		.byte	0x4
 588 0401 07       		.byte	0x7
 589 0402 A201     		.2byte	0x1a2
 590 0404 16040000 		.4byte	0x416
 591 0408 0A       		.uleb128 0xa
 592 0409 1B030000 		.4byte	.LASF75
 593 040d 07       		.byte	0x7
 594 040e AA01     		.2byte	0x1aa
 595 0410 DC070000 		.4byte	0x7dc
 596 0414 00       		.byte	0
 597 0415 00       		.byte	0
 598 0416 03       		.uleb128 0x3
 599 0417 300F0000 		.4byte	.LASF76
 600 041b 06       		.byte	0x6
 601 041c 70       		.byte	0x70
 602 041d 21040000 		.4byte	0x421
 603 0421 10       		.uleb128 0x10
 604 0422 BB0E0000 		.4byte	.LASF77
 605 0426 D801     		.2byte	0x1d8
 606 0428 07       		.byte	0x7
 607 0429 C201     		.2byte	0x1c2
 608 042b 7D040000 		.4byte	0x47d
 609 042f 0A       		.uleb128 0xa
 610 0430 C00C0000 		.4byte	.LASF78
 611 0434 07       		.byte	0x7
 612 0435 C601     		.2byte	0x1c6
 613 0437 C4020000 		.4byte	0x2c4
 614 043b 00       		.byte	0
 615 043c 0A       		.uleb128 0xa
 616 043d 470E0000 		.4byte	.LASF79
 617 0441 07       		.byte	0x7
 618 0442 CA01     		.2byte	0x1ca
 619 0444 A3030000 		.4byte	0x3a3
 620 0448 1C       		.byte	0x1c
 621 0449 09       		.uleb128 0x9
 622 044a 64626700 		.ascii	"dbg\000"
 623 044e 07       		.byte	0x7
 624 044f CE01     		.2byte	0x1ce
 625 0451 F0030000 		.4byte	0x3f0
 626 0455 2C       		.byte	0x2c
 627 0456 0A       		.uleb128 0xa
ARM GAS  /tmp/ccTAg9Zs.s 			page 12


 628 0457 290C0000 		.4byte	.LASF80
 629 045b 07       		.byte	0x7
 630 045c D201     		.2byte	0x1d2
 631 045e 67010000 		.4byte	0x167
 632 0462 30       		.byte	0x30
 633 0463 09       		.uleb128 0x9
 634 0464 746D00   		.ascii	"tm\000"
 635 0467 07       		.byte	0x7
 636 0468 D701     		.2byte	0x1d7
 637 046a 06070000 		.4byte	0x706
 638 046e 74       		.byte	0x74
 639 046f 0A       		.uleb128 0xa
 640 0470 21080000 		.4byte	.LASF81
 641 0474 07       		.byte	0x7
 642 0475 E301     		.2byte	0x1e3
 643 0477 F3070000 		.4byte	0x7f3
 644 047b 78       		.byte	0x78
 645 047c 00       		.byte	0
 646 047d 11       		.uleb128 0x11
 647 047e C0070000 		.4byte	.LASF82
 648 0482 08       		.byte	0x8
 649 0483 A706     		.2byte	0x6a7
 650 0485 E4000000 		.4byte	0xe4
 651 0489 12       		.uleb128 0x12
 652 048a AA050000 		.4byte	.LASF83
 653 048e 09       		.byte	0x9
 654 048f 4C       		.byte	0x4c
 655 0490 E9000000 		.4byte	0xe9
 656 0494 13       		.uleb128 0x13
 657 0495 18       		.byte	0x18
 658 0496 0A       		.byte	0xa
 659 0497 6B01     		.2byte	0x16b
 660 0499 EB040000 		.4byte	0x4eb
 661 049d 09       		.uleb128 0x9
 662 049e 435200   		.ascii	"CR\000"
 663 04a1 0A       		.byte	0xa
 664 04a2 6D01     		.2byte	0x16d
 665 04a4 F4000000 		.4byte	0xf4
 666 04a8 00       		.byte	0
 667 04a9 0A       		.uleb128 0xa
 668 04aa 9A0F0000 		.4byte	.LASF84
 669 04ae 0A       		.byte	0xa
 670 04af 6E01     		.2byte	0x16e
 671 04b1 F4000000 		.4byte	0xf4
 672 04b5 04       		.byte	0x4
 673 04b6 09       		.uleb128 0x9
 674 04b7 50415200 		.ascii	"PAR\000"
 675 04bb 0A       		.byte	0xa
 676 04bc 6F01     		.2byte	0x16f
 677 04be F4000000 		.4byte	0xf4
 678 04c2 08       		.byte	0x8
 679 04c3 0A       		.uleb128 0xa
 680 04c4 230D0000 		.4byte	.LASF85
 681 04c8 0A       		.byte	0xa
 682 04c9 7001     		.2byte	0x170
 683 04cb F4000000 		.4byte	0xf4
 684 04cf 0C       		.byte	0xc
ARM GAS  /tmp/ccTAg9Zs.s 			page 13


 685 04d0 0A       		.uleb128 0xa
 686 04d1 00000000 		.4byte	.LASF86
 687 04d5 0A       		.byte	0xa
 688 04d6 7101     		.2byte	0x171
 689 04d8 F4000000 		.4byte	0xf4
 690 04dc 10       		.byte	0x10
 691 04dd 09       		.uleb128 0x9
 692 04de 46435200 		.ascii	"FCR\000"
 693 04e2 0A       		.byte	0xa
 694 04e3 7201     		.2byte	0x172
 695 04e5 F4000000 		.4byte	0xf4
 696 04e9 14       		.byte	0x14
 697 04ea 00       		.byte	0
 698 04eb 14       		.uleb128 0x14
 699 04ec FC080000 		.4byte	.LASF87
 700 04f0 0A       		.byte	0xa
 701 04f1 7301     		.2byte	0x173
 702 04f3 94040000 		.4byte	0x494
 703 04f7 13       		.uleb128 0x13
 704 04f8 1C       		.byte	0x1c
 705 04f9 0A       		.byte	0xa
 706 04fa 0903     		.2byte	0x309
 707 04fc 5A050000 		.4byte	0x55a
 708 0500 09       		.uleb128 0x9
 709 0501 535200   		.ascii	"SR\000"
 710 0504 0A       		.byte	0xa
 711 0505 0B03     		.2byte	0x30b
 712 0507 F4000000 		.4byte	0xf4
 713 050b 00       		.byte	0
 714 050c 09       		.uleb128 0x9
 715 050d 445200   		.ascii	"DR\000"
 716 0510 0A       		.byte	0xa
 717 0511 0C03     		.2byte	0x30c
 718 0513 F4000000 		.4byte	0xf4
 719 0517 04       		.byte	0x4
 720 0518 09       		.uleb128 0x9
 721 0519 42525200 		.ascii	"BRR\000"
 722 051d 0A       		.byte	0xa
 723 051e 0D03     		.2byte	0x30d
 724 0520 F4000000 		.4byte	0xf4
 725 0524 08       		.byte	0x8
 726 0525 09       		.uleb128 0x9
 727 0526 43523100 		.ascii	"CR1\000"
 728 052a 0A       		.byte	0xa
 729 052b 0E03     		.2byte	0x30e
 730 052d F4000000 		.4byte	0xf4
 731 0531 0C       		.byte	0xc
 732 0532 09       		.uleb128 0x9
 733 0533 43523200 		.ascii	"CR2\000"
 734 0537 0A       		.byte	0xa
 735 0538 0F03     		.2byte	0x30f
 736 053a F4000000 		.4byte	0xf4
 737 053e 10       		.byte	0x10
 738 053f 09       		.uleb128 0x9
 739 0540 43523300 		.ascii	"CR3\000"
 740 0544 0A       		.byte	0xa
 741 0545 1003     		.2byte	0x310
ARM GAS  /tmp/ccTAg9Zs.s 			page 14


 742 0547 F4000000 		.4byte	0xf4
 743 054b 14       		.byte	0x14
 744 054c 0A       		.uleb128 0xa
 745 054d 90070000 		.4byte	.LASF88
 746 0551 0A       		.byte	0xa
 747 0552 1103     		.2byte	0x311
 748 0554 F4000000 		.4byte	0xf4
 749 0558 18       		.byte	0x18
 750 0559 00       		.byte	0
 751 055a 14       		.uleb128 0x14
 752 055b 08040000 		.4byte	.LASF89
 753 055f 0A       		.byte	0xa
 754 0560 1203     		.2byte	0x312
 755 0562 F7040000 		.4byte	0x4f7
 756 0566 15       		.uleb128 0x15
 757 0567 F4000000 		.4byte	0xf4
 758 056b 76050000 		.4byte	0x576
 759 056f 16       		.uleb128 0x16
 760 0570 3C000000 		.4byte	0x3c
 761 0574 0E       		.byte	0xe
 762 0575 00       		.byte	0
 763 0576 04       		.uleb128 0x4
 764 0577 66050000 		.4byte	0x566
 765 057b 03       		.uleb128 0x3
 766 057c 1B020000 		.4byte	.LASF90
 767 0580 0B       		.byte	0xb
 768 0581 65       		.byte	0x65
 769 0582 47030000 		.4byte	0x347
 770 0586 03       		.uleb128 0x3
 771 0587 FD030000 		.4byte	.LASF91
 772 058b 0B       		.byte	0xb
 773 058c 6D       		.byte	0x6d
 774 058d F9000000 		.4byte	0xf9
 775 0591 07       		.uleb128 0x7
 776 0592 D6020000 		.4byte	.LASF92
 777 0596 04       		.byte	0x4
 778 0597 0B       		.byte	0xb
 779 0598 89       		.byte	0x89
 780 0599 AA050000 		.4byte	0x5aa
 781 059d 17       		.uleb128 0x17
 782 059e 72313300 		.ascii	"r13\000"
 783 05a2 0B       		.byte	0xb
 784 05a3 8A       		.byte	0x8a
 785 05a4 EB060000 		.4byte	0x6eb
 786 05a8 00       		.byte	0
 787 05a9 00       		.byte	0
 788 05aa 07       		.uleb128 0x7
 789 05ab 9A090000 		.4byte	.LASF93
 790 05af 64       		.byte	0x64
 791 05b0 0C       		.byte	0xc
 792 05b1 F4       		.byte	0xf4
 793 05b2 EB060000 		.4byte	0x6eb
 794 05b6 17       		.uleb128 0x17
 795 05b7 73313600 		.ascii	"s16\000"
 796 05bb 0C       		.byte	0xc
 797 05bc F6       		.byte	0xf6
 798 05bd 7B050000 		.4byte	0x57b
ARM GAS  /tmp/ccTAg9Zs.s 			page 15


 799 05c1 00       		.byte	0
 800 05c2 17       		.uleb128 0x17
 801 05c3 73313700 		.ascii	"s17\000"
 802 05c7 0C       		.byte	0xc
 803 05c8 F7       		.byte	0xf7
 804 05c9 7B050000 		.4byte	0x57b
 805 05cd 04       		.byte	0x4
 806 05ce 17       		.uleb128 0x17
 807 05cf 73313800 		.ascii	"s18\000"
 808 05d3 0C       		.byte	0xc
 809 05d4 F8       		.byte	0xf8
 810 05d5 7B050000 		.4byte	0x57b
 811 05d9 08       		.byte	0x8
 812 05da 17       		.uleb128 0x17
 813 05db 73313900 		.ascii	"s19\000"
 814 05df 0C       		.byte	0xc
 815 05e0 F9       		.byte	0xf9
 816 05e1 7B050000 		.4byte	0x57b
 817 05e5 0C       		.byte	0xc
 818 05e6 17       		.uleb128 0x17
 819 05e7 73323000 		.ascii	"s20\000"
 820 05eb 0C       		.byte	0xc
 821 05ec FA       		.byte	0xfa
 822 05ed 7B050000 		.4byte	0x57b
 823 05f1 10       		.byte	0x10
 824 05f2 17       		.uleb128 0x17
 825 05f3 73323100 		.ascii	"s21\000"
 826 05f7 0C       		.byte	0xc
 827 05f8 FB       		.byte	0xfb
 828 05f9 7B050000 		.4byte	0x57b
 829 05fd 14       		.byte	0x14
 830 05fe 17       		.uleb128 0x17
 831 05ff 73323200 		.ascii	"s22\000"
 832 0603 0C       		.byte	0xc
 833 0604 FC       		.byte	0xfc
 834 0605 7B050000 		.4byte	0x57b
 835 0609 18       		.byte	0x18
 836 060a 17       		.uleb128 0x17
 837 060b 73323300 		.ascii	"s23\000"
 838 060f 0C       		.byte	0xc
 839 0610 FD       		.byte	0xfd
 840 0611 7B050000 		.4byte	0x57b
 841 0615 1C       		.byte	0x1c
 842 0616 17       		.uleb128 0x17
 843 0617 73323400 		.ascii	"s24\000"
 844 061b 0C       		.byte	0xc
 845 061c FE       		.byte	0xfe
 846 061d 7B050000 		.4byte	0x57b
 847 0621 20       		.byte	0x20
 848 0622 17       		.uleb128 0x17
 849 0623 73323500 		.ascii	"s25\000"
 850 0627 0C       		.byte	0xc
 851 0628 FF       		.byte	0xff
 852 0629 7B050000 		.4byte	0x57b
 853 062d 24       		.byte	0x24
 854 062e 09       		.uleb128 0x9
 855 062f 73323600 		.ascii	"s26\000"
ARM GAS  /tmp/ccTAg9Zs.s 			page 16


 856 0633 0C       		.byte	0xc
 857 0634 0001     		.2byte	0x100
 858 0636 7B050000 		.4byte	0x57b
 859 063a 28       		.byte	0x28
 860 063b 09       		.uleb128 0x9
 861 063c 73323700 		.ascii	"s27\000"
 862 0640 0C       		.byte	0xc
 863 0641 0101     		.2byte	0x101
 864 0643 7B050000 		.4byte	0x57b
 865 0647 2C       		.byte	0x2c
 866 0648 09       		.uleb128 0x9
 867 0649 73323800 		.ascii	"s28\000"
 868 064d 0C       		.byte	0xc
 869 064e 0201     		.2byte	0x102
 870 0650 7B050000 		.4byte	0x57b
 871 0654 30       		.byte	0x30
 872 0655 09       		.uleb128 0x9
 873 0656 73323900 		.ascii	"s29\000"
 874 065a 0C       		.byte	0xc
 875 065b 0301     		.2byte	0x103
 876 065d 7B050000 		.4byte	0x57b
 877 0661 34       		.byte	0x34
 878 0662 09       		.uleb128 0x9
 879 0663 73333000 		.ascii	"s30\000"
 880 0667 0C       		.byte	0xc
 881 0668 0401     		.2byte	0x104
 882 066a 7B050000 		.4byte	0x57b
 883 066e 38       		.byte	0x38
 884 066f 09       		.uleb128 0x9
 885 0670 73333100 		.ascii	"s31\000"
 886 0674 0C       		.byte	0xc
 887 0675 0501     		.2byte	0x105
 888 0677 7B050000 		.4byte	0x57b
 889 067b 3C       		.byte	0x3c
 890 067c 09       		.uleb128 0x9
 891 067d 723400   		.ascii	"r4\000"
 892 0680 0C       		.byte	0xc
 893 0681 0701     		.2byte	0x107
 894 0683 7B050000 		.4byte	0x57b
 895 0687 40       		.byte	0x40
 896 0688 09       		.uleb128 0x9
 897 0689 723500   		.ascii	"r5\000"
 898 068c 0C       		.byte	0xc
 899 068d 0801     		.2byte	0x108
 900 068f 7B050000 		.4byte	0x57b
 901 0693 44       		.byte	0x44
 902 0694 09       		.uleb128 0x9
 903 0695 723600   		.ascii	"r6\000"
 904 0698 0C       		.byte	0xc
 905 0699 0901     		.2byte	0x109
 906 069b 7B050000 		.4byte	0x57b
 907 069f 48       		.byte	0x48
 908 06a0 09       		.uleb128 0x9
 909 06a1 723700   		.ascii	"r7\000"
 910 06a4 0C       		.byte	0xc
 911 06a5 0A01     		.2byte	0x10a
 912 06a7 7B050000 		.4byte	0x57b
ARM GAS  /tmp/ccTAg9Zs.s 			page 17


 913 06ab 4C       		.byte	0x4c
 914 06ac 09       		.uleb128 0x9
 915 06ad 723800   		.ascii	"r8\000"
 916 06b0 0C       		.byte	0xc
 917 06b1 0B01     		.2byte	0x10b
 918 06b3 7B050000 		.4byte	0x57b
 919 06b7 50       		.byte	0x50
 920 06b8 09       		.uleb128 0x9
 921 06b9 723900   		.ascii	"r9\000"
 922 06bc 0C       		.byte	0xc
 923 06bd 0C01     		.2byte	0x10c
 924 06bf 7B050000 		.4byte	0x57b
 925 06c3 54       		.byte	0x54
 926 06c4 09       		.uleb128 0x9
 927 06c5 72313000 		.ascii	"r10\000"
 928 06c9 0C       		.byte	0xc
 929 06ca 0D01     		.2byte	0x10d
 930 06cc 7B050000 		.4byte	0x57b
 931 06d0 58       		.byte	0x58
 932 06d1 09       		.uleb128 0x9
 933 06d2 72313100 		.ascii	"r11\000"
 934 06d6 0C       		.byte	0xc
 935 06d7 0E01     		.2byte	0x10e
 936 06d9 7B050000 		.4byte	0x57b
 937 06dd 5C       		.byte	0x5c
 938 06de 09       		.uleb128 0x9
 939 06df 6C7200   		.ascii	"lr\000"
 940 06e2 0C       		.byte	0xc
 941 06e3 0F01     		.2byte	0x10f
 942 06e5 7B050000 		.4byte	0x57b
 943 06e9 60       		.byte	0x60
 944 06ea 00       		.byte	0
 945 06eb 0B       		.uleb128 0xb
 946 06ec 04       		.byte	0x4
 947 06ed AA050000 		.4byte	0x5aa
 948 06f1 18       		.uleb128 0x18
 949 06f2 04       		.byte	0x4
 950 06f3 0D       		.byte	0xd
 951 06f4 38       		.byte	0x38
 952 06f5 06070000 		.4byte	0x706
 953 06f9 08       		.uleb128 0x8
 954 06fa D2080000 		.4byte	.LASF94
 955 06fe 0D       		.byte	0xd
 956 06ff 3C       		.byte	0x3c
 957 0700 04010000 		.4byte	0x104
 958 0704 00       		.byte	0
 959 0705 00       		.byte	0
 960 0706 03       		.uleb128 0x3
 961 0707 120D0000 		.4byte	.LASF95
 962 070b 0D       		.byte	0xd
 963 070c 3D       		.byte	0x3d
 964 070d F1060000 		.4byte	0x6f1
 965 0711 19       		.uleb128 0x19
 966 0712 04       		.byte	0x4
 967 0713 07       		.byte	0x7
 968 0714 FA       		.byte	0xfa
 969 0715 6E070000 		.4byte	0x76e
ARM GAS  /tmp/ccTAg9Zs.s 			page 18


 970 0719 1A       		.uleb128 0x1a
 971 071a F30E0000 		.4byte	.LASF96
 972 071e 07       		.byte	0x7
 973 071f 0101     		.2byte	0x101
 974 0721 3B010000 		.4byte	0x13b
 975 0725 1A       		.uleb128 0x1a
 976 0726 51010000 		.4byte	.LASF97
 977 072a 07       		.byte	0x7
 978 072b 0801     		.2byte	0x108
 979 072d 3B010000 		.4byte	0x13b
 980 0731 1A       		.uleb128 0x1a
 981 0732 E3030000 		.4byte	.LASF98
 982 0736 07       		.byte	0x7
 983 0737 0F01     		.2byte	0x10f
 984 0739 47030000 		.4byte	0x347
 985 073d 1A       		.uleb128 0x1a
 986 073e E5020000 		.4byte	.LASF99
 987 0742 07       		.byte	0x7
 988 0743 1601     		.2byte	0x116
 989 0745 6E070000 		.4byte	0x76e
 990 0749 1A       		.uleb128 0x1a
 991 074a 1F000000 		.4byte	.LASF100
 992 074e 07       		.byte	0x7
 993 074f 1E01     		.2byte	0x11e
 994 0751 99070000 		.4byte	0x799
 995 0755 1A       		.uleb128 0x1a
 996 0756 DE040000 		.4byte	.LASF101
 997 075a 07       		.byte	0x7
 998 075b 2701     		.2byte	0x127
 999 075d D0070000 		.4byte	0x7d0
 1000 0761 1A       		.uleb128 0x1a
 1001 0762 94020000 		.4byte	.LASF102
 1002 0766 07       		.byte	0x7
 1003 0767 2F01     		.2byte	0x12f
 1004 0769 46010000 		.4byte	0x146
 1005 076d 00       		.byte	0
 1006 076e 0B       		.uleb128 0xb
 1007 076f 04       		.byte	0x4
 1008 0770 5F020000 		.4byte	0x25f
 1009 0774 07       		.uleb128 0x7
 1010 0775 BA050000 		.4byte	.LASF103
 1011 0779 0C       		.byte	0xc
 1012 077a 0E       		.byte	0xe
 1013 077b 34       		.byte	0x34
 1014 077c 99070000 		.4byte	0x799
 1015 0780 08       		.uleb128 0x8
 1016 0781 280D0000 		.4byte	.LASF104
 1017 0785 0E       		.byte	0xe
 1018 0786 35       		.byte	0x35
 1019 0787 94020000 		.4byte	0x294
 1020 078b 00       		.byte	0
 1021 078c 08       		.uleb128 0x8
 1022 078d E1090000 		.4byte	.LASF105
 1023 0791 0E       		.byte	0xe
 1024 0792 37       		.byte	0x37
 1025 0793 51010000 		.4byte	0x151
 1026 0797 08       		.byte	0x8
ARM GAS  /tmp/ccTAg9Zs.s 			page 19


 1027 0798 00       		.byte	0
 1028 0799 0B       		.uleb128 0xb
 1029 079a 04       		.byte	0x4
 1030 079b 74070000 		.4byte	0x774
 1031 079f 07       		.uleb128 0x7
 1032 07a0 660D0000 		.4byte	.LASF106
 1033 07a4 10       		.byte	0x10
 1034 07a5 0F       		.byte	0xf
 1035 07a6 39       		.byte	0x39
 1036 07a7 D0070000 		.4byte	0x7d0
 1037 07ab 08       		.uleb128 0x8
 1038 07ac 5E070000 		.4byte	.LASF107
 1039 07b0 0F       		.byte	0xf
 1040 07b1 3A       		.byte	0x3a
 1041 07b2 94020000 		.4byte	0x294
 1042 07b6 00       		.byte	0
 1043 07b7 08       		.uleb128 0x8
 1044 07b8 42010000 		.4byte	.LASF108
 1045 07bc 0F       		.byte	0xf
 1046 07bd 3C       		.byte	0x3c
 1047 07be 6A020000 		.4byte	0x26a
 1048 07c2 08       		.byte	0x8
 1049 07c3 08       		.uleb128 0x8
 1050 07c4 E60F0000 		.4byte	.LASF109
 1051 07c8 0F       		.byte	0xf
 1052 07c9 3E       		.byte	0x3e
 1053 07ca 25090000 		.4byte	0x925
 1054 07ce 0C       		.byte	0xc
 1055 07cf 00       		.byte	0
 1056 07d0 0B       		.uleb128 0xb
 1057 07d1 04       		.byte	0x4
 1058 07d2 9F070000 		.4byte	0x79f
 1059 07d6 0B       		.uleb128 0xb
 1060 07d7 04       		.byte	0x4
 1061 07d8 E8070000 		.4byte	0x7e8
 1062 07dc 04       		.uleb128 0x4
 1063 07dd D6070000 		.4byte	0x7d6
 1064 07e1 05       		.uleb128 0x5
 1065 07e2 01       		.byte	0x1
 1066 07e3 08       		.byte	0x8
 1067 07e4 98030000 		.4byte	.LASF110
 1068 07e8 06       		.uleb128 0x6
 1069 07e9 E1070000 		.4byte	0x7e1
 1070 07ed 0B       		.uleb128 0xb
 1071 07ee 04       		.byte	0x4
 1072 07ef 49030000 		.4byte	0x349
 1073 07f3 15       		.uleb128 0x15
 1074 07f4 86050000 		.4byte	0x586
 1075 07f8 03080000 		.4byte	0x803
 1076 07fc 16       		.uleb128 0x16
 1077 07fd 3C000000 		.4byte	0x3c
 1078 0801 2B       		.byte	0x2b
 1079 0802 00       		.byte	0
 1080 0803 1B       		.uleb128 0x1b
 1081 0804 636800   		.ascii	"ch\000"
 1082 0807 07       		.byte	0x7
 1083 0808 0902     		.2byte	0x209
ARM GAS  /tmp/ccTAg9Zs.s 			page 20


 1084 080a 16040000 		.4byte	0x416
 1085 080e 18       		.uleb128 0x18
 1086 080f 16       		.byte	0x16
 1087 0810 10       		.byte	0x10
 1088 0811 34       		.byte	0x34
 1089 0812 EF080000 		.4byte	0x8ef
 1090 0816 08       		.uleb128 0x8
 1091 0817 46000000 		.4byte	.LASF111
 1092 081b 10       		.byte	0x10
 1093 081c 35       		.byte	0x35
 1094 081d EF080000 		.4byte	0x8ef
 1095 0821 00       		.byte	0
 1096 0822 08       		.uleb128 0x8
 1097 0823 81050000 		.4byte	.LASF112
 1098 0827 10       		.byte	0x10
 1099 0828 36       		.byte	0x36
 1100 0829 B9000000 		.4byte	0xb9
 1101 082d 04       		.byte	0x4
 1102 082e 08       		.uleb128 0x8
 1103 082f 580F0000 		.4byte	.LASF113
 1104 0833 10       		.byte	0x10
 1105 0834 37       		.byte	0x37
 1106 0835 B9000000 		.4byte	0xb9
 1107 0839 05       		.byte	0x5
 1108 083a 08       		.uleb128 0x8
 1109 083b 53070000 		.4byte	.LASF114
 1110 083f 10       		.byte	0x10
 1111 0840 38       		.byte	0x38
 1112 0841 C9000000 		.4byte	0xc9
 1113 0845 06       		.byte	0x6
 1114 0846 08       		.uleb128 0x8
 1115 0847 08010000 		.4byte	.LASF115
 1116 084b 10       		.byte	0x10
 1117 084c 39       		.byte	0x39
 1118 084d B9000000 		.4byte	0xb9
 1119 0851 08       		.byte	0x8
 1120 0852 08       		.uleb128 0x8
 1121 0853 AC080000 		.4byte	.LASF116
 1122 0857 10       		.byte	0x10
 1123 0858 3A       		.byte	0x3a
 1124 0859 B9000000 		.4byte	0xb9
 1125 085d 09       		.byte	0x9
 1126 085e 08       		.uleb128 0x8
 1127 085f 78010000 		.4byte	.LASF117
 1128 0863 10       		.byte	0x10
 1129 0864 3B       		.byte	0x3b
 1130 0865 B9000000 		.4byte	0xb9
 1131 0869 0A       		.byte	0xa
 1132 086a 08       		.uleb128 0x8
 1133 086b 29040000 		.4byte	.LASF118
 1134 086f 10       		.byte	0x10
 1135 0870 3C       		.byte	0x3c
 1136 0871 B9000000 		.4byte	0xb9
 1137 0875 0B       		.byte	0xb
 1138 0876 08       		.uleb128 0x8
 1139 0877 92000000 		.4byte	.LASF119
 1140 087b 10       		.byte	0x10
ARM GAS  /tmp/ccTAg9Zs.s 			page 21


 1141 087c 3D       		.byte	0x3d
 1142 087d B9000000 		.4byte	0xb9
 1143 0881 0C       		.byte	0xc
 1144 0882 08       		.uleb128 0x8
 1145 0883 EA030000 		.4byte	.LASF120
 1146 0887 10       		.byte	0x10
 1147 0888 3E       		.byte	0x3e
 1148 0889 B9000000 		.4byte	0xb9
 1149 088d 0D       		.byte	0xd
 1150 088e 08       		.uleb128 0x8
 1151 088f E70D0000 		.4byte	.LASF121
 1152 0893 10       		.byte	0x10
 1153 0894 3F       		.byte	0x3f
 1154 0895 B9000000 		.4byte	0xb9
 1155 0899 0E       		.byte	0xe
 1156 089a 08       		.uleb128 0x8
 1157 089b 26000000 		.4byte	.LASF122
 1158 089f 10       		.byte	0x10
 1159 08a0 40       		.byte	0x40
 1160 08a1 B9000000 		.4byte	0xb9
 1161 08a5 0F       		.byte	0xf
 1162 08a6 08       		.uleb128 0x8
 1163 08a7 750E0000 		.4byte	.LASF123
 1164 08ab 10       		.byte	0x10
 1165 08ac 41       		.byte	0x41
 1166 08ad B9000000 		.4byte	0xb9
 1167 08b1 10       		.byte	0x10
 1168 08b2 08       		.uleb128 0x8
 1169 08b3 DE010000 		.4byte	.LASF124
 1170 08b7 10       		.byte	0x10
 1171 08b8 43       		.byte	0x43
 1172 08b9 B9000000 		.4byte	0xb9
 1173 08bd 11       		.byte	0x11
 1174 08be 08       		.uleb128 0x8
 1175 08bf A10A0000 		.4byte	.LASF125
 1176 08c3 10       		.byte	0x10
 1177 08c4 44       		.byte	0x44
 1178 08c5 B9000000 		.4byte	0xb9
 1179 08c9 12       		.byte	0x12
 1180 08ca 08       		.uleb128 0x8
 1181 08cb 0F090000 		.4byte	.LASF126
 1182 08cf 10       		.byte	0x10
 1183 08d0 45       		.byte	0x45
 1184 08d1 B9000000 		.4byte	0xb9
 1185 08d5 13       		.byte	0x13
 1186 08d6 08       		.uleb128 0x8
 1187 08d7 D8060000 		.4byte	.LASF127
 1188 08db 10       		.byte	0x10
 1189 08dc 46       		.byte	0x46
 1190 08dd B9000000 		.4byte	0xb9
 1191 08e1 14       		.byte	0x14
 1192 08e2 08       		.uleb128 0x8
 1193 08e3 B0090000 		.4byte	.LASF128
 1194 08e7 10       		.byte	0x10
 1195 08e8 48       		.byte	0x48
 1196 08e9 B9000000 		.4byte	0xb9
 1197 08ed 15       		.byte	0x15
ARM GAS  /tmp/ccTAg9Zs.s 			page 22


 1198 08ee 00       		.byte	0
 1199 08ef 15       		.uleb128 0x15
 1200 08f0 E1070000 		.4byte	0x7e1
 1201 08f4 FF080000 		.4byte	0x8ff
 1202 08f8 16       		.uleb128 0x16
 1203 08f9 3C000000 		.4byte	0x3c
 1204 08fd 03       		.byte	0x3
 1205 08fe 00       		.byte	0
 1206 08ff 03       		.uleb128 0x3
 1207 0900 3C0F0000 		.4byte	.LASF129
 1208 0904 10       		.byte	0x10
 1209 0905 49       		.byte	0x49
 1210 0906 0E080000 		.4byte	0x80e
 1211 090a 06       		.uleb128 0x6
 1212 090b FF080000 		.4byte	0x8ff
 1213 090f 12       		.uleb128 0x12
 1214 0910 62000000 		.4byte	.LASF130
 1215 0914 10       		.byte	0x10
 1216 0915 6E       		.byte	0x6e
 1217 0916 0A090000 		.4byte	0x90a
 1218 091a 03       		.uleb128 0x3
 1219 091b 650E0000 		.4byte	.LASF131
 1220 091f 0F       		.byte	0xf
 1221 0920 34       		.byte	0x34
 1222 0921 9F070000 		.4byte	0x79f
 1223 0925 0B       		.uleb128 0xb
 1224 0926 04       		.byte	0x4
 1225 0927 1A090000 		.4byte	0x91a
 1226 092b 03       		.uleb128 0x3
 1227 092c FC0D0000 		.4byte	.LASF132
 1228 0930 11       		.byte	0x11
 1229 0931 3F       		.byte	0x3f
 1230 0932 36090000 		.4byte	0x936
 1231 0936 07       		.uleb128 0x7
 1232 0937 50020000 		.4byte	.LASF133
 1233 093b 24       		.byte	0x24
 1234 093c 11       		.byte	0x11
 1235 093d 4D       		.byte	0x4d
 1236 093e A3090000 		.4byte	0x9a3
 1237 0942 08       		.uleb128 0x8
 1238 0943 B60C0000 		.4byte	.LASF134
 1239 0947 11       		.byte	0x11
 1240 0948 4E       		.byte	0x4e
 1241 0949 94020000 		.4byte	0x294
 1242 094d 00       		.byte	0
 1243 094e 08       		.uleb128 0x8
 1244 094f 44050000 		.4byte	.LASF135
 1245 0953 11       		.byte	0x11
 1246 0954 4F       		.byte	0x4f
 1247 0955 37000000 		.4byte	0x37
 1248 0959 08       		.byte	0x8
 1249 095a 08       		.uleb128 0x8
 1250 095b 86010000 		.4byte	.LASF136
 1251 095f 11       		.byte	0x11
 1252 0960 50       		.byte	0x50
 1253 0961 C5090000 		.4byte	0x9c5
 1254 0965 0C       		.byte	0xc
ARM GAS  /tmp/ccTAg9Zs.s 			page 23


 1255 0966 08       		.uleb128 0x8
 1256 0967 72010000 		.4byte	.LASF137
 1257 096b 11       		.byte	0x11
 1258 096c 51       		.byte	0x51
 1259 096d C5090000 		.4byte	0x9c5
 1260 0971 10       		.byte	0x10
 1261 0972 08       		.uleb128 0x8
 1262 0973 4E060000 		.4byte	.LASF138
 1263 0977 11       		.byte	0x11
 1264 0978 53       		.byte	0x53
 1265 0979 C5090000 		.4byte	0x9c5
 1266 097d 14       		.byte	0x14
 1267 097e 08       		.uleb128 0x8
 1268 097f D6010000 		.4byte	.LASF139
 1269 0983 11       		.byte	0x11
 1270 0984 54       		.byte	0x54
 1271 0985 C5090000 		.4byte	0x9c5
 1272 0989 18       		.byte	0x18
 1273 098a 08       		.uleb128 0x8
 1274 098b AA010000 		.4byte	.LASF140
 1275 098f 11       		.byte	0x11
 1276 0990 55       		.byte	0x55
 1277 0991 A3090000 		.4byte	0x9a3
 1278 0995 1C       		.byte	0x1c
 1279 0996 08       		.uleb128 0x8
 1280 0997 0D030000 		.4byte	.LASF141
 1281 099b 11       		.byte	0x11
 1282 099c 56       		.byte	0x56
 1283 099d 47030000 		.4byte	0x347
 1284 09a1 20       		.byte	0x20
 1285 09a2 00       		.byte	0
 1286 09a3 03       		.uleb128 0x3
 1287 09a4 EA070000 		.4byte	.LASF142
 1288 09a8 11       		.byte	0x11
 1289 09a9 42       		.byte	0x42
 1290 09aa AE090000 		.4byte	0x9ae
 1291 09ae 0B       		.uleb128 0xb
 1292 09af 04       		.byte	0x4
 1293 09b0 B4090000 		.4byte	0x9b4
 1294 09b4 0D       		.uleb128 0xd
 1295 09b5 BF090000 		.4byte	0x9bf
 1296 09b9 0E       		.uleb128 0xe
 1297 09ba BF090000 		.4byte	0x9bf
 1298 09be 00       		.byte	0
 1299 09bf 0B       		.uleb128 0xb
 1300 09c0 04       		.byte	0x4
 1301 09c1 2B090000 		.4byte	0x92b
 1302 09c5 0B       		.uleb128 0xb
 1303 09c6 04       		.byte	0x4
 1304 09c7 B9000000 		.4byte	0xb9
 1305 09cb 03       		.uleb128 0x3
 1306 09cc DE0E0000 		.4byte	.LASF143
 1307 09d0 11       		.byte	0x11
 1308 09d1 64       		.byte	0x64
 1309 09d2 2B090000 		.4byte	0x92b
 1310 09d6 03       		.uleb128 0x3
 1311 09d7 600F0000 		.4byte	.LASF144
ARM GAS  /tmp/ccTAg9Zs.s 			page 24


 1312 09db 11       		.byte	0x11
 1313 09dc 71       		.byte	0x71
 1314 09dd 2B090000 		.4byte	0x92b
 1315 09e1 0B       		.uleb128 0xb
 1316 09e2 04       		.byte	0x4
 1317 09e3 C4000000 		.4byte	0xc4
 1318 09e7 18       		.uleb128 0x18
 1319 09e8 0C       		.byte	0xc
 1320 09e9 12       		.byte	0x12
 1321 09ea DA       		.byte	0xda
 1322 09eb 2C0A0000 		.4byte	0xa2c
 1323 09ef 08       		.uleb128 0x8
 1324 09f0 35040000 		.4byte	.LASF145
 1325 09f4 12       		.byte	0x12
 1326 09f5 DB       		.byte	0xdb
 1327 09f6 2C0A0000 		.4byte	0xa2c
 1328 09fa 00       		.byte	0
 1329 09fb 08       		.uleb128 0x8
 1330 09fc 9F0F0000 		.4byte	.LASF146
 1331 0a00 12       		.byte	0x12
 1332 0a01 DC       		.byte	0xdc
 1333 0a02 320A0000 		.4byte	0xa32
 1334 0a06 04       		.byte	0x4
 1335 0a07 08       		.uleb128 0x8
 1336 0a08 A3030000 		.4byte	.LASF147
 1337 0a0c 12       		.byte	0x12
 1338 0a0d DD       		.byte	0xdd
 1339 0a0e B9000000 		.4byte	0xb9
 1340 0a12 08       		.byte	0x8
 1341 0a13 08       		.uleb128 0x8
 1342 0a14 FB090000 		.4byte	.LASF148
 1343 0a18 12       		.byte	0x12
 1344 0a19 DF       		.byte	0xdf
 1345 0a1a B9000000 		.4byte	0xb9
 1346 0a1e 09       		.byte	0x9
 1347 0a1f 08       		.uleb128 0x8
 1348 0a20 E00B0000 		.4byte	.LASF149
 1349 0a24 12       		.byte	0x12
 1350 0a25 E0       		.byte	0xe0
 1351 0a26 B9000000 		.4byte	0xb9
 1352 0a2a 0A       		.byte	0xa
 1353 0a2b 00       		.byte	0
 1354 0a2c 0B       		.uleb128 0xb
 1355 0a2d 04       		.byte	0x4
 1356 0a2e EB040000 		.4byte	0x4eb
 1357 0a32 0B       		.uleb128 0xb
 1358 0a33 04       		.byte	0x4
 1359 0a34 F4000000 		.4byte	0xf4
 1360 0a38 03       		.uleb128 0x3
 1361 0a39 05000000 		.4byte	.LASF150
 1362 0a3d 12       		.byte	0x12
 1363 0a3e E1       		.byte	0xe1
 1364 0a3f E7090000 		.4byte	0x9e7
 1365 0a43 06       		.uleb128 0x6
 1366 0a44 380A0000 		.4byte	0xa38
 1367 0a48 15       		.uleb128 0x15
 1368 0a49 430A0000 		.4byte	0xa43
ARM GAS  /tmp/ccTAg9Zs.s 			page 25


 1369 0a4d 580A0000 		.4byte	0xa58
 1370 0a51 16       		.uleb128 0x16
 1371 0a52 3C000000 		.4byte	0x3c
 1372 0a56 0F       		.byte	0xf
 1373 0a57 00       		.byte	0
 1374 0a58 06       		.uleb128 0x6
 1375 0a59 480A0000 		.4byte	0xa48
 1376 0a5d 11       		.uleb128 0x11
 1377 0a5e 06060000 		.4byte	.LASF151
 1378 0a62 12       		.byte	0x12
 1379 0a63 BB01     		.2byte	0x1bb
 1380 0a65 580A0000 		.4byte	0xa58
 1381 0a69 05       		.uleb128 0x5
 1382 0a6a 01       		.byte	0x1
 1383 0a6b 02       		.byte	0x2
 1384 0a6c 73030000 		.4byte	.LASF152
 1385 0a70 18       		.uleb128 0x18
 1386 0a71 1C       		.byte	0x1c
 1387 0a72 13       		.byte	0x13
 1388 0a73 C1       		.byte	0xc1
 1389 0a74 CD0A0000 		.4byte	0xacd
 1390 0a78 08       		.uleb128 0x8
 1391 0a79 9D030000 		.4byte	.LASF153
 1392 0a7d 13       		.byte	0x13
 1393 0a7e C3       		.byte	0xc3
 1394 0a7f E9000000 		.4byte	0xe9
 1395 0a83 00       		.byte	0
 1396 0a84 08       		.uleb128 0x8
 1397 0a85 A3050000 		.4byte	.LASF154
 1398 0a89 13       		.byte	0x13
 1399 0a8a C5       		.byte	0xc5
 1400 0a8b E9000000 		.4byte	0xe9
 1401 0a8f 04       		.byte	0x4
 1402 0a90 08       		.uleb128 0x8
 1403 0a91 06050000 		.4byte	.LASF155
 1404 0a95 13       		.byte	0x13
 1405 0a96 C7       		.byte	0xc7
 1406 0a97 E9000000 		.4byte	0xe9
 1407 0a9b 08       		.byte	0x8
 1408 0a9c 08       		.uleb128 0x8
 1409 0a9d EB020000 		.4byte	.LASF156
 1410 0aa1 13       		.byte	0x13
 1411 0aa2 C9       		.byte	0xc9
 1412 0aa3 E9000000 		.4byte	0xe9
 1413 0aa7 0C       		.byte	0xc
 1414 0aa8 17       		.uleb128 0x17
 1415 0aa9 6F647200 		.ascii	"odr\000"
 1416 0aad 13       		.byte	0x13
 1417 0aae CB       		.byte	0xcb
 1418 0aaf E9000000 		.4byte	0xe9
 1419 0ab3 10       		.byte	0x10
 1420 0ab4 08       		.uleb128 0x8
 1421 0ab5 25090000 		.4byte	.LASF157
 1422 0ab9 13       		.byte	0x13
 1423 0aba CD       		.byte	0xcd
 1424 0abb E9000000 		.4byte	0xe9
 1425 0abf 14       		.byte	0x14
ARM GAS  /tmp/ccTAg9Zs.s 			page 26


 1426 0ac0 08       		.uleb128 0x8
 1427 0ac1 57050000 		.4byte	.LASF158
 1428 0ac5 13       		.byte	0x13
 1429 0ac6 CF       		.byte	0xcf
 1430 0ac7 E9000000 		.4byte	0xe9
 1431 0acb 18       		.byte	0x18
 1432 0acc 00       		.byte	0
 1433 0acd 03       		.uleb128 0x3
 1434 0ace 2F010000 		.4byte	.LASF159
 1435 0ad2 13       		.byte	0x13
 1436 0ad3 D0       		.byte	0xd0
 1437 0ad4 700A0000 		.4byte	0xa70
 1438 0ad8 18       		.uleb128 0x18
 1439 0ad9 FC       		.byte	0xfc
 1440 0ada 13       		.byte	0x13
 1441 0adb D9       		.byte	0xd9
 1442 0adc 4D0B0000 		.4byte	0xb4d
 1443 0ae0 08       		.uleb128 0x8
 1444 0ae1 360A0000 		.4byte	.LASF160
 1445 0ae5 13       		.byte	0x13
 1446 0ae6 DC       		.byte	0xdc
 1447 0ae7 CD0A0000 		.4byte	0xacd
 1448 0aeb 00       		.byte	0
 1449 0aec 08       		.uleb128 0x8
 1450 0aed D6070000 		.4byte	.LASF161
 1451 0af1 13       		.byte	0x13
 1452 0af2 E0       		.byte	0xe0
 1453 0af3 CD0A0000 		.4byte	0xacd
 1454 0af7 1C       		.byte	0x1c
 1455 0af8 08       		.uleb128 0x8
 1456 0af9 1B050000 		.4byte	.LASF162
 1457 0afd 13       		.byte	0x13
 1458 0afe E4       		.byte	0xe4
 1459 0aff CD0A0000 		.4byte	0xacd
 1460 0b03 38       		.byte	0x38
 1461 0b04 08       		.uleb128 0x8
 1462 0b05 14030000 		.4byte	.LASF163
 1463 0b09 13       		.byte	0x13
 1464 0b0a E8       		.byte	0xe8
 1465 0b0b CD0A0000 		.4byte	0xacd
 1466 0b0f 54       		.byte	0x54
 1467 0b10 08       		.uleb128 0x8
 1468 0b11 F9000000 		.4byte	.LASF164
 1469 0b15 13       		.byte	0x13
 1470 0b16 EC       		.byte	0xec
 1471 0b17 CD0A0000 		.4byte	0xacd
 1472 0b1b 70       		.byte	0x70
 1473 0b1c 08       		.uleb128 0x8
 1474 0b1d EC0E0000 		.4byte	.LASF165
 1475 0b21 13       		.byte	0x13
 1476 0b22 F0       		.byte	0xf0
 1477 0b23 CD0A0000 		.4byte	0xacd
 1478 0b27 8C       		.byte	0x8c
 1479 0b28 08       		.uleb128 0x8
 1480 0b29 AF0C0000 		.4byte	.LASF166
 1481 0b2d 13       		.byte	0x13
 1482 0b2e F4       		.byte	0xf4
ARM GAS  /tmp/ccTAg9Zs.s 			page 27


 1483 0b2f CD0A0000 		.4byte	0xacd
 1484 0b33 A8       		.byte	0xa8
 1485 0b34 08       		.uleb128 0x8
 1486 0b35 E2080000 		.4byte	.LASF167
 1487 0b39 13       		.byte	0x13
 1488 0b3a F8       		.byte	0xf8
 1489 0b3b CD0A0000 		.4byte	0xacd
 1490 0b3f C4       		.byte	0xc4
 1491 0b40 08       		.uleb128 0x8
 1492 0b41 70060000 		.4byte	.LASF168
 1493 0b45 13       		.byte	0x13
 1494 0b46 FC       		.byte	0xfc
 1495 0b47 CD0A0000 		.4byte	0xacd
 1496 0b4b E0       		.byte	0xe0
 1497 0b4c 00       		.byte	0
 1498 0b4d 03       		.uleb128 0x3
 1499 0b4e 1F0E0000 		.4byte	.LASF169
 1500 0b52 13       		.byte	0x13
 1501 0b53 FE       		.byte	0xfe
 1502 0b54 D80A0000 		.4byte	0xad8
 1503 0b58 06       		.uleb128 0x6
 1504 0b59 4D0B0000 		.4byte	0xb4d
 1505 0b5d 11       		.uleb128 0x11
 1506 0b5e 75020000 		.4byte	.LASF170
 1507 0b62 13       		.byte	0x13
 1508 0b63 DA01     		.2byte	0x1da
 1509 0b65 580B0000 		.4byte	0xb58
 1510 0b69 1C       		.uleb128 0x1c
 1511 0b6a 07       		.byte	0x7
 1512 0b6b 01       		.byte	0x1
 1513 0b6c 63000000 		.4byte	0x63
 1514 0b70 14       		.byte	0x14
 1515 0b71 3D       		.byte	0x3d
 1516 0b72 890B0000 		.4byte	0xb89
 1517 0b76 1D       		.uleb128 0x1d
 1518 0b77 85060000 		.4byte	.LASF171
 1519 0b7b 00       		.byte	0
 1520 0b7c 1D       		.uleb128 0x1d
 1521 0b7d 3C000000 		.4byte	.LASF172
 1522 0b81 01       		.byte	0x1
 1523 0b82 1D       		.uleb128 0x1d
 1524 0b83 C00F0000 		.4byte	.LASF173
 1525 0b87 02       		.byte	0x2
 1526 0b88 00       		.byte	0
 1527 0b89 03       		.uleb128 0x3
 1528 0b8a B60D0000 		.4byte	.LASF174
 1529 0b8e 14       		.byte	0x14
 1530 0b8f 41       		.byte	0x41
 1531 0b90 690B0000 		.4byte	0xb69
 1532 0b94 1C       		.uleb128 0x1c
 1533 0b95 07       		.byte	0x7
 1534 0b96 01       		.byte	0x1
 1535 0b97 63000000 		.4byte	0x63
 1536 0b9b 14       		.byte	0x14
 1537 0b9c 46       		.byte	0x46
 1538 0b9d B40B0000 		.4byte	0xbb4
 1539 0ba1 1D       		.uleb128 0x1d
ARM GAS  /tmp/ccTAg9Zs.s 			page 28


 1540 0ba2 940E0000 		.4byte	.LASF175
 1541 0ba6 00       		.byte	0
 1542 0ba7 1D       		.uleb128 0x1d
 1543 0ba8 2A090000 		.4byte	.LASF176
 1544 0bac 01       		.byte	0x1
 1545 0bad 1D       		.uleb128 0x1d
 1546 0bae 580C0000 		.4byte	.LASF177
 1547 0bb2 02       		.byte	0x2
 1548 0bb3 00       		.byte	0
 1549 0bb4 03       		.uleb128 0x3
 1550 0bb5 59020000 		.4byte	.LASF178
 1551 0bb9 14       		.byte	0x14
 1552 0bba 4A       		.byte	0x4a
 1553 0bbb 940B0000 		.4byte	0xb94
 1554 0bbf 1C       		.uleb128 0x1c
 1555 0bc0 07       		.byte	0x7
 1556 0bc1 01       		.byte	0x1
 1557 0bc2 63000000 		.4byte	0x63
 1558 0bc6 14       		.byte	0x14
 1559 0bc7 4F       		.byte	0x4f
 1560 0bc8 DF0B0000 		.4byte	0xbdf
 1561 0bcc 1D       		.uleb128 0x1d
 1562 0bcd EB0C0000 		.4byte	.LASF179
 1563 0bd1 00       		.byte	0
 1564 0bd2 1D       		.uleb128 0x1d
 1565 0bd3 4E0A0000 		.4byte	.LASF180
 1566 0bd7 01       		.byte	0x1
 1567 0bd8 1D       		.uleb128 0x1d
 1568 0bd9 AC060000 		.4byte	.LASF181
 1569 0bdd 02       		.byte	0x2
 1570 0bde 00       		.byte	0
 1571 0bdf 03       		.uleb128 0x3
 1572 0be0 690C0000 		.4byte	.LASF182
 1573 0be4 14       		.byte	0x14
 1574 0be5 53       		.byte	0x53
 1575 0be6 BF0B0000 		.4byte	0xbbf
 1576 0bea 14       		.uleb128 0x14
 1577 0beb FE070000 		.4byte	.LASF183
 1578 0bef 15       		.byte	0x15
 1579 0bf0 B101     		.2byte	0x1b1
 1580 0bf2 E9000000 		.4byte	0xe9
 1581 0bf6 14       		.uleb128 0x14
 1582 0bf7 BB010000 		.4byte	.LASF184
 1583 0bfb 15       		.byte	0x15
 1584 0bfc B601     		.2byte	0x1b6
 1585 0bfe 020C0000 		.4byte	0xc02
 1586 0c02 0C       		.uleb128 0xc
 1587 0c03 BB010000 		.4byte	.LASF184
 1588 0c07 1C       		.byte	0x1c
 1589 0c08 15       		.byte	0x15
 1590 0c09 FE01     		.2byte	0x1fe
 1591 0c0b 850C0000 		.4byte	0xc85
 1592 0c0f 0A       		.uleb128 0xa
 1593 0c10 EB000000 		.4byte	.LASF185
 1594 0c14 15       		.byte	0x15
 1595 0c15 0202     		.2byte	0x202
 1596 0c17 890B0000 		.4byte	0xb89
ARM GAS  /tmp/ccTAg9Zs.s 			page 29


 1597 0c1b 00       		.byte	0
 1598 0c1c 0A       		.uleb128 0xa
 1599 0c1d 48020000 		.4byte	.LASF186
 1600 0c21 15       		.byte	0x15
 1601 0c22 0602     		.2byte	0x206
 1602 0c24 B40B0000 		.4byte	0xbb4
 1603 0c28 01       		.byte	0x1
 1604 0c29 0A       		.uleb128 0xa
 1605 0c2a 00010000 		.4byte	.LASF187
 1606 0c2e 15       		.byte	0x15
 1607 0c2f 0A02     		.2byte	0x20a
 1608 0c31 DF0B0000 		.4byte	0xbdf
 1609 0c35 02       		.byte	0x2
 1610 0c36 0A       		.uleb128 0xa
 1611 0c37 E4000000 		.4byte	.LASF188
 1612 0c3b 15       		.byte	0x15
 1613 0c3c 0E02     		.2byte	0x20e
 1614 0c3e 7C0D0000 		.4byte	0xd7c
 1615 0c42 04       		.byte	0x4
 1616 0c43 0A       		.uleb128 0xa
 1617 0c44 6F020000 		.4byte	.LASF189
 1618 0c48 15       		.byte	0x15
 1619 0c49 1602     		.2byte	0x216
 1620 0c4b 820D0000 		.4byte	0xd82
 1621 0c4f 08       		.byte	0x8
 1622 0c50 0A       		.uleb128 0xa
 1623 0c51 DD070000 		.4byte	.LASF190
 1624 0c55 15       		.byte	0x15
 1625 0c56 1A02     		.2byte	0x21a
 1626 0c58 E9000000 		.4byte	0xe9
 1627 0c5c 0C       		.byte	0xc
 1628 0c5d 0A       		.uleb128 0xa
 1629 0c5e E7060000 		.4byte	.LASF191
 1630 0c62 15       		.byte	0x15
 1631 0c63 1E02     		.2byte	0x21e
 1632 0c65 880D0000 		.4byte	0xd88
 1633 0c69 10       		.byte	0x10
 1634 0c6a 0A       		.uleb128 0xa
 1635 0c6b 0A080000 		.4byte	.LASF192
 1636 0c6f 15       		.byte	0x15
 1637 0c70 2202     		.2byte	0x222
 1638 0c72 880D0000 		.4byte	0xd88
 1639 0c76 14       		.byte	0x14
 1640 0c77 0A       		.uleb128 0xa
 1641 0c78 80090000 		.4byte	.LASF193
 1642 0c7c 15       		.byte	0x15
 1643 0c7d 2602     		.2byte	0x226
 1644 0c7f D4000000 		.4byte	0xd4
 1645 0c83 18       		.byte	0x18
 1646 0c84 00       		.byte	0
 1647 0c85 14       		.uleb128 0x14
 1648 0c86 A10E0000 		.4byte	.LASF194
 1649 0c8a 15       		.byte	0x15
 1650 0c8b BD01     		.2byte	0x1bd
 1651 0c8d 910C0000 		.4byte	0xc91
 1652 0c91 0B       		.uleb128 0xb
 1653 0c92 04       		.byte	0x4
ARM GAS  /tmp/ccTAg9Zs.s 			page 30


 1654 0c93 970C0000 		.4byte	0xc97
 1655 0c97 0D       		.uleb128 0xd
 1656 0c98 A20C0000 		.4byte	0xca2
 1657 0c9c 0E       		.uleb128 0xe
 1658 0c9d A20C0000 		.4byte	0xca2
 1659 0ca1 00       		.byte	0
 1660 0ca2 0B       		.uleb128 0xb
 1661 0ca3 04       		.byte	0x4
 1662 0ca4 F60B0000 		.4byte	0xbf6
 1663 0ca8 14       		.uleb128 0x14
 1664 0ca9 A00C0000 		.4byte	.LASF195
 1665 0cad 15       		.byte	0x15
 1666 0cae C501     		.2byte	0x1c5
 1667 0cb0 B40C0000 		.4byte	0xcb4
 1668 0cb4 0B       		.uleb128 0xb
 1669 0cb5 04       		.byte	0x4
 1670 0cb6 BA0C0000 		.4byte	0xcba
 1671 0cba 0D       		.uleb128 0xd
 1672 0cbb CA0C0000 		.4byte	0xcca
 1673 0cbf 0E       		.uleb128 0xe
 1674 0cc0 A20C0000 		.4byte	0xca2
 1675 0cc4 0E       		.uleb128 0xe
 1676 0cc5 C9000000 		.4byte	0xc9
 1677 0cc9 00       		.byte	0
 1678 0cca 14       		.uleb128 0x14
 1679 0ccb 56060000 		.4byte	.LASF196
 1680 0ccf 15       		.byte	0x15
 1681 0cd0 CD01     		.2byte	0x1cd
 1682 0cd2 D60C0000 		.4byte	0xcd6
 1683 0cd6 0B       		.uleb128 0xb
 1684 0cd7 04       		.byte	0x4
 1685 0cd8 DC0C0000 		.4byte	0xcdc
 1686 0cdc 0D       		.uleb128 0xd
 1687 0cdd EC0C0000 		.4byte	0xcec
 1688 0ce1 0E       		.uleb128 0xe
 1689 0ce2 A20C0000 		.4byte	0xca2
 1690 0ce6 0E       		.uleb128 0xe
 1691 0ce7 EA0B0000 		.4byte	0xbea
 1692 0ceb 00       		.byte	0
 1693 0cec 13       		.uleb128 0x13
 1694 0ced 20       		.byte	0x20
 1695 0cee 15       		.byte	0x15
 1696 0cef D301     		.2byte	0x1d3
 1697 0cf1 6B0D0000 		.4byte	0xd6b
 1698 0cf5 0A       		.uleb128 0xa
 1699 0cf6 E10C0000 		.4byte	.LASF197
 1700 0cfa 15       		.byte	0x15
 1701 0cfb D701     		.2byte	0x1d7
 1702 0cfd 850C0000 		.4byte	0xc85
 1703 0d01 00       		.byte	0
 1704 0d02 0A       		.uleb128 0xa
 1705 0d03 19060000 		.4byte	.LASF198
 1706 0d07 15       		.byte	0x15
 1707 0d08 DB01     		.2byte	0x1db
 1708 0d0a 850C0000 		.4byte	0xc85
 1709 0d0e 04       		.byte	0x4
 1710 0d0f 0A       		.uleb128 0xa
ARM GAS  /tmp/ccTAg9Zs.s 			page 31


 1711 0d10 1E010000 		.4byte	.LASF199
 1712 0d14 15       		.byte	0x15
 1713 0d15 DF01     		.2byte	0x1df
 1714 0d17 850C0000 		.4byte	0xc85
 1715 0d1b 08       		.byte	0x8
 1716 0d1c 0A       		.uleb128 0xa
 1717 0d1d 94040000 		.4byte	.LASF200
 1718 0d21 15       		.byte	0x15
 1719 0d22 E301     		.2byte	0x1e3
 1720 0d24 A80C0000 		.4byte	0xca8
 1721 0d28 0C       		.byte	0xc
 1722 0d29 0A       		.uleb128 0xa
 1723 0d2a 30080000 		.4byte	.LASF201
 1724 0d2e 15       		.byte	0x15
 1725 0d2f E701     		.2byte	0x1e7
 1726 0d31 CA0C0000 		.4byte	0xcca
 1727 0d35 10       		.byte	0x10
 1728 0d36 0A       		.uleb128 0xa
 1729 0d37 CD040000 		.4byte	.LASF202
 1730 0d3b 15       		.byte	0x15
 1731 0d3c EC01     		.2byte	0x1ec
 1732 0d3e E9000000 		.4byte	0xe9
 1733 0d42 14       		.byte	0x14
 1734 0d43 09       		.uleb128 0x9
 1735 0d44 63723100 		.ascii	"cr1\000"
 1736 0d48 15       		.byte	0x15
 1737 0d49 F001     		.2byte	0x1f0
 1738 0d4b C9000000 		.4byte	0xc9
 1739 0d4f 18       		.byte	0x18
 1740 0d50 09       		.uleb128 0x9
 1741 0d51 63723200 		.ascii	"cr2\000"
 1742 0d55 15       		.byte	0x15
 1743 0d56 F401     		.2byte	0x1f4
 1744 0d58 C9000000 		.4byte	0xc9
 1745 0d5c 1A       		.byte	0x1a
 1746 0d5d 09       		.uleb128 0x9
 1747 0d5e 63723300 		.ascii	"cr3\000"
 1748 0d62 15       		.byte	0x15
 1749 0d63 F801     		.2byte	0x1f8
 1750 0d65 C9000000 		.4byte	0xc9
 1751 0d69 1C       		.byte	0x1c
 1752 0d6a 00       		.byte	0
 1753 0d6b 14       		.uleb128 0x14
 1754 0d6c 89050000 		.4byte	.LASF203
 1755 0d70 15       		.byte	0x15
 1756 0d71 F901     		.2byte	0x1f9
 1757 0d73 EC0C0000 		.4byte	0xcec
 1758 0d77 06       		.uleb128 0x6
 1759 0d78 6B0D0000 		.4byte	0xd6b
 1760 0d7c 0B       		.uleb128 0xb
 1761 0d7d 04       		.byte	0x4
 1762 0d7e 770D0000 		.4byte	0xd77
 1763 0d82 0B       		.uleb128 0xb
 1764 0d83 04       		.byte	0x4
 1765 0d84 5A050000 		.4byte	0x55a
 1766 0d88 0B       		.uleb128 0xb
 1767 0d89 04       		.byte	0x4
ARM GAS  /tmp/ccTAg9Zs.s 			page 32


 1768 0d8a 430A0000 		.4byte	0xa43
 1769 0d8e 11       		.uleb128 0x11
 1770 0d8f 810F0000 		.4byte	.LASF204
 1771 0d93 15       		.byte	0x15
 1772 0d94 3A02     		.2byte	0x23a
 1773 0d96 F60B0000 		.4byte	0xbf6
 1774 0d9a 03       		.uleb128 0x3
 1775 0d9b D9030000 		.4byte	.LASF205
 1776 0d9f 16       		.byte	0x16
 1777 0da0 FA       		.byte	0xfa
 1778 0da1 A50D0000 		.4byte	0xda5
 1779 0da5 10       		.uleb128 0x10
 1780 0da6 D9030000 		.4byte	.LASF205
 1781 0daa 3802     		.2byte	0x238
 1782 0dac 17       		.byte	0x17
 1783 0dad 7701     		.2byte	0x177
 1784 0daf D10E0000 		.4byte	0xed1
 1785 0db3 0A       		.uleb128 0xa
 1786 0db4 EB000000 		.4byte	.LASF185
 1787 0db8 17       		.byte	0x17
 1788 0db9 7B01     		.2byte	0x17b
 1789 0dbb 090F0000 		.4byte	0xf09
 1790 0dbf 00       		.byte	0
 1791 0dc0 0A       		.uleb128 0xa
 1792 0dc1 E4000000 		.4byte	.LASF188
 1793 0dc5 17       		.byte	0x17
 1794 0dc6 7F01     		.2byte	0x17f
 1795 0dc8 2C180000 		.4byte	0x182c
 1796 0dcc 04       		.byte	0x4
 1797 0dcd 0A       		.uleb128 0xa
 1798 0dce 51040000 		.4byte	.LASF206
 1799 0dd2 17       		.byte	0x17
 1800 0dd3 8301     		.2byte	0x183
 1801 0dd5 C9000000 		.4byte	0xc9
 1802 0dd9 08       		.byte	0x8
 1803 0dda 0A       		.uleb128 0xa
 1804 0ddb C4030000 		.4byte	.LASF207
 1805 0ddf 17       		.byte	0x17
 1806 0de0 8701     		.2byte	0x187
 1807 0de2 C9000000 		.4byte	0xc9
 1808 0de6 0A       		.byte	0xa
 1809 0de7 09       		.uleb128 0x9
 1810 0de8 65706300 		.ascii	"epc\000"
 1811 0dec 17       		.byte	0x17
 1812 0ded 8B01     		.2byte	0x18b
 1813 0def 32180000 		.4byte	0x1832
 1814 0df3 0C       		.byte	0xc
 1815 0df4 0A       		.uleb128 0xa
 1816 0df5 000D0000 		.4byte	.LASF208
 1817 0df9 17       		.byte	0x17
 1818 0dfa 9201     		.2byte	0x192
 1819 0dfc 48180000 		.4byte	0x1848
 1820 0e00 1C       		.byte	0x1c
 1821 0e01 0A       		.uleb128 0xa
 1822 0e02 6F0F0000 		.4byte	.LASF209
 1823 0e06 17       		.byte	0x17
 1824 0e07 9901     		.2byte	0x199
ARM GAS  /tmp/ccTAg9Zs.s 			page 33


 1825 0e09 48180000 		.4byte	0x1848
 1826 0e0d 28       		.byte	0x28
 1827 0e0e 0A       		.uleb128 0xa
 1828 0e0f 41030000 		.4byte	.LASF210
 1829 0e13 17       		.byte	0x17
 1830 0e14 9D01     		.2byte	0x19d
 1831 0e16 4E0F0000 		.4byte	0xf4e
 1832 0e1a 34       		.byte	0x34
 1833 0e1b 0A       		.uleb128 0xa
 1834 0e1c 80070000 		.4byte	.LASF211
 1835 0e20 17       		.byte	0x17
 1836 0e21 A101     		.2byte	0x1a1
 1837 0e23 C5090000 		.4byte	0x9c5
 1838 0e27 38       		.byte	0x38
 1839 0e28 0A       		.uleb128 0xa
 1840 0e29 AA030000 		.4byte	.LASF212
 1841 0e2d 17       		.byte	0x17
 1842 0e2e A501     		.2byte	0x1a5
 1843 0e30 2C000000 		.4byte	0x2c
 1844 0e34 3C       		.byte	0x3c
 1845 0e35 0A       		.uleb128 0xa
 1846 0e36 C7050000 		.4byte	.LASF213
 1847 0e3a 17       		.byte	0x17
 1848 0e3b A901     		.2byte	0x1a9
 1849 0e3d CE0F0000 		.4byte	0xfce
 1850 0e41 40       		.byte	0x40
 1851 0e42 0A       		.uleb128 0xa
 1852 0e43 C7040000 		.4byte	.LASF214
 1853 0e47 17       		.byte	0x17
 1854 0e48 AD01     		.2byte	0x1ad
 1855 0e4a 58180000 		.4byte	0x1858
 1856 0e4e 44       		.byte	0x44
 1857 0e4f 0A       		.uleb128 0xa
 1858 0e50 94050000 		.4byte	.LASF215
 1859 0e54 17       		.byte	0x17
 1860 0e55 B101     		.2byte	0x1b1
 1861 0e57 C9000000 		.4byte	0xc9
 1862 0e5b 4C       		.byte	0x4c
 1863 0e5c 0A       		.uleb128 0xa
 1864 0e5d 9B050000 		.4byte	.LASF216
 1865 0e61 17       		.byte	0x17
 1866 0e62 B501     		.2byte	0x1b5
 1867 0e64 B9000000 		.4byte	0xb9
 1868 0e68 4E       		.byte	0x4e
 1869 0e69 0A       		.uleb128 0xa
 1870 0e6a 22050000 		.4byte	.LASF217
 1871 0e6e 17       		.byte	0x17
 1872 0e6f B901     		.2byte	0x1b9
 1873 0e71 B9000000 		.4byte	0xb9
 1874 0e75 4F       		.byte	0x4f
 1875 0e76 09       		.uleb128 0x9
 1876 0e77 6F746700 		.ascii	"otg\000"
 1877 0e7b 17       		.byte	0x17
 1878 0e7c C101     		.2byte	0x1c1
 1879 0e7e 68180000 		.4byte	0x1868
 1880 0e82 50       		.byte	0x50
 1881 0e83 0A       		.uleb128 0xa
ARM GAS  /tmp/ccTAg9Zs.s 			page 34


 1882 0e84 A6090000 		.4byte	.LASF218
 1883 0e88 17       		.byte	0x17
 1884 0e89 C501     		.2byte	0x1c5
 1885 0e8b 6E180000 		.4byte	0x186e
 1886 0e8f 54       		.byte	0x54
 1887 0e90 0A       		.uleb128 0xa
 1888 0e91 ED0F0000 		.4byte	.LASF219
 1889 0e95 17       		.byte	0x17
 1890 0e96 C901     		.2byte	0x1c9
 1891 0e98 E9000000 		.4byte	0xe9
 1892 0e9c 58       		.byte	0x58
 1893 0e9d 0A       		.uleb128 0xa
 1894 0e9e 66080000 		.4byte	.LASF220
 1895 0ea2 17       		.byte	0x17
 1896 0ea3 CD01     		.2byte	0x1cd
 1897 0ea5 E9000000 		.4byte	0xe9
 1898 0ea9 5C       		.byte	0x5c
 1899 0eaa 0A       		.uleb128 0xa
 1900 0eab E5070000 		.4byte	.LASF221
 1901 0eaf 17       		.byte	0x17
 1902 0eb0 D101     		.2byte	0x1d1
 1903 0eb2 5F020000 		.4byte	0x25f
 1904 0eb6 60       		.byte	0x60
 1905 0eb7 09       		.uleb128 0x9
 1906 0eb8 747200   		.ascii	"tr\000"
 1907 0ebb 17       		.byte	0x17
 1908 0ebc D601     		.2byte	0x1d6
 1909 0ebe 5F020000 		.4byte	0x25f
 1910 0ec2 64       		.byte	0x64
 1911 0ec3 0A       		.uleb128 0xa
 1912 0ec4 F80C0000 		.4byte	.LASF222
 1913 0ec8 17       		.byte	0x17
 1914 0ec9 DA01     		.2byte	0x1da
 1915 0ecb 74180000 		.4byte	0x1874
 1916 0ecf 68       		.byte	0x68
 1917 0ed0 00       		.byte	0
 1918 0ed1 03       		.uleb128 0x3
 1919 0ed2 D60E0000 		.4byte	.LASF223
 1920 0ed6 16       		.byte	0x16
 1921 0ed7 FF       		.byte	0xff
 1922 0ed8 B9000000 		.4byte	0xb9
 1923 0edc 1E       		.uleb128 0x1e
 1924 0edd 07       		.byte	0x7
 1925 0ede 01       		.byte	0x1
 1926 0edf 63000000 		.4byte	0x63
 1927 0ee3 16       		.byte	0x16
 1928 0ee4 0401     		.2byte	0x104
 1929 0ee6 090F0000 		.4byte	0xf09
 1930 0eea 1D       		.uleb128 0x1d
 1931 0eeb C5090000 		.4byte	.LASF224
 1932 0eef 00       		.byte	0
 1933 0ef0 1D       		.uleb128 0x1d
 1934 0ef1 67060000 		.4byte	.LASF225
 1935 0ef5 01       		.byte	0x1
 1936 0ef6 1D       		.uleb128 0x1d
 1937 0ef7 41070000 		.4byte	.LASF226
 1938 0efb 02       		.byte	0x2
ARM GAS  /tmp/ccTAg9Zs.s 			page 35


 1939 0efc 1D       		.uleb128 0x1d
 1940 0efd 0E050000 		.4byte	.LASF227
 1941 0f01 03       		.byte	0x3
 1942 0f02 1D       		.uleb128 0x1d
 1943 0f03 13010000 		.4byte	.LASF228
 1944 0f07 04       		.byte	0x4
 1945 0f08 00       		.byte	0
 1946 0f09 14       		.uleb128 0x14
 1947 0f0a 91060000 		.4byte	.LASF229
 1948 0f0e 16       		.byte	0x16
 1949 0f0f 0A01     		.2byte	0x10a
 1950 0f11 DC0E0000 		.4byte	0xedc
 1951 0f15 1E       		.uleb128 0x1e
 1952 0f16 07       		.byte	0x7
 1953 0f17 01       		.byte	0x1
 1954 0f18 63000000 		.4byte	0x63
 1955 0f1c 16       		.byte	0x16
 1956 0f1d 1801     		.2byte	0x118
 1957 0f1f 4E0F0000 		.4byte	0xf4e
 1958 0f23 1D       		.uleb128 0x1d
 1959 0f24 2A020000 		.4byte	.LASF230
 1960 0f28 00       		.byte	0
 1961 0f29 1D       		.uleb128 0x1d
 1962 0f2a C4000000 		.4byte	.LASF231
 1963 0f2e 01       		.byte	0x1
 1964 0f2f 1D       		.uleb128 0x1d
 1965 0f30 86090000 		.4byte	.LASF232
 1966 0f34 02       		.byte	0x2
 1967 0f35 1D       		.uleb128 0x1d
 1968 0f36 CB0F0000 		.4byte	.LASF233
 1969 0f3a 03       		.byte	0x3
 1970 0f3b 1D       		.uleb128 0x1d
 1971 0f3c 0C100000 		.4byte	.LASF234
 1972 0f40 04       		.byte	0x4
 1973 0f41 1D       		.uleb128 0x1d
 1974 0f42 AC0F0000 		.4byte	.LASF235
 1975 0f46 05       		.byte	0x5
 1976 0f47 1D       		.uleb128 0x1d
 1977 0f48 FF020000 		.4byte	.LASF236
 1978 0f4c 06       		.byte	0x6
 1979 0f4d 00       		.byte	0
 1980 0f4e 14       		.uleb128 0x14
 1981 0f4f 5A010000 		.4byte	.LASF237
 1982 0f53 16       		.byte	0x16
 1983 0f54 2001     		.2byte	0x120
 1984 0f56 150F0000 		.4byte	0xf15
 1985 0f5a 1E       		.uleb128 0x1e
 1986 0f5b 07       		.byte	0x7
 1987 0f5c 01       		.byte	0x1
 1988 0f5d 63000000 		.4byte	0x63
 1989 0f61 16       		.byte	0x16
 1990 0f62 2501     		.2byte	0x125
 1991 0f64 8D0F0000 		.4byte	0xf8d
 1992 0f68 1D       		.uleb128 0x1d
 1993 0f69 6F0D0000 		.4byte	.LASF238
 1994 0f6d 00       		.byte	0
 1995 0f6e 1D       		.uleb128 0x1d
ARM GAS  /tmp/ccTAg9Zs.s 			page 36


 1996 0f6f 8F010000 		.4byte	.LASF239
 1997 0f73 01       		.byte	0x1
 1998 0f74 1D       		.uleb128 0x1d
 1999 0f75 8B0C0000 		.4byte	.LASF240
 2000 0f79 02       		.byte	0x2
 2001 0f7a 1D       		.uleb128 0x1d
 2002 0f7b 460F0000 		.4byte	.LASF241
 2003 0f7f 03       		.byte	0x3
 2004 0f80 1D       		.uleb128 0x1d
 2005 0f81 FE060000 		.4byte	.LASF242
 2006 0f85 04       		.byte	0x4
 2007 0f86 1D       		.uleb128 0x1d
 2008 0f87 A3020000 		.4byte	.LASF243
 2009 0f8b 05       		.byte	0x5
 2010 0f8c 00       		.byte	0
 2011 0f8d 14       		.uleb128 0x14
 2012 0f8e E5040000 		.4byte	.LASF244
 2013 0f92 16       		.byte	0x16
 2014 0f93 2C01     		.2byte	0x12c
 2015 0f95 5A0F0000 		.4byte	0xf5a
 2016 0f99 13       		.uleb128 0x13
 2017 0f9a 08       		.byte	0x8
 2018 0f9b 16       		.byte	0x16
 2019 0f9c 3101     		.2byte	0x131
 2020 0f9e BD0F0000 		.4byte	0xfbd
 2021 0fa2 0A       		.uleb128 0xa
 2022 0fa3 FE040000 		.4byte	.LASF245
 2023 0fa7 16       		.byte	0x16
 2024 0fa8 3501     		.2byte	0x135
 2025 0faa 2C000000 		.4byte	0x2c
 2026 0fae 00       		.byte	0
 2027 0faf 0A       		.uleb128 0xa
 2028 0fb0 CE060000 		.4byte	.LASF246
 2029 0fb4 16       		.byte	0x16
 2030 0fb5 3901     		.2byte	0x139
 2031 0fb7 E1090000 		.4byte	0x9e1
 2032 0fbb 04       		.byte	0x4
 2033 0fbc 00       		.byte	0
 2034 0fbd 14       		.uleb128 0x14
 2035 0fbe A6040000 		.4byte	.LASF247
 2036 0fc2 16       		.byte	0x16
 2037 0fc3 3A01     		.2byte	0x13a
 2038 0fc5 990F0000 		.4byte	0xf99
 2039 0fc9 06       		.uleb128 0x6
 2040 0fca BD0F0000 		.4byte	0xfbd
 2041 0fce 14       		.uleb128 0x14
 2042 0fcf 290E0000 		.4byte	.LASF248
 2043 0fd3 16       		.byte	0x16
 2044 0fd4 4201     		.2byte	0x142
 2045 0fd6 DA0F0000 		.4byte	0xfda
 2046 0fda 0B       		.uleb128 0xb
 2047 0fdb 04       		.byte	0x4
 2048 0fdc E00F0000 		.4byte	0xfe0
 2049 0fe0 0D       		.uleb128 0xd
 2050 0fe1 EB0F0000 		.4byte	0xfeb
 2051 0fe5 0E       		.uleb128 0xe
 2052 0fe6 EB0F0000 		.4byte	0xfeb
ARM GAS  /tmp/ccTAg9Zs.s 			page 37


 2053 0fea 00       		.byte	0
 2054 0feb 0B       		.uleb128 0xb
 2055 0fec 04       		.byte	0x4
 2056 0fed 9A0D0000 		.4byte	0xd9a
 2057 0ff1 14       		.uleb128 0x14
 2058 0ff2 9E070000 		.4byte	.LASF249
 2059 0ff6 16       		.byte	0x16
 2060 0ff7 4B01     		.2byte	0x14b
 2061 0ff9 FD0F0000 		.4byte	0xffd
 2062 0ffd 0B       		.uleb128 0xb
 2063 0ffe 04       		.byte	0x4
 2064 0fff 03100000 		.4byte	0x1003
 2065 1003 0D       		.uleb128 0xd
 2066 1004 13100000 		.4byte	0x1013
 2067 1008 0E       		.uleb128 0xe
 2068 1009 EB0F0000 		.4byte	0xfeb
 2069 100d 0E       		.uleb128 0xe
 2070 100e D10E0000 		.4byte	0xed1
 2071 1012 00       		.byte	0
 2072 1013 14       		.uleb128 0x14
 2073 1014 1C040000 		.4byte	.LASF250
 2074 1018 16       		.byte	0x16
 2075 1019 5401     		.2byte	0x154
 2076 101b 1F100000 		.4byte	0x101f
 2077 101f 0B       		.uleb128 0xb
 2078 1020 04       		.byte	0x4
 2079 1021 25100000 		.4byte	0x1025
 2080 1025 0D       		.uleb128 0xd
 2081 1026 35100000 		.4byte	0x1035
 2082 102a 0E       		.uleb128 0xe
 2083 102b EB0F0000 		.4byte	0xfeb
 2084 102f 0E       		.uleb128 0xe
 2085 1030 8D0F0000 		.4byte	0xf8d
 2086 1034 00       		.byte	0
 2087 1035 14       		.uleb128 0x14
 2088 1036 070E0000 		.4byte	.LASF251
 2089 103a 16       		.byte	0x16
 2090 103b 6001     		.2byte	0x160
 2091 103d 41100000 		.4byte	0x1041
 2092 1041 0B       		.uleb128 0xb
 2093 1042 04       		.byte	0x4
 2094 1043 47100000 		.4byte	0x1047
 2095 1047 1F       		.uleb128 0x1f
 2096 1048 690A0000 		.4byte	0xa69
 2097 104c 56100000 		.4byte	0x1056
 2098 1050 0E       		.uleb128 0xe
 2099 1051 EB0F0000 		.4byte	0xfeb
 2100 1055 00       		.byte	0
 2101 1056 14       		.uleb128 0x14
 2102 1057 CE0C0000 		.4byte	.LASF252
 2103 105b 16       		.byte	0x16
 2104 105c 6501     		.2byte	0x165
 2105 105e 62100000 		.4byte	0x1062
 2106 1062 0B       		.uleb128 0xb
 2107 1063 04       		.byte	0x4
 2108 1064 68100000 		.4byte	0x1068
 2109 1068 1F       		.uleb128 0x1f
ARM GAS  /tmp/ccTAg9Zs.s 			page 38


 2110 1069 86100000 		.4byte	0x1086
 2111 106d 86100000 		.4byte	0x1086
 2112 1071 0E       		.uleb128 0xe
 2113 1072 EB0F0000 		.4byte	0xfeb
 2114 1076 0E       		.uleb128 0xe
 2115 1077 B9000000 		.4byte	0xb9
 2116 107b 0E       		.uleb128 0xe
 2117 107c B9000000 		.4byte	0xb9
 2118 1080 0E       		.uleb128 0xe
 2119 1081 C9000000 		.4byte	0xc9
 2120 1085 00       		.byte	0
 2121 1086 0B       		.uleb128 0xb
 2122 1087 04       		.byte	0x4
 2123 1088 C90F0000 		.4byte	0xfc9
 2124 108c 18       		.uleb128 0x18
 2125 108d 20       		.byte	0x20
 2126 108e 18       		.byte	0x18
 2127 108f 35       		.byte	0x35
 2128 1090 F5100000 		.4byte	0x10f5
 2129 1094 08       		.uleb128 0x8
 2130 1095 7E030000 		.4byte	.LASF253
 2131 1099 18       		.byte	0x18
 2132 109a 36       		.byte	0x36
 2133 109b F4000000 		.4byte	0xf4
 2134 109f 00       		.byte	0
 2135 10a0 08       		.uleb128 0x8
 2136 10a1 8B000000 		.4byte	.LASF254
 2137 10a5 18       		.byte	0x18
 2138 10a6 38       		.byte	0x38
 2139 10a7 F4000000 		.4byte	0xf4
 2140 10ab 04       		.byte	0x4
 2141 10ac 08       		.uleb128 0x8
 2142 10ad 5D0A0000 		.4byte	.LASF255
 2143 10b1 18       		.byte	0x18
 2144 10b2 39       		.byte	0x39
 2145 10b3 F4000000 		.4byte	0xf4
 2146 10b7 08       		.byte	0x8
 2147 10b8 08       		.uleb128 0x8
 2148 10b9 980A0000 		.4byte	.LASF256
 2149 10bd 18       		.byte	0x18
 2150 10be 3A       		.byte	0x3a
 2151 10bf F4000000 		.4byte	0xf4
 2152 10c3 0C       		.byte	0xc
 2153 10c4 08       		.uleb128 0x8
 2154 10c5 D4000000 		.4byte	.LASF257
 2155 10c9 18       		.byte	0x18
 2156 10ca 3C       		.byte	0x3c
 2157 10cb F4000000 		.4byte	0xf4
 2158 10cf 10       		.byte	0x10
 2159 10d0 08       		.uleb128 0x8
 2160 10d1 7F0D0000 		.4byte	.LASF258
 2161 10d5 18       		.byte	0x18
 2162 10d6 3E       		.byte	0x3e
 2163 10d7 F4000000 		.4byte	0xf4
 2164 10db 14       		.byte	0x14
 2165 10dc 08       		.uleb128 0x8
 2166 10dd 870D0000 		.4byte	.LASF259
ARM GAS  /tmp/ccTAg9Zs.s 			page 39


 2167 10e1 18       		.byte	0x18
 2168 10e2 3F       		.byte	0x3f
 2169 10e3 F4000000 		.4byte	0xf4
 2170 10e7 18       		.byte	0x18
 2171 10e8 08       		.uleb128 0x8
 2172 10e9 F40D0000 		.4byte	.LASF260
 2173 10ed 18       		.byte	0x18
 2174 10ee 40       		.byte	0x40
 2175 10ef F4000000 		.4byte	0xf4
 2176 10f3 1C       		.byte	0x1c
 2177 10f4 00       		.byte	0
 2178 10f5 03       		.uleb128 0x3
 2179 10f6 3C040000 		.4byte	.LASF261
 2180 10fa 18       		.byte	0x18
 2181 10fb 41       		.byte	0x41
 2182 10fc 8C100000 		.4byte	0x108c
 2183 1100 18       		.uleb128 0x18
 2184 1101 20       		.byte	0x20
 2185 1102 18       		.byte	0x18
 2186 1103 46       		.byte	0x46
 2187 1104 69110000 		.4byte	0x1169
 2188 1108 08       		.uleb128 0x8
 2189 1109 170E0000 		.4byte	.LASF262
 2190 110d 18       		.byte	0x18
 2191 110e 47       		.byte	0x47
 2192 110f F4000000 		.4byte	0xf4
 2193 1113 00       		.byte	0
 2194 1114 08       		.uleb128 0x8
 2195 1115 84000000 		.4byte	.LASF263
 2196 1119 18       		.byte	0x18
 2197 111a 49       		.byte	0x49
 2198 111b F4000000 		.4byte	0xf4
 2199 111f 04       		.byte	0x4
 2200 1120 08       		.uleb128 0x8
 2201 1121 4E0E0000 		.4byte	.LASF264
 2202 1125 18       		.byte	0x18
 2203 1126 4A       		.byte	0x4a
 2204 1127 F4000000 		.4byte	0xf4
 2205 112b 08       		.byte	0x8
 2206 112c 08       		.uleb128 0x8
 2207 112d A6000000 		.4byte	.LASF265
 2208 1131 18       		.byte	0x18
 2209 1132 4C       		.byte	0x4c
 2210 1133 F4000000 		.4byte	0xf4
 2211 1137 0C       		.byte	0xc
 2212 1138 08       		.uleb128 0x8
 2213 1139 59030000 		.4byte	.LASF266
 2214 113d 18       		.byte	0x18
 2215 113e 4D       		.byte	0x4d
 2216 113f F4000000 		.4byte	0xf4
 2217 1143 10       		.byte	0x10
 2218 1144 08       		.uleb128 0x8
 2219 1145 7F0D0000 		.4byte	.LASF258
 2220 1149 18       		.byte	0x18
 2221 114a 4F       		.byte	0x4f
 2222 114b F4000000 		.4byte	0xf4
 2223 114f 14       		.byte	0x14
ARM GAS  /tmp/ccTAg9Zs.s 			page 40


 2224 1150 08       		.uleb128 0x8
 2225 1151 8F0D0000 		.4byte	.LASF267
 2226 1155 18       		.byte	0x18
 2227 1156 50       		.byte	0x50
 2228 1157 F4000000 		.4byte	0xf4
 2229 115b 18       		.byte	0x18
 2230 115c 08       		.uleb128 0x8
 2231 115d 9F0D0000 		.4byte	.LASF268
 2232 1161 18       		.byte	0x18
 2233 1162 52       		.byte	0x52
 2234 1163 F4000000 		.4byte	0xf4
 2235 1167 1C       		.byte	0x1c
 2236 1168 00       		.byte	0
 2237 1169 03       		.uleb128 0x3
 2238 116a 460C0000 		.4byte	.LASF269
 2239 116e 18       		.byte	0x18
 2240 116f 53       		.byte	0x53
 2241 1170 00110000 		.4byte	0x1100
 2242 1174 18       		.uleb128 0x18
 2243 1175 20       		.byte	0x20
 2244 1176 18       		.byte	0x18
 2245 1177 58       		.byte	0x58
 2246 1178 DD110000 		.4byte	0x11dd
 2247 117c 08       		.uleb128 0x8
 2248 117d 67020000 		.4byte	.LASF270
 2249 1181 18       		.byte	0x18
 2250 1182 59       		.byte	0x59
 2251 1183 F4000000 		.4byte	0xf4
 2252 1187 00       		.byte	0
 2253 1188 08       		.uleb128 0x8
 2254 1189 84000000 		.4byte	.LASF263
 2255 118d 18       		.byte	0x18
 2256 118e 5B       		.byte	0x5b
 2257 118f F4000000 		.4byte	0xf4
 2258 1193 04       		.byte	0x4
 2259 1194 08       		.uleb128 0x8
 2260 1195 B5020000 		.4byte	.LASF271
 2261 1199 18       		.byte	0x18
 2262 119a 5C       		.byte	0x5c
 2263 119b F4000000 		.4byte	0xf4
 2264 119f 08       		.byte	0x8
 2265 11a0 08       		.uleb128 0x8
 2266 11a1 A6000000 		.4byte	.LASF265
 2267 11a5 18       		.byte	0x18
 2268 11a6 5E       		.byte	0x5e
 2269 11a7 F4000000 		.4byte	0xf4
 2270 11ab 0C       		.byte	0xc
 2271 11ac 08       		.uleb128 0x8
 2272 11ad 18080000 		.4byte	.LASF272
 2273 11b1 18       		.byte	0x18
 2274 11b2 5F       		.byte	0x5f
 2275 11b3 F4000000 		.4byte	0xf4
 2276 11b7 10       		.byte	0x10
 2277 11b8 08       		.uleb128 0x8
 2278 11b9 7F0D0000 		.4byte	.LASF258
 2279 11bd 18       		.byte	0x18
 2280 11be 61       		.byte	0x61
ARM GAS  /tmp/ccTAg9Zs.s 			page 41


 2281 11bf F4000000 		.4byte	0xf4
 2282 11c3 14       		.byte	0x14
 2283 11c4 08       		.uleb128 0x8
 2284 11c5 870D0000 		.4byte	.LASF259
 2285 11c9 18       		.byte	0x18
 2286 11ca 62       		.byte	0x62
 2287 11cb F4000000 		.4byte	0xf4
 2288 11cf 18       		.byte	0x18
 2289 11d0 08       		.uleb128 0x8
 2290 11d1 9F0D0000 		.4byte	.LASF268
 2291 11d5 18       		.byte	0x18
 2292 11d6 63       		.byte	0x63
 2293 11d7 F4000000 		.4byte	0xf4
 2294 11db 1C       		.byte	0x1c
 2295 11dc 00       		.byte	0
 2296 11dd 03       		.uleb128 0x3
 2297 11de 85030000 		.4byte	.LASF273
 2298 11e2 18       		.byte	0x18
 2299 11e3 64       		.byte	0x64
 2300 11e4 74110000 		.4byte	0x1174
 2301 11e8 20       		.uleb128 0x20
 2302 11e9 00100100 		.4byte	0x11000
 2303 11ed 18       		.byte	0x18
 2304 11ee 69       		.byte	0x69
 2305 11ef C5140000 		.4byte	0x14c5
 2306 11f3 08       		.uleb128 0x8
 2307 11f4 C6060000 		.4byte	.LASF274
 2308 11f8 18       		.byte	0x18
 2309 11f9 6A       		.byte	0x6a
 2310 11fa F4000000 		.4byte	0xf4
 2311 11fe 00       		.byte	0
 2312 11ff 08       		.uleb128 0x8
 2313 1200 2B070000 		.4byte	.LASF275
 2314 1204 18       		.byte	0x18
 2315 1205 6B       		.byte	0x6b
 2316 1206 F4000000 		.4byte	0xf4
 2317 120a 04       		.byte	0x4
 2318 120b 08       		.uleb128 0x8
 2319 120c DA050000 		.4byte	.LASF276
 2320 1210 18       		.byte	0x18
 2321 1211 6C       		.byte	0x6c
 2322 1212 F4000000 		.4byte	0xf4
 2323 1216 08       		.byte	0x8
 2324 1217 08       		.uleb128 0x8
 2325 1218 FD0F0000 		.4byte	.LASF277
 2326 121c 18       		.byte	0x18
 2327 121d 6D       		.byte	0x6d
 2328 121e F4000000 		.4byte	0xf4
 2329 1222 0C       		.byte	0xc
 2330 1223 08       		.uleb128 0x8
 2331 1224 370E0000 		.4byte	.LASF278
 2332 1228 18       		.byte	0x18
 2333 1229 6E       		.byte	0x6e
 2334 122a F4000000 		.4byte	0xf4
 2335 122e 10       		.byte	0x10
 2336 122f 08       		.uleb128 0x8
 2337 1230 3F0E0000 		.4byte	.LASF279
ARM GAS  /tmp/ccTAg9Zs.s 			page 42


 2338 1234 18       		.byte	0x18
 2339 1235 6F       		.byte	0x6f
 2340 1236 F4000000 		.4byte	0xf4
 2341 123a 14       		.byte	0x14
 2342 123b 08       		.uleb128 0x8
 2343 123c F4080000 		.4byte	.LASF280
 2344 1240 18       		.byte	0x18
 2345 1241 70       		.byte	0x70
 2346 1242 F4000000 		.4byte	0xf4
 2347 1246 18       		.byte	0x18
 2348 1247 08       		.uleb128 0x8
 2349 1248 F6060000 		.4byte	.LASF281
 2350 124c 18       		.byte	0x18
 2351 124d 71       		.byte	0x71
 2352 124e F4000000 		.4byte	0xf4
 2353 1252 1C       		.byte	0x1c
 2354 1253 08       		.uleb128 0x8
 2355 1254 4B070000 		.4byte	.LASF282
 2356 1258 18       		.byte	0x18
 2357 1259 73       		.byte	0x73
 2358 125a F4000000 		.4byte	0xf4
 2359 125e 20       		.byte	0x20
 2360 125f 08       		.uleb128 0x8
 2361 1260 36050000 		.4byte	.LASF283
 2362 1264 18       		.byte	0x18
 2363 1265 75       		.byte	0x75
 2364 1266 F4000000 		.4byte	0xf4
 2365 126a 24       		.byte	0x24
 2366 126b 08       		.uleb128 0x8
 2367 126c A1010000 		.4byte	.LASF284
 2368 1270 18       		.byte	0x18
 2369 1271 76       		.byte	0x76
 2370 1272 F4000000 		.4byte	0xf4
 2371 1276 28       		.byte	0x28
 2372 1277 08       		.uleb128 0x8
 2373 1278 560E0000 		.4byte	.LASF285
 2374 127c 18       		.byte	0x18
 2375 127d 78       		.byte	0x78
 2376 127e F4000000 		.4byte	0xf4
 2377 1282 2C       		.byte	0x2c
 2378 1283 08       		.uleb128 0x8
 2379 1284 B30E0000 		.4byte	.LASF286
 2380 1288 18       		.byte	0x18
 2381 1289 7A       		.byte	0x7a
 2382 128a F4000000 		.4byte	0xf4
 2383 128e 30       		.byte	0x30
 2384 128f 08       		.uleb128 0x8
 2385 1290 C50E0000 		.4byte	.LASF287
 2386 1294 18       		.byte	0x18
 2387 1295 7B       		.byte	0x7b
 2388 1296 F4000000 		.4byte	0xf4
 2389 129a 34       		.byte	0x34
 2390 129b 08       		.uleb128 0x8
 2391 129c 3B030000 		.4byte	.LASF288
 2392 12a0 18       		.byte	0x18
 2393 12a1 7C       		.byte	0x7c
 2394 12a2 F4000000 		.4byte	0xf4
ARM GAS  /tmp/ccTAg9Zs.s 			page 43


 2395 12a6 38       		.byte	0x38
 2396 12a7 17       		.uleb128 0x17
 2397 12a8 43494400 		.ascii	"CID\000"
 2398 12ac 18       		.byte	0x18
 2399 12ad 7D       		.byte	0x7d
 2400 12ae F4000000 		.4byte	0xf4
 2401 12b2 3C       		.byte	0x3c
 2402 12b3 08       		.uleb128 0x8
 2403 12b4 A40F0000 		.4byte	.LASF289
 2404 12b8 18       		.byte	0x18
 2405 12b9 7E       		.byte	0x7e
 2406 12ba D5140000 		.4byte	0x14d5
 2407 12be 40       		.byte	0x40
 2408 12bf 21       		.uleb128 0x21
 2409 12c0 2D0A0000 		.4byte	.LASF290
 2410 12c4 18       		.byte	0x18
 2411 12c5 7F       		.byte	0x7f
 2412 12c6 F4000000 		.4byte	0xf4
 2413 12ca 0001     		.2byte	0x100
 2414 12cc 21       		.uleb128 0x21
 2415 12cd 67050000 		.4byte	.LASF291
 2416 12d1 18       		.byte	0x18
 2417 12d2 81       		.byte	0x81
 2418 12d3 76050000 		.4byte	0x576
 2419 12d7 0401     		.2byte	0x104
 2420 12d9 21       		.uleb128 0x21
 2421 12da 17100000 		.4byte	.LASF292
 2422 12de 18       		.byte	0x18
 2423 12df 83       		.byte	0x83
 2424 12e0 EA140000 		.4byte	0x14ea
 2425 12e4 4001     		.2byte	0x140
 2426 12e6 21       		.uleb128 0x21
 2427 12e7 79030000 		.4byte	.LASF293
 2428 12eb 18       		.byte	0x18
 2429 12ec 84       		.byte	0x84
 2430 12ed F4000000 		.4byte	0xf4
 2431 12f1 0004     		.2byte	0x400
 2432 12f3 21       		.uleb128 0x21
 2433 12f4 CF000000 		.4byte	.LASF294
 2434 12f8 18       		.byte	0x18
 2435 12f9 85       		.byte	0x85
 2436 12fa F4000000 		.4byte	0xf4
 2437 12fe 0404     		.2byte	0x404
 2438 1300 21       		.uleb128 0x21
 2439 1301 16040000 		.4byte	.LASF295
 2440 1305 18       		.byte	0x18
 2441 1306 86       		.byte	0x86
 2442 1307 F4000000 		.4byte	0xf4
 2443 130b 0804     		.2byte	0x408
 2444 130d 21       		.uleb128 0x21
 2445 130e BD060000 		.4byte	.LASF296
 2446 1312 18       		.byte	0x18
 2447 1313 88       		.byte	0x88
 2448 1314 F4000000 		.4byte	0xf4
 2449 1318 0C04     		.2byte	0x40c
 2450 131a 21       		.uleb128 0x21
 2451 131b 920F0000 		.4byte	.LASF297
ARM GAS  /tmp/ccTAg9Zs.s 			page 44


 2452 131f 18       		.byte	0x18
 2453 1320 89       		.byte	0x89
 2454 1321 F4000000 		.4byte	0xf4
 2455 1325 1004     		.2byte	0x410
 2456 1327 21       		.uleb128 0x21
 2457 1328 30050000 		.4byte	.LASF298
 2458 132c 18       		.byte	0x18
 2459 132d 8B       		.byte	0x8b
 2460 132e F4000000 		.4byte	0xf4
 2461 1332 1404     		.2byte	0x414
 2462 1334 21       		.uleb128 0x21
 2463 1335 D9080000 		.4byte	.LASF299
 2464 1339 18       		.byte	0x18
 2465 133a 8D       		.byte	0x8d
 2466 133b F4000000 		.4byte	0xf4
 2467 133f 1804     		.2byte	0x418
 2468 1341 21       		.uleb128 0x21
 2469 1342 6F070000 		.4byte	.LASF300
 2470 1346 18       		.byte	0x18
 2471 1347 8F       		.byte	0x8f
 2472 1348 FF140000 		.4byte	0x14ff
 2473 134c 1C04     		.2byte	0x41c
 2474 134e 21       		.uleb128 0x21
 2475 134f B8030000 		.4byte	.LASF301
 2476 1353 18       		.byte	0x18
 2477 1354 90       		.byte	0x90
 2478 1355 F4000000 		.4byte	0xf4
 2479 1359 4004     		.2byte	0x440
 2480 135b 21       		.uleb128 0x21
 2481 135c C2080000 		.4byte	.LASF302
 2482 1360 18       		.byte	0x18
 2483 1361 92       		.byte	0x92
 2484 1362 14150000 		.4byte	0x1514
 2485 1366 4404     		.2byte	0x444
 2486 1368 22       		.uleb128 0x22
 2487 1369 686300   		.ascii	"hc\000"
 2488 136c 18       		.byte	0x18
 2489 136d 93       		.byte	0x93
 2490 136e 19150000 		.4byte	0x1519
 2491 1372 0005     		.2byte	0x500
 2492 1374 21       		.uleb128 0x21
 2493 1375 DB000000 		.4byte	.LASF303
 2494 1379 18       		.byte	0x18
 2495 137a 94       		.byte	0x94
 2496 137b 39150000 		.4byte	0x1539
 2497 137f 0007     		.2byte	0x700
 2498 1381 21       		.uleb128 0x21
 2499 1382 25030000 		.4byte	.LASF304
 2500 1386 18       		.byte	0x18
 2501 1387 95       		.byte	0x95
 2502 1388 F4000000 		.4byte	0xf4
 2503 138c 0008     		.2byte	0x800
 2504 138e 21       		.uleb128 0x21
 2505 138f 700A0000 		.4byte	.LASF305
 2506 1393 18       		.byte	0x18
 2507 1394 96       		.byte	0x96
 2508 1395 F4000000 		.4byte	0xf4
ARM GAS  /tmp/ccTAg9Zs.s 			page 45


 2509 1399 0408     		.2byte	0x804
 2510 139b 21       		.uleb128 0x21
 2511 139c 190F0000 		.4byte	.LASF306
 2512 13a0 18       		.byte	0x18
 2513 13a1 97       		.byte	0x97
 2514 13a2 F4000000 		.4byte	0xf4
 2515 13a6 0808     		.2byte	0x808
 2516 13a8 21       		.uleb128 0x21
 2517 13a9 AF030000 		.4byte	.LASF307
 2518 13ad 18       		.byte	0x18
 2519 13ae 98       		.byte	0x98
 2520 13af F4000000 		.4byte	0xf4
 2521 13b3 0C08     		.2byte	0x80c
 2522 13b5 21       		.uleb128 0x21
 2523 13b6 A70D0000 		.4byte	.LASF308
 2524 13ba 18       		.byte	0x18
 2525 13bb 99       		.byte	0x99
 2526 13bc F4000000 		.4byte	0xf4
 2527 13c0 1008     		.2byte	0x810
 2528 13c2 21       		.uleb128 0x21
 2529 13c3 40020000 		.4byte	.LASF309
 2530 13c7 18       		.byte	0x18
 2531 13c8 9B       		.byte	0x9b
 2532 13c9 F4000000 		.4byte	0xf4
 2533 13cd 1408     		.2byte	0x814
 2534 13cf 21       		.uleb128 0x21
 2535 13d0 24020000 		.4byte	.LASF310
 2536 13d4 18       		.byte	0x18
 2537 13d5 9D       		.byte	0x9d
 2538 13d6 F4000000 		.4byte	0xf4
 2539 13da 1808     		.2byte	0x818
 2540 13dc 21       		.uleb128 0x21
 2541 13dd 340C0000 		.4byte	.LASF311
 2542 13e1 18       		.byte	0x18
 2543 13e2 9F       		.byte	0x9f
 2544 13e3 F4000000 		.4byte	0xf4
 2545 13e7 1C08     		.2byte	0x81c
 2546 13e9 21       		.uleb128 0x21
 2547 13ea 71040000 		.4byte	.LASF312
 2548 13ee 18       		.byte	0x18
 2549 13ef A1       		.byte	0xa1
 2550 13f0 F4000000 		.4byte	0xf4
 2551 13f4 2008     		.2byte	0x820
 2552 13f6 21       		.uleb128 0x21
 2553 13f7 7A040000 		.4byte	.LASF313
 2554 13fb 18       		.byte	0x18
 2555 13fc A2       		.byte	0xa2
 2556 13fd F4000000 		.4byte	0xf4
 2557 1401 2408     		.2byte	0x824
 2558 1403 21       		.uleb128 0x21
 2559 1404 3D0C0000 		.4byte	.LASF314
 2560 1408 18       		.byte	0x18
 2561 1409 A3       		.byte	0xa3
 2562 140a F4000000 		.4byte	0xf4
 2563 140e 2808     		.2byte	0x828
 2564 1410 21       		.uleb128 0x21
 2565 1411 83040000 		.4byte	.LASF315
ARM GAS  /tmp/ccTAg9Zs.s 			page 46


 2566 1415 18       		.byte	0x18
 2567 1416 A5       		.byte	0xa5
 2568 1417 F4000000 		.4byte	0xf4
 2569 141b 2C08     		.2byte	0x82c
 2570 141d 21       		.uleb128 0x21
 2571 141e 300D0000 		.4byte	.LASF316
 2572 1422 18       		.byte	0x18
 2573 1423 A7       		.byte	0xa7
 2574 1424 F4000000 		.4byte	0xf4
 2575 1428 3008     		.2byte	0x830
 2576 142a 21       		.uleb128 0x21
 2577 142b DC0D0000 		.4byte	.LASF317
 2578 142f 18       		.byte	0x18
 2579 1430 A8       		.byte	0xa8
 2580 1431 F4000000 		.4byte	0xf4
 2581 1435 3408     		.2byte	0x834
 2582 1437 21       		.uleb128 0x21
 2583 1438 95070000 		.4byte	.LASF318
 2584 143c 18       		.byte	0x18
 2585 143d AA       		.byte	0xaa
 2586 143e F4000000 		.4byte	0xf4
 2587 1442 3808     		.2byte	0x838
 2588 1444 21       		.uleb128 0x21
 2589 1445 CD070000 		.4byte	.LASF319
 2590 1449 18       		.byte	0x18
 2591 144a AB       		.byte	0xab
 2592 144b F4000000 		.4byte	0xf4
 2593 144f 3C08     		.2byte	0x83c
 2594 1451 21       		.uleb128 0x21
 2595 1452 4E050000 		.4byte	.LASF320
 2596 1456 18       		.byte	0x18
 2597 1457 AC       		.byte	0xac
 2598 1458 4E150000 		.4byte	0x154e
 2599 145c 4008     		.2byte	0x840
 2600 145e 21       		.uleb128 0x21
 2601 145f B7070000 		.4byte	.LASF321
 2602 1463 18       		.byte	0x18
 2603 1464 AD       		.byte	0xad
 2604 1465 4E150000 		.4byte	0x154e
 2605 1469 8008     		.2byte	0x880
 2606 146b 21       		.uleb128 0x21
 2607 146c 2A030000 		.4byte	.LASF322
 2608 1470 18       		.byte	0x18
 2609 1471 AE       		.byte	0xae
 2610 1472 4E150000 		.4byte	0x154e
 2611 1476 C008     		.2byte	0x8c0
 2612 1478 22       		.uleb128 0x22
 2613 1479 696500   		.ascii	"ie\000"
 2614 147c 18       		.byte	0x18
 2615 147d AF       		.byte	0xaf
 2616 147e 53150000 		.4byte	0x1553
 2617 1482 0009     		.2byte	0x900
 2618 1484 22       		.uleb128 0x22
 2619 1485 6F6500   		.ascii	"oe\000"
 2620 1488 18       		.byte	0x18
 2621 1489 B0       		.byte	0xb0
 2622 148a 63150000 		.4byte	0x1563
ARM GAS  /tmp/ccTAg9Zs.s 			page 47


 2623 148e 000B     		.2byte	0xb00
 2624 1490 21       		.uleb128 0x21
 2625 1491 0D0A0000 		.4byte	.LASF323
 2626 1495 18       		.byte	0x18
 2627 1496 B1       		.byte	0xb1
 2628 1497 39150000 		.4byte	0x1539
 2629 149b 000D     		.2byte	0xd00
 2630 149d 21       		.uleb128 0x21
 2631 149e 0F070000 		.4byte	.LASF324
 2632 14a2 18       		.byte	0x18
 2633 14a3 B2       		.byte	0xb2
 2634 14a4 F4000000 		.4byte	0xf4
 2635 14a8 000E     		.2byte	0xe00
 2636 14aa 21       		.uleb128 0x21
 2637 14ab AA0E0000 		.4byte	.LASF325
 2638 14af 18       		.byte	0x18
 2639 14b0 B4       		.byte	0xb4
 2640 14b1 83150000 		.4byte	0x1583
 2641 14b5 040E     		.2byte	0xe04
 2642 14b7 21       		.uleb128 0x21
 2643 14b8 AA0C0000 		.4byte	.LASF326
 2644 14bc 18       		.byte	0x18
 2645 14bd B5       		.byte	0xb5
 2646 14be 9F150000 		.4byte	0x159f
 2647 14c2 0010     		.2byte	0x1000
 2648 14c4 00       		.byte	0
 2649 14c5 15       		.uleb128 0x15
 2650 14c6 F4000000 		.4byte	0xf4
 2651 14ca D5140000 		.4byte	0x14d5
 2652 14ce 16       		.uleb128 0x16
 2653 14cf 3C000000 		.4byte	0x3c
 2654 14d3 2F       		.byte	0x2f
 2655 14d4 00       		.byte	0
 2656 14d5 04       		.uleb128 0x4
 2657 14d6 C5140000 		.4byte	0x14c5
 2658 14da 15       		.uleb128 0x15
 2659 14db F4000000 		.4byte	0xf4
 2660 14df EA140000 		.4byte	0x14ea
 2661 14e3 16       		.uleb128 0x16
 2662 14e4 3C000000 		.4byte	0x3c
 2663 14e8 AF       		.byte	0xaf
 2664 14e9 00       		.byte	0
 2665 14ea 04       		.uleb128 0x4
 2666 14eb DA140000 		.4byte	0x14da
 2667 14ef 15       		.uleb128 0x15
 2668 14f0 F4000000 		.4byte	0xf4
 2669 14f4 FF140000 		.4byte	0x14ff
 2670 14f8 16       		.uleb128 0x16
 2671 14f9 3C000000 		.4byte	0x3c
 2672 14fd 08       		.byte	0x8
 2673 14fe 00       		.byte	0
 2674 14ff 04       		.uleb128 0x4
 2675 1500 EF140000 		.4byte	0x14ef
 2676 1504 15       		.uleb128 0x15
 2677 1505 F4000000 		.4byte	0xf4
 2678 1509 14150000 		.4byte	0x1514
 2679 150d 16       		.uleb128 0x16
ARM GAS  /tmp/ccTAg9Zs.s 			page 48


 2680 150e 3C000000 		.4byte	0x3c
 2681 1512 2E       		.byte	0x2e
 2682 1513 00       		.byte	0
 2683 1514 04       		.uleb128 0x4
 2684 1515 04150000 		.4byte	0x1504
 2685 1519 15       		.uleb128 0x15
 2686 151a F5100000 		.4byte	0x10f5
 2687 151e 29150000 		.4byte	0x1529
 2688 1522 16       		.uleb128 0x16
 2689 1523 3C000000 		.4byte	0x3c
 2690 1527 0F       		.byte	0xf
 2691 1528 00       		.byte	0
 2692 1529 15       		.uleb128 0x15
 2693 152a F4000000 		.4byte	0xf4
 2694 152e 39150000 		.4byte	0x1539
 2695 1532 16       		.uleb128 0x16
 2696 1533 3C000000 		.4byte	0x3c
 2697 1537 3F       		.byte	0x3f
 2698 1538 00       		.byte	0
 2699 1539 04       		.uleb128 0x4
 2700 153a 29150000 		.4byte	0x1529
 2701 153e 15       		.uleb128 0x15
 2702 153f F4000000 		.4byte	0xf4
 2703 1543 4E150000 		.4byte	0x154e
 2704 1547 16       		.uleb128 0x16
 2705 1548 3C000000 		.4byte	0x3c
 2706 154c 0F       		.byte	0xf
 2707 154d 00       		.byte	0
 2708 154e 04       		.uleb128 0x4
 2709 154f 3E150000 		.4byte	0x153e
 2710 1553 15       		.uleb128 0x15
 2711 1554 69110000 		.4byte	0x1169
 2712 1558 63150000 		.4byte	0x1563
 2713 155c 16       		.uleb128 0x16
 2714 155d 3C000000 		.4byte	0x3c
 2715 1561 0F       		.byte	0xf
 2716 1562 00       		.byte	0
 2717 1563 15       		.uleb128 0x15
 2718 1564 DD110000 		.4byte	0x11dd
 2719 1568 73150000 		.4byte	0x1573
 2720 156c 16       		.uleb128 0x16
 2721 156d 3C000000 		.4byte	0x3c
 2722 1571 0F       		.byte	0xf
 2723 1572 00       		.byte	0
 2724 1573 15       		.uleb128 0x15
 2725 1574 F4000000 		.4byte	0xf4
 2726 1578 83150000 		.4byte	0x1583
 2727 157c 16       		.uleb128 0x16
 2728 157d 3C000000 		.4byte	0x3c
 2729 1581 7E       		.byte	0x7e
 2730 1582 00       		.byte	0
 2731 1583 04       		.uleb128 0x4
 2732 1584 73150000 		.4byte	0x1573
 2733 1588 15       		.uleb128 0x15
 2734 1589 F4000000 		.4byte	0xf4
 2735 158d 9F150000 		.4byte	0x159f
 2736 1591 16       		.uleb128 0x16
ARM GAS  /tmp/ccTAg9Zs.s 			page 49


 2737 1592 3C000000 		.4byte	0x3c
 2738 1596 0F       		.byte	0xf
 2739 1597 23       		.uleb128 0x23
 2740 1598 3C000000 		.4byte	0x3c
 2741 159c FF03     		.2byte	0x3ff
 2742 159e 00       		.byte	0
 2743 159f 04       		.uleb128 0x4
 2744 15a0 88150000 		.4byte	0x1588
 2745 15a4 03       		.uleb128 0x3
 2746 15a5 78080000 		.4byte	.LASF327
 2747 15a9 18       		.byte	0x18
 2748 15aa B6       		.byte	0xb6
 2749 15ab E8110000 		.4byte	0x11e8
 2750 15af 18       		.uleb128 0x18
 2751 15b0 0C       		.byte	0xc
 2752 15b1 17       		.byte	0x17
 2753 15b2 C6       		.byte	0xc6
 2754 15b3 DC150000 		.4byte	0x15dc
 2755 15b7 08       		.uleb128 0x8
 2756 15b8 4B0D0000 		.4byte	.LASF328
 2757 15bc 17       		.byte	0x17
 2758 15bd C7       		.byte	0xc7
 2759 15be E9000000 		.4byte	0xe9
 2760 15c2 00       		.byte	0
 2761 15c3 08       		.uleb128 0x8
 2762 15c4 68090000 		.4byte	.LASF329
 2763 15c8 17       		.byte	0x17
 2764 15c9 C8       		.byte	0xc8
 2765 15ca E9000000 		.4byte	0xe9
 2766 15ce 04       		.byte	0x4
 2767 15cf 08       		.uleb128 0x8
 2768 15d0 23060000 		.4byte	.LASF330
 2769 15d4 17       		.byte	0x17
 2770 15d5 C9       		.byte	0xc9
 2771 15d6 E9000000 		.4byte	0xe9
 2772 15da 08       		.byte	0x8
 2773 15db 00       		.byte	0
 2774 15dc 03       		.uleb128 0x3
 2775 15dd B4040000 		.4byte	.LASF331
 2776 15e1 17       		.byte	0x17
 2777 15e2 CA       		.byte	0xca
 2778 15e3 AF150000 		.4byte	0x15af
 2779 15e7 06       		.uleb128 0x6
 2780 15e8 DC150000 		.4byte	0x15dc
 2781 15ec 18       		.uleb128 0x18
 2782 15ed 04       		.byte	0x4
 2783 15ee 17       		.byte	0x17
 2784 15ef DD       		.byte	0xdd
 2785 15f0 01160000 		.4byte	0x1601
 2786 15f4 08       		.uleb128 0x8
 2787 15f5 15020000 		.4byte	.LASF332
 2788 15f9 17       		.byte	0x17
 2789 15fa E1       		.byte	0xe1
 2790 15fb E1090000 		.4byte	0x9e1
 2791 15ff 00       		.byte	0
 2792 1600 00       		.byte	0
 2793 1601 18       		.uleb128 0x18
ARM GAS  /tmp/ccTAg9Zs.s 			page 50


 2794 1602 04       		.byte	0x4
 2795 1603 17       		.byte	0x17
 2796 1604 E3       		.byte	0xe3
 2797 1605 16160000 		.4byte	0x1616
 2798 1609 08       		.uleb128 0x8
 2799 160a 970D0000 		.4byte	.LASF333
 2800 160e 17       		.byte	0x17
 2801 160f E7       		.byte	0xe7
 2802 1610 16160000 		.4byte	0x1616
 2803 1614 00       		.byte	0
 2804 1615 00       		.byte	0
 2805 1616 0B       		.uleb128 0xb
 2806 1617 04       		.byte	0x4
 2807 1618 D6090000 		.4byte	0x9d6
 2808 161c 19       		.uleb128 0x19
 2809 161d 04       		.byte	0x4
 2810 161e 17       		.byte	0x17
 2811 161f DC       		.byte	0xdc
 2812 1620 3B160000 		.4byte	0x163b
 2813 1624 24       		.uleb128 0x24
 2814 1625 630A0000 		.4byte	.LASF334
 2815 1629 17       		.byte	0x17
 2816 162a E2       		.byte	0xe2
 2817 162b EC150000 		.4byte	0x15ec
 2818 162f 24       		.uleb128 0x24
 2819 1630 DA0B0000 		.4byte	.LASF335
 2820 1634 17       		.byte	0x17
 2821 1635 E8       		.byte	0xe8
 2822 1636 01160000 		.4byte	0x1601
 2823 163a 00       		.byte	0
 2824 163b 18       		.uleb128 0x18
 2825 163c 14       		.byte	0x14
 2826 163d 17       		.byte	0x17
 2827 163e CF       		.byte	0xcf
 2828 163f 80160000 		.4byte	0x1680
 2829 1643 08       		.uleb128 0x8
 2830 1644 F40F0000 		.4byte	.LASF336
 2831 1648 17       		.byte	0x17
 2832 1649 D3       		.byte	0xd3
 2833 164a 690A0000 		.4byte	0xa69
 2834 164e 00       		.byte	0
 2835 164f 08       		.uleb128 0x8
 2836 1650 60060000 		.4byte	.LASF337
 2837 1654 17       		.byte	0x17
 2838 1655 D7       		.byte	0xd7
 2839 1656 2C000000 		.4byte	0x2c
 2840 165a 04       		.byte	0x4
 2841 165b 08       		.uleb128 0x8
 2842 165c 3E050000 		.4byte	.LASF338
 2843 1660 17       		.byte	0x17
 2844 1661 DB       		.byte	0xdb
 2845 1662 2C000000 		.4byte	0x2c
 2846 1666 08       		.byte	0x8
 2847 1667 08       		.uleb128 0x8
 2848 1668 610D0000 		.4byte	.LASF339
 2849 166c 17       		.byte	0x17
 2850 166d E9       		.byte	0xe9
ARM GAS  /tmp/ccTAg9Zs.s 			page 51


 2851 166e 1C160000 		.4byte	0x161c
 2852 1672 0C       		.byte	0xc
 2853 1673 08       		.uleb128 0x8
 2854 1674 430D0000 		.4byte	.LASF340
 2855 1678 17       		.byte	0x17
 2856 1679 ED       		.byte	0xed
 2857 167a 2C000000 		.4byte	0x2c
 2858 167e 10       		.byte	0x10
 2859 167f 00       		.byte	0
 2860 1680 03       		.uleb128 0x3
 2861 1681 5E040000 		.4byte	.LASF341
 2862 1685 17       		.byte	0x17
 2863 1686 EE       		.byte	0xee
 2864 1687 3B160000 		.4byte	0x163b
 2865 168b 13       		.uleb128 0x13
 2866 168c 04       		.byte	0x4
 2867 168d 17       		.byte	0x17
 2868 168e 0101     		.2byte	0x101
 2869 1690 A2160000 		.4byte	0x16a2
 2870 1694 0A       		.uleb128 0xa
 2871 1695 80090000 		.4byte	.LASF193
 2872 1699 17       		.byte	0x17
 2873 169a 0501     		.2byte	0x105
 2874 169c C5090000 		.4byte	0x9c5
 2875 16a0 00       		.byte	0
 2876 16a1 00       		.byte	0
 2877 16a2 13       		.uleb128 0x13
 2878 16a3 04       		.byte	0x4
 2879 16a4 17       		.byte	0x17
 2880 16a5 0701     		.2byte	0x107
 2881 16a7 B9160000 		.4byte	0x16b9
 2882 16ab 0A       		.uleb128 0xa
 2883 16ac 210C0000 		.4byte	.LASF342
 2884 16b0 17       		.byte	0x17
 2885 16b1 0B01     		.2byte	0x10b
 2886 16b3 B9160000 		.4byte	0x16b9
 2887 16b7 00       		.byte	0
 2888 16b8 00       		.byte	0
 2889 16b9 0B       		.uleb128 0xb
 2890 16ba 04       		.byte	0x4
 2891 16bb CB090000 		.4byte	0x9cb
 2892 16bf 25       		.uleb128 0x25
 2893 16c0 04       		.byte	0x4
 2894 16c1 17       		.byte	0x17
 2895 16c2 0001     		.2byte	0x100
 2896 16c4 E1160000 		.4byte	0x16e1
 2897 16c8 1A       		.uleb128 0x1a
 2898 16c9 630A0000 		.4byte	.LASF334
 2899 16cd 17       		.byte	0x17
 2900 16ce 0601     		.2byte	0x106
 2901 16d0 8B160000 		.4byte	0x168b
 2902 16d4 1A       		.uleb128 0x1a
 2903 16d5 DA0B0000 		.4byte	.LASF335
 2904 16d9 17       		.byte	0x17
 2905 16da 0C01     		.2byte	0x10c
 2906 16dc A2160000 		.4byte	0x16a2
 2907 16e0 00       		.byte	0
ARM GAS  /tmp/ccTAg9Zs.s 			page 52


 2908 16e1 18       		.uleb128 0x18
 2909 16e2 14       		.byte	0x14
 2910 16e3 17       		.byte	0x17
 2911 16e4 F3       		.byte	0xf3
 2912 16e5 28170000 		.4byte	0x1728
 2913 16e9 08       		.uleb128 0x8
 2914 16ea AE0A0000 		.4byte	.LASF343
 2915 16ee 17       		.byte	0x17
 2916 16ef F7       		.byte	0xf7
 2917 16f0 690A0000 		.4byte	0xa69
 2918 16f4 00       		.byte	0
 2919 16f5 08       		.uleb128 0x8
 2920 16f6 DE020000 		.4byte	.LASF344
 2921 16fa 17       		.byte	0x17
 2922 16fb FB       		.byte	0xfb
 2923 16fc 2C000000 		.4byte	0x2c
 2924 1700 04       		.byte	0x4
 2925 1701 08       		.uleb128 0x8
 2926 1702 7F060000 		.4byte	.LASF345
 2927 1706 17       		.byte	0x17
 2928 1707 FF       		.byte	0xff
 2929 1708 2C000000 		.4byte	0x2c
 2930 170c 08       		.byte	0x8
 2931 170d 0A       		.uleb128 0xa
 2932 170e 610D0000 		.4byte	.LASF339
 2933 1712 17       		.byte	0x17
 2934 1713 0D01     		.2byte	0x10d
 2935 1715 BF160000 		.4byte	0x16bf
 2936 1719 0C       		.byte	0xc
 2937 171a 0A       		.uleb128 0xa
 2938 171b 430D0000 		.4byte	.LASF340
 2939 171f 17       		.byte	0x17
 2940 1720 1101     		.2byte	0x111
 2941 1722 2C000000 		.4byte	0x2c
 2942 1726 10       		.byte	0x10
 2943 1727 00       		.byte	0
 2944 1728 14       		.uleb128 0x14
 2945 1729 E7090000 		.4byte	.LASF346
 2946 172d 17       		.byte	0x17
 2947 172e 1201     		.2byte	0x112
 2948 1730 E1160000 		.4byte	0x16e1
 2949 1734 13       		.uleb128 0x13
 2950 1735 24       		.byte	0x24
 2951 1736 17       		.byte	0x17
 2952 1737 1801     		.2byte	0x118
 2953 1739 C0170000 		.4byte	0x17c0
 2954 173d 0A       		.uleb128 0xa
 2955 173e F1000000 		.4byte	.LASF347
 2956 1742 17       		.byte	0x17
 2957 1743 1C01     		.2byte	0x11c
 2958 1745 E9000000 		.4byte	0xe9
 2959 1749 00       		.byte	0
 2960 174a 0A       		.uleb128 0xa
 2961 174b AE070000 		.4byte	.LASF348
 2962 174f 17       		.byte	0x17
 2963 1750 2701     		.2byte	0x127
 2964 1752 F10F0000 		.4byte	0xff1
ARM GAS  /tmp/ccTAg9Zs.s 			page 53


 2965 1756 04       		.byte	0x4
 2966 1757 0A       		.uleb128 0xa
 2967 1758 F7030000 		.4byte	.LASF349
 2968 175c 17       		.byte	0x17
 2969 175d 2D01     		.2byte	0x12d
 2970 175f F10F0000 		.4byte	0xff1
 2971 1763 08       		.byte	0x8
 2972 1764 0A       		.uleb128 0xa
 2973 1765 CB080000 		.4byte	.LASF350
 2974 1769 17       		.byte	0x17
 2975 176a 3301     		.2byte	0x133
 2976 176c F10F0000 		.4byte	0xff1
 2977 1770 0C       		.byte	0xc
 2978 1771 0A       		.uleb128 0xa
 2979 1772 E9080000 		.4byte	.LASF351
 2980 1776 17       		.byte	0x17
 2981 1777 3901     		.2byte	0x139
 2982 1779 C9000000 		.4byte	0xc9
 2983 177d 10       		.byte	0x10
 2984 177e 0A       		.uleb128 0xa
 2985 177f 770C0000 		.4byte	.LASF352
 2986 1783 17       		.byte	0x17
 2987 1784 3F01     		.2byte	0x13f
 2988 1786 C9000000 		.4byte	0xc9
 2989 178a 12       		.byte	0x12
 2990 178b 0A       		.uleb128 0xa
 2991 178c ED060000 		.4byte	.LASF353
 2992 1790 17       		.byte	0x17
 2993 1791 4401     		.2byte	0x144
 2994 1793 C0170000 		.4byte	0x17c0
 2995 1797 14       		.byte	0x14
 2996 1798 0A       		.uleb128 0xa
 2997 1799 1B090000 		.4byte	.LASF354
 2998 179d 17       		.byte	0x17
 2999 179e 4901     		.2byte	0x149
 3000 17a0 C6170000 		.4byte	0x17c6
 3001 17a4 18       		.byte	0x18
 3002 17a5 0A       		.uleb128 0xa
 3003 17a6 F8050000 		.4byte	.LASF355
 3004 17aa 17       		.byte	0x17
 3005 17ab 5001     		.2byte	0x150
 3006 17ad C9000000 		.4byte	0xc9
 3007 17b1 1C       		.byte	0x1c
 3008 17b2 0A       		.uleb128 0xa
 3009 17b3 B8080000 		.4byte	.LASF356
 3010 17b7 17       		.byte	0x17
 3011 17b8 5601     		.2byte	0x156
 3012 17ba C5090000 		.4byte	0x9c5
 3013 17be 20       		.byte	0x20
 3014 17bf 00       		.byte	0
 3015 17c0 0B       		.uleb128 0xb
 3016 17c1 04       		.byte	0x4
 3017 17c2 80160000 		.4byte	0x1680
 3018 17c6 0B       		.uleb128 0xb
 3019 17c7 04       		.byte	0x4
 3020 17c8 28170000 		.4byte	0x1728
 3021 17cc 14       		.uleb128 0x14
ARM GAS  /tmp/ccTAg9Zs.s 			page 54


 3022 17cd 860A0000 		.4byte	.LASF357
 3023 17d1 17       		.byte	0x17
 3024 17d2 5701     		.2byte	0x157
 3025 17d4 34170000 		.4byte	0x1734
 3026 17d8 06       		.uleb128 0x6
 3027 17d9 CC170000 		.4byte	0x17cc
 3028 17dd 13       		.uleb128 0x13
 3029 17de 10       		.byte	0x10
 3030 17df 17       		.byte	0x17
 3031 17e0 5C01     		.2byte	0x15c
 3032 17e2 1B180000 		.4byte	0x181b
 3033 17e6 0A       		.uleb128 0xa
 3034 17e7 22070000 		.4byte	.LASF358
 3035 17eb 17       		.byte	0x17
 3036 17ec 6101     		.2byte	0x161
 3037 17ee 13100000 		.4byte	0x1013
 3038 17f2 00       		.byte	0
 3039 17f3 0A       		.uleb128 0xa
 3040 17f4 1E0F0000 		.4byte	.LASF359
 3041 17f8 17       		.byte	0x17
 3042 17f9 6601     		.2byte	0x166
 3043 17fb 56100000 		.4byte	0x1056
 3044 17ff 04       		.byte	0x4
 3045 1800 0A       		.uleb128 0xa
 3046 1801 62030000 		.4byte	.LASF360
 3047 1805 17       		.byte	0x17
 3048 1806 6C01     		.2byte	0x16c
 3049 1808 35100000 		.4byte	0x1035
 3050 180c 08       		.byte	0x8
 3051 180d 0A       		.uleb128 0xa
 3052 180e 05100000 		.4byte	.LASF361
 3053 1812 17       		.byte	0x17
 3054 1813 7001     		.2byte	0x170
 3055 1815 CE0F0000 		.4byte	0xfce
 3056 1819 0C       		.byte	0xc
 3057 181a 00       		.byte	0
 3058 181b 14       		.uleb128 0x14
 3059 181c 54080000 		.4byte	.LASF362
 3060 1820 17       		.byte	0x17
 3061 1821 7201     		.2byte	0x172
 3062 1823 DD170000 		.4byte	0x17dd
 3063 1827 06       		.uleb128 0x6
 3064 1828 1B180000 		.4byte	0x181b
 3065 182c 0B       		.uleb128 0xb
 3066 182d 04       		.byte	0x4
 3067 182e 27180000 		.4byte	0x1827
 3068 1832 15       		.uleb128 0x15
 3069 1833 42180000 		.4byte	0x1842
 3070 1837 42180000 		.4byte	0x1842
 3071 183b 16       		.uleb128 0x16
 3072 183c 3C000000 		.4byte	0x3c
 3073 1840 03       		.byte	0x3
 3074 1841 00       		.byte	0
 3075 1842 0B       		.uleb128 0xb
 3076 1843 04       		.byte	0x4
 3077 1844 D8170000 		.4byte	0x17d8
 3078 1848 15       		.uleb128 0x15
ARM GAS  /tmp/ccTAg9Zs.s 			page 55


 3079 1849 47030000 		.4byte	0x347
 3080 184d 58180000 		.4byte	0x1858
 3081 1851 16       		.uleb128 0x16
 3082 1852 3C000000 		.4byte	0x3c
 3083 1856 02       		.byte	0x2
 3084 1857 00       		.byte	0
 3085 1858 15       		.uleb128 0x15
 3086 1859 B9000000 		.4byte	0xb9
 3087 185d 68180000 		.4byte	0x1868
 3088 1861 16       		.uleb128 0x16
 3089 1862 3C000000 		.4byte	0x3c
 3090 1866 07       		.byte	0x7
 3091 1867 00       		.byte	0
 3092 1868 0B       		.uleb128 0xb
 3093 1869 04       		.byte	0x4
 3094 186a A4150000 		.4byte	0x15a4
 3095 186e 0B       		.uleb128 0xb
 3096 186f 04       		.byte	0x4
 3097 1870 E7150000 		.4byte	0x15e7
 3098 1874 15       		.uleb128 0x15
 3099 1875 86050000 		.4byte	0x586
 3100 1879 84180000 		.4byte	0x1884
 3101 187d 16       		.uleb128 0x16
 3102 187e 3C000000 		.4byte	0x3c
 3103 1882 39       		.byte	0x39
 3104 1883 00       		.byte	0
 3105 1884 11       		.uleb128 0x11
 3106 1885 5F0E0000 		.4byte	.LASF363
 3107 1889 17       		.byte	0x17
 3108 188a 0602     		.2byte	0x206
 3109 188c 9A0D0000 		.4byte	0xd9a
 3110 1890 26       		.uleb128 0x26
 3111 1891 77060000 		.4byte	.LASF374
 3112 1895 01       		.byte	0x1
 3113 1896 38       		.byte	0x38
 3114 1897 00000000 		.4byte	.LFB260
 3115 189b 28000000 		.4byte	.LFE260-.LFB260
 3116 189f 01       		.uleb128 0x1
 3117 18a0 9C       		.byte	0x9c
 3118 18a1 E5180000 		.4byte	0x18e5
 3119 18a5 27       		.uleb128 0x27
 3120 18a6 06000000 		.4byte	.LVL0
 3121 18aa EE180000 		.4byte	0x18ee
 3122 18ae 27       		.uleb128 0x27
 3123 18af 0C000000 		.4byte	.LVL1
 3124 18b3 FA180000 		.4byte	0x18fa
 3125 18b7 27       		.uleb128 0x27
 3126 18b8 10000000 		.4byte	.LVL2
 3127 18bc 06190000 		.4byte	0x1906
 3128 18c0 27       		.uleb128 0x27
 3129 18c1 14000000 		.4byte	.LVL3
 3130 18c5 11190000 		.4byte	0x1911
 3131 18c9 27       		.uleb128 0x27
 3132 18ca 18000000 		.4byte	.LVL4
 3133 18ce 1D190000 		.4byte	0x191d
 3134 18d2 27       		.uleb128 0x27
 3135 18d3 1C000000 		.4byte	.LVL5
ARM GAS  /tmp/ccTAg9Zs.s 			page 56


 3136 18d7 28190000 		.4byte	0x1928
 3137 18db 28       		.uleb128 0x28
 3138 18dc 24000000 		.4byte	.LVL6
 3139 18e0 34190000 		.4byte	0x1934
 3140 18e4 00       		.byte	0
 3141 18e5 29       		.uleb128 0x29
 3142 18e6 A3080000 		.4byte	.LASF375
 3143 18ea 1D       		.byte	0x1d
 3144 18eb C101     		.2byte	0x1c1
 3145 18ed 03       		.byte	0x3
 3146 18ee 2A       		.uleb128 0x2a
 3147 18ef BD020000 		.4byte	.LASF364
 3148 18f3 BD020000 		.4byte	.LASF364
 3149 18f7 19       		.byte	0x19
 3150 18f8 1206     		.2byte	0x612
 3151 18fa 2A       		.uleb128 0x2a
 3152 18fb 46080000 		.4byte	.LASF365
 3153 18ff 46080000 		.4byte	.LASF365
 3154 1903 13       		.byte	0x13
 3155 1904 DF01     		.2byte	0x1df
 3156 1906 2B       		.uleb128 0x2b
 3157 1907 66070000 		.4byte	.LASF366
 3158 190b 66070000 		.4byte	.LASF366
 3159 190f 14       		.byte	0x14
 3160 1910 62       		.byte	0x62
 3161 1911 2A       		.uleb128 0x2a
 3162 1912 050A0000 		.4byte	.LASF367
 3163 1916 050A0000 		.4byte	.LASF367
 3164 191a 16       		.byte	0x16
 3165 191b 3502     		.2byte	0x235
 3166 191d 2B       		.uleb128 0x2b
 3167 191e 27010000 		.4byte	.LASF368
 3168 1922 27010000 		.4byte	.LASF368
 3169 1926 1A       		.byte	0x1a
 3170 1927 F6       		.byte	0xf6
 3171 1928 2A       		.uleb128 0x2a
 3172 1929 D20D0000 		.4byte	.LASF369
 3173 192d D20D0000 		.4byte	.LASF369
 3174 1931 1B       		.byte	0x1b
 3175 1932 0A05     		.2byte	0x50a
 3176 1934 2B       		.uleb128 0x2b
 3177 1935 7A0F0000 		.4byte	.LASF370
 3178 1939 7A0F0000 		.4byte	.LASF370
 3179 193d 1C       		.byte	0x1c
 3180 193e 56       		.byte	0x56
 3181 193f 00       		.byte	0
 3182              		.section	.debug_abbrev,"",%progbits
 3183              	.Ldebug_abbrev0:
 3184 0000 01       		.uleb128 0x1
 3185 0001 11       		.uleb128 0x11
 3186 0002 01       		.byte	0x1
 3187 0003 25       		.uleb128 0x25
 3188 0004 0E       		.uleb128 0xe
 3189 0005 13       		.uleb128 0x13
 3190 0006 0B       		.uleb128 0xb
 3191 0007 03       		.uleb128 0x3
 3192 0008 0E       		.uleb128 0xe
ARM GAS  /tmp/ccTAg9Zs.s 			page 57


 3193 0009 1B       		.uleb128 0x1b
 3194 000a 0E       		.uleb128 0xe
 3195 000b 55       		.uleb128 0x55
 3196 000c 17       		.uleb128 0x17
 3197 000d 11       		.uleb128 0x11
 3198 000e 01       		.uleb128 0x1
 3199 000f 10       		.uleb128 0x10
 3200 0010 17       		.uleb128 0x17
 3201 0011 00       		.byte	0
 3202 0012 00       		.byte	0
 3203 0013 02       		.uleb128 0x2
 3204 0014 24       		.uleb128 0x24
 3205 0015 00       		.byte	0
 3206 0016 0B       		.uleb128 0xb
 3207 0017 0B       		.uleb128 0xb
 3208 0018 3E       		.uleb128 0x3e
 3209 0019 0B       		.uleb128 0xb
 3210 001a 03       		.uleb128 0x3
 3211 001b 08       		.uleb128 0x8
 3212 001c 00       		.byte	0
 3213 001d 00       		.byte	0
 3214 001e 03       		.uleb128 0x3
 3215 001f 16       		.uleb128 0x16
 3216 0020 00       		.byte	0
 3217 0021 03       		.uleb128 0x3
 3218 0022 0E       		.uleb128 0xe
 3219 0023 3A       		.uleb128 0x3a
 3220 0024 0B       		.uleb128 0xb
 3221 0025 3B       		.uleb128 0x3b
 3222 0026 0B       		.uleb128 0xb
 3223 0027 49       		.uleb128 0x49
 3224 0028 13       		.uleb128 0x13
 3225 0029 00       		.byte	0
 3226 002a 00       		.byte	0
 3227 002b 04       		.uleb128 0x4
 3228 002c 35       		.uleb128 0x35
 3229 002d 00       		.byte	0
 3230 002e 49       		.uleb128 0x49
 3231 002f 13       		.uleb128 0x13
 3232 0030 00       		.byte	0
 3233 0031 00       		.byte	0
 3234 0032 05       		.uleb128 0x5
 3235 0033 24       		.uleb128 0x24
 3236 0034 00       		.byte	0
 3237 0035 0B       		.uleb128 0xb
 3238 0036 0B       		.uleb128 0xb
 3239 0037 3E       		.uleb128 0x3e
 3240 0038 0B       		.uleb128 0xb
 3241 0039 03       		.uleb128 0x3
 3242 003a 0E       		.uleb128 0xe
 3243 003b 00       		.byte	0
 3244 003c 00       		.byte	0
 3245 003d 06       		.uleb128 0x6
 3246 003e 26       		.uleb128 0x26
 3247 003f 00       		.byte	0
 3248 0040 49       		.uleb128 0x49
 3249 0041 13       		.uleb128 0x13
ARM GAS  /tmp/ccTAg9Zs.s 			page 58


 3250 0042 00       		.byte	0
 3251 0043 00       		.byte	0
 3252 0044 07       		.uleb128 0x7
 3253 0045 13       		.uleb128 0x13
 3254 0046 01       		.byte	0x1
 3255 0047 03       		.uleb128 0x3
 3256 0048 0E       		.uleb128 0xe
 3257 0049 0B       		.uleb128 0xb
 3258 004a 0B       		.uleb128 0xb
 3259 004b 3A       		.uleb128 0x3a
 3260 004c 0B       		.uleb128 0xb
 3261 004d 3B       		.uleb128 0x3b
 3262 004e 0B       		.uleb128 0xb
 3263 004f 01       		.uleb128 0x1
 3264 0050 13       		.uleb128 0x13
 3265 0051 00       		.byte	0
 3266 0052 00       		.byte	0
 3267 0053 08       		.uleb128 0x8
 3268 0054 0D       		.uleb128 0xd
 3269 0055 00       		.byte	0
 3270 0056 03       		.uleb128 0x3
 3271 0057 0E       		.uleb128 0xe
 3272 0058 3A       		.uleb128 0x3a
 3273 0059 0B       		.uleb128 0xb
 3274 005a 3B       		.uleb128 0x3b
 3275 005b 0B       		.uleb128 0xb
 3276 005c 49       		.uleb128 0x49
 3277 005d 13       		.uleb128 0x13
 3278 005e 38       		.uleb128 0x38
 3279 005f 0B       		.uleb128 0xb
 3280 0060 00       		.byte	0
 3281 0061 00       		.byte	0
 3282 0062 09       		.uleb128 0x9
 3283 0063 0D       		.uleb128 0xd
 3284 0064 00       		.byte	0
 3285 0065 03       		.uleb128 0x3
 3286 0066 08       		.uleb128 0x8
 3287 0067 3A       		.uleb128 0x3a
 3288 0068 0B       		.uleb128 0xb
 3289 0069 3B       		.uleb128 0x3b
 3290 006a 05       		.uleb128 0x5
 3291 006b 49       		.uleb128 0x49
 3292 006c 13       		.uleb128 0x13
 3293 006d 38       		.uleb128 0x38
 3294 006e 0B       		.uleb128 0xb
 3295 006f 00       		.byte	0
 3296 0070 00       		.byte	0
 3297 0071 0A       		.uleb128 0xa
 3298 0072 0D       		.uleb128 0xd
 3299 0073 00       		.byte	0
 3300 0074 03       		.uleb128 0x3
 3301 0075 0E       		.uleb128 0xe
 3302 0076 3A       		.uleb128 0x3a
 3303 0077 0B       		.uleb128 0xb
 3304 0078 3B       		.uleb128 0x3b
 3305 0079 05       		.uleb128 0x5
 3306 007a 49       		.uleb128 0x49
ARM GAS  /tmp/ccTAg9Zs.s 			page 59


 3307 007b 13       		.uleb128 0x13
 3308 007c 38       		.uleb128 0x38
 3309 007d 0B       		.uleb128 0xb
 3310 007e 00       		.byte	0
 3311 007f 00       		.byte	0
 3312 0080 0B       		.uleb128 0xb
 3313 0081 0F       		.uleb128 0xf
 3314 0082 00       		.byte	0
 3315 0083 0B       		.uleb128 0xb
 3316 0084 0B       		.uleb128 0xb
 3317 0085 49       		.uleb128 0x49
 3318 0086 13       		.uleb128 0x13
 3319 0087 00       		.byte	0
 3320 0088 00       		.byte	0
 3321 0089 0C       		.uleb128 0xc
 3322 008a 13       		.uleb128 0x13
 3323 008b 01       		.byte	0x1
 3324 008c 03       		.uleb128 0x3
 3325 008d 0E       		.uleb128 0xe
 3326 008e 0B       		.uleb128 0xb
 3327 008f 0B       		.uleb128 0xb
 3328 0090 3A       		.uleb128 0x3a
 3329 0091 0B       		.uleb128 0xb
 3330 0092 3B       		.uleb128 0x3b
 3331 0093 05       		.uleb128 0x5
 3332 0094 01       		.uleb128 0x1
 3333 0095 13       		.uleb128 0x13
 3334 0096 00       		.byte	0
 3335 0097 00       		.byte	0
 3336 0098 0D       		.uleb128 0xd
 3337 0099 15       		.uleb128 0x15
 3338 009a 01       		.byte	0x1
 3339 009b 27       		.uleb128 0x27
 3340 009c 19       		.uleb128 0x19
 3341 009d 01       		.uleb128 0x1
 3342 009e 13       		.uleb128 0x13
 3343 009f 00       		.byte	0
 3344 00a0 00       		.byte	0
 3345 00a1 0E       		.uleb128 0xe
 3346 00a2 05       		.uleb128 0x5
 3347 00a3 00       		.byte	0
 3348 00a4 49       		.uleb128 0x49
 3349 00a5 13       		.uleb128 0x13
 3350 00a6 00       		.byte	0
 3351 00a7 00       		.byte	0
 3352 00a8 0F       		.uleb128 0xf
 3353 00a9 0F       		.uleb128 0xf
 3354 00aa 00       		.byte	0
 3355 00ab 0B       		.uleb128 0xb
 3356 00ac 0B       		.uleb128 0xb
 3357 00ad 00       		.byte	0
 3358 00ae 00       		.byte	0
 3359 00af 10       		.uleb128 0x10
 3360 00b0 13       		.uleb128 0x13
 3361 00b1 01       		.byte	0x1
 3362 00b2 03       		.uleb128 0x3
 3363 00b3 0E       		.uleb128 0xe
ARM GAS  /tmp/ccTAg9Zs.s 			page 60


 3364 00b4 0B       		.uleb128 0xb
 3365 00b5 05       		.uleb128 0x5
 3366 00b6 3A       		.uleb128 0x3a
 3367 00b7 0B       		.uleb128 0xb
 3368 00b8 3B       		.uleb128 0x3b
 3369 00b9 05       		.uleb128 0x5
 3370 00ba 01       		.uleb128 0x1
 3371 00bb 13       		.uleb128 0x13
 3372 00bc 00       		.byte	0
 3373 00bd 00       		.byte	0
 3374 00be 11       		.uleb128 0x11
 3375 00bf 34       		.uleb128 0x34
 3376 00c0 00       		.byte	0
 3377 00c1 03       		.uleb128 0x3
 3378 00c2 0E       		.uleb128 0xe
 3379 00c3 3A       		.uleb128 0x3a
 3380 00c4 0B       		.uleb128 0xb
 3381 00c5 3B       		.uleb128 0x3b
 3382 00c6 05       		.uleb128 0x5
 3383 00c7 49       		.uleb128 0x49
 3384 00c8 13       		.uleb128 0x13
 3385 00c9 3F       		.uleb128 0x3f
 3386 00ca 19       		.uleb128 0x19
 3387 00cb 3C       		.uleb128 0x3c
 3388 00cc 19       		.uleb128 0x19
 3389 00cd 00       		.byte	0
 3390 00ce 00       		.byte	0
 3391 00cf 12       		.uleb128 0x12
 3392 00d0 34       		.uleb128 0x34
 3393 00d1 00       		.byte	0
 3394 00d2 03       		.uleb128 0x3
 3395 00d3 0E       		.uleb128 0xe
 3396 00d4 3A       		.uleb128 0x3a
 3397 00d5 0B       		.uleb128 0xb
 3398 00d6 3B       		.uleb128 0x3b
 3399 00d7 0B       		.uleb128 0xb
 3400 00d8 49       		.uleb128 0x49
 3401 00d9 13       		.uleb128 0x13
 3402 00da 3F       		.uleb128 0x3f
 3403 00db 19       		.uleb128 0x19
 3404 00dc 3C       		.uleb128 0x3c
 3405 00dd 19       		.uleb128 0x19
 3406 00de 00       		.byte	0
 3407 00df 00       		.byte	0
 3408 00e0 13       		.uleb128 0x13
 3409 00e1 13       		.uleb128 0x13
 3410 00e2 01       		.byte	0x1
 3411 00e3 0B       		.uleb128 0xb
 3412 00e4 0B       		.uleb128 0xb
 3413 00e5 3A       		.uleb128 0x3a
 3414 00e6 0B       		.uleb128 0xb
 3415 00e7 3B       		.uleb128 0x3b
 3416 00e8 05       		.uleb128 0x5
 3417 00e9 01       		.uleb128 0x1
 3418 00ea 13       		.uleb128 0x13
 3419 00eb 00       		.byte	0
 3420 00ec 00       		.byte	0
ARM GAS  /tmp/ccTAg9Zs.s 			page 61


 3421 00ed 14       		.uleb128 0x14
 3422 00ee 16       		.uleb128 0x16
 3423 00ef 00       		.byte	0
 3424 00f0 03       		.uleb128 0x3
 3425 00f1 0E       		.uleb128 0xe
 3426 00f2 3A       		.uleb128 0x3a
 3427 00f3 0B       		.uleb128 0xb
 3428 00f4 3B       		.uleb128 0x3b
 3429 00f5 05       		.uleb128 0x5
 3430 00f6 49       		.uleb128 0x49
 3431 00f7 13       		.uleb128 0x13
 3432 00f8 00       		.byte	0
 3433 00f9 00       		.byte	0
 3434 00fa 15       		.uleb128 0x15
 3435 00fb 01       		.uleb128 0x1
 3436 00fc 01       		.byte	0x1
 3437 00fd 49       		.uleb128 0x49
 3438 00fe 13       		.uleb128 0x13
 3439 00ff 01       		.uleb128 0x1
 3440 0100 13       		.uleb128 0x13
 3441 0101 00       		.byte	0
 3442 0102 00       		.byte	0
 3443 0103 16       		.uleb128 0x16
 3444 0104 21       		.uleb128 0x21
 3445 0105 00       		.byte	0
 3446 0106 49       		.uleb128 0x49
 3447 0107 13       		.uleb128 0x13
 3448 0108 2F       		.uleb128 0x2f
 3449 0109 0B       		.uleb128 0xb
 3450 010a 00       		.byte	0
 3451 010b 00       		.byte	0
 3452 010c 17       		.uleb128 0x17
 3453 010d 0D       		.uleb128 0xd
 3454 010e 00       		.byte	0
 3455 010f 03       		.uleb128 0x3
 3456 0110 08       		.uleb128 0x8
 3457 0111 3A       		.uleb128 0x3a
 3458 0112 0B       		.uleb128 0xb
 3459 0113 3B       		.uleb128 0x3b
 3460 0114 0B       		.uleb128 0xb
 3461 0115 49       		.uleb128 0x49
 3462 0116 13       		.uleb128 0x13
 3463 0117 38       		.uleb128 0x38
 3464 0118 0B       		.uleb128 0xb
 3465 0119 00       		.byte	0
 3466 011a 00       		.byte	0
 3467 011b 18       		.uleb128 0x18
 3468 011c 13       		.uleb128 0x13
 3469 011d 01       		.byte	0x1
 3470 011e 0B       		.uleb128 0xb
 3471 011f 0B       		.uleb128 0xb
 3472 0120 3A       		.uleb128 0x3a
 3473 0121 0B       		.uleb128 0xb
 3474 0122 3B       		.uleb128 0x3b
 3475 0123 0B       		.uleb128 0xb
 3476 0124 01       		.uleb128 0x1
 3477 0125 13       		.uleb128 0x13
ARM GAS  /tmp/ccTAg9Zs.s 			page 62


 3478 0126 00       		.byte	0
 3479 0127 00       		.byte	0
 3480 0128 19       		.uleb128 0x19
 3481 0129 17       		.uleb128 0x17
 3482 012a 01       		.byte	0x1
 3483 012b 0B       		.uleb128 0xb
 3484 012c 0B       		.uleb128 0xb
 3485 012d 3A       		.uleb128 0x3a
 3486 012e 0B       		.uleb128 0xb
 3487 012f 3B       		.uleb128 0x3b
 3488 0130 0B       		.uleb128 0xb
 3489 0131 01       		.uleb128 0x1
 3490 0132 13       		.uleb128 0x13
 3491 0133 00       		.byte	0
 3492 0134 00       		.byte	0
 3493 0135 1A       		.uleb128 0x1a
 3494 0136 0D       		.uleb128 0xd
 3495 0137 00       		.byte	0
 3496 0138 03       		.uleb128 0x3
 3497 0139 0E       		.uleb128 0xe
 3498 013a 3A       		.uleb128 0x3a
 3499 013b 0B       		.uleb128 0xb
 3500 013c 3B       		.uleb128 0x3b
 3501 013d 05       		.uleb128 0x5
 3502 013e 49       		.uleb128 0x49
 3503 013f 13       		.uleb128 0x13
 3504 0140 00       		.byte	0
 3505 0141 00       		.byte	0
 3506 0142 1B       		.uleb128 0x1b
 3507 0143 34       		.uleb128 0x34
 3508 0144 00       		.byte	0
 3509 0145 03       		.uleb128 0x3
 3510 0146 08       		.uleb128 0x8
 3511 0147 3A       		.uleb128 0x3a
 3512 0148 0B       		.uleb128 0xb
 3513 0149 3B       		.uleb128 0x3b
 3514 014a 05       		.uleb128 0x5
 3515 014b 49       		.uleb128 0x49
 3516 014c 13       		.uleb128 0x13
 3517 014d 3F       		.uleb128 0x3f
 3518 014e 19       		.uleb128 0x19
 3519 014f 3C       		.uleb128 0x3c
 3520 0150 19       		.uleb128 0x19
 3521 0151 00       		.byte	0
 3522 0152 00       		.byte	0
 3523 0153 1C       		.uleb128 0x1c
 3524 0154 04       		.uleb128 0x4
 3525 0155 01       		.byte	0x1
 3526 0156 3E       		.uleb128 0x3e
 3527 0157 0B       		.uleb128 0xb
 3528 0158 0B       		.uleb128 0xb
 3529 0159 0B       		.uleb128 0xb
 3530 015a 49       		.uleb128 0x49
 3531 015b 13       		.uleb128 0x13
 3532 015c 3A       		.uleb128 0x3a
 3533 015d 0B       		.uleb128 0xb
 3534 015e 3B       		.uleb128 0x3b
ARM GAS  /tmp/ccTAg9Zs.s 			page 63


 3535 015f 0B       		.uleb128 0xb
 3536 0160 01       		.uleb128 0x1
 3537 0161 13       		.uleb128 0x13
 3538 0162 00       		.byte	0
 3539 0163 00       		.byte	0
 3540 0164 1D       		.uleb128 0x1d
 3541 0165 28       		.uleb128 0x28
 3542 0166 00       		.byte	0
 3543 0167 03       		.uleb128 0x3
 3544 0168 0E       		.uleb128 0xe
 3545 0169 1C       		.uleb128 0x1c
 3546 016a 0B       		.uleb128 0xb
 3547 016b 00       		.byte	0
 3548 016c 00       		.byte	0
 3549 016d 1E       		.uleb128 0x1e
 3550 016e 04       		.uleb128 0x4
 3551 016f 01       		.byte	0x1
 3552 0170 3E       		.uleb128 0x3e
 3553 0171 0B       		.uleb128 0xb
 3554 0172 0B       		.uleb128 0xb
 3555 0173 0B       		.uleb128 0xb
 3556 0174 49       		.uleb128 0x49
 3557 0175 13       		.uleb128 0x13
 3558 0176 3A       		.uleb128 0x3a
 3559 0177 0B       		.uleb128 0xb
 3560 0178 3B       		.uleb128 0x3b
 3561 0179 05       		.uleb128 0x5
 3562 017a 01       		.uleb128 0x1
 3563 017b 13       		.uleb128 0x13
 3564 017c 00       		.byte	0
 3565 017d 00       		.byte	0
 3566 017e 1F       		.uleb128 0x1f
 3567 017f 15       		.uleb128 0x15
 3568 0180 01       		.byte	0x1
 3569 0181 27       		.uleb128 0x27
 3570 0182 19       		.uleb128 0x19
 3571 0183 49       		.uleb128 0x49
 3572 0184 13       		.uleb128 0x13
 3573 0185 01       		.uleb128 0x1
 3574 0186 13       		.uleb128 0x13
 3575 0187 00       		.byte	0
 3576 0188 00       		.byte	0
 3577 0189 20       		.uleb128 0x20
 3578 018a 13       		.uleb128 0x13
 3579 018b 01       		.byte	0x1
 3580 018c 0B       		.uleb128 0xb
 3581 018d 06       		.uleb128 0x6
 3582 018e 3A       		.uleb128 0x3a
 3583 018f 0B       		.uleb128 0xb
 3584 0190 3B       		.uleb128 0x3b
 3585 0191 0B       		.uleb128 0xb
 3586 0192 01       		.uleb128 0x1
 3587 0193 13       		.uleb128 0x13
 3588 0194 00       		.byte	0
 3589 0195 00       		.byte	0
 3590 0196 21       		.uleb128 0x21
 3591 0197 0D       		.uleb128 0xd
ARM GAS  /tmp/ccTAg9Zs.s 			page 64


 3592 0198 00       		.byte	0
 3593 0199 03       		.uleb128 0x3
 3594 019a 0E       		.uleb128 0xe
 3595 019b 3A       		.uleb128 0x3a
 3596 019c 0B       		.uleb128 0xb
 3597 019d 3B       		.uleb128 0x3b
 3598 019e 0B       		.uleb128 0xb
 3599 019f 49       		.uleb128 0x49
 3600 01a0 13       		.uleb128 0x13
 3601 01a1 38       		.uleb128 0x38
 3602 01a2 05       		.uleb128 0x5
 3603 01a3 00       		.byte	0
 3604 01a4 00       		.byte	0
 3605 01a5 22       		.uleb128 0x22
 3606 01a6 0D       		.uleb128 0xd
 3607 01a7 00       		.byte	0
 3608 01a8 03       		.uleb128 0x3
 3609 01a9 08       		.uleb128 0x8
 3610 01aa 3A       		.uleb128 0x3a
 3611 01ab 0B       		.uleb128 0xb
 3612 01ac 3B       		.uleb128 0x3b
 3613 01ad 0B       		.uleb128 0xb
 3614 01ae 49       		.uleb128 0x49
 3615 01af 13       		.uleb128 0x13
 3616 01b0 38       		.uleb128 0x38
 3617 01b1 05       		.uleb128 0x5
 3618 01b2 00       		.byte	0
 3619 01b3 00       		.byte	0
 3620 01b4 23       		.uleb128 0x23
 3621 01b5 21       		.uleb128 0x21
 3622 01b6 00       		.byte	0
 3623 01b7 49       		.uleb128 0x49
 3624 01b8 13       		.uleb128 0x13
 3625 01b9 2F       		.uleb128 0x2f
 3626 01ba 05       		.uleb128 0x5
 3627 01bb 00       		.byte	0
 3628 01bc 00       		.byte	0
 3629 01bd 24       		.uleb128 0x24
 3630 01be 0D       		.uleb128 0xd
 3631 01bf 00       		.byte	0
 3632 01c0 03       		.uleb128 0x3
 3633 01c1 0E       		.uleb128 0xe
 3634 01c2 3A       		.uleb128 0x3a
 3635 01c3 0B       		.uleb128 0xb
 3636 01c4 3B       		.uleb128 0x3b
 3637 01c5 0B       		.uleb128 0xb
 3638 01c6 49       		.uleb128 0x49
 3639 01c7 13       		.uleb128 0x13
 3640 01c8 00       		.byte	0
 3641 01c9 00       		.byte	0
 3642 01ca 25       		.uleb128 0x25
 3643 01cb 17       		.uleb128 0x17
 3644 01cc 01       		.byte	0x1
 3645 01cd 0B       		.uleb128 0xb
 3646 01ce 0B       		.uleb128 0xb
 3647 01cf 3A       		.uleb128 0x3a
 3648 01d0 0B       		.uleb128 0xb
ARM GAS  /tmp/ccTAg9Zs.s 			page 65


 3649 01d1 3B       		.uleb128 0x3b
 3650 01d2 05       		.uleb128 0x5
 3651 01d3 01       		.uleb128 0x1
 3652 01d4 13       		.uleb128 0x13
 3653 01d5 00       		.byte	0
 3654 01d6 00       		.byte	0
 3655 01d7 26       		.uleb128 0x26
 3656 01d8 2E       		.uleb128 0x2e
 3657 01d9 01       		.byte	0x1
 3658 01da 3F       		.uleb128 0x3f
 3659 01db 19       		.uleb128 0x19
 3660 01dc 03       		.uleb128 0x3
 3661 01dd 0E       		.uleb128 0xe
 3662 01de 3A       		.uleb128 0x3a
 3663 01df 0B       		.uleb128 0xb
 3664 01e0 3B       		.uleb128 0x3b
 3665 01e1 0B       		.uleb128 0xb
 3666 01e2 27       		.uleb128 0x27
 3667 01e3 19       		.uleb128 0x19
 3668 01e4 11       		.uleb128 0x11
 3669 01e5 01       		.uleb128 0x1
 3670 01e6 12       		.uleb128 0x12
 3671 01e7 06       		.uleb128 0x6
 3672 01e8 40       		.uleb128 0x40
 3673 01e9 18       		.uleb128 0x18
 3674 01ea 9742     		.uleb128 0x2117
 3675 01ec 19       		.uleb128 0x19
 3676 01ed 01       		.uleb128 0x1
 3677 01ee 13       		.uleb128 0x13
 3678 01ef 00       		.byte	0
 3679 01f0 00       		.byte	0
 3680 01f1 27       		.uleb128 0x27
 3681 01f2 898201   		.uleb128 0x4109
 3682 01f5 00       		.byte	0
 3683 01f6 11       		.uleb128 0x11
 3684 01f7 01       		.uleb128 0x1
 3685 01f8 31       		.uleb128 0x31
 3686 01f9 13       		.uleb128 0x13
 3687 01fa 00       		.byte	0
 3688 01fb 00       		.byte	0
 3689 01fc 28       		.uleb128 0x28
 3690 01fd 898201   		.uleb128 0x4109
 3691 0200 00       		.byte	0
 3692 0201 11       		.uleb128 0x11
 3693 0202 01       		.uleb128 0x1
 3694 0203 9542     		.uleb128 0x2115
 3695 0205 19       		.uleb128 0x19
 3696 0206 31       		.uleb128 0x31
 3697 0207 13       		.uleb128 0x13
 3698 0208 00       		.byte	0
 3699 0209 00       		.byte	0
 3700 020a 29       		.uleb128 0x29
 3701 020b 2E       		.uleb128 0x2e
 3702 020c 00       		.byte	0
 3703 020d 03       		.uleb128 0x3
 3704 020e 0E       		.uleb128 0xe
 3705 020f 3A       		.uleb128 0x3a
ARM GAS  /tmp/ccTAg9Zs.s 			page 66


 3706 0210 0B       		.uleb128 0xb
 3707 0211 3B       		.uleb128 0x3b
 3708 0212 05       		.uleb128 0x5
 3709 0213 27       		.uleb128 0x27
 3710 0214 19       		.uleb128 0x19
 3711 0215 20       		.uleb128 0x20
 3712 0216 0B       		.uleb128 0xb
 3713 0217 00       		.byte	0
 3714 0218 00       		.byte	0
 3715 0219 2A       		.uleb128 0x2a
 3716 021a 2E       		.uleb128 0x2e
 3717 021b 00       		.byte	0
 3718 021c 3F       		.uleb128 0x3f
 3719 021d 19       		.uleb128 0x19
 3720 021e 3C       		.uleb128 0x3c
 3721 021f 19       		.uleb128 0x19
 3722 0220 6E       		.uleb128 0x6e
 3723 0221 0E       		.uleb128 0xe
 3724 0222 03       		.uleb128 0x3
 3725 0223 0E       		.uleb128 0xe
 3726 0224 3A       		.uleb128 0x3a
 3727 0225 0B       		.uleb128 0xb
 3728 0226 3B       		.uleb128 0x3b
 3729 0227 05       		.uleb128 0x5
 3730 0228 00       		.byte	0
 3731 0229 00       		.byte	0
 3732 022a 2B       		.uleb128 0x2b
 3733 022b 2E       		.uleb128 0x2e
 3734 022c 00       		.byte	0
 3735 022d 3F       		.uleb128 0x3f
 3736 022e 19       		.uleb128 0x19
 3737 022f 3C       		.uleb128 0x3c
 3738 0230 19       		.uleb128 0x19
 3739 0231 6E       		.uleb128 0x6e
 3740 0232 0E       		.uleb128 0xe
 3741 0233 03       		.uleb128 0x3
 3742 0234 0E       		.uleb128 0xe
 3743 0235 3A       		.uleb128 0x3a
 3744 0236 0B       		.uleb128 0xb
 3745 0237 3B       		.uleb128 0x3b
 3746 0238 0B       		.uleb128 0xb
 3747 0239 00       		.byte	0
 3748 023a 00       		.byte	0
 3749 023b 00       		.byte	0
 3750              		.section	.debug_aranges,"",%progbits
 3751 0000 1C000000 		.4byte	0x1c
 3752 0004 0200     		.2byte	0x2
 3753 0006 00000000 		.4byte	.Ldebug_info0
 3754 000a 04       		.byte	0x4
 3755 000b 00       		.byte	0
 3756 000c 0000     		.2byte	0
 3757 000e 0000     		.2byte	0
 3758 0010 00000000 		.4byte	.LFB260
 3759 0014 28000000 		.4byte	.LFE260-.LFB260
 3760 0018 00000000 		.4byte	0
 3761 001c 00000000 		.4byte	0
 3762              		.section	.debug_ranges,"",%progbits
ARM GAS  /tmp/ccTAg9Zs.s 			page 67


 3763              	.Ldebug_ranges0:
 3764 0000 00000000 		.4byte	.LFB260
 3765 0004 28000000 		.4byte	.LFE260
 3766 0008 00000000 		.4byte	0
 3767 000c 00000000 		.4byte	0
 3768              		.section	.debug_line,"",%progbits
 3769              	.Ldebug_line0:
 3770 0000 02040000 		.section	.debug_str,"MS",%progbits,1
 3770      0200DF03 
 3770      00000201 
 3770      FB0E0D00 
 3770      01010101 
 3771              	.LASF86:
 3772 0000 4D314152 		.ascii	"M1AR\000"
 3772      00
 3773              	.LASF150:
 3774 0005 73746D33 		.ascii	"stm32_dma_stream_t\000"
 3774      325F646D 
 3774      615F7374 
 3774      7265616D 
 3774      5F7400
 3775              	.LASF4:
 3776 0018 73697A65 		.ascii	"size_t\000"
 3776      5F7400
 3777              	.LASF100:
 3778 001f 77747365 		.ascii	"wtsemp\000"
 3778      6D7000
 3779              	.LASF122:
 3780 0026 63665F6F 		.ascii	"cf_off_name\000"
 3780      66665F6E 
 3780      616D6500 
 3781              	.LASF29:
 3782 0032 73797374 		.ascii	"systime_t\000"
 3782      696D655F 
 3782      7400
 3783              	.LASF172:
 3784 003c 55415254 		.ascii	"UART_STOP\000"
 3784      5F53544F 
 3784      5000
 3785              	.LASF111:
 3786 0046 63685F69 		.ascii	"ch_identifier\000"
 3786      64656E74 
 3786      69666965 
 3786      7200
 3787              	.LASF34:
 3788 0054 705F6374 		.ascii	"p_ctx\000"
 3788      7800
 3789              	.LASF25:
 3790 005a 74707269 		.ascii	"tprio_t\000"
 3790      6F5F7400 
 3791              	.LASF130:
 3792 0062 63685F64 		.ascii	"ch_debug\000"
 3792      65627567 
 3792      00
 3793              	.LASF42:
 3794 006b 705F6D73 		.ascii	"p_msgqueue\000"
 3794      67717565 
ARM GAS  /tmp/ccTAg9Zs.s 			page 68


 3794      756500
 3795              	.LASF58:
 3796 0076 725F6374 		.ascii	"r_ctx\000"
 3796      7800
 3797              	.LASF18:
 3798 007c 696E7433 		.ascii	"int32_t\000"
 3798      325F7400 
 3799              	.LASF263:
 3800 0084 72657376 		.ascii	"resvd4\000"
 3800      643400
 3801              	.LASF254:
 3802 008b 72657376 		.ascii	"resvd8\000"
 3802      643800
 3803              	.LASF119:
 3804 0092 63665F6F 		.ascii	"cf_off_ctx\000"
 3804      66665F63 
 3804      747800
 3805              	.LASF62:
 3806 009d 76746675 		.ascii	"vtfunc_t\000"
 3806      6E635F74 
 3806      00
 3807              	.LASF265:
 3808 00a6 72657376 		.ascii	"resvdC\000"
 3808      644300
 3809              	.LASF71:
 3810 00ad 63685F76 		.ascii	"ch_virtual_timers_list\000"
 3810      69727475 
 3810      616C5F74 
 3810      696D6572 
 3810      735F6C69 
 3811              	.LASF231:
 3812 00c4 5553425F 		.ascii	"USB_EP0_TX\000"
 3812      4550305F 
 3812      545800
 3813              	.LASF294:
 3814 00cf 48464952 		.ascii	"HFIR\000"
 3814      00
 3815              	.LASF257:
 3816 00d4 48435453 		.ascii	"HCTSIZ\000"
 3816      495A00
 3817              	.LASF303:
 3818 00db 72657376 		.ascii	"resvd700\000"
 3818      64373030 
 3818      00
 3819              	.LASF188:
 3820 00e4 636F6E66 		.ascii	"config\000"
 3820      696700
 3821              	.LASF185:
 3822 00eb 73746174 		.ascii	"state\000"
 3822      6500
 3823              	.LASF347:
 3824 00f1 65705F6D 		.ascii	"ep_mode\000"
 3824      6F646500 
 3825              	.LASF164:
 3826 00f9 50454461 		.ascii	"PEData\000"
 3826      746100
 3827              	.LASF187:
ARM GAS  /tmp/ccTAg9Zs.s 			page 69


 3828 0100 72787374 		.ascii	"rxstate\000"
 3828      61746500 
 3829              	.LASF115:
 3830 0108 63685F70 		.ascii	"ch_ptrsize\000"
 3830      74727369 
 3830      7A6500
 3831              	.LASF228:
 3832 0113 5553425F 		.ascii	"USB_ACTIVE\000"
 3832      41435449 
 3832      564500
 3833              	.LASF199:
 3834 011e 7278656E 		.ascii	"rxend_cb\000"
 3834      645F6362 
 3834      00
 3835              	.LASF368:
 3836 0127 73647549 		.ascii	"sduInit\000"
 3836      6E697400 
 3837              	.LASF159:
 3838 012f 73746D33 		.ascii	"stm32_gpio_setup_t\000"
 3838      325F6770 
 3838      696F5F73 
 3838      65747570 
 3838      5F7400
 3839              	.LASF108:
 3840 0142 6D5F6F77 		.ascii	"m_owner\000"
 3840      6E657200 
 3841              	.LASF69:
 3842 014a 76745F70 		.ascii	"vt_par\000"
 3842      617200
 3843              	.LASF97:
 3844 0151 65786974 		.ascii	"exitcode\000"
 3844      636F6465 
 3844      00
 3845              	.LASF237:
 3846 015a 75736265 		.ascii	"usbep0state_t\000"
 3846      70307374 
 3846      6174655F 
 3846      7400
 3847              	.LASF5:
 3848 0168 5F5F7569 		.ascii	"__uint8_t\000"
 3848      6E74385F 
 3848      7400
 3849              	.LASF137:
 3850 0172 715F746F 		.ascii	"q_top\000"
 3850      7000
 3851              	.LASF117:
 3852 0178 63685F74 		.ascii	"ch_threadsize\000"
 3852      68726561 
 3852      6473697A 
 3852      6500
 3853              	.LASF136:
 3854 0186 715F6275 		.ascii	"q_buffer\000"
 3854      66666572 
 3854      00
 3855              	.LASF239:
 3856 018f 5553425F 		.ascii	"USB_EVENT_ADDRESS\000"
 3856      4556454E 
ARM GAS  /tmp/ccTAg9Zs.s 			page 70


 3856      545F4144 
 3856      44524553 
 3856      5300
 3857              	.LASF284:
 3858 01a1 44494550 		.ascii	"DIEPTXF0\000"
 3858      54584630 
 3858      00
 3859              	.LASF140:
 3860 01aa 715F6E6F 		.ascii	"q_notify\000"
 3860      74696679 
 3860      00
 3861              	.LASF35:
 3862 01b3 705F6E65 		.ascii	"p_newer\000"
 3862      77657200 
 3863              	.LASF184:
 3864 01bb 55415254 		.ascii	"UARTDriver\000"
 3864      44726976 
 3864      657200
 3865              	.LASF11:
 3866 01c6 6C6F6E67 		.ascii	"long int\000"
 3866      20696E74 
 3866      00
 3867              	.LASF31:
 3868 01cf 705F6E65 		.ascii	"p_next\000"
 3868      787400
 3869              	.LASF139:
 3870 01d6 715F7264 		.ascii	"q_rdptr\000"
 3870      70747200 
 3871              	.LASF124:
 3872 01de 63665F6F 		.ascii	"cf_off_state\000"
 3872      66665F73 
 3872      74617465 
 3872      00
 3873              	.LASF32:
 3874 01eb 705F7072 		.ascii	"p_prev\000"
 3874      657600
 3875              	.LASF23:
 3876 01f2 74737461 		.ascii	"tstate_t\000"
 3876      74655F74 
 3876      00
 3877              	.LASF52:
 3878 01fb 74687265 		.ascii	"threads_queue_t\000"
 3878      6164735F 
 3878      71756575 
 3878      655F7400 
 3879              	.LASF45:
 3880 020b 705F6D74 		.ascii	"p_mtxlist\000"
 3880      786C6973 
 3880      7400
 3881              	.LASF332:
 3882 0215 74786275 		.ascii	"txbuf\000"
 3882      6600
 3883              	.LASF90:
 3884 021b 72656761 		.ascii	"regarm_t\000"
 3884      726D5F74 
 3884      00
 3885              	.LASF310:
ARM GAS  /tmp/ccTAg9Zs.s 			page 71


 3886 0224 4441494E 		.ascii	"DAINT\000"
 3886      5400
 3887              	.LASF230:
 3888 022a 5553425F 		.ascii	"USB_EP0_WAITING_SETUP\000"
 3888      4550305F 
 3888      57414954 
 3888      494E475F 
 3888      53455455 
 3889              	.LASF309:
 3890 0240 444F4550 		.ascii	"DOEPMSK\000"
 3890      4D534B00 
 3891              	.LASF186:
 3892 0248 74787374 		.ascii	"txstate\000"
 3892      61746500 
 3893              	.LASF133:
 3894 0250 696F5F71 		.ascii	"io_queue\000"
 3894      75657565 
 3894      00
 3895              	.LASF178:
 3896 0259 75617274 		.ascii	"uarttxstate_t\000"
 3896      74787374 
 3896      6174655F 
 3896      7400
 3897              	.LASF270:
 3898 0267 444F4550 		.ascii	"DOEPCTL\000"
 3898      43544C00 
 3899              	.LASF189:
 3900 026f 75736172 		.ascii	"usart\000"
 3900      7400
 3901              	.LASF170:
 3902 0275 70616C5F 		.ascii	"pal_default_config\000"
 3902      64656661 
 3902      756C745F 
 3902      636F6E66 
 3902      696700
 3903              	.LASF3:
 3904 0288 7369676E 		.ascii	"signed char\000"
 3904      65642063 
 3904      68617200 
 3905              	.LASF102:
 3906 0294 65776D61 		.ascii	"ewmask\000"
 3906      736B00
 3907              	.LASF16:
 3908 029b 75696E74 		.ascii	"uint8_t\000"
 3908      385F7400 
 3909              	.LASF243:
 3910 02a3 5553425F 		.ascii	"USB_EVENT_STALLED\000"
 3910      4556454E 
 3910      545F5354 
 3910      414C4C45 
 3910      4400
 3911              	.LASF271:
 3912 02b5 444F4550 		.ascii	"DOEPINT\000"
 3912      494E5400 
 3913              	.LASF364:
 3914 02bd 68616C5F 		.ascii	"hal_lld_init\000"
 3914      6C6C645F 
ARM GAS  /tmp/ccTAg9Zs.s 			page 72


 3914      696E6974 
 3914      00
 3915              	.LASF27:
 3916 02ca 6576656E 		.ascii	"eventmask_t\000"
 3916      746D6173 
 3916      6B5F7400 
 3917              	.LASF92:
 3918 02d6 636F6E74 		.ascii	"context\000"
 3918      65787400 
 3919              	.LASF344:
 3920 02de 72787369 		.ascii	"rxsize\000"
 3920      7A6500
 3921              	.LASF99:
 3922 02e5 77747472 		.ascii	"wttrp\000"
 3922      7000
 3923              	.LASF156:
 3924 02eb 70757064 		.ascii	"pupdr\000"
 3924      7200
 3925              	.LASF6:
 3926 02f1 756E7369 		.ascii	"unsigned char\000"
 3926      676E6564 
 3926      20636861 
 3926      7200
 3927              	.LASF236:
 3928 02ff 5553425F 		.ascii	"USB_EP0_ERROR\000"
 3928      4550305F 
 3928      4552524F 
 3928      5200
 3929              	.LASF141:
 3930 030d 715F6C69 		.ascii	"q_link\000"
 3930      6E6B00
 3931              	.LASF163:
 3932 0314 50444461 		.ascii	"PDData\000"
 3932      746100
 3933              	.LASF75:
 3934 031b 70616E69 		.ascii	"panic_msg\000"
 3934      635F6D73 
 3934      6700
 3935              	.LASF304:
 3936 0325 44434647 		.ascii	"DCFG\000"
 3936      00
 3937              	.LASF322:
 3938 032a 72657376 		.ascii	"resvd8C0\000"
 3938      64384330 
 3938      00
 3939              	.LASF59:
 3940 0333 725F6E65 		.ascii	"r_newer\000"
 3940      77657200 
 3941              	.LASF288:
 3942 033b 47434346 		.ascii	"GCCFG\000"
 3942      4700
 3943              	.LASF210:
 3944 0341 65703073 		.ascii	"ep0state\000"
 3944      74617465 
 3944      00
 3945              	.LASF73:
 3946 034a 73797374 		.ascii	"system_debug_t\000"
ARM GAS  /tmp/ccTAg9Zs.s 			page 73


 3946      656D5F64 
 3946      65627567 
 3946      5F7400
 3947              	.LASF266:
 3948 0359 44494550 		.ascii	"DIEPTSIZ\000"
 3948      5453495A 
 3948      00
 3949              	.LASF360:
 3950 0362 72657175 		.ascii	"requests_hook_cb\000"
 3950      65737473 
 3950      5F686F6F 
 3950      6B5F6362 
 3950      00
 3951              	.LASF152:
 3952 0373 5F426F6F 		.ascii	"_Bool\000"
 3952      6C00
 3953              	.LASF293:
 3954 0379 48434647 		.ascii	"HCFG\000"
 3954      00
 3955              	.LASF253:
 3956 037e 48434348 		.ascii	"HCCHAR\000"
 3956      415200
 3957              	.LASF273:
 3958 0385 73746D33 		.ascii	"stm32_otg_out_ep_t\000"
 3958      325F6F74 
 3958      675F6F75 
 3958      745F6570 
 3958      5F7400
 3959              	.LASF110:
 3960 0398 63686172 		.ascii	"char\000"
 3960      00
 3961              	.LASF153:
 3962 039d 6D6F6465 		.ascii	"moder\000"
 3962      7200
 3963              	.LASF147:
 3964 03a3 69736869 		.ascii	"ishift\000"
 3964      667400
 3965              	.LASF212:
 3966 03aa 6570306E 		.ascii	"ep0n\000"
 3966      00
 3967              	.LASF307:
 3968 03af 72657376 		.ascii	"resvd80C\000"
 3968      64383043 
 3968      00
 3969              	.LASF301:
 3970 03b8 48505254 		.ascii	"HPRT\000"
 3970      00
 3971              	.LASF33:
 3972 03bd 705F7072 		.ascii	"p_prio\000"
 3972      696F00
 3973              	.LASF207:
 3974 03c4 72656365 		.ascii	"receiving\000"
 3974      6976696E 
 3974      6700
 3975              	.LASF8:
 3976 03ce 5F5F7569 		.ascii	"__uint16_t\000"
 3976      6E743136 
ARM GAS  /tmp/ccTAg9Zs.s 			page 74


 3976      5F7400
 3977              	.LASF205:
 3978 03d9 55534244 		.ascii	"USBDriver\000"
 3978      72697665 
 3978      7200
 3979              	.LASF98:
 3980 03e3 77746F62 		.ascii	"wtobjp\000"
 3980      6A7000
 3981              	.LASF120:
 3982 03ea 63665F6F 		.ascii	"cf_off_newer\000"
 3982      66665F6E 
 3982      65776572 
 3982      00
 3983              	.LASF349:
 3984 03f7 696E5F63 		.ascii	"in_cb\000"
 3984      6200
 3985              	.LASF91:
 3986 03fd 73746B61 		.ascii	"stkalign_t\000"
 3986      6C69676E 
 3986      5F7400
 3987              	.LASF89:
 3988 0408 55534152 		.ascii	"USART_TypeDef\000"
 3988      545F5479 
 3988      70654465 
 3988      6600
 3989              	.LASF295:
 3990 0416 48464E55 		.ascii	"HFNUM\000"
 3990      4D00
 3991              	.LASF250:
 3992 041c 75736265 		.ascii	"usbeventcb_t\000"
 3992      76656E74 
 3992      63625F74 
 3992      00
 3993              	.LASF118:
 3994 0429 63665F6F 		.ascii	"cf_off_prio\000"
 3994      66665F70 
 3994      72696F00 
 3995              	.LASF145:
 3996 0435 73747265 		.ascii	"stream\000"
 3996      616D00
 3997              	.LASF261:
 3998 043c 73746D33 		.ascii	"stm32_otg_host_chn_t\000"
 3998      325F6F74 
 3998      675F686F 
 3998      73745F63 
 3998      686E5F74 
 3999              	.LASF206:
 4000 0451 7472616E 		.ascii	"transmitting\000"
 4000      736D6974 
 4000      74696E67 
 4000      00
 4001              	.LASF341:
 4002 045e 55534249 		.ascii	"USBInEndpointState\000"
 4002      6E456E64 
 4002      706F696E 
 4002      74537461 
 4002      746500
ARM GAS  /tmp/ccTAg9Zs.s 			page 75


 4003              	.LASF312:
 4004 0471 72657376 		.ascii	"resvd820\000"
 4004      64383230 
 4004      00
 4005              	.LASF313:
 4006 047a 72657376 		.ascii	"resvd824\000"
 4006      64383234 
 4006      00
 4007              	.LASF315:
 4008 0483 44564255 		.ascii	"DVBUSPULSE\000"
 4008      5350554C 
 4008      534500
 4009              	.LASF28:
 4010 048e 636E745F 		.ascii	"cnt_t\000"
 4010      7400
 4011              	.LASF200:
 4012 0494 72786368 		.ascii	"rxchar_cb\000"
 4012      61725F63 
 4012      6200
 4013              	.LASF68:
 4014 049e 76745F66 		.ascii	"vt_func\000"
 4014      756E6300 
 4015              	.LASF247:
 4016 04a6 55534244 		.ascii	"USBDescriptor\000"
 4016      65736372 
 4016      6970746F 
 4016      7200
 4017              	.LASF331:
 4018 04b4 73746D33 		.ascii	"stm32_otg_params_t\000"
 4018      325F6F74 
 4018      675F7061 
 4018      72616D73 
 4018      5F7400
 4019              	.LASF214:
 4020 04c7 73657475 		.ascii	"setup\000"
 4020      7000
 4021              	.LASF202:
 4022 04cd 73706565 		.ascii	"speed\000"
 4022      6400
 4023              	.LASF44:
 4024 04d3 705F6570 		.ascii	"p_epending\000"
 4024      656E6469 
 4024      6E6700
 4025              	.LASF101:
 4026 04de 77746D74 		.ascii	"wtmtxp\000"
 4026      787000
 4027              	.LASF244:
 4028 04e5 75736265 		.ascii	"usbevent_t\000"
 4028      76656E74 
 4028      5F7400
 4029              	.LASF55:
 4030 04f0 63685F72 		.ascii	"ch_ready_list\000"
 4030      65616479 
 4030      5F6C6973 
 4030      7400
 4031              	.LASF245:
 4032 04fe 75645F73 		.ascii	"ud_size\000"
ARM GAS  /tmp/ccTAg9Zs.s 			page 76


 4032      697A6500 
 4033              	.LASF155:
 4034 0506 6F737065 		.ascii	"ospeedr\000"
 4034      65647200 
 4035              	.LASF227:
 4036 050e 5553425F 		.ascii	"USB_SELECTED\000"
 4036      53454C45 
 4036      43544544 
 4036      00
 4037              	.LASF162:
 4038 051b 50434461 		.ascii	"PCData\000"
 4038      746100
 4039              	.LASF217:
 4040 0522 636F6E66 		.ascii	"configuration\000"
 4040      69677572 
 4040      6174696F 
 4040      6E00
 4041              	.LASF298:
 4042 0530 4841494E 		.ascii	"HAINT\000"
 4042      5400
 4043              	.LASF283:
 4044 0536 47525846 		.ascii	"GRXFSIZ\000"
 4044      53495A00 
 4045              	.LASF338:
 4046 053e 7478636E 		.ascii	"txcnt\000"
 4046      7400
 4047              	.LASF135:
 4048 0544 715F636F 		.ascii	"q_counter\000"
 4048      756E7465 
 4048      7200
 4049              	.LASF320:
 4050 054e 72657376 		.ascii	"resvd840\000"
 4050      64383430 
 4050      00
 4051              	.LASF158:
 4052 0557 61667268 		.ascii	"afrh\000"
 4052      00
 4053              	.LASF14:
 4054 055c 5F5F7569 		.ascii	"__uint64_t\000"
 4054      6E743634 
 4054      5F7400
 4055              	.LASF291:
 4056 0567 44494550 		.ascii	"DIEPTXF\000"
 4056      54584600 
 4057              	.LASF13:
 4058 056f 6C6F6E67 		.ascii	"long unsigned int\000"
 4058      20756E73 
 4058      69676E65 
 4058      6420696E 
 4058      7400
 4059              	.LASF112:
 4060 0581 63685F7A 		.ascii	"ch_zero\000"
 4060      65726F00 
 4061              	.LASF203:
 4062 0589 55415254 		.ascii	"UARTConfig\000"
 4062      436F6E66 
 4062      696700
ARM GAS  /tmp/ccTAg9Zs.s 			page 77


 4063              	.LASF215:
 4064 0594 73746174 		.ascii	"status\000"
 4064      757300
 4065              	.LASF216:
 4066 059b 61646472 		.ascii	"address\000"
 4066      65737300 
 4067              	.LASF154:
 4068 05a3 6F747970 		.ascii	"otyper\000"
 4068      657200
 4069              	.LASF83:
 4070 05aa 53797374 		.ascii	"SystemCoreClock\000"
 4070      656D436F 
 4070      7265436C 
 4070      6F636B00 
 4071              	.LASF103:
 4072 05ba 63685F73 		.ascii	"ch_semaphore\000"
 4072      656D6170 
 4072      686F7265 
 4072      00
 4073              	.LASF213:
 4074 05c7 65703065 		.ascii	"ep0endcb\000"
 4074      6E646362 
 4074      00
 4075              	.LASF50:
 4076 05d0 63685F74 		.ascii	"ch_thread\000"
 4076      68726561 
 4076      6400
 4077              	.LASF276:
 4078 05da 47414842 		.ascii	"GAHBCFG\000"
 4078      43464700 
 4079              	.LASF70:
 4080 05e2 76697274 		.ascii	"virtual_timers_list_t\000"
 4080      75616C5F 
 4080      74696D65 
 4080      72735F6C 
 4080      6973745F 
 4081              	.LASF355:
 4082 05f8 696E5F6D 		.ascii	"in_multiplier\000"
 4082      756C7469 
 4082      706C6965 
 4082      7200
 4083              	.LASF151:
 4084 0606 5F73746D 		.ascii	"_stm32_dma_streams\000"
 4084      33325F64 
 4084      6D615F73 
 4084      74726561 
 4084      6D7300
 4085              	.LASF198:
 4086 0619 7478656E 		.ascii	"txend2_cb\000"
 4086      64325F63 
 4086      6200
 4087              	.LASF330:
 4088 0623 6E756D5F 		.ascii	"num_endpoints\000"
 4088      656E6470 
 4088      6F696E74 
 4088      7300
 4089              	.LASF63:
ARM GAS  /tmp/ccTAg9Zs.s 			page 78


 4090 0631 76697274 		.ascii	"virtual_timer_t\000"
 4090      75616C5F 
 4090      74696D65 
 4090      725F7400 
 4091              	.LASF54:
 4092 0641 72656164 		.ascii	"ready_list_t\000"
 4092      795F6C69 
 4092      73745F74 
 4092      00
 4093              	.LASF138:
 4094 064e 715F7772 		.ascii	"q_wrptr\000"
 4094      70747200 
 4095              	.LASF196:
 4096 0656 75617274 		.ascii	"uartecb_t\000"
 4096      6563625F 
 4096      7400
 4097              	.LASF337:
 4098 0660 74787369 		.ascii	"txsize\000"
 4098      7A6500
 4099              	.LASF225:
 4100 0667 5553425F 		.ascii	"USB_STOP\000"
 4100      53544F50 
 4100      00
 4101              	.LASF168:
 4102 0670 50494461 		.ascii	"PIData\000"
 4102      746100
 4103              	.LASF374:
 4104 0677 68616C49 		.ascii	"halInit\000"
 4104      6E697400 
 4105              	.LASF345:
 4106 067f 7278636E 		.ascii	"rxcnt\000"
 4106      7400
 4107              	.LASF171:
 4108 0685 55415254 		.ascii	"UART_UNINIT\000"
 4108      5F554E49 
 4108      4E495400 
 4109              	.LASF229:
 4110 0691 75736273 		.ascii	"usbstate_t\000"
 4110      74617465 
 4110      5F7400
 4111              	.LASF51:
 4112 069c 63685F74 		.ascii	"ch_threads_list\000"
 4112      68726561 
 4112      64735F6C 
 4112      69737400 
 4113              	.LASF181:
 4114 06ac 55415254 		.ascii	"UART_RX_COMPLETE\000"
 4114      5F52585F 
 4114      434F4D50 
 4114      4C455445 
 4114      00
 4115              	.LASF296:
 4116 06bd 72657376 		.ascii	"resvd40C\000"
 4116      64343043 
 4116      00
 4117              	.LASF274:
 4118 06c6 474F5447 		.ascii	"GOTGCTL\000"
ARM GAS  /tmp/ccTAg9Zs.s 			page 79


 4118      43544C00 
 4119              	.LASF246:
 4120 06ce 75645F73 		.ascii	"ud_string\000"
 4120      7472696E 
 4120      6700
 4121              	.LASF127:
 4122 06d8 63665F6F 		.ascii	"cf_off_preempt\000"
 4122      66665F70 
 4122      7265656D 
 4122      707400
 4123              	.LASF191:
 4124 06e7 646D6172 		.ascii	"dmarx\000"
 4124      7800
 4125              	.LASF353:
 4126 06ed 696E5F73 		.ascii	"in_state\000"
 4126      74617465 
 4126      00
 4127              	.LASF281:
 4128 06f6 47525853 		.ascii	"GRXSTSR\000"
 4128      54535200 
 4129              	.LASF242:
 4130 06fe 5553425F 		.ascii	"USB_EVENT_WAKEUP\000"
 4130      4556454E 
 4130      545F5741 
 4130      4B455550 
 4130      00
 4131              	.LASF324:
 4132 070f 50434743 		.ascii	"PCGCCTL\000"
 4132      43544C00 
 4133              	.LASF12:
 4134 0717 5F5F7569 		.ascii	"__uint32_t\000"
 4134      6E743332 
 4134      5F7400
 4135              	.LASF358:
 4136 0722 6576656E 		.ascii	"event_cb\000"
 4136      745F6362 
 4136      00
 4137              	.LASF275:
 4138 072b 474F5447 		.ascii	"GOTGINT\000"
 4138      494E5400 
 4139              	.LASF1:
 4140 0733 6C6F6E67 		.ascii	"long long int\000"
 4140      206C6F6E 
 4140      6720696E 
 4140      7400
 4141              	.LASF226:
 4142 0741 5553425F 		.ascii	"USB_READY\000"
 4142      52454144 
 4142      5900
 4143              	.LASF282:
 4144 074b 47525853 		.ascii	"GRXSTSP\000"
 4144      54535000 
 4145              	.LASF114:
 4146 0753 63685F76 		.ascii	"ch_version\000"
 4146      65727369 
 4146      6F6E00
 4147              	.LASF107:
ARM GAS  /tmp/ccTAg9Zs.s 			page 80


 4148 075e 6D5F7175 		.ascii	"m_queue\000"
 4148      65756500 
 4149              	.LASF366:
 4150 0766 75617274 		.ascii	"uartInit\000"
 4150      496E6974 
 4150      00
 4151              	.LASF300:
 4152 076f 72657376 		.ascii	"resvd41C\000"
 4152      64343143 
 4152      00
 4153              	.LASF65:
 4154 0778 76745F6E 		.ascii	"vt_next\000"
 4154      65787400 
 4155              	.LASF211:
 4156 0780 6570306E 		.ascii	"ep0next\000"
 4156      65787400 
 4157              	.LASF66:
 4158 0788 76745F70 		.ascii	"vt_prev\000"
 4158      72657600 
 4159              	.LASF88:
 4160 0790 47545052 		.ascii	"GTPR\000"
 4160      00
 4161              	.LASF318:
 4162 0795 72657376 		.ascii	"resvd838\000"
 4162      64383338 
 4162      00
 4163              	.LASF249:
 4164 079e 75736265 		.ascii	"usbepcallback_t\000"
 4164      7063616C 
 4164      6C626163 
 4164      6B5F7400 
 4165              	.LASF348:
 4166 07ae 73657475 		.ascii	"setup_cb\000"
 4166      705F6362 
 4166      00
 4167              	.LASF321:
 4168 07b7 72657376 		.ascii	"resvd880\000"
 4168      64383830 
 4168      00
 4169              	.LASF82:
 4170 07c0 49544D5F 		.ascii	"ITM_RxBuffer\000"
 4170      52784275 
 4170      66666572 
 4170      00
 4171              	.LASF319:
 4172 07cd 72657376 		.ascii	"resvd83C\000"
 4172      64383343 
 4172      00
 4173              	.LASF161:
 4174 07d6 50424461 		.ascii	"PBData\000"
 4174      746100
 4175              	.LASF190:
 4176 07dd 646D616D 		.ascii	"dmamode\000"
 4176      6F646500 
 4177              	.LASF221:
 4178 07e5 77616974 		.ascii	"wait\000"
 4178      00
ARM GAS  /tmp/ccTAg9Zs.s 			page 81


 4179              	.LASF142:
 4180 07ea 716E6F74 		.ascii	"qnotify_t\000"
 4180      6966795F 
 4180      7400
 4181              	.LASF41:
 4182 07f4 705F7761 		.ascii	"p_waiting\000"
 4182      6974696E 
 4182      6700
 4183              	.LASF183:
 4184 07fe 75617274 		.ascii	"uartflags_t\000"
 4184      666C6167 
 4184      735F7400 
 4185              	.LASF192:
 4186 080a 646D6174 		.ascii	"dmatx\000"
 4186      7800
 4187              	.LASF39:
 4188 0810 705F666C 		.ascii	"p_flags\000"
 4188      61677300 
 4189              	.LASF272:
 4190 0818 444F4550 		.ascii	"DOEPTSIZ\000"
 4190      5453495A 
 4190      00
 4191              	.LASF81:
 4192 0821 69646C65 		.ascii	"idle_thread_wa\000"
 4192      5F746872 
 4192      6561645F 
 4192      776100
 4193              	.LASF201:
 4194 0830 72786572 		.ascii	"rxerr_cb\000"
 4194      725F6362 
 4194      00
 4195              	.LASF0:
 4196 0839 756E7369 		.ascii	"unsigned int\000"
 4196      676E6564 
 4196      20696E74 
 4196      00
 4197              	.LASF365:
 4198 0846 5F70616C 		.ascii	"_pal_lld_init\000"
 4198      5F6C6C64 
 4198      5F696E69 
 4198      7400
 4199              	.LASF362:
 4200 0854 55534243 		.ascii	"USBConfig\000"
 4200      6F6E6669 
 4200      6700
 4201              	.LASF21:
 4202 085e 7274636E 		.ascii	"rtcnt_t\000"
 4202      745F7400 
 4203              	.LASF220:
 4204 0866 74787065 		.ascii	"txpending\000"
 4204      6E64696E 
 4204      6700
 4205              	.LASF47:
 4206 0870 705F6D70 		.ascii	"p_mpool\000"
 4206      6F6F6C00 
 4207              	.LASF327:
 4208 0878 73746D33 		.ascii	"stm32_otg_t\000"
ARM GAS  /tmp/ccTAg9Zs.s 			page 82


 4208      325F6F74 
 4208      675F7400 
 4209              	.LASF372:
 4210 0884 43686962 		.ascii	"ChibiOS_3.0.2/os/hal/src/hal.c\000"
 4210      694F535F 
 4210      332E302E 
 4210      322F6F73 
 4210      2F68616C 
 4211              	.LASF375:
 4212 08a3 6F73616C 		.ascii	"osalInit\000"
 4212      496E6974 
 4212      00
 4213              	.LASF116:
 4214 08ac 63685F74 		.ascii	"ch_timesize\000"
 4214      696D6573 
 4214      697A6500 
 4215              	.LASF356:
 4216 08b8 73657475 		.ascii	"setup_buf\000"
 4216      705F6275 
 4216      6600
 4217              	.LASF302:
 4218 08c2 72657376 		.ascii	"resvd444\000"
 4218      64343434 
 4218      00
 4219              	.LASF350:
 4220 08cb 6F75745F 		.ascii	"out_cb\000"
 4220      636200
 4221              	.LASF94:
 4222 08d2 6F666673 		.ascii	"offset\000"
 4222      657400
 4223              	.LASF299:
 4224 08d9 4841494E 		.ascii	"HAINTMSK\000"
 4224      544D534B 
 4224      00
 4225              	.LASF167:
 4226 08e2 50484461 		.ascii	"PHData\000"
 4226      746100
 4227              	.LASF351:
 4228 08e9 696E5F6D 		.ascii	"in_maxsize\000"
 4228      61787369 
 4228      7A6500
 4229              	.LASF280:
 4230 08f4 47494E54 		.ascii	"GINTMSK\000"
 4230      4D534B00 
 4231              	.LASF87:
 4232 08fc 444D415F 		.ascii	"DMA_Stream_TypeDef\000"
 4232      53747265 
 4232      616D5F54 
 4232      79706544 
 4232      656600
 4233              	.LASF126:
 4234 090f 63665F6F 		.ascii	"cf_off_refs\000"
 4234      66665F72 
 4234      65667300 
 4235              	.LASF354:
 4236 091b 6F75745F 		.ascii	"out_state\000"
 4236      73746174 
ARM GAS  /tmp/ccTAg9Zs.s 			page 83


 4236      6500
 4237              	.LASF157:
 4238 0925 6166726C 		.ascii	"afrl\000"
 4238      00
 4239              	.LASF176:
 4240 092a 55415254 		.ascii	"UART_TX_ACTIVE\000"
 4240      5F54585F 
 4240      41435449 
 4240      564500
 4241              	.LASF40:
 4242 0939 705F7265 		.ascii	"p_refs\000"
 4242      667300
 4243              	.LASF30:
 4244 0940 74687265 		.ascii	"thread_t\000"
 4244      61645F74 
 4244      00
 4245              	.LASF2:
 4246 0949 6C6F6E67 		.ascii	"long double\000"
 4246      20646F75 
 4246      626C6500 
 4247              	.LASF48:
 4248 0955 74687265 		.ascii	"thread_reference_t\000"
 4248      61645F72 
 4248      65666572 
 4248      656E6365 
 4248      5F7400
 4249              	.LASF329:
 4250 0968 6F74675F 		.ascii	"otg_ram_size\000"
 4250      72616D5F 
 4250      73697A65 
 4250      00
 4251              	.LASF46:
 4252 0975 705F7265 		.ascii	"p_realprio\000"
 4252      616C7072 
 4252      696F00
 4253              	.LASF193:
 4254 0980 72786275 		.ascii	"rxbuf\000"
 4254      6600
 4255              	.LASF232:
 4256 0986 5553425F 		.ascii	"USB_EP0_WAITING_TX0\000"
 4256      4550305F 
 4256      57414954 
 4256      494E475F 
 4256      54583000 
 4257              	.LASF93:
 4258 099a 706F7274 		.ascii	"port_intctx\000"
 4258      5F696E74 
 4258      63747800 
 4259              	.LASF218:
 4260 09a6 6F746770 		.ascii	"otgparams\000"
 4260      6172616D 
 4260      7300
 4261              	.LASF128:
 4262 09b0 63665F6F 		.ascii	"cf_off_time\000"
 4262      66665F74 
 4262      696D6500 
 4263              	.LASF67:
ARM GAS  /tmp/ccTAg9Zs.s 			page 84


 4264 09bc 76745F64 		.ascii	"vt_delta\000"
 4264      656C7461 
 4264      00
 4265              	.LASF224:
 4266 09c5 5553425F 		.ascii	"USB_UNINIT\000"
 4266      554E494E 
 4266      495400
 4267              	.LASF64:
 4268 09d0 63685F76 		.ascii	"ch_virtual_timer\000"
 4268      69727475 
 4268      616C5F74 
 4268      696D6572 
 4268      00
 4269              	.LASF105:
 4270 09e1 735F636E 		.ascii	"s_cnt\000"
 4270      7400
 4271              	.LASF346:
 4272 09e7 5553424F 		.ascii	"USBOutEndpointState\000"
 4272      7574456E 
 4272      64706F69 
 4272      6E745374 
 4272      61746500 
 4273              	.LASF148:
 4274 09fb 73656C66 		.ascii	"selfindex\000"
 4274      696E6465 
 4274      7800
 4275              	.LASF367:
 4276 0a05 75736249 		.ascii	"usbInit\000"
 4276      6E697400 
 4277              	.LASF323:
 4278 0a0d 72657376 		.ascii	"resvdD00\000"
 4278      64443030 
 4278      00
 4279              	.LASF15:
 4280 0a16 6C6F6E67 		.ascii	"long long unsigned int\000"
 4280      206C6F6E 
 4280      6720756E 
 4280      7369676E 
 4280      65642069 
 4281              	.LASF290:
 4282 0a2d 48505458 		.ascii	"HPTXFSIZ\000"
 4282      4653495A 
 4282      00
 4283              	.LASF160:
 4284 0a36 50414461 		.ascii	"PAData\000"
 4284      746100
 4285              	.LASF36:
 4286 0a3d 705F6F6C 		.ascii	"p_older\000"
 4286      64657200 
 4287              	.LASF17:
 4288 0a45 75696E74 		.ascii	"uint16_t\000"
 4288      31365F74 
 4288      00
 4289              	.LASF180:
 4290 0a4e 55415254 		.ascii	"UART_RX_ACTIVE\000"
 4290      5F52585F 
 4290      41435449 
ARM GAS  /tmp/ccTAg9Zs.s 			page 85


 4290      564500
 4291              	.LASF255:
 4292 0a5d 4843494E 		.ascii	"HCINT\000"
 4292      5400
 4293              	.LASF334:
 4294 0a63 6C696E65 		.ascii	"linear\000"
 4294      617200
 4295              	.LASF26:
 4296 0a6a 6D73675F 		.ascii	"msg_t\000"
 4296      7400
 4297              	.LASF305:
 4298 0a70 4443544C 		.ascii	"DCTL\000"
 4298      00
 4299              	.LASF53:
 4300 0a75 63685F74 		.ascii	"ch_threads_queue\000"
 4300      68726561 
 4300      64735F71 
 4300      75657565 
 4300      00
 4301              	.LASF357:
 4302 0a86 55534245 		.ascii	"USBEndpointConfig\000"
 4302      6E64706F 
 4302      696E7443 
 4302      6F6E6669 
 4302      6700
 4303              	.LASF256:
 4304 0a98 4843494E 		.ascii	"HCINTMSK\000"
 4304      544D534B 
 4304      00
 4305              	.LASF125:
 4306 0aa1 63665F6F 		.ascii	"cf_off_flags\000"
 4306      66665F66 
 4306      6C616773 
 4306      00
 4307              	.LASF343:
 4308 0aae 72787175 		.ascii	"rxqueued\000"
 4308      65756564 
 4308      00
 4309              	.LASF371:
 4310 0ab7 474E5520 		.ascii	"GNU C11 7.3.1 20180622 (release) [ARM/embedded-7-br"
 4310      43313120 
 4310      372E332E 
 4310      31203230 
 4310      31383036 
 4311 0aea 616E6368 		.ascii	"anch revision 261907] -mcpu=cortex-m4 -mfloat-abi=h"
 4311      20726576 
 4311      6973696F 
 4311      6E203236 
 4311      31393037 
 4312 0b1d 61726420 		.ascii	"ard -mfpu=fpv4-sp-d16 -mno-thumb-interwork -mthumb "
 4312      2D6D6670 
 4312      753D6670 
 4312      76342D73 
 4312      702D6431 
 4313 0b50 2D676764 		.ascii	"-ggdb -O2 -fomit-frame-pointer -falign-functions=16"
 4313      62202D4F 
 4313      32202D66 
ARM GAS  /tmp/ccTAg9Zs.s 			page 86


 4313      6F6D6974 
 4313      2D667261 
 4314 0b83 202D6666 		.ascii	" -ffunction-sections -fdata-sections -fno-common -f"
 4314      756E6374 
 4314      696F6E2D 
 4314      73656374 
 4314      696F6E73 
 4315 0bb6 73696E67 		.ascii	"single-precision-constant\000"
 4315      6C652D70 
 4315      72656369 
 4315      73696F6E 
 4315      2D636F6E 
 4316              	.LASF61:
 4317 0bd0 725F6375 		.ascii	"r_current\000"
 4317      7272656E 
 4317      7400
 4318              	.LASF335:
 4319 0bda 71756575 		.ascii	"queue\000"
 4319      6500
 4320              	.LASF149:
 4321 0be0 76656374 		.ascii	"vector\000"
 4321      6F7200
 4322              	.LASF373:
 4323 0be7 2F686F6D 		.ascii	"/home/jhl/myprogram/vesc/bldc_uart_comm_stm32f4_dis"
 4323      652F6A68 
 4323      6C2F6D79 
 4323      70726F67 
 4323      72616D2F 
 4324 0c1a 636F7665 		.ascii	"covery\000"
 4324      727900
 4325              	.LASF342:
 4326 0c21 72787175 		.ascii	"rxqueue\000"
 4326      65756500 
 4327              	.LASF80:
 4328 0c29 6D61696E 		.ascii	"mainthread\000"
 4328      74687265 
 4328      616400
 4329              	.LASF311:
 4330 0c34 4441494E 		.ascii	"DAINTMSK\000"
 4330      544D534B 
 4330      00
 4331              	.LASF314:
 4332 0c3d 44564255 		.ascii	"DVBUSDIS\000"
 4332      53444953 
 4332      00
 4333              	.LASF269:
 4334 0c46 73746D33 		.ascii	"stm32_otg_in_ep_t\000"
 4334      325F6F74 
 4334      675F696E 
 4334      5F65705F 
 4334      7400
 4335              	.LASF177:
 4336 0c58 55415254 		.ascii	"UART_TX_COMPLETE\000"
 4336      5F54585F 
 4336      434F4D50 
 4336      4C455445 
 4336      00
ARM GAS  /tmp/ccTAg9Zs.s 			page 87


 4337              	.LASF182:
 4338 0c69 75617274 		.ascii	"uartrxstate_t\000"
 4338      72787374 
 4338      6174655F 
 4338      7400
 4339              	.LASF352:
 4340 0c77 6F75745F 		.ascii	"out_maxsize\000"
 4340      6D617873 
 4340      697A6500 
 4341              	.LASF56:
 4342 0c83 725F7175 		.ascii	"r_queue\000"
 4342      65756500 
 4343              	.LASF240:
 4344 0c8b 5553425F 		.ascii	"USB_EVENT_CONFIGURED\000"
 4344      4556454E 
 4344      545F434F 
 4344      4E464947 
 4344      55524544 
 4345              	.LASF195:
 4346 0ca0 75617274 		.ascii	"uartccb_t\000"
 4346      6363625F 
 4346      7400
 4347              	.LASF326:
 4348 0caa 4649464F 		.ascii	"FIFO\000"
 4348      00
 4349              	.LASF166:
 4350 0caf 50474461 		.ascii	"PGData\000"
 4350      746100
 4351              	.LASF134:
 4352 0cb6 715F7761 		.ascii	"q_waiting\000"
 4352      6974696E 
 4352      6700
 4353              	.LASF78:
 4354 0cc0 726C6973 		.ascii	"rlist\000"
 4354      7400
 4355              	.LASF22:
 4356 0cc6 746D6F64 		.ascii	"tmode_t\000"
 4356      655F7400 
 4357              	.LASF252:
 4358 0cce 75736267 		.ascii	"usbgetdescriptor_t\000"
 4358      65746465 
 4358      73637269 
 4358      70746F72 
 4358      5F7400
 4359              	.LASF197:
 4360 0ce1 7478656E 		.ascii	"txend1_cb\000"
 4360      64315F63 
 4360      6200
 4361              	.LASF179:
 4362 0ceb 55415254 		.ascii	"UART_RX_IDLE\000"
 4362      5F52585F 
 4362      49444C45 
 4362      00
 4363              	.LASF222:
 4364 0cf8 77615F70 		.ascii	"wa_pump\000"
 4364      756D7000 
 4365              	.LASF208:
ARM GAS  /tmp/ccTAg9Zs.s 			page 88


 4366 0d00 696E5F70 		.ascii	"in_params\000"
 4366      6172616D 
 4366      7300
 4367              	.LASF60:
 4368 0d0a 725F6F6C 		.ascii	"r_older\000"
 4368      64657200 
 4369              	.LASF95:
 4370 0d12 746D5F63 		.ascii	"tm_calibration_t\000"
 4370      616C6962 
 4370      72617469 
 4370      6F6E5F74 
 4370      00
 4371              	.LASF85:
 4372 0d23 4D304152 		.ascii	"M0AR\000"
 4372      00
 4373              	.LASF104:
 4374 0d28 735F7175 		.ascii	"s_queue\000"
 4374      65756500 
 4375              	.LASF316:
 4376 0d30 72657376 		.ascii	"resvd830\000"
 4376      64383330 
 4376      00
 4377              	.LASF7:
 4378 0d39 73686F72 		.ascii	"short int\000"
 4378      7420696E 
 4378      7400
 4379              	.LASF340:
 4380 0d43 746F7473 		.ascii	"totsize\000"
 4380      697A6500 
 4381              	.LASF328:
 4382 0d4b 72785F66 		.ascii	"rx_fifo_size\000"
 4382      69666F5F 
 4382      73697A65 
 4382      00
 4383              	.LASF20:
 4384 0d58 75696E74 		.ascii	"uint64_t\000"
 4384      36345F74 
 4384      00
 4385              	.LASF339:
 4386 0d61 6D6F6465 		.ascii	"mode\000"
 4386      00
 4387              	.LASF106:
 4388 0d66 63685F6D 		.ascii	"ch_mutex\000"
 4388      75746578 
 4388      00
 4389              	.LASF238:
 4390 0d6f 5553425F 		.ascii	"USB_EVENT_RESET\000"
 4390      4556454E 
 4390      545F5245 
 4390      53455400 
 4391              	.LASF258:
 4392 0d7f 72657376 		.ascii	"resvd14\000"
 4392      64313400 
 4393              	.LASF259:
 4394 0d87 72657376 		.ascii	"resvd18\000"
 4394      64313800 
 4395              	.LASF267:
ARM GAS  /tmp/ccTAg9Zs.s 			page 89


 4396 0d8f 44545846 		.ascii	"DTXFSTS\000"
 4396      53545300 
 4397              	.LASF333:
 4398 0d97 74787175 		.ascii	"txqueue\000"
 4398      65756500 
 4399              	.LASF268:
 4400 0d9f 72657376 		.ascii	"resvd1C\000"
 4400      64314300 
 4401              	.LASF308:
 4402 0da7 44494550 		.ascii	"DIEPMSK\000"
 4402      4D534B00 
 4403              	.LASF57:
 4404 0daf 725F7072 		.ascii	"r_prio\000"
 4404      696F00
 4405              	.LASF174:
 4406 0db6 75617274 		.ascii	"uartstate_t\000"
 4406      73746174 
 4406      655F7400 
 4407              	.LASF74:
 4408 0dc2 63685F73 		.ascii	"ch_system_debug\000"
 4408      79737465 
 4408      6D5F6465 
 4408      62756700 
 4409              	.LASF369:
 4410 0dd2 626F6172 		.ascii	"boardInit\000"
 4410      64496E69 
 4410      7400
 4411              	.LASF317:
 4412 0ddc 44494550 		.ascii	"DIEPEMPMSK\000"
 4412      454D504D 
 4412      534B00
 4413              	.LASF121:
 4414 0de7 63665F6F 		.ascii	"cf_off_older\000"
 4414      66665F6F 
 4414      6C646572 
 4414      00
 4415              	.LASF260:
 4416 0df4 72657376 		.ascii	"resvd1c\000"
 4416      64316300 
 4417              	.LASF132:
 4418 0dfc 696F5F71 		.ascii	"io_queue_t\000"
 4418      75657565 
 4418      5F7400
 4419              	.LASF251:
 4420 0e07 75736272 		.ascii	"usbreqhandler_t\000"
 4420      65716861 
 4420      6E646C65 
 4420      725F7400 
 4421              	.LASF262:
 4422 0e17 44494550 		.ascii	"DIEPCTL\000"
 4422      43544C00 
 4423              	.LASF169:
 4424 0e1f 50414C43 		.ascii	"PALConfig\000"
 4424      6F6E6669 
 4424      6700
 4425              	.LASF248:
 4426 0e29 75736263 		.ascii	"usbcallback_t\000"
ARM GAS  /tmp/ccTAg9Zs.s 			page 90


 4426      616C6C62 
 4426      61636B5F 
 4426      7400
 4427              	.LASF278:
 4428 0e37 47525354 		.ascii	"GRSTCTL\000"
 4428      43544C00 
 4429              	.LASF279:
 4430 0e3f 47494E54 		.ascii	"GINTSTS\000"
 4430      53545300 
 4431              	.LASF79:
 4432 0e47 76746C69 		.ascii	"vtlist\000"
 4432      737400
 4433              	.LASF264:
 4434 0e4e 44494550 		.ascii	"DIEPINT\000"
 4434      494E5400 
 4435              	.LASF285:
 4436 0e56 484E5054 		.ascii	"HNPTXSTS\000"
 4436      58535453 
 4436      00
 4437              	.LASF363:
 4438 0e5f 55534244 		.ascii	"USBD1\000"
 4438      3100
 4439              	.LASF131:
 4440 0e65 6D757465 		.ascii	"mutex_t\000"
 4440      785F7400 
 4441              	.LASF24:
 4442 0e6d 74726566 		.ascii	"trefs_t\000"
 4442      735F7400 
 4443              	.LASF123:
 4444 0e75 63665F6F 		.ascii	"cf_off_stklimit\000"
 4444      66665F73 
 4444      746B6C69 
 4444      6D697400 
 4445              	.LASF49:
 4446 0e85 74687265 		.ascii	"threads_list_t\000"
 4446      6164735F 
 4446      6C697374 
 4446      5F7400
 4447              	.LASF175:
 4448 0e94 55415254 		.ascii	"UART_TX_IDLE\000"
 4448      5F54585F 
 4448      49444C45 
 4448      00
 4449              	.LASF194:
 4450 0ea1 75617274 		.ascii	"uartcb_t\000"
 4450      63625F74 
 4450      00
 4451              	.LASF325:
 4452 0eaa 72657376 		.ascii	"resvdE04\000"
 4452      64453034 
 4452      00
 4453              	.LASF286:
 4454 0eb3 72657376 		.ascii	"resvd30\000"
 4454      64333000 
 4455              	.LASF77:
 4456 0ebb 63685F73 		.ascii	"ch_system\000"
 4456      79737465 
ARM GAS  /tmp/ccTAg9Zs.s 			page 91


 4456      6D00
 4457              	.LASF287:
 4458 0ec5 72657376 		.ascii	"resvd34\000"
 4458      64333400 
 4459              	.LASF19:
 4460 0ecd 75696E74 		.ascii	"uint32_t\000"
 4460      33325F74 
 4460      00
 4461              	.LASF223:
 4462 0ed6 75736265 		.ascii	"usbep_t\000"
 4462      705F7400 
 4463              	.LASF143:
 4464 0ede 696E7075 		.ascii	"input_queue_t\000"
 4464      745F7175 
 4464      6575655F 
 4464      7400
 4465              	.LASF165:
 4466 0eec 50464461 		.ascii	"PFData\000"
 4466      746100
 4467              	.LASF96:
 4468 0ef3 7264796D 		.ascii	"rdymsg\000"
 4468      736700
 4469              	.LASF72:
 4470 0efa 76745F6C 		.ascii	"vt_lasttime\000"
 4470      61737474 
 4470      696D6500 
 4471              	.LASF9:
 4472 0f06 73686F72 		.ascii	"short unsigned int\000"
 4472      7420756E 
 4472      7369676E 
 4472      65642069 
 4472      6E7400
 4473              	.LASF306:
 4474 0f19 44535453 		.ascii	"DSTS\000"
 4474      00
 4475              	.LASF359:
 4476 0f1e 6765745F 		.ascii	"get_descriptor_cb\000"
 4476      64657363 
 4476      72697074 
 4476      6F725F63 
 4476      6200
 4477              	.LASF76:
 4478 0f30 63685F73 		.ascii	"ch_system_t\000"
 4478      79737465 
 4478      6D5F7400 
 4479              	.LASF129:
 4480 0f3c 63686465 		.ascii	"chdebug_t\000"
 4480      6275675F 
 4480      7400
 4481              	.LASF241:
 4482 0f46 5553425F 		.ascii	"USB_EVENT_SUSPEND\000"
 4482      4556454E 
 4482      545F5355 
 4482      5350454E 
 4482      4400
 4483              	.LASF113:
 4484 0f58 63685F73 		.ascii	"ch_size\000"
ARM GAS  /tmp/ccTAg9Zs.s 			page 92


 4484      697A6500 
 4485              	.LASF144:
 4486 0f60 6F757470 		.ascii	"output_queue_t\000"
 4486      75745F71 
 4486      75657565 
 4486      5F7400
 4487              	.LASF209:
 4488 0f6f 6F75745F 		.ascii	"out_params\000"
 4488      70617261 
 4488      6D7300
 4489              	.LASF370:
 4490 0f7a 7374496E 		.ascii	"stInit\000"
 4490      697400
 4491              	.LASF204:
 4492 0f81 55415254 		.ascii	"UARTD3\000"
 4492      443300
 4493              	.LASF10:
 4494 0f88 5F5F696E 		.ascii	"__int32_t\000"
 4494      7433325F 
 4494      7400
 4495              	.LASF297:
 4496 0f92 48505458 		.ascii	"HPTXSTS\000"
 4496      53545300 
 4497              	.LASF84:
 4498 0f9a 4E445452 		.ascii	"NDTR\000"
 4498      00
 4499              	.LASF146:
 4500 0f9f 69666372 		.ascii	"ifcr\000"
 4500      00
 4501              	.LASF289:
 4502 0fa4 72657376 		.ascii	"resvd58\000"
 4502      64353800 
 4503              	.LASF235:
 4504 0fac 5553425F 		.ascii	"USB_EP0_SENDING_STS\000"
 4504      4550305F 
 4504      53454E44 
 4504      494E475F 
 4504      53545300 
 4505              	.LASF173:
 4506 0fc0 55415254 		.ascii	"UART_READY\000"
 4506      5F524541 
 4506      445900
 4507              	.LASF233:
 4508 0fcb 5553425F 		.ascii	"USB_EP0_WAITING_STS\000"
 4508      4550305F 
 4508      57414954 
 4508      494E475F 
 4508      53545300 
 4509              	.LASF37:
 4510 0fdf 705F6E61 		.ascii	"p_name\000"
 4510      6D6500
 4511              	.LASF109:
 4512 0fe6 6D5F6E65 		.ascii	"m_next\000"
 4512      787400
 4513              	.LASF219:
 4514 0fed 706D6E65 		.ascii	"pmnext\000"
 4514      787400
ARM GAS  /tmp/ccTAg9Zs.s 			page 93


 4515              	.LASF336:
 4516 0ff4 74787175 		.ascii	"txqueued\000"
 4516      65756564 
 4516      00
 4517              	.LASF277:
 4518 0ffd 47555342 		.ascii	"GUSBCFG\000"
 4518      43464700 
 4519              	.LASF361:
 4520 1005 736F665F 		.ascii	"sof_cb\000"
 4520      636200
 4521              	.LASF234:
 4522 100c 5553425F 		.ascii	"USB_EP0_RX\000"
 4522      4550305F 
 4522      525800
 4523              	.LASF292:
 4524 1017 72657376 		.ascii	"resvd140\000"
 4524      64313430 
 4524      00
 4525              	.LASF43:
 4526 1020 705F6D73 		.ascii	"p_msg\000"
 4526      6700
 4527              	.LASF38:
 4528 1026 705F7374 		.ascii	"p_state\000"
 4528      61746500 
 4529              		.ident	"GCC: (GNU Tools for Arm Embedded Processors 7-2018-q3-update) 7.3.1 20180622 (release) [AR
ARM GAS  /tmp/ccTAg9Zs.s 			page 94


DEFINED SYMBOLS
                            *ABS*:0000000000000000 hal.c
     /tmp/ccTAg9Zs.s:18     .text.halInit:0000000000000000 $t
     /tmp/ccTAg9Zs.s:26     .text.halInit:0000000000000000 halInit
     /tmp/ccTAg9Zs.s:67     .text.halInit:0000000000000024 $d

UNDEFINED SYMBOLS
hal_lld_init
_pal_lld_init
uartInit
usbInit
sduInit
boardInit
stInit
pal_default_config
