ARM GAS  /tmp/ccTAg9Zs.s 			page 1


   1              		.cpu cortex-m4
   2              		.eabi_attribute 27, 1
   3              		.eabi_attribute 28, 1
   4              		.eabi_attribute 20, 1
   5              		.eabi_attribute 21, 1
   6              		.eabi_attribute 23, 3
   7              		.eabi_attribute 24, 1
   8              		.eabi_attribute 25, 1
   9              		.eabi_attribute 26, 1
  10              		.eabi_attribute 30, 2
  11              		.eabi_attribute 34, 1
  12              		.eabi_attribute 18, 4
  13              		.file	"hal.c"
  14              		.text
  15              	.Ltext0:
  16              		.cfi_sections	.debug_frame
  17              		.section	.text.halInit,"ax",%progbits
  18              		.align	1
  19              		.p2align 4,,15
  20              		.global	halInit
  21              		.syntax unified
  22              		.thumb
  23              		.thumb_func
  24              		.fpu fpv4-sp-d16
  25              		.type	halInit, %function
  26              	halInit:
  27              	.LFB260:
  28              		.file 1 "ChibiOS_3.0.2/os/hal/src/hal.c"
  29              		.loc 1 56 0
  30              		.cfi_startproc
  31              		@ args = 0, pretend = 0, frame = 0
  32              		@ frame_needed = 0, uses_anonymous_args = 0
  33 0000 08B5     		push	{r3, lr}
  34              		.cfi_def_cfa_offset 8
  35              		.cfi_offset 3, -8
  36              		.cfi_offset 14, -4
  37              		.loc 1 62 0
  38 0002 FFF7FEFF 		bl	hal_lld_init
  39              	.LVL0:
  40              		.loc 1 65 0
  41 0006 0748     		ldr	r0, .L4
  42 0008 FFF7FEFF 		bl	_pal_lld_init
  43              	.LVL1:
  44              		.loc 1 107 0
  45 000c FFF7FEFF 		bl	uartInit
  46              	.LVL2:
  47              		.loc 1 110 0
  48 0010 FFF7FEFF 		bl	usbInit
  49              	.LVL3:
  50              		.loc 1 116 0
  51 0014 FFF7FEFF 		bl	sduInit
  52              	.LVL4:
  53              		.loc 1 130 0
  54 0018 FFF7FEFF 		bl	boardInit
  55              	.LVL5:
  56              		.loc 1 139 0
  57 001c BDE80840 		pop	{r3, lr}
ARM GAS  /tmp/ccTAg9Zs.s 			page 2


  58              		.cfi_restore 14
  59              		.cfi_restore 3
  60              		.cfi_def_cfa_offset 0
  61              		.loc 1 137 0
  62 0020 FFF7FEBF 		b	stInit
  63              	.LVL6:
  64              	.L5:
  65              		.align	2
  66              	.L4:
  67 0024 00000000 		.word	pal_default_config
  68              		.cfi_endproc
  69              	.LFE260:
  70              		.size	halInit, .-halInit
  71              		.text
  72              	.Letext0:
  73              		.file 2 "/usr/lib/gcc/arm-none-eabi/7.3.1/include/stddef.h"
  74              		.file 3 "/usr/arm-none-eabi/include/machine/_default_types.h"
  75              		.file 4 "/usr/arm-none-eabi/include/sys/_stdint.h"
  76              		.file 5 "ChibiOS_3.0.2/os/rt/ports/ARMCMx/compilers/GCC/chtypes.h"
  77              		.file 6 "ChibiOS_3.0.2/os/rt/include/chsystypes.h"
  78              		.file 7 "ChibiOS_3.0.2/os/rt/include/chschd.h"
  79              		.file 8 "ChibiOS_3.0.2/os/ext/CMSIS/include/core_cm4.h"
  80              		.file 9 "ChibiOS_3.0.2/os/ext/CMSIS/ST/system_stm32f4xx.h"
  81              		.file 10 "ChibiOS_3.0.2/os/ext/CMSIS/ST/stm32f407xx.h"
  82              		.file 11 "ChibiOS_3.0.2/os/rt/ports/ARMCMx/chcore.h"
  83              		.file 12 "ChibiOS_3.0.2/os/rt/ports/ARMCMx/chcore_v7m.h"
  84              		.file 13 "ChibiOS_3.0.2/os/rt/include/chtm.h"
  85              		.file 14 "ChibiOS_3.0.2/os/rt/include/chsem.h"
  86              		.file 15 "ChibiOS_3.0.2/os/rt/include/chmtx.h"
  87              		.file 16 "ChibiOS_3.0.2/os/rt/include/chregistry.h"
  88              		.file 17 "ChibiOS_3.0.2/os/rt/include/chqueues.h"
  89              		.file 18 "ChibiOS_3.0.2/os/hal/ports/STM32/STM32F4xx/stm32_dma.h"
  90              		.file 19 "ChibiOS_3.0.2/os/hal/ports/STM32/LLD/GPIOv2/pal_lld.h"
  91              		.file 20 "ChibiOS_3.0.2/os/hal/include/uart.h"
  92              		.file 21 "ChibiOS_3.0.2/os/hal/ports/STM32/LLD/USARTv1/uart_lld.h"
  93              		.file 22 "ChibiOS_3.0.2/os/hal/include/usb.h"
  94              		.file 23 "ChibiOS_3.0.2/os/hal/ports/STM32/LLD/OTGv1/usb_lld.h"
  95              		.file 24 "ChibiOS_3.0.2/os/hal/ports/STM32/LLD/OTGv1/stm32_otg.h"
  96              		.file 25 "ChibiOS_3.0.2/os/hal/ports/STM32/STM32F4xx/hal_lld.h"
  97              		.file 26 "ChibiOS_3.0.2/os/hal/include/serial_usb.h"
  98              		.file 27 "ChibiOS_3.0.2/os/hal/boards/ST_STM32F4_DISCOVERY/board.h"
  99              		.file 28 "ChibiOS_3.0.2/os/hal/include/st.h"
 100              		.file 29 "ChibiOS_3.0.2/os/hal/osal/rt/osal.h"