ARM GAS  /tmp/ccKyNeCd.s 			page 1


   1              		.cpu cortex-m4
   2              		.eabi_attribute 27, 1
   3              		.eabi_attribute 28, 1
   4              		.eabi_attribute 20, 1
   5              		.eabi_attribute 21, 1
   6              		.eabi_attribute 23, 3
   7              		.eabi_attribute 24, 1
   8              		.eabi_attribute 25, 1
   9              		.eabi_attribute 26, 1
  10              		.eabi_attribute 30, 2
  11              		.eabi_attribute 34, 1
  12              		.eabi_attribute 18, 4
  13              		.file	"hal_lld.c"
  14              		.text
  15              	.Ltext0:
  16              		.cfi_sections	.debug_frame
  17              		.section	.text.hal_lld_init,"ax",%progbits
  18              		.align	1
  19              		.p2align 4,,15
  20              		.global	hal_lld_init
  21              		.syntax unified
  22              		.thumb
  23              		.thumb_func
  24              		.fpu fpv4-sp-d16
  25              		.type	hal_lld_init, %function
  26              	hal_lld_init:
  27              	.LFB261:
  28              		.file 1 "ChibiOS_3.0.2/os/hal/ports/STM32/STM32F4xx/hal_lld.c"
  29              		.loc 1 114 0
  30              		.cfi_startproc
  31              		@ args = 0, pretend = 0, frame = 0
  32              		@ frame_needed = 0, uses_anonymous_args = 0
  33              		@ link register save eliminated.
  34              		.loc 1 118 0
  35 0000 174B     		ldr	r3, .L8
  36 0002 4FF0FF31 		mov	r1, #-1
  37 0006 1A69     		ldr	r2, [r3, #16]
  38 0008 0022     		movs	r2, #0
  39              		.loc 1 114 0
  40 000a 10B4     		push	{r4}
  41              		.cfi_def_cfa_offset 4
  42              		.cfi_offset 4, -4
  43              		.loc 1 118 0
  44 000c 1961     		str	r1, [r3, #16]
  45 000e 1A61     		str	r2, [r3, #16]
  46              		.loc 1 119 0
  47 0010 5869     		ldr	r0, [r3, #20]
  48 0012 5961     		str	r1, [r3, #20]
  49 0014 5A61     		str	r2, [r3, #20]
  50              		.loc 1 120 0
  51 0016 186A     		ldr	r0, [r3, #32]
  52              	.LBB4:
  53              	.LBB5:
  54              		.loc 1 57 0
  55 0018 124C     		ldr	r4, .L8+4
  56              	.LBE5:
  57              	.LBE4:
ARM GAS  /tmp/ccKyNeCd.s 			page 2


  58              		.loc 1 120 0
  59 001a 60F08050 		orn	r0, r0, #268435456
  60 001e 1862     		str	r0, [r3, #32]
  61 0020 1A62     		str	r2, [r3, #32]
  62              		.loc 1 121 0
  63 0022 586A     		ldr	r0, [r3, #36]
  64 0024 5962     		str	r1, [r3, #36]
  65 0026 5A62     		str	r2, [r3, #36]
  66              		.loc 1 124 0
  67 0028 196C     		ldr	r1, [r3, #64]
  68 002a 41F08051 		orr	r1, r1, #268435456
  69 002e 1964     		str	r1, [r3, #64]
  70              	.LBB8:
  71              	.LBB6:
  72              		.loc 1 57 0
  73 0030 2168     		ldr	r1, [r4]
  74 0032 41F48071 		orr	r1, r1, #256
  75 0036 2160     		str	r1, [r4]
  76              		.loc 1 60 0
  77 0038 196F     		ldr	r1, [r3, #112]
  78 003a 01F44071 		and	r1, r1, #768
  79 003e B1F5007F 		cmp	r1, #512
  80 0042 03D0     		beq	.L2
  81              		.loc 1 62 0
  82 0044 4FF48031 		mov	r1, #65536
  83 0048 1967     		str	r1, [r3, #112]
  84              		.loc 1 63 0
  85 004a 1A67     		str	r2, [r3, #112]
  86              	.L2:
  87              		.loc 1 97 0
  88 004c 054A     		ldr	r2, .L8+4
  89              	.LBE6:
  90              	.LBE8:
  91              		.loc 1 137 0
  92 004e 5DF8044B 		ldr	r4, [sp], #4
  93              		.cfi_restore 4
  94              		.cfi_def_cfa_offset 0
  95              	.LBB9:
  96              	.LBB7:
  97              		.loc 1 97 0
  98 0052 5368     		ldr	r3, [r2, #4]
  99 0054 23F40073 		bic	r3, r3, #512
 100 0058 5360     		str	r3, [r2, #4]
 101              	.LBE7:
 102              	.LBE9:
 103              		.loc 1 130 0
 104 005a FFF7FEBF 		b	dmaInit
 105              	.LVL0:
 106              	.L9:
 107 005e 00BF     		.align	2
 108              	.L8:
 109 0060 00380240 		.word	1073887232
 110 0064 00700040 		.word	1073770496
 111              		.cfi_endproc
 112              	.LFE261:
 113              		.size	hal_lld_init, .-hal_lld_init
 114              		.section	.text.stm32_clock_init,"ax",%progbits
ARM GAS  /tmp/ccKyNeCd.s 			page 3


 115              		.align	1
 116              		.p2align 4,,15
 117              		.global	stm32_clock_init
 118              		.syntax unified
 119              		.thumb
 120              		.thumb_func
 121              		.fpu fpv4-sp-d16
 122              		.type	stm32_clock_init, %function
 123              	stm32_clock_init:
 124              	.LFB262:
 125              		.loc 1 146 0
 126              		.cfi_startproc
 127              		@ args = 0, pretend = 0, frame = 0
 128              		@ frame_needed = 0, uses_anonymous_args = 0
 129              		@ link register save eliminated.
 130              		.loc 1 150 0
 131 0000 2A4B     		ldr	r3, .L30
 132              		.loc 1 154 0
 133 0002 2B4A     		ldr	r2, .L30+4
 134              		.loc 1 150 0
 135 0004 4FF08050 		mov	r0, #268435456
 136              		.loc 1 154 0
 137 0008 4FF44041 		mov	r1, #49152
 138              		.loc 1 150 0
 139 000c 1864     		str	r0, [r3, #64]
 140              		.loc 1 154 0
 141 000e 1160     		str	r1, [r2]
 142              		.loc 1 161 0
 143 0010 1A68     		ldr	r2, [r3]
 144 0012 42F00102 		orr	r2, r2, #1
 145 0016 1A60     		str	r2, [r3]
 146              	.L11:
 147              		.loc 1 162 0 discriminator 1
 148 0018 1A68     		ldr	r2, [r3]
 149 001a 9207     		lsls	r2, r2, #30
 150 001c FCD5     		bpl	.L11
 151              		.loc 1 168 0
 152 001e 9968     		ldr	r1, [r3, #8]
 153              		.loc 1 170 0
 154 0020 224A     		ldr	r2, .L30
 155              		.loc 1 168 0
 156 0022 21F00301 		bic	r1, r1, #3
 157 0026 9960     		str	r1, [r3, #8]
 158              		.loc 1 169 0
 159 0028 9968     		ldr	r1, [r3, #8]
 160 002a 9960     		str	r1, [r3, #8]
 161              	.L12:
 162              		.loc 1 170 0 discriminator 1
 163 002c 9368     		ldr	r3, [r2, #8]
 164 002e 13F00C03 		ands	r3, r3, #12
 165 0032 FBD1     		bne	.L12
 166              		.loc 1 174 0
 167 0034 1068     		ldr	r0, [r2]
 168              		.loc 1 186 0
 169 0036 1D49     		ldr	r1, .L30
 170              		.loc 1 174 0
 171 0038 00F0F900 		and	r0, r0, #249
ARM GAS  /tmp/ccKyNeCd.s 			page 4


 172 003c 1060     		str	r0, [r2]
 173              		.loc 1 175 0
 174 003e 9360     		str	r3, [r2, #8]
 175              		.loc 1 184 0
 176 0040 1368     		ldr	r3, [r2]
 177 0042 43F48033 		orr	r3, r3, #65536
 178 0046 1360     		str	r3, [r2]
 179              	.L13:
 180              		.loc 1 186 0 discriminator 1
 181 0048 0B68     		ldr	r3, [r1]
 182 004a 9803     		lsls	r0, r3, #14
 183 004c FCD5     		bpl	.L13
 184              		.loc 1 192 0
 185 004e 4B6F     		ldr	r3, [r1, #116]
 186              		.loc 1 193 0
 187 0050 164A     		ldr	r2, .L30
 188              		.loc 1 192 0
 189 0052 43F00103 		orr	r3, r3, #1
 190 0056 4B67     		str	r3, [r1, #116]
 191              	.L14:
 192              		.loc 1 193 0 discriminator 1
 193 0058 536F     		ldr	r3, [r2, #116]
 194 005a 9907     		lsls	r1, r3, #30
 195 005c FCD5     		bpl	.L14
 196              		.loc 1 199 0
 197 005e 154B     		ldr	r3, .L30+8
 198 0060 5360     		str	r3, [r2, #4]
 199              		.loc 1 201 0
 200 0062 1368     		ldr	r3, [r2]
 201              		.loc 1 205 0
 202 0064 1249     		ldr	r1, .L30+4
 203              		.loc 1 201 0
 204 0066 43F08073 		orr	r3, r3, #16777216
 205 006a 1360     		str	r3, [r2]
 206              	.L15:
 207              		.loc 1 205 0 discriminator 1
 208 006c 4B68     		ldr	r3, [r1, #4]
 209 006e 5A04     		lsls	r2, r3, #17
 210 0070 FCD5     		bpl	.L15
 211              		.loc 1 221 0
 212 0072 0E49     		ldr	r1, .L30
 213              	.L16:
 214              		.loc 1 221 0 is_stmt 0 discriminator 1
 215 0074 0B68     		ldr	r3, [r1]
 216 0076 9B01     		lsls	r3, r3, #6
 217 0078 FCD5     		bpl	.L16
 218              		.loc 1 260 0 is_stmt 1
 219 007a 0F4B     		ldr	r3, .L30+12
 220              		.loc 1 247 0
 221 007c 0F4A     		ldr	r2, .L30+16
 222 007e 8A60     		str	r2, [r1, #8]
 223              		.loc 1 260 0
 224 0080 40F20572 		movw	r2, #1797
 225 0084 1A60     		str	r2, [r3]
 226              		.loc 1 266 0
 227 0086 8B68     		ldr	r3, [r1, #8]
 228              		.loc 1 267 0
ARM GAS  /tmp/ccKyNeCd.s 			page 5


 229 0088 084A     		ldr	r2, .L30
 230              		.loc 1 266 0
 231 008a 43F00203 		orr	r3, r3, #2
 232 008e 8B60     		str	r3, [r1, #8]
 233              	.L17:
 234              		.loc 1 267 0 discriminator 1
 235 0090 9368     		ldr	r3, [r2, #8]
 236 0092 03F00C03 		and	r3, r3, #12
 237 0096 082B     		cmp	r3, #8
 238 0098 FAD1     		bne	.L17
 239              		.loc 1 274 0
 240 009a 536C     		ldr	r3, [r2, #68]
 241 009c 43F48043 		orr	r3, r3, #16384
 242 00a0 5364     		str	r3, [r2, #68]
 243 00a2 536E     		ldr	r3, [r2, #100]
 244 00a4 43F48043 		orr	r3, r3, #16384
 245 00a8 5366     		str	r3, [r2, #100]
 246              		.loc 1 275 0
 247 00aa 7047     		bx	lr
 248              	.L31:
 249              		.align	2
 250              	.L30:
 251 00ac 00380240 		.word	1073887232
 252 00b0 00700040 		.word	1073770496
 253 00b4 08544007 		.word	121656328
 254 00b8 003C0240 		.word	1073888256
 255 00bc 00940838 		.word	940086272
 256              		.cfi_endproc
 257              	.LFE262:
 258              		.size	stm32_clock_init, .-stm32_clock_init
 259              		.global	SystemCoreClock
 260              		.section	.data.SystemCoreClock,"aw",%progbits
 261              		.align	2
 262              		.type	SystemCoreClock, %object
 263              		.size	SystemCoreClock, 4
 264              	SystemCoreClock:
 265 0000 007A030A 		.word	168000000
 266              		.text
 267              	.Letext0:
 268              		.file 2 "/usr/lib/gcc/arm-none-eabi/7.3.1/include/stddef.h"
 269              		.file 3 "/usr/arm-none-eabi/include/machine/_default_types.h"
 270              		.file 4 "/usr/arm-none-eabi/include/sys/_stdint.h"
 271              		.file 5 "ChibiOS_3.0.2/os/rt/ports/ARMCMx/compilers/GCC/chtypes.h"
 272              		.file 6 "ChibiOS_3.0.2/os/rt/include/chsystypes.h"
 273              		.file 7 "ChibiOS_3.0.2/os/rt/include/chschd.h"
 274              		.file 8 "ChibiOS_3.0.2/os/ext/CMSIS/include/core_cm4.h"
 275              		.file 9 "ChibiOS_3.0.2/os/ext/CMSIS/ST/system_stm32f4xx.h"
 276              		.file 10 "ChibiOS_3.0.2/os/ext/CMSIS/ST/stm32f407xx.h"
 277              		.file 11 "ChibiOS_3.0.2/os/rt/ports/ARMCMx/chcore.h"
 278              		.file 12 "ChibiOS_3.0.2/os/rt/ports/ARMCMx/chcore_v7m.h"
 279              		.file 13 "ChibiOS_3.0.2/os/rt/include/chtm.h"
 280              		.file 14 "ChibiOS_3.0.2/os/rt/include/chsem.h"
 281              		.file 15 "ChibiOS_3.0.2/os/rt/include/chmtx.h"
 282              		.file 16 "ChibiOS_3.0.2/os/rt/include/chregistry.h"
 283              		.file 17 "ChibiOS_3.0.2/os/rt/include/chqueues.h"
 284              		.file 18 "ChibiOS_3.0.2/os/hal/ports/STM32/STM32F4xx/stm32_dma.h"
 285              		.file 19 "ChibiOS_3.0.2/os/hal/ports/STM32/LLD/GPIOv2/pal_lld.h"
ARM GAS  /tmp/ccKyNeCd.s 			page 6


 286              		.file 20 "ChibiOS_3.0.2/os/hal/include/uart.h"
 287              		.file 21 "ChibiOS_3.0.2/os/hal/ports/STM32/LLD/USARTv1/uart_lld.h"
 288              		.file 22 "ChibiOS_3.0.2/os/hal/include/usb.h"
 289              		.file 23 "ChibiOS_3.0.2/os/hal/ports/STM32/LLD/OTGv1/usb_lld.h"
 290              		.file 24 "ChibiOS_3.0.2/os/hal/ports/STM32/LLD/OTGv1/stm32_otg.h"
 291              		.section	.debug_info,"",%progbits
 292              	.Ldebug_info0:
 293 0000 361B0000 		.4byte	0x1b36
 294 0004 0400     		.2byte	0x4
 295 0006 00000000 		.4byte	.Ldebug_abbrev0
 296 000a 04       		.byte	0x4
 297 000b 01       		.uleb128 0x1
 298 000c 6D0B0000 		.4byte	.LASF398
 299 0010 0C       		.byte	0xc
 300 0011 760F0000 		.4byte	.LASF399
 301 0015 9D0C0000 		.4byte	.LASF400
 302 0019 20000000 		.4byte	.Ldebug_ranges0+0x20
 303 001d 00000000 		.4byte	0
 304 0021 00000000 		.4byte	.Ldebug_line0
 305 0025 02       		.uleb128 0x2
 306 0026 04       		.byte	0x4
 307 0027 05       		.byte	0x5
 308 0028 696E7400 		.ascii	"int\000"
 309 002c 03       		.uleb128 0x3
 310 002d 18000000 		.4byte	.LASF4
 311 0031 02       		.byte	0x2
 312 0032 D8       		.byte	0xd8
 313 0033 3C000000 		.4byte	0x3c
 314 0037 04       		.uleb128 0x4
 315 0038 2C000000 		.4byte	0x2c
 316 003c 05       		.uleb128 0x5
 317 003d 04       		.byte	0x4
 318 003e 07       		.byte	0x7
 319 003f EC080000 		.4byte	.LASF0
 320 0043 05       		.uleb128 0x5
 321 0044 08       		.byte	0x8
 322 0045 05       		.byte	0x5
 323 0046 DF070000 		.4byte	.LASF1
 324 004a 05       		.uleb128 0x5
 325 004b 08       		.byte	0x8
 326 004c 04       		.byte	0x4
 327 004d D9090000 		.4byte	.LASF2
 328 0051 05       		.uleb128 0x5
 329 0052 01       		.byte	0x1
 330 0053 06       		.byte	0x6
 331 0054 BD020000 		.4byte	.LASF3
 332 0058 03       		.uleb128 0x3
 333 0059 6B010000 		.4byte	.LASF5
 334 005d 03       		.byte	0x3
 335 005e 2B       		.byte	0x2b
 336 005f 63000000 		.4byte	0x63
 337 0063 05       		.uleb128 0x5
 338 0064 01       		.byte	0x1
 339 0065 08       		.byte	0x8
 340 0066 34030000 		.4byte	.LASF6
 341 006a 05       		.uleb128 0x5
 342 006b 02       		.byte	0x2
ARM GAS  /tmp/ccKyNeCd.s 			page 7


 343 006c 05       		.byte	0x5
 344 006d 340E0000 		.4byte	.LASF7
 345 0071 03       		.uleb128 0x3
 346 0072 2E040000 		.4byte	.LASF8
 347 0076 03       		.byte	0x3
 348 0077 39       		.byte	0x39
 349 0078 7C000000 		.4byte	0x7c
 350 007c 05       		.uleb128 0x5
 351 007d 02       		.byte	0x2
 352 007e 07       		.byte	0x7
 353 007f 3E100000 		.4byte	.LASF9
 354 0083 03       		.uleb128 0x3
 355 0084 B9100000 		.4byte	.LASF10
 356 0088 03       		.byte	0x3
 357 0089 4D       		.byte	0x4d
 358 008a 8E000000 		.4byte	0x8e
 359 008e 05       		.uleb128 0x5
 360 008f 04       		.byte	0x4
 361 0090 05       		.byte	0x5
 362 0091 DA010000 		.4byte	.LASF11
 363 0095 03       		.uleb128 0x3
 364 0096 C3070000 		.4byte	.LASF12
 365 009a 03       		.byte	0x3
 366 009b 4F       		.byte	0x4f
 367 009c A0000000 		.4byte	0xa0
 368 00a0 05       		.uleb128 0x5
 369 00a1 04       		.byte	0x4
 370 00a2 07       		.byte	0x7
 371 00a3 19060000 		.4byte	.LASF13
 372 00a7 03       		.uleb128 0x3
 373 00a8 06060000 		.4byte	.LASF14
 374 00ac 03       		.byte	0x3
 375 00ad 69       		.byte	0x69
 376 00ae B2000000 		.4byte	0xb2
 377 00b2 05       		.uleb128 0x5
 378 00b3 08       		.byte	0x8
 379 00b4 07       		.byte	0x7
 380 00b5 CC0A0000 		.4byte	.LASF15
 381 00b9 03       		.uleb128 0x3
 382 00ba D0020000 		.4byte	.LASF16
 383 00be 04       		.byte	0x4
 384 00bf 18       		.byte	0x18
 385 00c0 58000000 		.4byte	0x58
 386 00c4 06       		.uleb128 0x6
 387 00c5 B9000000 		.4byte	0xb9
 388 00c9 03       		.uleb128 0x3
 389 00ca FB0A0000 		.4byte	.LASF17
 390 00ce 04       		.byte	0x4
 391 00cf 24       		.byte	0x24
 392 00d0 71000000 		.4byte	0x71
 393 00d4 04       		.uleb128 0x4
 394 00d5 C9000000 		.4byte	0xc9
 395 00d9 03       		.uleb128 0x3
 396 00da 87000000 		.4byte	.LASF18
 397 00de 04       		.byte	0x4
 398 00df 2C       		.byte	0x2c
 399 00e0 83000000 		.4byte	0x83
ARM GAS  /tmp/ccKyNeCd.s 			page 8


 400 00e4 04       		.uleb128 0x4
 401 00e5 D9000000 		.4byte	0xd9
 402 00e9 03       		.uleb128 0x3
 403 00ea F30F0000 		.4byte	.LASF19
 404 00ee 04       		.byte	0x4
 405 00ef 30       		.byte	0x30
 406 00f0 95000000 		.4byte	0x95
 407 00f4 04       		.uleb128 0x4
 408 00f5 E9000000 		.4byte	0xe9
 409 00f9 03       		.uleb128 0x3
 410 00fa 530E0000 		.4byte	.LASF20
 411 00fe 04       		.byte	0x4
 412 00ff 3C       		.byte	0x3c
 413 0100 A7000000 		.4byte	0xa7
 414 0104 03       		.uleb128 0x3
 415 0105 03090000 		.4byte	.LASF21
 416 0109 05       		.byte	0x5
 417 010a 45       		.byte	0x45
 418 010b E9000000 		.4byte	0xe9
 419 010f 03       		.uleb128 0x3
 420 0110 8E0D0000 		.4byte	.LASF22
 421 0114 05       		.byte	0x5
 422 0115 48       		.byte	0x48
 423 0116 B9000000 		.4byte	0xb9
 424 011a 03       		.uleb128 0x3
 425 011b 0E020000 		.4byte	.LASF23
 426 011f 05       		.byte	0x5
 427 0120 49       		.byte	0x49
 428 0121 B9000000 		.4byte	0xb9
 429 0125 03       		.uleb128 0x3
 430 0126 5E0F0000 		.4byte	.LASF24
 431 012a 05       		.byte	0x5
 432 012b 4A       		.byte	0x4a
 433 012c B9000000 		.4byte	0xb9
 434 0130 03       		.uleb128 0x3
 435 0131 65000000 		.4byte	.LASF25
 436 0135 05       		.byte	0x5
 437 0136 4C       		.byte	0x4c
 438 0137 E9000000 		.4byte	0xe9
 439 013b 03       		.uleb128 0x3
 440 013c 200B0000 		.4byte	.LASF26
 441 0140 05       		.byte	0x5
 442 0141 4D       		.byte	0x4d
 443 0142 D9000000 		.4byte	0xd9
 444 0146 03       		.uleb128 0x3
 445 0147 FF020000 		.4byte	.LASF27
 446 014b 05       		.byte	0x5
 447 014c 4F       		.byte	0x4f
 448 014d E9000000 		.4byte	0xe9
 449 0151 03       		.uleb128 0x3
 450 0152 1E050000 		.4byte	.LASF28
 451 0156 05       		.byte	0x5
 452 0157 51       		.byte	0x51
 453 0158 D9000000 		.4byte	0xd9
 454 015c 03       		.uleb128 0x3
 455 015d 32000000 		.4byte	.LASF29
 456 0161 06       		.byte	0x6
ARM GAS  /tmp/ccKyNeCd.s 			page 9


 457 0162 33       		.byte	0x33
 458 0163 E9000000 		.4byte	0xe9
 459 0167 03       		.uleb128 0x3
 460 0168 D0090000 		.4byte	.LASF30
 461 016c 06       		.byte	0x6
 462 016d 3F       		.byte	0x3f
 463 016e 72010000 		.4byte	0x172
 464 0172 07       		.uleb128 0x7
 465 0173 7A060000 		.4byte	.LASF50
 466 0177 44       		.byte	0x44
 467 0178 07       		.byte	0x7
 468 0179 C2       		.byte	0xc2
 469 017a 5F020000 		.4byte	0x25f
 470 017e 08       		.uleb128 0x8
 471 017f E3010000 		.4byte	.LASF31
 472 0183 07       		.byte	0x7
 473 0184 C3       		.byte	0xc3
 474 0185 6A020000 		.4byte	0x26a
 475 0189 00       		.byte	0
 476 018a 08       		.uleb128 0x8
 477 018b FF010000 		.4byte	.LASF32
 478 018f 07       		.byte	0x7
 479 0190 C5       		.byte	0xc5
 480 0191 6A020000 		.4byte	0x26a
 481 0195 04       		.byte	0x4
 482 0196 08       		.uleb128 0x8
 483 0197 1D040000 		.4byte	.LASF33
 484 019b 07       		.byte	0x7
 485 019c C7       		.byte	0xc7
 486 019d 30010000 		.4byte	0x130
 487 01a1 08       		.byte	0x8
 488 01a2 08       		.uleb128 0x8
 489 01a3 5F000000 		.4byte	.LASF34
 490 01a7 07       		.byte	0x7
 491 01a8 C8       		.byte	0xc8
 492 01a9 DA070000 		.4byte	0x7da
 493 01ad 0C       		.byte	0xc
 494 01ae 08       		.uleb128 0x8
 495 01af C7010000 		.4byte	.LASF35
 496 01b3 07       		.byte	0x7
 497 01b4 CA       		.byte	0xca
 498 01b5 6A020000 		.4byte	0x26a
 499 01b9 10       		.byte	0x10
 500 01ba 08       		.uleb128 0x8
 501 01bb F30A0000 		.4byte	.LASF36
 502 01bf 07       		.byte	0x7
 503 01c0 CB       		.byte	0xcb
 504 01c1 6A020000 		.4byte	0x26a
 505 01c5 14       		.byte	0x14
 506 01c6 08       		.uleb128 0x8
 507 01c7 10110000 		.4byte	.LASF37
 508 01cb 07       		.byte	0x7
 509 01cc D2       		.byte	0xd2
 510 01cd 1F0A0000 		.4byte	0xa1f
 511 01d1 18       		.byte	0x18
 512 01d2 08       		.uleb128 0x8
 513 01d3 57110000 		.4byte	.LASF38
ARM GAS  /tmp/ccKyNeCd.s 			page 10


 514 01d7 07       		.byte	0x7
 515 01d8 DD       		.byte	0xdd
 516 01d9 1A010000 		.4byte	0x11a
 517 01dd 1C       		.byte	0x1c
 518 01de 08       		.uleb128 0x8
 519 01df C3080000 		.4byte	.LASF39
 520 01e3 07       		.byte	0x7
 521 01e4 E1       		.byte	0xe1
 522 01e5 0F010000 		.4byte	0x10f
 523 01e9 1D       		.byte	0x1d
 524 01ea 08       		.uleb128 0x8
 525 01eb 29090000 		.4byte	.LASF40
 526 01ef 07       		.byte	0x7
 527 01f0 E6       		.byte	0xe6
 528 01f1 25010000 		.4byte	0x125
 529 01f5 1E       		.byte	0x1e
 530 01f6 09       		.uleb128 0x9
 531 01f7 705F7500 		.ascii	"p_u\000"
 532 01fb 07       		.byte	0x7
 533 01fc 3101     		.2byte	0x131
 534 01fe 5A090000 		.4byte	0x95a
 535 0202 20       		.byte	0x20
 536 0203 0A       		.uleb128 0xa
 537 0204 A7080000 		.4byte	.LASF41
 538 0208 07       		.byte	0x7
 539 0209 3601     		.2byte	0x136
 540 020b 70020000 		.4byte	0x270
 541 020f 24       		.byte	0x24
 542 0210 0A       		.uleb128 0xa
 543 0211 76000000 		.4byte	.LASF42
 544 0215 07       		.byte	0x7
 545 0216 3C01     		.2byte	0x13c
 546 0218 94020000 		.4byte	0x294
 547 021c 28       		.byte	0x28
 548 021d 0A       		.uleb128 0xa
 549 021e 51110000 		.4byte	.LASF43
 550 0222 07       		.byte	0x7
 551 0223 4001     		.2byte	0x140
 552 0225 3B010000 		.4byte	0x13b
 553 0229 30       		.byte	0x30
 554 022a 0A       		.uleb128 0xa
 555 022b 70050000 		.4byte	.LASF44
 556 022f 07       		.byte	0x7
 557 0230 4601     		.2byte	0x146
 558 0232 46010000 		.4byte	0x146
 559 0236 34       		.byte	0x34
 560 0237 0A       		.uleb128 0xa
 561 0238 27020000 		.4byte	.LASF45
 562 023c 07       		.byte	0x7
 563 023d 4D01     		.2byte	0x14d
 564 023f 190A0000 		.4byte	0xa19
 565 0243 38       		.byte	0x38
 566 0244 0A       		.uleb128 0xa
 567 0245 090A0000 		.4byte	.LASF46
 568 0249 07       		.byte	0x7
 569 024a 5101     		.2byte	0x151
 570 024c 30010000 		.4byte	0x130
ARM GAS  /tmp/ccKyNeCd.s 			page 11


 571 0250 3C       		.byte	0x3c
 572 0251 0A       		.uleb128 0xa
 573 0252 15090000 		.4byte	.LASF47
 574 0256 07       		.byte	0x7
 575 0257 5801     		.2byte	0x158
 576 0259 47030000 		.4byte	0x347
 577 025d 40       		.byte	0x40
 578 025e 00       		.byte	0
 579 025f 03       		.uleb128 0x3
 580 0260 E5090000 		.4byte	.LASF48
 581 0264 06       		.byte	0x6
 582 0265 44       		.byte	0x44
 583 0266 6A020000 		.4byte	0x26a
 584 026a 0B       		.uleb128 0xb
 585 026b 04       		.byte	0x4
 586 026c 67010000 		.4byte	0x167
 587 0270 03       		.uleb128 0x3
 588 0271 AB0F0000 		.4byte	.LASF49
 589 0275 06       		.byte	0x6
 590 0276 49       		.byte	0x49
 591 0277 7B020000 		.4byte	0x27b
 592 027b 07       		.uleb128 0x7
 593 027c 3E070000 		.4byte	.LASF51
 594 0280 04       		.byte	0x4
 595 0281 07       		.byte	0x7
 596 0282 B0       		.byte	0xb0
 597 0283 94020000 		.4byte	0x294
 598 0287 08       		.uleb128 0x8
 599 0288 E3010000 		.4byte	.LASF31
 600 028c 07       		.byte	0x7
 601 028d B1       		.byte	0xb1
 602 028e 6A020000 		.4byte	0x26a
 603 0292 00       		.byte	0
 604 0293 00       		.byte	0
 605 0294 03       		.uleb128 0x3
 606 0295 17020000 		.4byte	.LASF52
 607 0299 06       		.byte	0x6
 608 029a 50       		.byte	0x50
 609 029b 9F020000 		.4byte	0x29f
 610 029f 07       		.uleb128 0x7
 611 02a0 2B0B0000 		.4byte	.LASF53
 612 02a4 08       		.byte	0x8
 613 02a5 07       		.byte	0x7
 614 02a6 B7       		.byte	0xb7
 615 02a7 C4020000 		.4byte	0x2c4
 616 02ab 08       		.uleb128 0x8
 617 02ac E3010000 		.4byte	.LASF31
 618 02b0 07       		.byte	0x7
 619 02b1 B8       		.byte	0xb8
 620 02b2 6A020000 		.4byte	0x26a
 621 02b6 00       		.byte	0
 622 02b7 08       		.uleb128 0x8
 623 02b8 FF010000 		.4byte	.LASF32
 624 02bc 07       		.byte	0x7
 625 02bd B9       		.byte	0xb9
 626 02be 6A020000 		.4byte	0x26a
 627 02c2 04       		.byte	0x4
ARM GAS  /tmp/ccKyNeCd.s 			page 12


 628 02c3 00       		.byte	0
 629 02c4 03       		.uleb128 0x3
 630 02c5 EB060000 		.4byte	.LASF54
 631 02c9 06       		.byte	0x6
 632 02ca 57       		.byte	0x57
 633 02cb CF020000 		.4byte	0x2cf
 634 02cf 0C       		.uleb128 0xc
 635 02d0 8D050000 		.4byte	.LASF55
 636 02d4 1C       		.byte	0x1c
 637 02d5 07       		.byte	0x7
 638 02d6 9001     		.2byte	0x190
 639 02d8 2B030000 		.4byte	0x32b
 640 02dc 0A       		.uleb128 0xa
 641 02dd 4B0D0000 		.4byte	.LASF56
 642 02e1 07       		.byte	0x7
 643 02e2 9101     		.2byte	0x191
 644 02e4 94020000 		.4byte	0x294
 645 02e8 00       		.byte	0
 646 02e9 0A       		.uleb128 0xa
 647 02ea AA0E0000 		.4byte	.LASF57
 648 02ee 07       		.byte	0x7
 649 02ef 9201     		.2byte	0x192
 650 02f1 30010000 		.4byte	0x130
 651 02f5 08       		.byte	0x8
 652 02f6 0A       		.uleb128 0xa
 653 02f7 81000000 		.4byte	.LASF58
 654 02fb 07       		.byte	0x7
 655 02fc 9401     		.2byte	0x194
 656 02fe DA070000 		.4byte	0x7da
 657 0302 0C       		.byte	0xc
 658 0303 0A       		.uleb128 0xa
 659 0304 89030000 		.4byte	.LASF59
 660 0308 07       		.byte	0x7
 661 0309 9701     		.2byte	0x197
 662 030b 6A020000 		.4byte	0x26a
 663 030f 10       		.byte	0x10
 664 0310 0A       		.uleb128 0xa
 665 0311 EB0D0000 		.4byte	.LASF60
 666 0315 07       		.byte	0x7
 667 0316 9801     		.2byte	0x198
 668 0318 6A020000 		.4byte	0x26a
 669 031c 14       		.byte	0x14
 670 031d 0A       		.uleb128 0xa
 671 031e 860C0000 		.4byte	.LASF61
 672 0322 07       		.byte	0x7
 673 0323 9B01     		.2byte	0x19b
 674 0325 6A020000 		.4byte	0x26a
 675 0329 18       		.byte	0x18
 676 032a 00       		.byte	0
 677 032b 03       		.uleb128 0x3
 678 032c A8000000 		.4byte	.LASF62
 679 0330 06       		.byte	0x6
 680 0331 5C       		.byte	0x5c
 681 0332 36030000 		.4byte	0x336
 682 0336 0B       		.uleb128 0xb
 683 0337 04       		.byte	0x4
 684 0338 3C030000 		.4byte	0x33c
ARM GAS  /tmp/ccKyNeCd.s 			page 13


 685 033c 0D       		.uleb128 0xd
 686 033d 47030000 		.4byte	0x347
 687 0341 0E       		.uleb128 0xe
 688 0342 47030000 		.4byte	0x347
 689 0346 00       		.byte	0
 690 0347 0F       		.uleb128 0xf
 691 0348 04       		.byte	0x4
 692 0349 03       		.uleb128 0x3
 693 034a DB060000 		.4byte	.LASF63
 694 034e 06       		.byte	0x6
 695 034f 61       		.byte	0x61
 696 0350 54030000 		.4byte	0x354
 697 0354 0C       		.uleb128 0xc
 698 0355 8E0A0000 		.4byte	.LASF64
 699 0359 14       		.byte	0x14
 700 035a 07       		.byte	0x7
 701 035b 6B01     		.2byte	0x16b
 702 035d A3030000 		.4byte	0x3a3
 703 0361 0A       		.uleb128 0xa
 704 0362 18080000 		.4byte	.LASF65
 705 0366 07       		.byte	0x7
 706 0367 6C01     		.2byte	0x16c
 707 0369 360A0000 		.4byte	0xa36
 708 036d 00       		.byte	0
 709 036e 0A       		.uleb128 0xa
 710 036f 30080000 		.4byte	.LASF66
 711 0373 07       		.byte	0x7
 712 0374 6D01     		.2byte	0x16d
 713 0376 360A0000 		.4byte	0xa36
 714 037a 04       		.byte	0x4
 715 037b 0A       		.uleb128 0xa
 716 037c 7C0A0000 		.4byte	.LASF67
 717 0380 07       		.byte	0x7
 718 0381 6E01     		.2byte	0x16e
 719 0383 5C010000 		.4byte	0x15c
 720 0387 08       		.byte	0x8
 721 0388 0A       		.uleb128 0xa
 722 0389 3B050000 		.4byte	.LASF68
 723 038d 07       		.byte	0x7
 724 038e 6F01     		.2byte	0x16f
 725 0390 2B030000 		.4byte	0x32b
 726 0394 0C       		.byte	0xc
 727 0395 0A       		.uleb128 0xa
 728 0396 4D010000 		.4byte	.LASF69
 729 039a 07       		.byte	0x7
 730 039b 7101     		.2byte	0x171
 731 039d 47030000 		.4byte	0x347
 732 03a1 10       		.byte	0x10
 733 03a2 00       		.byte	0
 734 03a3 03       		.uleb128 0x3
 735 03a4 8C060000 		.4byte	.LASF70
 736 03a8 06       		.byte	0x6
 737 03a9 66       		.byte	0x66
 738 03aa AE030000 		.4byte	0x3ae
 739 03ae 0C       		.uleb128 0xc
 740 03af B8000000 		.4byte	.LASF71
 741 03b3 10       		.byte	0x10
ARM GAS  /tmp/ccKyNeCd.s 			page 14


 742 03b4 07       		.byte	0x7
 743 03b5 7B01     		.2byte	0x17b
 744 03b7 F0030000 		.4byte	0x3f0
 745 03bb 0A       		.uleb128 0xa
 746 03bc 18080000 		.4byte	.LASF65
 747 03c0 07       		.byte	0x7
 748 03c1 7C01     		.2byte	0x17c
 749 03c3 360A0000 		.4byte	0xa36
 750 03c7 00       		.byte	0
 751 03c8 0A       		.uleb128 0xa
 752 03c9 30080000 		.4byte	.LASF66
 753 03cd 07       		.byte	0x7
 754 03ce 7E01     		.2byte	0x17e
 755 03d0 360A0000 		.4byte	0xa36
 756 03d4 04       		.byte	0x4
 757 03d5 0A       		.uleb128 0xa
 758 03d6 7C0A0000 		.4byte	.LASF67
 759 03da 07       		.byte	0x7
 760 03db 8001     		.2byte	0x180
 761 03dd 5C010000 		.4byte	0x15c
 762 03e1 08       		.byte	0x8
 763 03e2 0A       		.uleb128 0xa
 764 03e3 32100000 		.4byte	.LASF72
 765 03e7 07       		.byte	0x7
 766 03e8 8801     		.2byte	0x188
 767 03ea 5C010000 		.4byte	0x15c
 768 03ee 0C       		.byte	0xc
 769 03ef 00       		.byte	0
 770 03f0 03       		.uleb128 0x3
 771 03f1 A0030000 		.4byte	.LASF73
 772 03f5 06       		.byte	0x6
 773 03f6 6B       		.byte	0x6b
 774 03f7 FB030000 		.4byte	0x3fb
 775 03fb 0C       		.uleb128 0xc
 776 03fc BD0E0000 		.4byte	.LASF74
 777 0400 04       		.byte	0x4
 778 0401 07       		.byte	0x7
 779 0402 A201     		.2byte	0x1a2
 780 0404 16040000 		.4byte	0x416
 781 0408 0A       		.uleb128 0xa
 782 0409 71030000 		.4byte	.LASF75
 783 040d 07       		.byte	0x7
 784 040e AA01     		.2byte	0x1aa
 785 0410 250A0000 		.4byte	0xa25
 786 0414 00       		.byte	0
 787 0415 00       		.byte	0
 788 0416 03       		.uleb128 0x3
 789 0417 68100000 		.4byte	.LASF76
 790 041b 06       		.byte	0x6
 791 041c 70       		.byte	0x70
 792 041d 21040000 		.4byte	0x421
 793 0421 10       		.uleb128 0x10
 794 0422 E10F0000 		.4byte	.LASF77
 795 0426 D801     		.2byte	0x1d8
 796 0428 07       		.byte	0x7
 797 0429 C201     		.2byte	0x1c2
 798 042b 7D040000 		.4byte	0x47d
ARM GAS  /tmp/ccKyNeCd.s 			page 15


 799 042f 0A       		.uleb128 0xa
 800 0430 880D0000 		.4byte	.LASF78
 801 0434 07       		.byte	0x7
 802 0435 C601     		.2byte	0x1c6
 803 0437 C4020000 		.4byte	0x2c4
 804 043b 00       		.byte	0
 805 043c 0A       		.uleb128 0xa
 806 043d 380F0000 		.4byte	.LASF79
 807 0441 07       		.byte	0x7
 808 0442 CA01     		.2byte	0x1ca
 809 0444 A3030000 		.4byte	0x3a3
 810 0448 1C       		.byte	0x1c
 811 0449 09       		.uleb128 0x9
 812 044a 64626700 		.ascii	"dbg\000"
 813 044e 07       		.byte	0x7
 814 044f CE01     		.2byte	0x1ce
 815 0451 F0030000 		.4byte	0x3f0
 816 0455 2C       		.byte	0x2c
 817 0456 0A       		.uleb128 0xa
 818 0457 E70C0000 		.4byte	.LASF80
 819 045b 07       		.byte	0x7
 820 045c D201     		.2byte	0x1d2
 821 045e 67010000 		.4byte	0x167
 822 0462 30       		.byte	0x30
 823 0463 09       		.uleb128 0x9
 824 0464 746D00   		.ascii	"tm\000"
 825 0467 07       		.byte	0x7
 826 0468 D701     		.2byte	0x1d7
 827 046a 4F090000 		.4byte	0x94f
 828 046e 74       		.byte	0x74
 829 046f 0A       		.uleb128 0xa
 830 0470 D4080000 		.4byte	.LASF81
 831 0474 07       		.byte	0x7
 832 0475 E301     		.2byte	0x1e3
 833 0477 3C0A0000 		.4byte	0xa3c
 834 047b 78       		.byte	0x78
 835 047c 00       		.byte	0
 836 047d 11       		.uleb128 0x11
 837 047e E9000000 		.4byte	0xe9
 838 0482 8D040000 		.4byte	0x48d
 839 0486 12       		.uleb128 0x12
 840 0487 3C000000 		.4byte	0x3c
 841 048b 01       		.byte	0x1
 842 048c 00       		.byte	0
 843 048d 13       		.uleb128 0x13
 844 048e 71080000 		.4byte	.LASF82
 845 0492 08       		.byte	0x8
 846 0493 A706     		.2byte	0x6a7
 847 0495 E4000000 		.4byte	0xe4
 848 0499 14       		.uleb128 0x14
 849 049a 54060000 		.4byte	.LASF83
 850 049e 09       		.byte	0x9
 851 049f 4C       		.byte	0x4c
 852 04a0 E9000000 		.4byte	0xe9
 853 04a4 15       		.uleb128 0x15
 854 04a5 18       		.byte	0x18
 855 04a6 0A       		.byte	0xa
ARM GAS  /tmp/ccKyNeCd.s 			page 16


 856 04a7 6B01     		.2byte	0x16b
 857 04a9 FB040000 		.4byte	0x4fb
 858 04ad 09       		.uleb128 0x9
 859 04ae 435200   		.ascii	"CR\000"
 860 04b1 0A       		.byte	0xa
 861 04b2 6D01     		.2byte	0x16d
 862 04b4 F4000000 		.4byte	0xf4
 863 04b8 00       		.byte	0
 864 04b9 0A       		.uleb128 0xa
 865 04ba CB100000 		.4byte	.LASF84
 866 04be 0A       		.byte	0xa
 867 04bf 6E01     		.2byte	0x16e
 868 04c1 F4000000 		.4byte	0xf4
 869 04c5 04       		.byte	0x4
 870 04c6 09       		.uleb128 0x9
 871 04c7 50415200 		.ascii	"PAR\000"
 872 04cb 0A       		.byte	0xa
 873 04cc 6F01     		.2byte	0x16f
 874 04ce F4000000 		.4byte	0xf4
 875 04d2 08       		.byte	0x8
 876 04d3 0A       		.uleb128 0xa
 877 04d4 0D0E0000 		.4byte	.LASF85
 878 04d8 0A       		.byte	0xa
 879 04d9 7001     		.2byte	0x170
 880 04db F4000000 		.4byte	0xf4
 881 04df 0C       		.byte	0xc
 882 04e0 0A       		.uleb128 0xa
 883 04e1 00000000 		.4byte	.LASF86
 884 04e5 0A       		.byte	0xa
 885 04e6 7101     		.2byte	0x171
 886 04e8 F4000000 		.4byte	0xf4
 887 04ec 10       		.byte	0x10
 888 04ed 09       		.uleb128 0x9
 889 04ee 46435200 		.ascii	"FCR\000"
 890 04f2 0A       		.byte	0xa
 891 04f3 7201     		.2byte	0x172
 892 04f5 F4000000 		.4byte	0xf4
 893 04f9 14       		.byte	0x14
 894 04fa 00       		.byte	0
 895 04fb 16       		.uleb128 0x16
 896 04fc 8A090000 		.4byte	.LASF87
 897 0500 0A       		.byte	0xa
 898 0501 7301     		.2byte	0x173
 899 0503 A4040000 		.4byte	0x4a4
 900 0507 15       		.uleb128 0x15
 901 0508 1C       		.byte	0x1c
 902 0509 0A       		.byte	0xa
 903 050a DA01     		.2byte	0x1da
 904 050c 6A050000 		.4byte	0x56a
 905 0510 09       		.uleb128 0x9
 906 0511 41435200 		.ascii	"ACR\000"
 907 0515 0A       		.byte	0xa
 908 0516 DC01     		.2byte	0x1dc
 909 0518 F4000000 		.4byte	0xf4
 910 051c 00       		.byte	0
 911 051d 0A       		.uleb128 0xa
 912 051e 1A0E0000 		.4byte	.LASF88
ARM GAS  /tmp/ccKyNeCd.s 			page 17


 913 0522 0A       		.byte	0xa
 914 0523 DD01     		.2byte	0x1dd
 915 0525 F4000000 		.4byte	0xf4
 916 0529 04       		.byte	0x4
 917 052a 0A       		.uleb128 0xa
 918 052b F9050000 		.4byte	.LASF89
 919 052f 0A       		.byte	0xa
 920 0530 DE01     		.2byte	0x1de
 921 0532 F4000000 		.4byte	0xf4
 922 0536 08       		.byte	0x8
 923 0537 09       		.uleb128 0x9
 924 0538 535200   		.ascii	"SR\000"
 925 053b 0A       		.byte	0xa
 926 053c DF01     		.2byte	0x1df
 927 053e F4000000 		.4byte	0xf4
 928 0542 0C       		.byte	0xc
 929 0543 09       		.uleb128 0x9
 930 0544 435200   		.ascii	"CR\000"
 931 0547 0A       		.byte	0xa
 932 0548 E001     		.2byte	0x1e0
 933 054a F4000000 		.4byte	0xf4
 934 054e 10       		.byte	0x10
 935 054f 0A       		.uleb128 0xa
 936 0550 04100000 		.4byte	.LASF90
 937 0554 0A       		.byte	0xa
 938 0555 E101     		.2byte	0x1e1
 939 0557 F4000000 		.4byte	0xf4
 940 055b 14       		.byte	0x14
 941 055c 0A       		.uleb128 0xa
 942 055d F8090000 		.4byte	.LASF91
 943 0561 0A       		.byte	0xa
 944 0562 E201     		.2byte	0x1e2
 945 0564 F4000000 		.4byte	0xf4
 946 0568 18       		.byte	0x18
 947 0569 00       		.byte	0
 948 056a 16       		.uleb128 0x16
 949 056b 9D040000 		.4byte	.LASF92
 950 056f 0A       		.byte	0xa
 951 0570 E301     		.2byte	0x1e3
 952 0572 07050000 		.4byte	0x507
 953 0576 15       		.uleb128 0x15
 954 0577 08       		.byte	0x8
 955 0578 0A       		.byte	0xa
 956 0579 5D02     		.2byte	0x25d
 957 057b 99050000 		.4byte	0x599
 958 057f 09       		.uleb128 0x9
 959 0580 435200   		.ascii	"CR\000"
 960 0583 0A       		.byte	0xa
 961 0584 5F02     		.2byte	0x25f
 962 0586 F4000000 		.4byte	0xf4
 963 058a 00       		.byte	0
 964 058b 09       		.uleb128 0x9
 965 058c 43535200 		.ascii	"CSR\000"
 966 0590 0A       		.byte	0xa
 967 0591 6002     		.2byte	0x260
 968 0593 F4000000 		.4byte	0xf4
 969 0597 04       		.byte	0x4
ARM GAS  /tmp/ccKyNeCd.s 			page 18


 970 0598 00       		.byte	0
 971 0599 16       		.uleb128 0x16
 972 059a 18100000 		.4byte	.LASF93
 973 059e 0A       		.byte	0xa
 974 059f 6102     		.2byte	0x261
 975 05a1 76050000 		.4byte	0x576
 976 05a5 15       		.uleb128 0x15
 977 05a6 88       		.byte	0x88
 978 05a7 0A       		.byte	0xa
 979 05a8 6702     		.2byte	0x267
 980 05aa 34070000 		.4byte	0x734
 981 05ae 09       		.uleb128 0x9
 982 05af 435200   		.ascii	"CR\000"
 983 05b2 0A       		.byte	0xa
 984 05b3 6902     		.2byte	0x269
 985 05b5 F4000000 		.4byte	0xf4
 986 05b9 00       		.byte	0
 987 05ba 0A       		.uleb128 0xa
 988 05bb 28080000 		.4byte	.LASF94
 989 05bf 0A       		.byte	0xa
 990 05c0 6A02     		.2byte	0x26a
 991 05c2 F4000000 		.4byte	0xf4
 992 05c6 04       		.byte	0x4
 993 05c7 0A       		.uleb128 0xa
 994 05c8 A3050000 		.4byte	.LASF95
 995 05cc 0A       		.byte	0xa
 996 05cd 6B02     		.2byte	0x26b
 997 05cf F4000000 		.4byte	0xf4
 998 05d3 08       		.byte	0x8
 999 05d4 09       		.uleb128 0x9
 1000 05d5 43495200 		.ascii	"CIR\000"
 1001 05d9 0A       		.byte	0xa
 1002 05da 6C02     		.2byte	0x26c
 1003 05dc F4000000 		.4byte	0xf4
 1004 05e0 0C       		.byte	0xc
 1005 05e1 0A       		.uleb128 0xa
 1006 05e2 0F040000 		.4byte	.LASF96
 1007 05e6 0A       		.byte	0xa
 1008 05e7 6D02     		.2byte	0x26d
 1009 05e9 F4000000 		.4byte	0xf4
 1010 05ed 10       		.byte	0x10
 1011 05ee 0A       		.uleb128 0xa
 1012 05ef 040E0000 		.4byte	.LASF97
 1013 05f3 0A       		.byte	0xa
 1014 05f4 6E02     		.2byte	0x26e
 1015 05f6 F4000000 		.4byte	0xf4
 1016 05fa 14       		.byte	0x14
 1017 05fb 0A       		.uleb128 0xa
 1018 05fc C7090000 		.4byte	.LASF98
 1019 0600 0A       		.byte	0xa
 1020 0601 6F02     		.2byte	0x26f
 1021 0603 F4000000 		.4byte	0xf4
 1022 0607 18       		.byte	0x18
 1023 0608 0A       		.uleb128 0xa
 1024 0609 20030000 		.4byte	.LASF99
 1025 060d 0A       		.byte	0xa
 1026 060e 7002     		.2byte	0x270
ARM GAS  /tmp/ccKyNeCd.s 			page 19


 1027 0610 E9000000 		.4byte	0xe9
 1028 0614 1C       		.byte	0x1c
 1029 0615 0A       		.uleb128 0xa
 1030 0616 850A0000 		.4byte	.LASF100
 1031 061a 0A       		.byte	0xa
 1032 061b 7102     		.2byte	0x271
 1033 061d F4000000 		.4byte	0xf4
 1034 0621 20       		.byte	0x20
 1035 0622 0A       		.uleb128 0xa
 1036 0623 3D080000 		.4byte	.LASF101
 1037 0627 0A       		.byte	0xa
 1038 0628 7202     		.2byte	0x272
 1039 062a F4000000 		.4byte	0xf4
 1040 062e 24       		.byte	0x24
 1041 062f 0A       		.uleb128 0xa
 1042 0630 2A030000 		.4byte	.LASF102
 1043 0634 0A       		.byte	0xa
 1044 0635 7302     		.2byte	0x273
 1045 0637 7D040000 		.4byte	0x47d
 1046 063b 28       		.byte	0x28
 1047 063c 0A       		.uleb128 0xa
 1048 063d 960D0000 		.4byte	.LASF103
 1049 0641 0A       		.byte	0xa
 1050 0642 7402     		.2byte	0x274
 1051 0644 F4000000 		.4byte	0xf4
 1052 0648 30       		.byte	0x30
 1053 0649 0A       		.uleb128 0xa
 1054 064a 39040000 		.4byte	.LASF104
 1055 064e 0A       		.byte	0xa
 1056 064f 7502     		.2byte	0x275
 1057 0651 F4000000 		.4byte	0xf4
 1058 0655 34       		.byte	0x34
 1059 0656 0A       		.uleb128 0xa
 1060 0657 E30D0000 		.4byte	.LASF105
 1061 065b 0A       		.byte	0xa
 1062 065c 7602     		.2byte	0x276
 1063 065e F4000000 		.4byte	0xf4
 1064 0662 38       		.byte	0x38
 1065 0663 0A       		.uleb128 0xa
 1066 0664 CF030000 		.4byte	.LASF106
 1067 0668 0A       		.byte	0xa
 1068 0669 7702     		.2byte	0x277
 1069 066b E9000000 		.4byte	0xe9
 1070 066f 3C       		.byte	0x3c
 1071 0670 0A       		.uleb128 0xa
 1072 0671 2B060000 		.4byte	.LASF107
 1073 0675 0A       		.byte	0xa
 1074 0676 7802     		.2byte	0x278
 1075 0678 F4000000 		.4byte	0xf4
 1076 067c 40       		.byte	0x40
 1077 067d 0A       		.uleb128 0xa
 1078 067e 6C020000 		.4byte	.LASF108
 1079 0682 0A       		.byte	0xa
 1080 0683 7902     		.2byte	0x279
 1081 0685 F4000000 		.4byte	0xf4
 1082 0689 44       		.byte	0x44
 1083 068a 0A       		.uleb128 0xa
ARM GAS  /tmp/ccKyNeCd.s 			page 20


 1084 068b 42030000 		.4byte	.LASF109
 1085 068f 0A       		.byte	0xa
 1086 0690 7A02     		.2byte	0x27a
 1087 0692 7D040000 		.4byte	0x47d
 1088 0696 48       		.byte	0x48
 1089 0697 0A       		.uleb128 0xa
 1090 0698 7D020000 		.4byte	.LASF110
 1091 069c 0A       		.byte	0xa
 1092 069d 7B02     		.2byte	0x27b
 1093 069f F4000000 		.4byte	0xf4
 1094 06a3 50       		.byte	0x50
 1095 06a4 0A       		.uleb128 0xa
 1096 06a5 82010000 		.4byte	.LASF111
 1097 06a9 0A       		.byte	0xa
 1098 06aa 7C02     		.2byte	0x27c
 1099 06ac F4000000 		.4byte	0xf4
 1100 06b0 54       		.byte	0x54
 1101 06b1 0A       		.uleb128 0xa
 1102 06b2 FB0C0000 		.4byte	.LASF112
 1103 06b6 0A       		.byte	0xa
 1104 06b7 7D02     		.2byte	0x27d
 1105 06b9 F4000000 		.4byte	0xf4
 1106 06bd 58       		.byte	0x58
 1107 06be 0A       		.uleb128 0xa
 1108 06bf 4C030000 		.4byte	.LASF113
 1109 06c3 0A       		.byte	0xa
 1110 06c4 7E02     		.2byte	0x27e
 1111 06c6 E9000000 		.4byte	0xe9
 1112 06ca 5C       		.byte	0x5c
 1113 06cb 0A       		.uleb128 0xa
 1114 06cc 5D090000 		.4byte	.LASF114
 1115 06d0 0A       		.byte	0xa
 1116 06d1 7F02     		.2byte	0x27f
 1117 06d3 F4000000 		.4byte	0xf4
 1118 06d7 60       		.byte	0x60
 1119 06d8 0A       		.uleb128 0xa
 1120 06d9 8E080000 		.4byte	.LASF115
 1121 06dd 0A       		.byte	0xa
 1122 06de 8002     		.2byte	0x280
 1123 06e0 F4000000 		.4byte	0xf4
 1124 06e4 64       		.byte	0x64
 1125 06e5 0A       		.uleb128 0xa
 1126 06e6 56030000 		.4byte	.LASF116
 1127 06ea 0A       		.byte	0xa
 1128 06eb 8102     		.2byte	0x281
 1129 06ed 7D040000 		.4byte	0x47d
 1130 06f1 68       		.byte	0x68
 1131 06f2 0A       		.uleb128 0xa
 1132 06f3 03050000 		.4byte	.LASF117
 1133 06f7 0A       		.byte	0xa
 1134 06f8 8202     		.2byte	0x282
 1135 06fa F4000000 		.4byte	0xf4
 1136 06fe 70       		.byte	0x70
 1137 06ff 09       		.uleb128 0x9
 1138 0700 43535200 		.ascii	"CSR\000"
 1139 0704 0A       		.byte	0xa
 1140 0705 8302     		.2byte	0x283
ARM GAS  /tmp/ccKyNeCd.s 			page 21


 1141 0707 F4000000 		.4byte	0xf4
 1142 070b 74       		.byte	0x74
 1143 070c 0A       		.uleb128 0xa
 1144 070d 60030000 		.4byte	.LASF118
 1145 0711 0A       		.byte	0xa
 1146 0712 8402     		.2byte	0x284
 1147 0714 7D040000 		.4byte	0x47d
 1148 0718 78       		.byte	0x78
 1149 0719 0A       		.uleb128 0xa
 1150 071a 12080000 		.4byte	.LASF119
 1151 071e 0A       		.byte	0xa
 1152 071f 8502     		.2byte	0x285
 1153 0721 F4000000 		.4byte	0xf4
 1154 0725 80       		.byte	0x80
 1155 0726 0A       		.uleb128 0xa
 1156 0727 46000000 		.4byte	.LASF120
 1157 072b 0A       		.byte	0xa
 1158 072c 8602     		.2byte	0x286
 1159 072e F4000000 		.4byte	0xf4
 1160 0732 84       		.byte	0x84
 1161 0733 00       		.byte	0
 1162 0734 16       		.uleb128 0x16
 1163 0735 1F0E0000 		.4byte	.LASF121
 1164 0739 0A       		.byte	0xa
 1165 073a 8802     		.2byte	0x288
 1166 073c A5050000 		.4byte	0x5a5
 1167 0740 15       		.uleb128 0x15
 1168 0741 1C       		.byte	0x1c
 1169 0742 0A       		.byte	0xa
 1170 0743 0903     		.2byte	0x309
 1171 0745 A3070000 		.4byte	0x7a3
 1172 0749 09       		.uleb128 0x9
 1173 074a 535200   		.ascii	"SR\000"
 1174 074d 0A       		.byte	0xa
 1175 074e 0B03     		.2byte	0x30b
 1176 0750 F4000000 		.4byte	0xf4
 1177 0754 00       		.byte	0
 1178 0755 09       		.uleb128 0x9
 1179 0756 445200   		.ascii	"DR\000"
 1180 0759 0A       		.byte	0xa
 1181 075a 0C03     		.2byte	0x30c
 1182 075c F4000000 		.4byte	0xf4
 1183 0760 04       		.byte	0x4
 1184 0761 09       		.uleb128 0x9
 1185 0762 42525200 		.ascii	"BRR\000"
 1186 0766 0A       		.byte	0xa
 1187 0767 0D03     		.2byte	0x30d
 1188 0769 F4000000 		.4byte	0xf4
 1189 076d 08       		.byte	0x8
 1190 076e 09       		.uleb128 0x9
 1191 076f 43523100 		.ascii	"CR1\000"
 1192 0773 0A       		.byte	0xa
 1193 0774 0E03     		.2byte	0x30e
 1194 0776 F4000000 		.4byte	0xf4
 1195 077a 0C       		.byte	0xc
 1196 077b 09       		.uleb128 0x9
 1197 077c 43523200 		.ascii	"CR2\000"
ARM GAS  /tmp/ccKyNeCd.s 			page 22


 1198 0780 0A       		.byte	0xa
 1199 0781 0F03     		.2byte	0x30f
 1200 0783 F4000000 		.4byte	0xf4
 1201 0787 10       		.byte	0x10
 1202 0788 09       		.uleb128 0x9
 1203 0789 43523300 		.ascii	"CR3\000"
 1204 078d 0A       		.byte	0xa
 1205 078e 1003     		.2byte	0x310
 1206 0790 F4000000 		.4byte	0xf4
 1207 0794 14       		.byte	0x14
 1208 0795 0A       		.uleb128 0xa
 1209 0796 38080000 		.4byte	.LASF122
 1210 079a 0A       		.byte	0xa
 1211 079b 1103     		.2byte	0x311
 1212 079d F4000000 		.4byte	0xf4
 1213 07a1 18       		.byte	0x18
 1214 07a2 00       		.byte	0
 1215 07a3 16       		.uleb128 0x16
 1216 07a4 70040000 		.4byte	.LASF123
 1217 07a8 0A       		.byte	0xa
 1218 07a9 1203     		.2byte	0x312
 1219 07ab 40070000 		.4byte	0x740
 1220 07af 11       		.uleb128 0x11
 1221 07b0 F4000000 		.4byte	0xf4
 1222 07b4 BF070000 		.4byte	0x7bf
 1223 07b8 12       		.uleb128 0x12
 1224 07b9 3C000000 		.4byte	0x3c
 1225 07bd 0E       		.byte	0xe
 1226 07be 00       		.byte	0
 1227 07bf 04       		.uleb128 0x4
 1228 07c0 AF070000 		.4byte	0x7af
 1229 07c4 03       		.uleb128 0x3
 1230 07c5 37020000 		.4byte	.LASF124
 1231 07c9 0B       		.byte	0xb
 1232 07ca 65       		.byte	0x65
 1233 07cb 47030000 		.4byte	0x347
 1234 07cf 03       		.uleb128 0x3
 1235 07d0 65040000 		.4byte	.LASF125
 1236 07d4 0B       		.byte	0xb
 1237 07d5 6D       		.byte	0x6d
 1238 07d6 F9000000 		.4byte	0xf9
 1239 07da 07       		.uleb128 0x7
 1240 07db 0B030000 		.4byte	.LASF126
 1241 07df 04       		.byte	0x4
 1242 07e0 0B       		.byte	0xb
 1243 07e1 89       		.byte	0x89
 1244 07e2 F3070000 		.4byte	0x7f3
 1245 07e6 17       		.uleb128 0x17
 1246 07e7 72313300 		.ascii	"r13\000"
 1247 07eb 0B       		.byte	0xb
 1248 07ec 8A       		.byte	0x8a
 1249 07ed 34090000 		.4byte	0x934
 1250 07f1 00       		.byte	0
 1251 07f2 00       		.byte	0
 1252 07f3 07       		.uleb128 0x7
 1253 07f4 490A0000 		.4byte	.LASF127
 1254 07f8 64       		.byte	0x64
ARM GAS  /tmp/ccKyNeCd.s 			page 23


 1255 07f9 0C       		.byte	0xc
 1256 07fa F4       		.byte	0xf4
 1257 07fb 34090000 		.4byte	0x934
 1258 07ff 17       		.uleb128 0x17
 1259 0800 73313600 		.ascii	"s16\000"
 1260 0804 0C       		.byte	0xc
 1261 0805 F6       		.byte	0xf6
 1262 0806 C4070000 		.4byte	0x7c4
 1263 080a 00       		.byte	0
 1264 080b 17       		.uleb128 0x17
 1265 080c 73313700 		.ascii	"s17\000"
 1266 0810 0C       		.byte	0xc
 1267 0811 F7       		.byte	0xf7
 1268 0812 C4070000 		.4byte	0x7c4
 1269 0816 04       		.byte	0x4
 1270 0817 17       		.uleb128 0x17
 1271 0818 73313800 		.ascii	"s18\000"
 1272 081c 0C       		.byte	0xc
 1273 081d F8       		.byte	0xf8
 1274 081e C4070000 		.4byte	0x7c4
 1275 0822 08       		.byte	0x8
 1276 0823 17       		.uleb128 0x17
 1277 0824 73313900 		.ascii	"s19\000"
 1278 0828 0C       		.byte	0xc
 1279 0829 F9       		.byte	0xf9
 1280 082a C4070000 		.4byte	0x7c4
 1281 082e 0C       		.byte	0xc
 1282 082f 17       		.uleb128 0x17
 1283 0830 73323000 		.ascii	"s20\000"
 1284 0834 0C       		.byte	0xc
 1285 0835 FA       		.byte	0xfa
 1286 0836 C4070000 		.4byte	0x7c4
 1287 083a 10       		.byte	0x10
 1288 083b 17       		.uleb128 0x17
 1289 083c 73323100 		.ascii	"s21\000"
 1290 0840 0C       		.byte	0xc
 1291 0841 FB       		.byte	0xfb
 1292 0842 C4070000 		.4byte	0x7c4
 1293 0846 14       		.byte	0x14
 1294 0847 17       		.uleb128 0x17
 1295 0848 73323200 		.ascii	"s22\000"
 1296 084c 0C       		.byte	0xc
 1297 084d FC       		.byte	0xfc
 1298 084e C4070000 		.4byte	0x7c4
 1299 0852 18       		.byte	0x18
 1300 0853 17       		.uleb128 0x17
 1301 0854 73323300 		.ascii	"s23\000"
 1302 0858 0C       		.byte	0xc
 1303 0859 FD       		.byte	0xfd
 1304 085a C4070000 		.4byte	0x7c4
 1305 085e 1C       		.byte	0x1c
 1306 085f 17       		.uleb128 0x17
 1307 0860 73323400 		.ascii	"s24\000"
 1308 0864 0C       		.byte	0xc
 1309 0865 FE       		.byte	0xfe
 1310 0866 C4070000 		.4byte	0x7c4
 1311 086a 20       		.byte	0x20
ARM GAS  /tmp/ccKyNeCd.s 			page 24


 1312 086b 17       		.uleb128 0x17
 1313 086c 73323500 		.ascii	"s25\000"
 1314 0870 0C       		.byte	0xc
 1315 0871 FF       		.byte	0xff
 1316 0872 C4070000 		.4byte	0x7c4
 1317 0876 24       		.byte	0x24
 1318 0877 09       		.uleb128 0x9
 1319 0878 73323600 		.ascii	"s26\000"
 1320 087c 0C       		.byte	0xc
 1321 087d 0001     		.2byte	0x100
 1322 087f C4070000 		.4byte	0x7c4
 1323 0883 28       		.byte	0x28
 1324 0884 09       		.uleb128 0x9
 1325 0885 73323700 		.ascii	"s27\000"
 1326 0889 0C       		.byte	0xc
 1327 088a 0101     		.2byte	0x101
 1328 088c C4070000 		.4byte	0x7c4
 1329 0890 2C       		.byte	0x2c
 1330 0891 09       		.uleb128 0x9
 1331 0892 73323800 		.ascii	"s28\000"
 1332 0896 0C       		.byte	0xc
 1333 0897 0201     		.2byte	0x102
 1334 0899 C4070000 		.4byte	0x7c4
 1335 089d 30       		.byte	0x30
 1336 089e 09       		.uleb128 0x9
 1337 089f 73323900 		.ascii	"s29\000"
 1338 08a3 0C       		.byte	0xc
 1339 08a4 0301     		.2byte	0x103
 1340 08a6 C4070000 		.4byte	0x7c4
 1341 08aa 34       		.byte	0x34
 1342 08ab 09       		.uleb128 0x9
 1343 08ac 73333000 		.ascii	"s30\000"
 1344 08b0 0C       		.byte	0xc
 1345 08b1 0401     		.2byte	0x104
 1346 08b3 C4070000 		.4byte	0x7c4
 1347 08b7 38       		.byte	0x38
 1348 08b8 09       		.uleb128 0x9
 1349 08b9 73333100 		.ascii	"s31\000"
 1350 08bd 0C       		.byte	0xc
 1351 08be 0501     		.2byte	0x105
 1352 08c0 C4070000 		.4byte	0x7c4
 1353 08c4 3C       		.byte	0x3c
 1354 08c5 09       		.uleb128 0x9
 1355 08c6 723400   		.ascii	"r4\000"
 1356 08c9 0C       		.byte	0xc
 1357 08ca 0701     		.2byte	0x107
 1358 08cc C4070000 		.4byte	0x7c4
 1359 08d0 40       		.byte	0x40
 1360 08d1 09       		.uleb128 0x9
 1361 08d2 723500   		.ascii	"r5\000"
 1362 08d5 0C       		.byte	0xc
 1363 08d6 0801     		.2byte	0x108
 1364 08d8 C4070000 		.4byte	0x7c4
 1365 08dc 44       		.byte	0x44
 1366 08dd 09       		.uleb128 0x9
 1367 08de 723600   		.ascii	"r6\000"
 1368 08e1 0C       		.byte	0xc
ARM GAS  /tmp/ccKyNeCd.s 			page 25


 1369 08e2 0901     		.2byte	0x109
 1370 08e4 C4070000 		.4byte	0x7c4
 1371 08e8 48       		.byte	0x48
 1372 08e9 09       		.uleb128 0x9
 1373 08ea 723700   		.ascii	"r7\000"
 1374 08ed 0C       		.byte	0xc
 1375 08ee 0A01     		.2byte	0x10a
 1376 08f0 C4070000 		.4byte	0x7c4
 1377 08f4 4C       		.byte	0x4c
 1378 08f5 09       		.uleb128 0x9
 1379 08f6 723800   		.ascii	"r8\000"
 1380 08f9 0C       		.byte	0xc
 1381 08fa 0B01     		.2byte	0x10b
 1382 08fc C4070000 		.4byte	0x7c4
 1383 0900 50       		.byte	0x50
 1384 0901 09       		.uleb128 0x9
 1385 0902 723900   		.ascii	"r9\000"
 1386 0905 0C       		.byte	0xc
 1387 0906 0C01     		.2byte	0x10c
 1388 0908 C4070000 		.4byte	0x7c4
 1389 090c 54       		.byte	0x54
 1390 090d 09       		.uleb128 0x9
 1391 090e 72313000 		.ascii	"r10\000"
 1392 0912 0C       		.byte	0xc
 1393 0913 0D01     		.2byte	0x10d
 1394 0915 C4070000 		.4byte	0x7c4
 1395 0919 58       		.byte	0x58
 1396 091a 09       		.uleb128 0x9
 1397 091b 72313100 		.ascii	"r11\000"
 1398 091f 0C       		.byte	0xc
 1399 0920 0E01     		.2byte	0x10e
 1400 0922 C4070000 		.4byte	0x7c4
 1401 0926 5C       		.byte	0x5c
 1402 0927 09       		.uleb128 0x9
 1403 0928 6C7200   		.ascii	"lr\000"
 1404 092b 0C       		.byte	0xc
 1405 092c 0F01     		.2byte	0x10f
 1406 092e C4070000 		.4byte	0x7c4
 1407 0932 60       		.byte	0x60
 1408 0933 00       		.byte	0
 1409 0934 0B       		.uleb128 0xb
 1410 0935 04       		.byte	0x4
 1411 0936 F3070000 		.4byte	0x7f3
 1412 093a 18       		.uleb128 0x18
 1413 093b 04       		.byte	0x4
 1414 093c 0D       		.byte	0xd
 1415 093d 38       		.byte	0x38
 1416 093e 4F090000 		.4byte	0x94f
 1417 0942 08       		.uleb128 0x8
 1418 0943 56090000 		.4byte	.LASF128
 1419 0947 0D       		.byte	0xd
 1420 0948 3C       		.byte	0x3c
 1421 0949 04010000 		.4byte	0x104
 1422 094d 00       		.byte	0
 1423 094e 00       		.byte	0
 1424 094f 03       		.uleb128 0x3
 1425 0950 F30D0000 		.4byte	.LASF129
ARM GAS  /tmp/ccKyNeCd.s 			page 26


 1426 0954 0D       		.byte	0xd
 1427 0955 3D       		.byte	0x3d
 1428 0956 3A090000 		.4byte	0x93a
 1429 095a 19       		.uleb128 0x19
 1430 095b 04       		.byte	0x4
 1431 095c 07       		.byte	0x7
 1432 095d FA       		.byte	0xfa
 1433 095e B7090000 		.4byte	0x9b7
 1434 0962 1A       		.uleb128 0x1a
 1435 0963 2B100000 		.4byte	.LASF130
 1436 0967 07       		.byte	0x7
 1437 0968 0101     		.2byte	0x101
 1438 096a 3B010000 		.4byte	0x13b
 1439 096e 1A       		.uleb128 0x1a
 1440 096f 54010000 		.4byte	.LASF131
 1441 0973 07       		.byte	0x7
 1442 0974 0801     		.2byte	0x108
 1443 0976 3B010000 		.4byte	0x13b
 1444 097a 1A       		.uleb128 0x1a
 1445 097b 4B040000 		.4byte	.LASF132
 1446 097f 07       		.byte	0x7
 1447 0980 0F01     		.2byte	0x10f
 1448 0982 47030000 		.4byte	0x347
 1449 0986 1A       		.uleb128 0x1a
 1450 0987 1A030000 		.4byte	.LASF133
 1451 098b 07       		.byte	0x7
 1452 098c 1601     		.2byte	0x116
 1453 098e B7090000 		.4byte	0x9b7
 1454 0992 1A       		.uleb128 0x1a
 1455 0993 1F000000 		.4byte	.LASF134
 1456 0997 07       		.byte	0x7
 1457 0998 1E01     		.2byte	0x11e
 1458 099a E2090000 		.4byte	0x9e2
 1459 099e 1A       		.uleb128 0x1a
 1460 099f 7B050000 		.4byte	.LASF135
 1461 09a3 07       		.byte	0x7
 1462 09a4 2701     		.2byte	0x127
 1463 09a6 190A0000 		.4byte	0xa19
 1464 09aa 1A       		.uleb128 0x1a
 1465 09ab C9020000 		.4byte	.LASF136
 1466 09af 07       		.byte	0x7
 1467 09b0 2F01     		.2byte	0x12f
 1468 09b2 46010000 		.4byte	0x146
 1469 09b6 00       		.byte	0
 1470 09b7 0B       		.uleb128 0xb
 1471 09b8 04       		.byte	0x4
 1472 09b9 5F020000 		.4byte	0x25f
 1473 09bd 07       		.uleb128 0x7
 1474 09be 64060000 		.4byte	.LASF137
 1475 09c2 0C       		.byte	0xc
 1476 09c3 0E       		.byte	0xe
 1477 09c4 34       		.byte	0x34
 1478 09c5 E2090000 		.4byte	0x9e2
 1479 09c9 08       		.uleb128 0x8
 1480 09ca 120E0000 		.4byte	.LASF138
 1481 09ce 0E       		.byte	0xe
 1482 09cf 35       		.byte	0x35
ARM GAS  /tmp/ccKyNeCd.s 			page 27


 1483 09d0 94020000 		.4byte	0x294
 1484 09d4 00       		.byte	0
 1485 09d5 08       		.uleb128 0x8
 1486 09d6 9F0A0000 		.4byte	.LASF139
 1487 09da 0E       		.byte	0xe
 1488 09db 37       		.byte	0x37
 1489 09dc 51010000 		.4byte	0x151
 1490 09e0 08       		.byte	0x8
 1491 09e1 00       		.byte	0
 1492 09e2 0B       		.uleb128 0xb
 1493 09e3 04       		.byte	0x4
 1494 09e4 BD090000 		.4byte	0x9bd
 1495 09e8 07       		.uleb128 0x7
 1496 09e9 610E0000 		.4byte	.LASF140
 1497 09ed 10       		.byte	0x10
 1498 09ee 0F       		.byte	0xf
 1499 09ef 39       		.byte	0x39
 1500 09f0 190A0000 		.4byte	0xa19
 1501 09f4 08       		.uleb128 0x8
 1502 09f5 0A080000 		.4byte	.LASF141
 1503 09f9 0F       		.byte	0xf
 1504 09fa 3A       		.byte	0x3a
 1505 09fb 94020000 		.4byte	0x294
 1506 09ff 00       		.byte	0
 1507 0a00 08       		.uleb128 0x8
 1508 0a01 45010000 		.4byte	.LASF142
 1509 0a05 0F       		.byte	0xf
 1510 0a06 3C       		.byte	0x3c
 1511 0a07 6A020000 		.4byte	0x26a
 1512 0a0b 08       		.byte	0x8
 1513 0a0c 08       		.uleb128 0x8
 1514 0a0d 17110000 		.4byte	.LASF143
 1515 0a11 0F       		.byte	0xf
 1516 0a12 3E       		.byte	0x3e
 1517 0a13 6E0B0000 		.4byte	0xb6e
 1518 0a17 0C       		.byte	0xc
 1519 0a18 00       		.byte	0
 1520 0a19 0B       		.uleb128 0xb
 1521 0a1a 04       		.byte	0x4
 1522 0a1b E8090000 		.4byte	0x9e8
 1523 0a1f 0B       		.uleb128 0xb
 1524 0a20 04       		.byte	0x4
 1525 0a21 310A0000 		.4byte	0xa31
 1526 0a25 04       		.uleb128 0x4
 1527 0a26 1F0A0000 		.4byte	0xa1f
 1528 0a2a 05       		.uleb128 0x5
 1529 0a2b 01       		.byte	0x1
 1530 0a2c 08       		.byte	0x8
 1531 0a2d F8030000 		.4byte	.LASF144
 1532 0a31 06       		.uleb128 0x6
 1533 0a32 2A0A0000 		.4byte	0xa2a
 1534 0a36 0B       		.uleb128 0xb
 1535 0a37 04       		.byte	0x4
 1536 0a38 49030000 		.4byte	0x349
 1537 0a3c 11       		.uleb128 0x11
 1538 0a3d CF070000 		.4byte	0x7cf
 1539 0a41 4C0A0000 		.4byte	0xa4c
ARM GAS  /tmp/ccKyNeCd.s 			page 28


 1540 0a45 12       		.uleb128 0x12
 1541 0a46 3C000000 		.4byte	0x3c
 1542 0a4a 2B       		.byte	0x2b
 1543 0a4b 00       		.byte	0
 1544 0a4c 1B       		.uleb128 0x1b
 1545 0a4d 636800   		.ascii	"ch\000"
 1546 0a50 07       		.byte	0x7
 1547 0a51 0902     		.2byte	0x209
 1548 0a53 16040000 		.4byte	0x416
 1549 0a57 18       		.uleb128 0x18
 1550 0a58 16       		.byte	0x16
 1551 0a59 10       		.byte	0x10
 1552 0a5a 34       		.byte	0x34
 1553 0a5b 380B0000 		.4byte	0xb38
 1554 0a5f 08       		.uleb128 0x8
 1555 0a60 51000000 		.4byte	.LASF145
 1556 0a64 10       		.byte	0x10
 1557 0a65 35       		.byte	0x35
 1558 0a66 380B0000 		.4byte	0xb38
 1559 0a6a 00       		.byte	0
 1560 0a6b 08       		.uleb128 0x8
 1561 0a6c DF0C0000 		.4byte	.LASF146
 1562 0a70 10       		.byte	0x10
 1563 0a71 36       		.byte	0x36
 1564 0a72 B9000000 		.4byte	0xb9
 1565 0a76 04       		.byte	0x4
 1566 0a77 08       		.uleb128 0x8
 1567 0a78 90100000 		.4byte	.LASF147
 1568 0a7c 10       		.byte	0x10
 1569 0a7d 37       		.byte	0x37
 1570 0a7e B9000000 		.4byte	0xb9
 1571 0a82 05       		.byte	0x5
 1572 0a83 08       		.uleb128 0x8
 1573 0a84 FF070000 		.4byte	.LASF148
 1574 0a88 10       		.byte	0x10
 1575 0a89 38       		.byte	0x38
 1576 0a8a C9000000 		.4byte	0xc9
 1577 0a8e 06       		.byte	0x6
 1578 0a8f 08       		.uleb128 0x8
 1579 0a90 13010000 		.4byte	.LASF149
 1580 0a94 10       		.byte	0x10
 1581 0a95 39       		.byte	0x39
 1582 0a96 B9000000 		.4byte	0xb9
 1583 0a9a 08       		.byte	0x8
 1584 0a9b 08       		.uleb128 0x8
 1585 0a9c 30090000 		.4byte	.LASF150
 1586 0aa0 10       		.byte	0x10
 1587 0aa1 3A       		.byte	0x3a
 1588 0aa2 B9000000 		.4byte	0xb9
 1589 0aa6 09       		.byte	0x9
 1590 0aa7 08       		.uleb128 0x8
 1591 0aa8 8C010000 		.4byte	.LASF151
 1592 0aac 10       		.byte	0x10
 1593 0aad 3B       		.byte	0x3b
 1594 0aae B9000000 		.4byte	0xb9
 1595 0ab2 0A       		.byte	0xa
 1596 0ab3 08       		.uleb128 0x8
ARM GAS  /tmp/ccKyNeCd.s 			page 29


 1597 0ab4 91040000 		.4byte	.LASF152
 1598 0ab8 10       		.byte	0x10
 1599 0ab9 3C       		.byte	0x3c
 1600 0aba B9000000 		.4byte	0xb9
 1601 0abe 0B       		.byte	0xb
 1602 0abf 08       		.uleb128 0x8
 1603 0ac0 9D000000 		.4byte	.LASF153
 1604 0ac4 10       		.byte	0x10
 1605 0ac5 3D       		.byte	0x3d
 1606 0ac6 B9000000 		.4byte	0xb9
 1607 0aca 0C       		.byte	0xc
 1608 0acb 08       		.uleb128 0x8
 1609 0acc 52040000 		.4byte	.LASF154
 1610 0ad0 10       		.byte	0x10
 1611 0ad1 3E       		.byte	0x3e
 1612 0ad2 B9000000 		.4byte	0xb9
 1613 0ad6 0D       		.byte	0xd
 1614 0ad7 08       		.uleb128 0x8
 1615 0ad8 D80E0000 		.4byte	.LASF155
 1616 0adc 10       		.byte	0x10
 1617 0add 3F       		.byte	0x3f
 1618 0ade B9000000 		.4byte	0xb9
 1619 0ae2 0E       		.byte	0xe
 1620 0ae3 08       		.uleb128 0x8
 1621 0ae4 26000000 		.4byte	.LASF156
 1622 0ae8 10       		.byte	0x10
 1623 0ae9 40       		.byte	0x40
 1624 0aea B9000000 		.4byte	0xb9
 1625 0aee 0F       		.byte	0xf
 1626 0aef 08       		.uleb128 0x8
 1627 0af0 660F0000 		.4byte	.LASF157
 1628 0af4 10       		.byte	0x10
 1629 0af5 41       		.byte	0x41
 1630 0af6 B9000000 		.4byte	0xb9
 1631 0afa 10       		.byte	0x10
 1632 0afb 08       		.uleb128 0x8
 1633 0afc F2010000 		.4byte	.LASF158
 1634 0b00 10       		.byte	0x10
 1635 0b01 43       		.byte	0x43
 1636 0b02 B9000000 		.4byte	0xb9
 1637 0b06 11       		.byte	0x11
 1638 0b07 08       		.uleb128 0x8
 1639 0b08 570B0000 		.4byte	.LASF159
 1640 0b0c 10       		.byte	0x10
 1641 0b0d 44       		.byte	0x44
 1642 0b0e B9000000 		.4byte	0xb9
 1643 0b12 12       		.byte	0x12
 1644 0b13 08       		.uleb128 0x8
 1645 0b14 9D090000 		.4byte	.LASF160
 1646 0b18 10       		.byte	0x10
 1647 0b19 45       		.byte	0x45
 1648 0b1a B9000000 		.4byte	0xb9
 1649 0b1e 13       		.byte	0x13
 1650 0b1f 08       		.uleb128 0x8
 1651 0b20 84070000 		.4byte	.LASF161
 1652 0b24 10       		.byte	0x10
 1653 0b25 46       		.byte	0x46
ARM GAS  /tmp/ccKyNeCd.s 			page 30


 1654 0b26 B9000000 		.4byte	0xb9
 1655 0b2a 14       		.byte	0x14
 1656 0b2b 08       		.uleb128 0x8
 1657 0b2c 5F0A0000 		.4byte	.LASF162
 1658 0b30 10       		.byte	0x10
 1659 0b31 48       		.byte	0x48
 1660 0b32 B9000000 		.4byte	0xb9
 1661 0b36 15       		.byte	0x15
 1662 0b37 00       		.byte	0
 1663 0b38 11       		.uleb128 0x11
 1664 0b39 2A0A0000 		.4byte	0xa2a
 1665 0b3d 480B0000 		.4byte	0xb48
 1666 0b41 12       		.uleb128 0x12
 1667 0b42 3C000000 		.4byte	0x3c
 1668 0b46 03       		.byte	0x3
 1669 0b47 00       		.byte	0
 1670 0b48 03       		.uleb128 0x3
 1671 0b49 74100000 		.4byte	.LASF163
 1672 0b4d 10       		.byte	0x10
 1673 0b4e 49       		.byte	0x49
 1674 0b4f 570A0000 		.4byte	0xa57
 1675 0b53 06       		.uleb128 0x6
 1676 0b54 480B0000 		.4byte	0xb48
 1677 0b58 14       		.uleb128 0x14
 1678 0b59 6D000000 		.4byte	.LASF164
 1679 0b5d 10       		.byte	0x10
 1680 0b5e 6E       		.byte	0x6e
 1681 0b5f 530B0000 		.4byte	0xb53
 1682 0b63 03       		.uleb128 0x3
 1683 0b64 560F0000 		.4byte	.LASF165
 1684 0b68 0F       		.byte	0xf
 1685 0b69 34       		.byte	0x34
 1686 0b6a E8090000 		.4byte	0x9e8
 1687 0b6e 0B       		.uleb128 0xb
 1688 0b6f 04       		.byte	0x4
 1689 0b70 630B0000 		.4byte	0xb63
 1690 0b74 03       		.uleb128 0x3
 1691 0b75 ED0E0000 		.4byte	.LASF166
 1692 0b79 11       		.byte	0x11
 1693 0b7a 3F       		.byte	0x3f
 1694 0b7b 7F0B0000 		.4byte	0xb7f
 1695 0b7f 07       		.uleb128 0x7
 1696 0b80 74020000 		.4byte	.LASF167
 1697 0b84 24       		.byte	0x24
 1698 0b85 11       		.byte	0x11
 1699 0b86 4D       		.byte	0x4d
 1700 0b87 EC0B0000 		.4byte	0xbec
 1701 0b8b 08       		.uleb128 0x8
 1702 0b8c 7E0D0000 		.4byte	.LASF168
 1703 0b90 11       		.byte	0x11
 1704 0b91 4E       		.byte	0x4e
 1705 0b92 94020000 		.4byte	0x294
 1706 0b96 00       		.byte	0
 1707 0b97 08       		.uleb128 0x8
 1708 0b98 E6050000 		.4byte	.LASF169
 1709 0b9c 11       		.byte	0x11
 1710 0b9d 4F       		.byte	0x4f
ARM GAS  /tmp/ccKyNeCd.s 			page 31


 1711 0b9e 37000000 		.4byte	0x37
 1712 0ba2 08       		.byte	0x8
 1713 0ba3 08       		.uleb128 0x8
 1714 0ba4 9A010000 		.4byte	.LASF170
 1715 0ba8 11       		.byte	0x11
 1716 0ba9 50       		.byte	0x50
 1717 0baa 0E0C0000 		.4byte	0xc0e
 1718 0bae 0C       		.byte	0xc
 1719 0baf 08       		.uleb128 0x8
 1720 0bb0 75010000 		.4byte	.LASF171
 1721 0bb4 11       		.byte	0x11
 1722 0bb5 51       		.byte	0x51
 1723 0bb6 0E0C0000 		.4byte	0xc0e
 1724 0bba 10       		.byte	0x10
 1725 0bbb 08       		.uleb128 0x8
 1726 0bbc F8060000 		.4byte	.LASF172
 1727 0bc0 11       		.byte	0x11
 1728 0bc1 53       		.byte	0x53
 1729 0bc2 0E0C0000 		.4byte	0xc0e
 1730 0bc6 14       		.byte	0x14
 1731 0bc7 08       		.uleb128 0x8
 1732 0bc8 EA010000 		.4byte	.LASF173
 1733 0bcc 11       		.byte	0x11
 1734 0bcd 54       		.byte	0x54
 1735 0bce 0E0C0000 		.4byte	0xc0e
 1736 0bd2 18       		.byte	0x18
 1737 0bd3 08       		.uleb128 0x8
 1738 0bd4 BE010000 		.4byte	.LASF174
 1739 0bd8 11       		.byte	0x11
 1740 0bd9 55       		.byte	0x55
 1741 0bda EC0B0000 		.4byte	0xbec
 1742 0bde 1C       		.byte	0x1c
 1743 0bdf 08       		.uleb128 0x8
 1744 0be0 B6020000 		.4byte	.LASF175
 1745 0be4 11       		.byte	0x11
 1746 0be5 56       		.byte	0x56
 1747 0be6 47030000 		.4byte	0x347
 1748 0bea 20       		.byte	0x20
 1749 0beb 00       		.byte	0
 1750 0bec 03       		.uleb128 0x3
 1751 0bed 9D080000 		.4byte	.LASF176
 1752 0bf1 11       		.byte	0x11
 1753 0bf2 42       		.byte	0x42
 1754 0bf3 F70B0000 		.4byte	0xbf7
 1755 0bf7 0B       		.uleb128 0xb
 1756 0bf8 04       		.byte	0x4
 1757 0bf9 FD0B0000 		.4byte	0xbfd
 1758 0bfd 0D       		.uleb128 0xd
 1759 0bfe 080C0000 		.4byte	0xc08
 1760 0c02 0E       		.uleb128 0xe
 1761 0c03 080C0000 		.4byte	0xc08
 1762 0c07 00       		.byte	0
 1763 0c08 0B       		.uleb128 0xb
 1764 0c09 04       		.byte	0x4
 1765 0c0a 740B0000 		.4byte	0xb74
 1766 0c0e 0B       		.uleb128 0xb
 1767 0c0f 04       		.byte	0x4
ARM GAS  /tmp/ccKyNeCd.s 			page 32


 1768 0c10 B9000000 		.4byte	0xb9
 1769 0c14 03       		.uleb128 0x3
 1770 0c15 0A100000 		.4byte	.LASF177
 1771 0c19 11       		.byte	0x11
 1772 0c1a 64       		.byte	0x64
 1773 0c1b 740B0000 		.4byte	0xb74
 1774 0c1f 03       		.uleb128 0x3
 1775 0c20 98100000 		.4byte	.LASF178
 1776 0c24 11       		.byte	0x11
 1777 0c25 71       		.byte	0x71
 1778 0c26 740B0000 		.4byte	0xb74
 1779 0c2a 0B       		.uleb128 0xb
 1780 0c2b 04       		.byte	0x4
 1781 0c2c C4000000 		.4byte	0xc4
 1782 0c30 18       		.uleb128 0x18
 1783 0c31 0C       		.byte	0xc
 1784 0c32 12       		.byte	0x12
 1785 0c33 DA       		.byte	0xda
 1786 0c34 750C0000 		.4byte	0xc75
 1787 0c38 08       		.uleb128 0x8
 1788 0c39 7B010000 		.4byte	.LASF179
 1789 0c3d 12       		.byte	0x12
 1790 0c3e DB       		.byte	0xdb
 1791 0c3f 750C0000 		.4byte	0xc75
 1792 0c43 00       		.byte	0
 1793 0c44 08       		.uleb128 0x8
 1794 0c45 D0100000 		.4byte	.LASF180
 1795 0c49 12       		.byte	0x12
 1796 0c4a DC       		.byte	0xdc
 1797 0c4b 7B0C0000 		.4byte	0xc7b
 1798 0c4f 04       		.byte	0x4
 1799 0c50 08       		.uleb128 0x8
 1800 0c51 03040000 		.4byte	.LASF181
 1801 0c55 12       		.byte	0x12
 1802 0c56 DD       		.byte	0xdd
 1803 0c57 B9000000 		.4byte	0xb9
 1804 0c5b 08       		.byte	0x8
 1805 0c5c 08       		.uleb128 0x8
 1806 0c5d B90A0000 		.4byte	.LASF182
 1807 0c61 12       		.byte	0x12
 1808 0c62 DF       		.byte	0xdf
 1809 0c63 B9000000 		.4byte	0xb9
 1810 0c67 09       		.byte	0x9
 1811 0c68 08       		.uleb128 0x8
 1812 0c69 960C0000 		.4byte	.LASF183
 1813 0c6d 12       		.byte	0x12
 1814 0c6e E0       		.byte	0xe0
 1815 0c6f B9000000 		.4byte	0xb9
 1816 0c73 0A       		.byte	0xa
 1817 0c74 00       		.byte	0
 1818 0c75 0B       		.uleb128 0xb
 1819 0c76 04       		.byte	0x4
 1820 0c77 FB040000 		.4byte	0x4fb
 1821 0c7b 0B       		.uleb128 0xb
 1822 0c7c 04       		.byte	0x4
 1823 0c7d F4000000 		.4byte	0xf4
 1824 0c81 03       		.uleb128 0x3
ARM GAS  /tmp/ccKyNeCd.s 			page 33


 1825 0c82 05000000 		.4byte	.LASF184
 1826 0c86 12       		.byte	0x12
 1827 0c87 E1       		.byte	0xe1
 1828 0c88 300C0000 		.4byte	0xc30
 1829 0c8c 06       		.uleb128 0x6
 1830 0c8d 810C0000 		.4byte	0xc81
 1831 0c91 11       		.uleb128 0x11
 1832 0c92 8C0C0000 		.4byte	0xc8c
 1833 0c96 A10C0000 		.4byte	0xca1
 1834 0c9a 12       		.uleb128 0x12
 1835 0c9b 3C000000 		.4byte	0x3c
 1836 0c9f 0F       		.byte	0xf
 1837 0ca0 00       		.byte	0
 1838 0ca1 06       		.uleb128 0x6
 1839 0ca2 910C0000 		.4byte	0xc91
 1840 0ca6 13       		.uleb128 0x13
 1841 0ca7 B0060000 		.4byte	.LASF185
 1842 0cab 12       		.byte	0x12
 1843 0cac BB01     		.2byte	0x1bb
 1844 0cae A10C0000 		.4byte	0xca1
 1845 0cb2 05       		.uleb128 0x5
 1846 0cb3 01       		.byte	0x1
 1847 0cb4 02       		.byte	0x2
 1848 0cb5 C9030000 		.4byte	.LASF186
 1849 0cb9 18       		.uleb128 0x18
 1850 0cba 1C       		.byte	0x1c
 1851 0cbb 13       		.byte	0x13
 1852 0cbc C1       		.byte	0xc1
 1853 0cbd 160D0000 		.4byte	0xd16
 1854 0cc1 08       		.uleb128 0x8
 1855 0cc2 FD030000 		.4byte	.LASF187
 1856 0cc6 13       		.byte	0x13
 1857 0cc7 C3       		.byte	0xc3
 1858 0cc8 E9000000 		.4byte	0xe9
 1859 0ccc 00       		.byte	0
 1860 0ccd 08       		.uleb128 0x8
 1861 0cce 4D060000 		.4byte	.LASF188
 1862 0cd2 13       		.byte	0x13
 1863 0cd3 C5       		.byte	0xc5
 1864 0cd4 E9000000 		.4byte	0xe9
 1865 0cd8 04       		.byte	0x4
 1866 0cd9 08       		.uleb128 0x8
 1867 0cda A8050000 		.4byte	.LASF189
 1868 0cde 13       		.byte	0x13
 1869 0cdf C7       		.byte	0xc7
 1870 0ce0 E9000000 		.4byte	0xe9
 1871 0ce4 08       		.byte	0x8
 1872 0ce5 08       		.uleb128 0x8
 1873 0ce6 76070000 		.4byte	.LASF190
 1874 0cea 13       		.byte	0x13
 1875 0ceb C9       		.byte	0xc9
 1876 0cec E9000000 		.4byte	0xe9
 1877 0cf0 0C       		.byte	0xc
 1878 0cf1 17       		.uleb128 0x17
 1879 0cf2 6F647200 		.ascii	"odr\000"
 1880 0cf6 13       		.byte	0x13
 1881 0cf7 CB       		.byte	0xcb
ARM GAS  /tmp/ccKyNeCd.s 			page 34


 1882 0cf8 E9000000 		.4byte	0xe9
 1883 0cfc 10       		.byte	0x10
 1884 0cfd 08       		.uleb128 0x8
 1885 0cfe B3090000 		.4byte	.LASF191
 1886 0d02 13       		.byte	0x13
 1887 0d03 CD       		.byte	0xcd
 1888 0d04 E9000000 		.4byte	0xe9
 1889 0d08 14       		.byte	0x14
 1890 0d09 08       		.uleb128 0x8
 1891 0d0a 01060000 		.4byte	.LASF192
 1892 0d0e 13       		.byte	0x13
 1893 0d0f CF       		.byte	0xcf
 1894 0d10 E9000000 		.4byte	0xe9
 1895 0d14 18       		.byte	0x18
 1896 0d15 00       		.byte	0
 1897 0d16 03       		.uleb128 0x3
 1898 0d17 32010000 		.4byte	.LASF193
 1899 0d1b 13       		.byte	0x13
 1900 0d1c D0       		.byte	0xd0
 1901 0d1d B90C0000 		.4byte	0xcb9
 1902 0d21 18       		.uleb128 0x18
 1903 0d22 FC       		.byte	0xfc
 1904 0d23 13       		.byte	0x13
 1905 0d24 D9       		.byte	0xd9
 1906 0d25 960D0000 		.4byte	0xd96
 1907 0d29 08       		.uleb128 0x8
 1908 0d2a EC0A0000 		.4byte	.LASF194
 1909 0d2e 13       		.byte	0x13
 1910 0d2f DC       		.byte	0xdc
 1911 0d30 160D0000 		.4byte	0xd16
 1912 0d34 00       		.byte	0
 1913 0d35 08       		.uleb128 0x8
 1914 0d36 87080000 		.4byte	.LASF195
 1915 0d3a 13       		.byte	0x13
 1916 0d3b E0       		.byte	0xe0
 1917 0d3c 160D0000 		.4byte	0xd16
 1918 0d40 1C       		.byte	0x1c
 1919 0d41 08       		.uleb128 0x8
 1920 0d42 BD050000 		.4byte	.LASF196
 1921 0d46 13       		.byte	0x13
 1922 0d47 E4       		.byte	0xe4
 1923 0d48 160D0000 		.4byte	0xd16
 1924 0d4c 38       		.byte	0x38
 1925 0d4d 08       		.uleb128 0x8
 1926 0d4e 6A030000 		.4byte	.LASF197
 1927 0d52 13       		.byte	0x13
 1928 0d53 E8       		.byte	0xe8
 1929 0d54 160D0000 		.4byte	0xd16
 1930 0d58 54       		.byte	0x54
 1931 0d59 08       		.uleb128 0x8
 1932 0d5a 04010000 		.4byte	.LASF198
 1933 0d5e 13       		.byte	0x13
 1934 0d5f EC       		.byte	0xec
 1935 0d60 160D0000 		.4byte	0xd16
 1936 0d64 70       		.byte	0x70
 1937 0d65 08       		.uleb128 0x8
 1938 0d66 24100000 		.4byte	.LASF199
ARM GAS  /tmp/ccKyNeCd.s 			page 35


 1939 0d6a 13       		.byte	0x13
 1940 0d6b F0       		.byte	0xf0
 1941 0d6c 160D0000 		.4byte	0xd16
 1942 0d70 8C       		.byte	0x8c
 1943 0d71 08       		.uleb128 0x8
 1944 0d72 770D0000 		.4byte	.LASF200
 1945 0d76 13       		.byte	0x13
 1946 0d77 F4       		.byte	0xf4
 1947 0d78 160D0000 		.4byte	0xd16
 1948 0d7c A8       		.byte	0xa8
 1949 0d7d 08       		.uleb128 0x8
 1950 0d7e 70090000 		.4byte	.LASF201
 1951 0d82 13       		.byte	0x13
 1952 0d83 F8       		.byte	0xf8
 1953 0d84 160D0000 		.4byte	0xd16
 1954 0d88 C4       		.byte	0xc4
 1955 0d89 08       		.uleb128 0x8
 1956 0d8a 1A070000 		.4byte	.LASF202
 1957 0d8e 13       		.byte	0x13
 1958 0d8f FC       		.byte	0xfc
 1959 0d90 160D0000 		.4byte	0xd16
 1960 0d94 E0       		.byte	0xe0
 1961 0d95 00       		.byte	0
 1962 0d96 03       		.uleb128 0x3
 1963 0d97 100F0000 		.4byte	.LASF203
 1964 0d9b 13       		.byte	0x13
 1965 0d9c FE       		.byte	0xfe
 1966 0d9d 210D0000 		.4byte	0xd21
 1967 0da1 06       		.uleb128 0x6
 1968 0da2 960D0000 		.4byte	0xd96
 1969 0da6 13       		.uleb128 0x13
 1970 0da7 A3020000 		.4byte	.LASF204
 1971 0dab 13       		.byte	0x13
 1972 0dac DA01     		.2byte	0x1da
 1973 0dae A10D0000 		.4byte	0xda1
 1974 0db2 1C       		.uleb128 0x1c
 1975 0db3 07       		.byte	0x7
 1976 0db4 01       		.byte	0x1
 1977 0db5 63000000 		.4byte	0x63
 1978 0db9 14       		.byte	0x14
 1979 0dba 3D       		.byte	0x3d
 1980 0dbb D20D0000 		.4byte	0xdd2
 1981 0dbf 1D       		.uleb128 0x1d
 1982 0dc0 27070000 		.4byte	.LASF205
 1983 0dc4 00       		.byte	0
 1984 0dc5 1D       		.uleb128 0x1d
 1985 0dc6 3C000000 		.4byte	.LASF206
 1986 0dca 01       		.byte	0x1
 1987 0dcb 1D       		.uleb128 0x1d
 1988 0dcc F1100000 		.4byte	.LASF207
 1989 0dd0 02       		.byte	0x2
 1990 0dd1 00       		.byte	0
 1991 0dd2 03       		.uleb128 0x3
 1992 0dd3 B10E0000 		.4byte	.LASF208
 1993 0dd7 14       		.byte	0x14
 1994 0dd8 41       		.byte	0x41
 1995 0dd9 B20D0000 		.4byte	0xdb2
ARM GAS  /tmp/ccKyNeCd.s 			page 36


 1996 0ddd 1C       		.uleb128 0x1c
 1997 0dde 07       		.byte	0x7
 1998 0ddf 01       		.byte	0x1
 1999 0de0 63000000 		.4byte	0x63
 2000 0de4 14       		.byte	0x14
 2001 0de5 46       		.byte	0x46
 2002 0de6 FD0D0000 		.4byte	0xdfd
 2003 0dea 1D       		.uleb128 0x1d
 2004 0deb BA0F0000 		.4byte	.LASF209
 2005 0def 00       		.byte	0
 2006 0df0 1D       		.uleb128 0x1d
 2007 0df1 B8090000 		.4byte	.LASF210
 2008 0df5 01       		.byte	0x1
 2009 0df6 1D       		.uleb128 0x1d
 2010 0df7 200D0000 		.4byte	.LASF211
 2011 0dfb 02       		.byte	0x2
 2012 0dfc 00       		.byte	0
 2013 0dfd 03       		.uleb128 0x3
 2014 0dfe 87020000 		.4byte	.LASF212
 2015 0e02 14       		.byte	0x14
 2016 0e03 4A       		.byte	0x4a
 2017 0e04 DD0D0000 		.4byte	0xddd
 2018 0e08 1C       		.uleb128 0x1c
 2019 0e09 07       		.byte	0x7
 2020 0e0a 01       		.byte	0x1
 2021 0e0b 63000000 		.4byte	0x63
 2022 0e0f 14       		.byte	0x14
 2023 0e10 4F       		.byte	0x4f
 2024 0e11 280E0000 		.4byte	0xe28
 2025 0e15 1D       		.uleb128 0x1d
 2026 0e16 C40D0000 		.4byte	.LASF213
 2027 0e1a 00       		.byte	0
 2028 0e1b 1D       		.uleb128 0x1d
 2029 0e1c 040B0000 		.4byte	.LASF214
 2030 0e20 01       		.byte	0x1
 2031 0e21 1D       		.uleb128 0x1d
 2032 0e22 4E070000 		.4byte	.LASF215
 2033 0e26 02       		.byte	0x2
 2034 0e27 00       		.byte	0
 2035 0e28 03       		.uleb128 0x3
 2036 0e29 310D0000 		.4byte	.LASF216
 2037 0e2d 14       		.byte	0x14
 2038 0e2e 53       		.byte	0x53
 2039 0e2f 080E0000 		.4byte	0xe08
 2040 0e33 16       		.uleb128 0x16
 2041 0e34 B1080000 		.4byte	.LASF217
 2042 0e38 15       		.byte	0x15
 2043 0e39 B101     		.2byte	0x1b1
 2044 0e3b E9000000 		.4byte	0xe9
 2045 0e3f 16       		.uleb128 0x16
 2046 0e40 CF010000 		.4byte	.LASF218
 2047 0e44 15       		.byte	0x15
 2048 0e45 B601     		.2byte	0x1b6
 2049 0e47 4B0E0000 		.4byte	0xe4b
 2050 0e4b 0C       		.uleb128 0xc
 2051 0e4c CF010000 		.4byte	.LASF218
 2052 0e50 1C       		.byte	0x1c
ARM GAS  /tmp/ccKyNeCd.s 			page 37


 2053 0e51 15       		.byte	0x15
 2054 0e52 FE01     		.2byte	0x1fe
 2055 0e54 CE0E0000 		.4byte	0xece
 2056 0e58 0A       		.uleb128 0xa
 2057 0e59 F6000000 		.4byte	.LASF219
 2058 0e5d 15       		.byte	0x15
 2059 0e5e 0202     		.2byte	0x202
 2060 0e60 D20D0000 		.4byte	0xdd2
 2061 0e64 00       		.byte	0
 2062 0e65 0A       		.uleb128 0xa
 2063 0e66 64020000 		.4byte	.LASF220
 2064 0e6a 15       		.byte	0x15
 2065 0e6b 0602     		.2byte	0x206
 2066 0e6d FD0D0000 		.4byte	0xdfd
 2067 0e71 01       		.byte	0x1
 2068 0e72 0A       		.uleb128 0xa
 2069 0e73 0B010000 		.4byte	.LASF221
 2070 0e77 15       		.byte	0x15
 2071 0e78 0A02     		.2byte	0x20a
 2072 0e7a 280E0000 		.4byte	0xe28
 2073 0e7e 02       		.byte	0x2
 2074 0e7f 0A       		.uleb128 0xa
 2075 0e80 EF000000 		.4byte	.LASF222
 2076 0e84 15       		.byte	0x15
 2077 0e85 0E02     		.2byte	0x20e
 2078 0e87 C50F0000 		.4byte	0xfc5
 2079 0e8b 04       		.byte	0x4
 2080 0e8c 0A       		.uleb128 0xa
 2081 0e8d 9D020000 		.4byte	.LASF223
 2082 0e91 15       		.byte	0x15
 2083 0e92 1602     		.2byte	0x216
 2084 0e94 CB0F0000 		.4byte	0xfcb
 2085 0e98 08       		.byte	0x8
 2086 0e99 0A       		.uleb128 0xa
 2087 0e9a 06020000 		.4byte	.LASF224
 2088 0e9e 15       		.byte	0x15
 2089 0e9f 1A02     		.2byte	0x21a
 2090 0ea1 E9000000 		.4byte	0xe9
 2091 0ea5 0C       		.byte	0xc
 2092 0ea6 0A       		.uleb128 0xa
 2093 0ea7 93070000 		.4byte	.LASF225
 2094 0eab 15       		.byte	0x15
 2095 0eac 1E02     		.2byte	0x21e
 2096 0eae D10F0000 		.4byte	0xfd1
 2097 0eb2 10       		.byte	0x10
 2098 0eb3 0A       		.uleb128 0xa
 2099 0eb4 BD080000 		.4byte	.LASF226
 2100 0eb8 15       		.byte	0x15
 2101 0eb9 2202     		.2byte	0x222
 2102 0ebb D10F0000 		.4byte	0xfd1
 2103 0ebf 14       		.byte	0x14
 2104 0ec0 0A       		.uleb128 0xa
 2105 0ec1 140A0000 		.4byte	.LASF227
 2106 0ec5 15       		.byte	0x15
 2107 0ec6 2602     		.2byte	0x226
 2108 0ec8 D4000000 		.4byte	0xd4
 2109 0ecc 18       		.byte	0x18
ARM GAS  /tmp/ccKyNeCd.s 			page 38


 2110 0ecd 00       		.byte	0
 2111 0ece 16       		.uleb128 0x16
 2112 0ecf C70F0000 		.4byte	.LASF228
 2113 0ed3 15       		.byte	0x15
 2114 0ed4 BD01     		.2byte	0x1bd
 2115 0ed6 DA0E0000 		.4byte	0xeda
 2116 0eda 0B       		.uleb128 0xb
 2117 0edb 04       		.byte	0x4
 2118 0edc E00E0000 		.4byte	0xee0
 2119 0ee0 0D       		.uleb128 0xd
 2120 0ee1 EB0E0000 		.4byte	0xeeb
 2121 0ee5 0E       		.uleb128 0xe
 2122 0ee6 EB0E0000 		.4byte	0xeeb
 2123 0eea 00       		.byte	0
 2124 0eeb 0B       		.uleb128 0xb
 2125 0eec 04       		.byte	0x4
 2126 0eed 3F0E0000 		.4byte	0xe3f
 2127 0ef1 16       		.uleb128 0x16
 2128 0ef2 680D0000 		.4byte	.LASF229
 2129 0ef6 15       		.byte	0x15
 2130 0ef7 C501     		.2byte	0x1c5
 2131 0ef9 FD0E0000 		.4byte	0xefd
 2132 0efd 0B       		.uleb128 0xb
 2133 0efe 04       		.byte	0x4
 2134 0eff 030F0000 		.4byte	0xf03
 2135 0f03 0D       		.uleb128 0xd
 2136 0f04 130F0000 		.4byte	0xf13
 2137 0f08 0E       		.uleb128 0xe
 2138 0f09 EB0E0000 		.4byte	0xeeb
 2139 0f0d 0E       		.uleb128 0xe
 2140 0f0e C9000000 		.4byte	0xc9
 2141 0f12 00       		.byte	0
 2142 0f13 16       		.uleb128 0x16
 2143 0f14 00070000 		.4byte	.LASF230
 2144 0f18 15       		.byte	0x15
 2145 0f19 CD01     		.2byte	0x1cd
 2146 0f1b 1F0F0000 		.4byte	0xf1f
 2147 0f1f 0B       		.uleb128 0xb
 2148 0f20 04       		.byte	0x4
 2149 0f21 250F0000 		.4byte	0xf25
 2150 0f25 0D       		.uleb128 0xd
 2151 0f26 350F0000 		.4byte	0xf35
 2152 0f2a 0E       		.uleb128 0xe
 2153 0f2b EB0E0000 		.4byte	0xeeb
 2154 0f2f 0E       		.uleb128 0xe
 2155 0f30 330E0000 		.4byte	0xe33
 2156 0f34 00       		.byte	0
 2157 0f35 15       		.uleb128 0x15
 2158 0f36 20       		.byte	0x20
 2159 0f37 15       		.byte	0x15
 2160 0f38 D301     		.2byte	0x1d3
 2161 0f3a B40F0000 		.4byte	0xfb4
 2162 0f3e 0A       		.uleb128 0xa
 2163 0f3f BA0D0000 		.4byte	.LASF231
 2164 0f43 15       		.byte	0x15
 2165 0f44 D701     		.2byte	0x1d7
 2166 0f46 CE0E0000 		.4byte	0xece
ARM GAS  /tmp/ccKyNeCd.s 			page 39


 2167 0f4a 00       		.byte	0
 2168 0f4b 0A       		.uleb128 0xa
 2169 0f4c C3060000 		.4byte	.LASF232
 2170 0f50 15       		.byte	0x15
 2171 0f51 DB01     		.2byte	0x1db
 2172 0f53 CE0E0000 		.4byte	0xece
 2173 0f57 04       		.byte	0x4
 2174 0f58 0A       		.uleb128 0xa
 2175 0f59 29010000 		.4byte	.LASF233
 2176 0f5d 15       		.byte	0x15
 2177 0f5e DF01     		.2byte	0x1df
 2178 0f60 CE0E0000 		.4byte	0xece
 2179 0f64 08       		.byte	0x8
 2180 0f65 0A       		.uleb128 0xa
 2181 0f66 31050000 		.4byte	.LASF234
 2182 0f6a 15       		.byte	0x15
 2183 0f6b E301     		.2byte	0x1e3
 2184 0f6d F10E0000 		.4byte	0xef1
 2185 0f71 0C       		.byte	0xc
 2186 0f72 0A       		.uleb128 0xa
 2187 0f73 E3080000 		.4byte	.LASF235
 2188 0f77 15       		.byte	0x15
 2189 0f78 E701     		.2byte	0x1e7
 2190 0f7a 130F0000 		.4byte	0xf13
 2191 0f7e 10       		.byte	0x10
 2192 0f7f 0A       		.uleb128 0xa
 2193 0f80 6A050000 		.4byte	.LASF236
 2194 0f84 15       		.byte	0x15
 2195 0f85 EC01     		.2byte	0x1ec
 2196 0f87 E9000000 		.4byte	0xe9
 2197 0f8b 14       		.byte	0x14
 2198 0f8c 09       		.uleb128 0x9
 2199 0f8d 63723100 		.ascii	"cr1\000"
 2200 0f91 15       		.byte	0x15
 2201 0f92 F001     		.2byte	0x1f0
 2202 0f94 C9000000 		.4byte	0xc9
 2203 0f98 18       		.byte	0x18
 2204 0f99 09       		.uleb128 0x9
 2205 0f9a 63723200 		.ascii	"cr2\000"
 2206 0f9e 15       		.byte	0x15
 2207 0f9f F401     		.2byte	0x1f4
 2208 0fa1 C9000000 		.4byte	0xc9
 2209 0fa5 1A       		.byte	0x1a
 2210 0fa6 09       		.uleb128 0x9
 2211 0fa7 63723300 		.ascii	"cr3\000"
 2212 0fab 15       		.byte	0x15
 2213 0fac F801     		.2byte	0x1f8
 2214 0fae C9000000 		.4byte	0xc9
 2215 0fb2 1C       		.byte	0x1c
 2216 0fb3 00       		.byte	0
 2217 0fb4 16       		.uleb128 0x16
 2218 0fb5 33060000 		.4byte	.LASF237
 2219 0fb9 15       		.byte	0x15
 2220 0fba F901     		.2byte	0x1f9
 2221 0fbc 350F0000 		.4byte	0xf35
 2222 0fc0 06       		.uleb128 0x6
 2223 0fc1 B40F0000 		.4byte	0xfb4
ARM GAS  /tmp/ccKyNeCd.s 			page 40


 2224 0fc5 0B       		.uleb128 0xb
 2225 0fc6 04       		.byte	0x4
 2226 0fc7 C00F0000 		.4byte	0xfc0
 2227 0fcb 0B       		.uleb128 0xb
 2228 0fcc 04       		.byte	0x4
 2229 0fcd A3070000 		.4byte	0x7a3
 2230 0fd1 0B       		.uleb128 0xb
 2231 0fd2 04       		.byte	0x4
 2232 0fd3 8C0C0000 		.4byte	0xc8c
 2233 0fd7 13       		.uleb128 0x13
 2234 0fd8 B2100000 		.4byte	.LASF238
 2235 0fdc 15       		.byte	0x15
 2236 0fdd 3A02     		.2byte	0x23a
 2237 0fdf 3F0E0000 		.4byte	0xe3f
 2238 0fe3 03       		.uleb128 0x3
 2239 0fe4 41040000 		.4byte	.LASF239
 2240 0fe8 16       		.byte	0x16
 2241 0fe9 FA       		.byte	0xfa
 2242 0fea EE0F0000 		.4byte	0xfee
 2243 0fee 10       		.uleb128 0x10
 2244 0fef 41040000 		.4byte	.LASF239
 2245 0ff3 3802     		.2byte	0x238
 2246 0ff5 17       		.byte	0x17
 2247 0ff6 7701     		.2byte	0x177
 2248 0ff8 1A110000 		.4byte	0x111a
 2249 0ffc 0A       		.uleb128 0xa
 2250 0ffd F6000000 		.4byte	.LASF219
 2251 1001 17       		.byte	0x17
 2252 1002 7B01     		.2byte	0x17b
 2253 1004 52110000 		.4byte	0x1152
 2254 1008 00       		.byte	0
 2255 1009 0A       		.uleb128 0xa
 2256 100a EF000000 		.4byte	.LASF222
 2257 100e 17       		.byte	0x17
 2258 100f 7F01     		.2byte	0x17f
 2259 1011 751A0000 		.4byte	0x1a75
 2260 1015 04       		.byte	0x4
 2261 1016 0A       		.uleb128 0xa
 2262 1017 C8040000 		.4byte	.LASF240
 2263 101b 17       		.byte	0x17
 2264 101c 8301     		.2byte	0x183
 2265 101e C9000000 		.4byte	0xc9
 2266 1022 08       		.byte	0x8
 2267 1023 0A       		.uleb128 0xa
 2268 1024 24040000 		.4byte	.LASF241
 2269 1028 17       		.byte	0x17
 2270 1029 8701     		.2byte	0x187
 2271 102b C9000000 		.4byte	0xc9
 2272 102f 0A       		.byte	0xa
 2273 1030 09       		.uleb128 0x9
 2274 1031 65706300 		.ascii	"epc\000"
 2275 1035 17       		.byte	0x17
 2276 1036 8B01     		.2byte	0x18b
 2277 1038 7B1A0000 		.4byte	0x1a7b
 2278 103c 0C       		.byte	0xc
 2279 103d 0A       		.uleb128 0xa
 2280 103e D90D0000 		.4byte	.LASF242
ARM GAS  /tmp/ccKyNeCd.s 			page 41


 2281 1042 17       		.byte	0x17
 2282 1043 9201     		.2byte	0x192
 2283 1045 911A0000 		.4byte	0x1a91
 2284 1049 1C       		.byte	0x1c
 2285 104a 0A       		.uleb128 0xa
 2286 104b A7100000 		.4byte	.LASF243
 2287 104f 17       		.byte	0x17
 2288 1050 9901     		.2byte	0x199
 2289 1052 911A0000 		.4byte	0x1a91
 2290 1056 28       		.byte	0x28
 2291 1057 0A       		.uleb128 0xa
 2292 1058 97030000 		.4byte	.LASF244
 2293 105c 17       		.byte	0x17
 2294 105d 9D01     		.2byte	0x19d
 2295 105f 97110000 		.4byte	0x1197
 2296 1063 34       		.byte	0x34
 2297 1064 0A       		.uleb128 0xa
 2298 1065 20080000 		.4byte	.LASF245
 2299 1069 17       		.byte	0x17
 2300 106a A101     		.2byte	0x1a1
 2301 106c 0E0C0000 		.4byte	0xc0e
 2302 1070 38       		.byte	0x38
 2303 1071 0A       		.uleb128 0xa
 2304 1072 0A040000 		.4byte	.LASF246
 2305 1076 17       		.byte	0x17
 2306 1077 A501     		.2byte	0x1a5
 2307 1079 2C000000 		.4byte	0x2c
 2308 107d 3C       		.byte	0x3c
 2309 107e 0A       		.uleb128 0xa
 2310 107f 71060000 		.4byte	.LASF247
 2311 1083 17       		.byte	0x17
 2312 1084 A901     		.2byte	0x1a9
 2313 1086 17120000 		.4byte	0x1217
 2314 108a 40       		.byte	0x40
 2315 108b 0A       		.uleb128 0xa
 2316 108c 64050000 		.4byte	.LASF248
 2317 1090 17       		.byte	0x17
 2318 1091 AD01     		.2byte	0x1ad
 2319 1093 A11A0000 		.4byte	0x1aa1
 2320 1097 44       		.byte	0x44
 2321 1098 0A       		.uleb128 0xa
 2322 1099 3E060000 		.4byte	.LASF249
 2323 109d 17       		.byte	0x17
 2324 109e B101     		.2byte	0x1b1
 2325 10a0 C9000000 		.4byte	0xc9
 2326 10a4 4C       		.byte	0x4c
 2327 10a5 0A       		.uleb128 0xa
 2328 10a6 45060000 		.4byte	.LASF250
 2329 10aa 17       		.byte	0x17
 2330 10ab B501     		.2byte	0x1b5
 2331 10ad B9000000 		.4byte	0xb9
 2332 10b1 4E       		.byte	0x4e
 2333 10b2 0A       		.uleb128 0xa
 2334 10b3 C4050000 		.4byte	.LASF251
 2335 10b7 17       		.byte	0x17
 2336 10b8 B901     		.2byte	0x1b9
 2337 10ba B9000000 		.4byte	0xb9
ARM GAS  /tmp/ccKyNeCd.s 			page 42


 2338 10be 4F       		.byte	0x4f
 2339 10bf 09       		.uleb128 0x9
 2340 10c0 6F746700 		.ascii	"otg\000"
 2341 10c4 17       		.byte	0x17
 2342 10c5 C101     		.2byte	0x1c1
 2343 10c7 B11A0000 		.4byte	0x1ab1
 2344 10cb 50       		.byte	0x50
 2345 10cc 0A       		.uleb128 0xa
 2346 10cd 550A0000 		.4byte	.LASF252
 2347 10d1 17       		.byte	0x17
 2348 10d2 C501     		.2byte	0x1c5
 2349 10d4 B71A0000 		.4byte	0x1ab7
 2350 10d8 54       		.byte	0x54
 2351 10d9 0A       		.uleb128 0xa
 2352 10da 1E110000 		.4byte	.LASF253
 2353 10de 17       		.byte	0x17
 2354 10df C901     		.2byte	0x1c9
 2355 10e1 E9000000 		.4byte	0xe9
 2356 10e5 58       		.byte	0x58
 2357 10e6 0A       		.uleb128 0xa
 2358 10e7 0B090000 		.4byte	.LASF254
 2359 10eb 17       		.byte	0x17
 2360 10ec CD01     		.2byte	0x1cd
 2361 10ee E9000000 		.4byte	0xe9
 2362 10f2 5C       		.byte	0x5c
 2363 10f3 0A       		.uleb128 0xa
 2364 10f4 98080000 		.4byte	.LASF255
 2365 10f8 17       		.byte	0x17
 2366 10f9 D101     		.2byte	0x1d1
 2367 10fb 5F020000 		.4byte	0x25f
 2368 10ff 60       		.byte	0x60
 2369 1100 09       		.uleb128 0x9
 2370 1101 747200   		.ascii	"tr\000"
 2371 1104 17       		.byte	0x17
 2372 1105 D601     		.2byte	0x1d6
 2373 1107 5F020000 		.4byte	0x25f
 2374 110b 64       		.byte	0x64
 2375 110c 0A       		.uleb128 0xa
 2376 110d D10D0000 		.4byte	.LASF256
 2377 1111 17       		.byte	0x17
 2378 1112 DA01     		.2byte	0x1da
 2379 1114 BD1A0000 		.4byte	0x1abd
 2380 1118 68       		.byte	0x68
 2381 1119 00       		.byte	0
 2382 111a 03       		.uleb128 0x3
 2383 111b FC0F0000 		.4byte	.LASF257
 2384 111f 16       		.byte	0x16
 2385 1120 FF       		.byte	0xff
 2386 1121 B9000000 		.4byte	0xb9
 2387 1125 1E       		.uleb128 0x1e
 2388 1126 07       		.byte	0x7
 2389 1127 01       		.byte	0x1
 2390 1128 63000000 		.4byte	0x63
 2391 112c 16       		.byte	0x16
 2392 112d 0401     		.2byte	0x104
 2393 112f 52110000 		.4byte	0x1152
 2394 1133 1D       		.uleb128 0x1d
ARM GAS  /tmp/ccKyNeCd.s 			page 43


 2395 1134 13050000 		.4byte	.LASF258
 2396 1138 00       		.byte	0
 2397 1139 1D       		.uleb128 0x1d
 2398 113a 11070000 		.4byte	.LASF259
 2399 113e 01       		.byte	0x1
 2400 113f 1D       		.uleb128 0x1d
 2401 1140 ED070000 		.4byte	.LASF260
 2402 1144 02       		.byte	0x2
 2403 1145 1D       		.uleb128 0x1d
 2404 1146 B0050000 		.4byte	.LASF261
 2405 114a 03       		.byte	0x3
 2406 114b 1D       		.uleb128 0x1d
 2407 114c 1E010000 		.4byte	.LASF262
 2408 1150 04       		.byte	0x4
 2409 1151 00       		.byte	0
 2410 1152 16       		.uleb128 0x16
 2411 1153 33070000 		.4byte	.LASF263
 2412 1157 16       		.byte	0x16
 2413 1158 0A01     		.2byte	0x10a
 2414 115a 25110000 		.4byte	0x1125
 2415 115e 1E       		.uleb128 0x1e
 2416 115f 07       		.byte	0x7
 2417 1160 01       		.byte	0x1
 2418 1161 63000000 		.4byte	0x63
 2419 1165 16       		.byte	0x16
 2420 1166 1801     		.2byte	0x118
 2421 1168 97110000 		.4byte	0x1197
 2422 116c 1D       		.uleb128 0x1d
 2423 116d 46020000 		.4byte	.LASF264
 2424 1171 00       		.byte	0
 2425 1172 1D       		.uleb128 0x1d
 2426 1173 CF000000 		.4byte	.LASF265
 2427 1177 01       		.byte	0x1
 2428 1178 1D       		.uleb128 0x1d
 2429 1179 350A0000 		.4byte	.LASF266
 2430 117d 02       		.byte	0x2
 2431 117e 1D       		.uleb128 0x1d
 2432 117f FC100000 		.4byte	.LASF267
 2433 1183 03       		.byte	0x3
 2434 1184 1D       		.uleb128 0x1d
 2435 1185 3D110000 		.4byte	.LASF268
 2436 1189 04       		.byte	0x4
 2437 118a 1D       		.uleb128 0x1d
 2438 118b DD100000 		.4byte	.LASF269
 2439 118f 05       		.byte	0x5
 2440 1190 1D       		.uleb128 0x1d
 2441 1191 5F070000 		.4byte	.LASF270
 2442 1195 06       		.byte	0x6
 2443 1196 00       		.byte	0
 2444 1197 16       		.uleb128 0x16
 2445 1198 5D010000 		.4byte	.LASF271
 2446 119c 16       		.byte	0x16
 2447 119d 2001     		.2byte	0x120
 2448 119f 5E110000 		.4byte	0x115e
 2449 11a3 1E       		.uleb128 0x1e
 2450 11a4 07       		.byte	0x7
 2451 11a5 01       		.byte	0x1
ARM GAS  /tmp/ccKyNeCd.s 			page 44


 2452 11a6 63000000 		.4byte	0x63
 2453 11aa 16       		.byte	0x16
 2454 11ab 2501     		.2byte	0x125
 2455 11ad D6110000 		.4byte	0x11d6
 2456 11b1 1D       		.uleb128 0x1d
 2457 11b2 6A0E0000 		.4byte	.LASF272
 2458 11b6 00       		.byte	0
 2459 11b7 1D       		.uleb128 0x1d
 2460 11b8 A3010000 		.4byte	.LASF273
 2461 11bc 01       		.byte	0x1
 2462 11bd 1D       		.uleb128 0x1d
 2463 11be 530D0000 		.4byte	.LASF274
 2464 11c2 02       		.byte	0x2
 2465 11c3 1D       		.uleb128 0x1d
 2466 11c4 7E100000 		.4byte	.LASF275
 2467 11c8 03       		.byte	0x3
 2468 11c9 1D       		.uleb128 0x1d
 2469 11ca AA070000 		.4byte	.LASF276
 2470 11ce 04       		.byte	0x4
 2471 11cf 1D       		.uleb128 0x1d
 2472 11d0 D8020000 		.4byte	.LASF277
 2473 11d4 05       		.byte	0x5
 2474 11d5 00       		.byte	0
 2475 11d6 16       		.uleb128 0x16
 2476 11d7 82050000 		.4byte	.LASF278
 2477 11db 16       		.byte	0x16
 2478 11dc 2C01     		.2byte	0x12c
 2479 11de A3110000 		.4byte	0x11a3
 2480 11e2 15       		.uleb128 0x15
 2481 11e3 08       		.byte	0x8
 2482 11e4 16       		.byte	0x16
 2483 11e5 3101     		.2byte	0x131
 2484 11e7 06120000 		.4byte	0x1206
 2485 11eb 0A       		.uleb128 0xa
 2486 11ec 9B050000 		.4byte	.LASF279
 2487 11f0 16       		.byte	0x16
 2488 11f1 3501     		.2byte	0x135
 2489 11f3 2C000000 		.4byte	0x2c
 2490 11f7 00       		.byte	0
 2491 11f8 0A       		.uleb128 0xa
 2492 11f9 FF090000 		.4byte	.LASF280
 2493 11fd 16       		.byte	0x16
 2494 11fe 3901     		.2byte	0x139
 2495 1200 2A0C0000 		.4byte	0xc2a
 2496 1204 04       		.byte	0x4
 2497 1205 00       		.byte	0
 2498 1206 16       		.uleb128 0x16
 2499 1207 43050000 		.4byte	.LASF281
 2500 120b 16       		.byte	0x16
 2501 120c 3A01     		.2byte	0x13a
 2502 120e E2110000 		.4byte	0x11e2
 2503 1212 06       		.uleb128 0x6
 2504 1213 06120000 		.4byte	0x1206
 2505 1217 16       		.uleb128 0x16
 2506 1218 1A0F0000 		.4byte	.LASF282
 2507 121c 16       		.byte	0x16
 2508 121d 4201     		.2byte	0x142
ARM GAS  /tmp/ccKyNeCd.s 			page 45


 2509 121f 23120000 		.4byte	0x1223
 2510 1223 0B       		.uleb128 0xb
 2511 1224 04       		.byte	0x4
 2512 1225 29120000 		.4byte	0x1229
 2513 1229 0D       		.uleb128 0xd
 2514 122a 34120000 		.4byte	0x1234
 2515 122e 0E       		.uleb128 0xe
 2516 122f 34120000 		.4byte	0x1234
 2517 1233 00       		.byte	0
 2518 1234 0B       		.uleb128 0xb
 2519 1235 04       		.byte	0x4
 2520 1236 E30F0000 		.4byte	0xfe3
 2521 123a 16       		.uleb128 0x16
 2522 123b 4F080000 		.4byte	.LASF283
 2523 123f 16       		.byte	0x16
 2524 1240 4B01     		.2byte	0x14b
 2525 1242 46120000 		.4byte	0x1246
 2526 1246 0B       		.uleb128 0xb
 2527 1247 04       		.byte	0x4
 2528 1248 4C120000 		.4byte	0x124c
 2529 124c 0D       		.uleb128 0xd
 2530 124d 5C120000 		.4byte	0x125c
 2531 1251 0E       		.uleb128 0xe
 2532 1252 34120000 		.4byte	0x1234
 2533 1256 0E       		.uleb128 0xe
 2534 1257 1A110000 		.4byte	0x111a
 2535 125b 00       		.byte	0
 2536 125c 16       		.uleb128 0x16
 2537 125d 84040000 		.4byte	.LASF284
 2538 1261 16       		.byte	0x16
 2539 1262 5401     		.2byte	0x154
 2540 1264 68120000 		.4byte	0x1268
 2541 1268 0B       		.uleb128 0xb
 2542 1269 04       		.byte	0x4
 2543 126a 6E120000 		.4byte	0x126e
 2544 126e 0D       		.uleb128 0xd
 2545 126f 7E120000 		.4byte	0x127e
 2546 1273 0E       		.uleb128 0xe
 2547 1274 34120000 		.4byte	0x1234
 2548 1278 0E       		.uleb128 0xe
 2549 1279 D6110000 		.4byte	0x11d6
 2550 127d 00       		.byte	0
 2551 127e 16       		.uleb128 0x16
 2552 127f F80E0000 		.4byte	.LASF285
 2553 1283 16       		.byte	0x16
 2554 1284 6001     		.2byte	0x160
 2555 1286 8A120000 		.4byte	0x128a
 2556 128a 0B       		.uleb128 0xb
 2557 128b 04       		.byte	0x4
 2558 128c 90120000 		.4byte	0x1290
 2559 1290 1F       		.uleb128 0x1f
 2560 1291 B20C0000 		.4byte	0xcb2
 2561 1295 9F120000 		.4byte	0x129f
 2562 1299 0E       		.uleb128 0xe
 2563 129a 34120000 		.4byte	0x1234
 2564 129e 00       		.byte	0
 2565 129f 16       		.uleb128 0x16
ARM GAS  /tmp/ccKyNeCd.s 			page 46


 2566 12a0 A70D0000 		.4byte	.LASF286
 2567 12a4 16       		.byte	0x16
 2568 12a5 6501     		.2byte	0x165
 2569 12a7 AB120000 		.4byte	0x12ab
 2570 12ab 0B       		.uleb128 0xb
 2571 12ac 04       		.byte	0x4
 2572 12ad B1120000 		.4byte	0x12b1
 2573 12b1 1F       		.uleb128 0x1f
 2574 12b2 CF120000 		.4byte	0x12cf
 2575 12b6 CF120000 		.4byte	0x12cf
 2576 12ba 0E       		.uleb128 0xe
 2577 12bb 34120000 		.4byte	0x1234
 2578 12bf 0E       		.uleb128 0xe
 2579 12c0 B9000000 		.4byte	0xb9
 2580 12c4 0E       		.uleb128 0xe
 2581 12c5 B9000000 		.4byte	0xb9
 2582 12c9 0E       		.uleb128 0xe
 2583 12ca C9000000 		.4byte	0xc9
 2584 12ce 00       		.byte	0
 2585 12cf 0B       		.uleb128 0xb
 2586 12d0 04       		.byte	0x4
 2587 12d1 12120000 		.4byte	0x1212
 2588 12d5 18       		.uleb128 0x18
 2589 12d6 20       		.byte	0x20
 2590 12d7 18       		.byte	0x18
 2591 12d8 35       		.byte	0x35
 2592 12d9 3E130000 		.4byte	0x133e
 2593 12dd 08       		.uleb128 0x8
 2594 12de DE030000 		.4byte	.LASF287
 2595 12e2 18       		.byte	0x18
 2596 12e3 36       		.byte	0x36
 2597 12e4 F4000000 		.4byte	0xf4
 2598 12e8 00       		.byte	0
 2599 12e9 08       		.uleb128 0x8
 2600 12ea 96000000 		.4byte	.LASF288
 2601 12ee 18       		.byte	0x18
 2602 12ef 38       		.byte	0x38
 2603 12f0 F4000000 		.4byte	0xf4
 2604 12f4 04       		.byte	0x4
 2605 12f5 08       		.uleb128 0x8
 2606 12f6 130B0000 		.4byte	.LASF289
 2607 12fa 18       		.byte	0x18
 2608 12fb 39       		.byte	0x39
 2609 12fc F4000000 		.4byte	0xf4
 2610 1300 08       		.byte	0x8
 2611 1301 08       		.uleb128 0x8
 2612 1302 4E0B0000 		.4byte	.LASF290
 2613 1306 18       		.byte	0x18
 2614 1307 3A       		.byte	0x3a
 2615 1308 F4000000 		.4byte	0xf4
 2616 130c 0C       		.byte	0xc
 2617 130d 08       		.uleb128 0x8
 2618 130e DF000000 		.4byte	.LASF291
 2619 1312 18       		.byte	0x18
 2620 1313 3C       		.byte	0x3c
 2621 1314 F4000000 		.4byte	0xf4
 2622 1318 10       		.byte	0x10
ARM GAS  /tmp/ccKyNeCd.s 			page 47


 2623 1319 08       		.uleb128 0x8
 2624 131a 7A0E0000 		.4byte	.LASF292
 2625 131e 18       		.byte	0x18
 2626 131f 3E       		.byte	0x3e
 2627 1320 F4000000 		.4byte	0xf4
 2628 1324 14       		.byte	0x14
 2629 1325 08       		.uleb128 0x8
 2630 1326 820E0000 		.4byte	.LASF293
 2631 132a 18       		.byte	0x18
 2632 132b 3F       		.byte	0x3f
 2633 132c F4000000 		.4byte	0xf4
 2634 1330 18       		.byte	0x18
 2635 1331 08       		.uleb128 0x8
 2636 1332 E50E0000 		.4byte	.LASF294
 2637 1336 18       		.byte	0x18
 2638 1337 40       		.byte	0x40
 2639 1338 F4000000 		.4byte	0xf4
 2640 133c 1C       		.byte	0x1c
 2641 133d 00       		.byte	0
 2642 133e 03       		.uleb128 0x3
 2643 133f AB040000 		.4byte	.LASF295
 2644 1343 18       		.byte	0x18
 2645 1344 41       		.byte	0x41
 2646 1345 D5120000 		.4byte	0x12d5
 2647 1349 18       		.uleb128 0x18
 2648 134a 20       		.byte	0x20
 2649 134b 18       		.byte	0x18
 2650 134c 46       		.byte	0x46
 2651 134d B2130000 		.4byte	0x13b2
 2652 1351 08       		.uleb128 0x8
 2653 1352 080F0000 		.4byte	.LASF296
 2654 1356 18       		.byte	0x18
 2655 1357 47       		.byte	0x47
 2656 1358 F4000000 		.4byte	0xf4
 2657 135c 00       		.byte	0
 2658 135d 08       		.uleb128 0x8
 2659 135e 8F000000 		.4byte	.LASF297
 2660 1362 18       		.byte	0x18
 2661 1363 49       		.byte	0x49
 2662 1364 F4000000 		.4byte	0xf4
 2663 1368 04       		.byte	0x4
 2664 1369 08       		.uleb128 0x8
 2665 136a 3F0F0000 		.4byte	.LASF298
 2666 136e 18       		.byte	0x18
 2667 136f 4A       		.byte	0x4a
 2668 1370 F4000000 		.4byte	0xf4
 2669 1374 08       		.byte	0x8
 2670 1375 08       		.uleb128 0x8
 2671 1376 B1000000 		.4byte	.LASF299
 2672 137a 18       		.byte	0x18
 2673 137b 4C       		.byte	0x4c
 2674 137c F4000000 		.4byte	0xf4
 2675 1380 0C       		.byte	0xc
 2676 1381 08       		.uleb128 0x8
 2677 1382 AF030000 		.4byte	.LASF300
 2678 1386 18       		.byte	0x18
 2679 1387 4D       		.byte	0x4d
ARM GAS  /tmp/ccKyNeCd.s 			page 48


 2680 1388 F4000000 		.4byte	0xf4
 2681 138c 10       		.byte	0x10
 2682 138d 08       		.uleb128 0x8
 2683 138e 7A0E0000 		.4byte	.LASF292
 2684 1392 18       		.byte	0x18
 2685 1393 4F       		.byte	0x4f
 2686 1394 F4000000 		.4byte	0xf4
 2687 1398 14       		.byte	0x14
 2688 1399 08       		.uleb128 0x8
 2689 139a 8A0E0000 		.4byte	.LASF301
 2690 139e 18       		.byte	0x18
 2691 139f 50       		.byte	0x50
 2692 13a0 F4000000 		.4byte	0xf4
 2693 13a4 18       		.byte	0x18
 2694 13a5 08       		.uleb128 0x8
 2695 13a6 9A0E0000 		.4byte	.LASF302
 2696 13aa 18       		.byte	0x18
 2697 13ab 52       		.byte	0x52
 2698 13ac F4000000 		.4byte	0xf4
 2699 13b0 1C       		.byte	0x1c
 2700 13b1 00       		.byte	0
 2701 13b2 03       		.uleb128 0x3
 2702 13b3 0E0D0000 		.4byte	.LASF303
 2703 13b7 18       		.byte	0x18
 2704 13b8 53       		.byte	0x53
 2705 13b9 49130000 		.4byte	0x1349
 2706 13bd 18       		.uleb128 0x18
 2707 13be 20       		.byte	0x20
 2708 13bf 18       		.byte	0x18
 2709 13c0 58       		.byte	0x58
 2710 13c1 26140000 		.4byte	0x1426
 2711 13c5 08       		.uleb128 0x8
 2712 13c6 95020000 		.4byte	.LASF304
 2713 13ca 18       		.byte	0x18
 2714 13cb 59       		.byte	0x59
 2715 13cc F4000000 		.4byte	0xf4
 2716 13d0 00       		.byte	0
 2717 13d1 08       		.uleb128 0x8
 2718 13d2 8F000000 		.4byte	.LASF297
 2719 13d6 18       		.byte	0x18
 2720 13d7 5B       		.byte	0x5b
 2721 13d8 F4000000 		.4byte	0xf4
 2722 13dc 04       		.byte	0x4
 2723 13dd 08       		.uleb128 0x8
 2724 13de EA020000 		.4byte	.LASF305
 2725 13e2 18       		.byte	0x18
 2726 13e3 5C       		.byte	0x5c
 2727 13e4 F4000000 		.4byte	0xf4
 2728 13e8 08       		.byte	0x8
 2729 13e9 08       		.uleb128 0x8
 2730 13ea B1000000 		.4byte	.LASF299
 2731 13ee 18       		.byte	0x18
 2732 13ef 5E       		.byte	0x5e
 2733 13f0 F4000000 		.4byte	0xf4
 2734 13f4 0C       		.byte	0xc
 2735 13f5 08       		.uleb128 0x8
 2736 13f6 CB080000 		.4byte	.LASF306
ARM GAS  /tmp/ccKyNeCd.s 			page 49


 2737 13fa 18       		.byte	0x18
 2738 13fb 5F       		.byte	0x5f
 2739 13fc F4000000 		.4byte	0xf4
 2740 1400 10       		.byte	0x10
 2741 1401 08       		.uleb128 0x8
 2742 1402 7A0E0000 		.4byte	.LASF292
 2743 1406 18       		.byte	0x18
 2744 1407 61       		.byte	0x61
 2745 1408 F4000000 		.4byte	0xf4
 2746 140c 14       		.byte	0x14
 2747 140d 08       		.uleb128 0x8
 2748 140e 820E0000 		.4byte	.LASF293
 2749 1412 18       		.byte	0x18
 2750 1413 62       		.byte	0x62
 2751 1414 F4000000 		.4byte	0xf4
 2752 1418 18       		.byte	0x18
 2753 1419 08       		.uleb128 0x8
 2754 141a 9A0E0000 		.4byte	.LASF302
 2755 141e 18       		.byte	0x18
 2756 141f 63       		.byte	0x63
 2757 1420 F4000000 		.4byte	0xf4
 2758 1424 1C       		.byte	0x1c
 2759 1425 00       		.byte	0
 2760 1426 03       		.uleb128 0x3
 2761 1427 E5030000 		.4byte	.LASF307
 2762 142b 18       		.byte	0x18
 2763 142c 64       		.byte	0x64
 2764 142d BD130000 		.4byte	0x13bd
 2765 1431 20       		.uleb128 0x20
 2766 1432 00100100 		.4byte	0x11000
 2767 1436 18       		.byte	0x18
 2768 1437 69       		.byte	0x69
 2769 1438 0E170000 		.4byte	0x170e
 2770 143c 08       		.uleb128 0x8
 2771 143d 7C070000 		.4byte	.LASF308
 2772 1441 18       		.byte	0x18
 2773 1442 6A       		.byte	0x6a
 2774 1443 F4000000 		.4byte	0xf4
 2775 1447 00       		.byte	0
 2776 1448 08       		.uleb128 0x8
 2777 1449 D7070000 		.4byte	.LASF309
 2778 144d 18       		.byte	0x18
 2779 144e 6B       		.byte	0x6b
 2780 144f F4000000 		.4byte	0xf4
 2781 1453 04       		.byte	0x4
 2782 1454 08       		.uleb128 0x8
 2783 1455 84060000 		.4byte	.LASF310
 2784 1459 18       		.byte	0x18
 2785 145a 6C       		.byte	0x6c
 2786 145b F4000000 		.4byte	0xf4
 2787 145f 08       		.byte	0x8
 2788 1460 08       		.uleb128 0x8
 2789 1461 2E110000 		.4byte	.LASF311
 2790 1465 18       		.byte	0x18
 2791 1466 6D       		.byte	0x6d
 2792 1467 F4000000 		.4byte	0xf4
 2793 146b 0C       		.byte	0xc
ARM GAS  /tmp/ccKyNeCd.s 			page 50


 2794 146c 08       		.uleb128 0x8
 2795 146d 280F0000 		.4byte	.LASF312
 2796 1471 18       		.byte	0x18
 2797 1472 6E       		.byte	0x6e
 2798 1473 F4000000 		.4byte	0xf4
 2799 1477 10       		.byte	0x10
 2800 1478 08       		.uleb128 0x8
 2801 1479 300F0000 		.4byte	.LASF313
 2802 147d 18       		.byte	0x18
 2803 147e 6F       		.byte	0x6f
 2804 147f F4000000 		.4byte	0xf4
 2805 1483 14       		.byte	0x14
 2806 1484 08       		.uleb128 0x8
 2807 1485 82090000 		.4byte	.LASF314
 2808 1489 18       		.byte	0x18
 2809 148a 70       		.byte	0x70
 2810 148b F4000000 		.4byte	0xf4
 2811 148f 18       		.byte	0x18
 2812 1490 08       		.uleb128 0x8
 2813 1491 A2070000 		.4byte	.LASF315
 2814 1495 18       		.byte	0x18
 2815 1496 71       		.byte	0x71
 2816 1497 F4000000 		.4byte	0xf4
 2817 149b 1C       		.byte	0x1c
 2818 149c 08       		.uleb128 0x8
 2819 149d F7070000 		.4byte	.LASF316
 2820 14a1 18       		.byte	0x18
 2821 14a2 73       		.byte	0x73
 2822 14a3 F4000000 		.4byte	0xf4
 2823 14a7 20       		.byte	0x20
 2824 14a8 08       		.uleb128 0x8
 2825 14a9 D8050000 		.4byte	.LASF317
 2826 14ad 18       		.byte	0x18
 2827 14ae 75       		.byte	0x75
 2828 14af F4000000 		.4byte	0xf4
 2829 14b3 24       		.byte	0x24
 2830 14b4 08       		.uleb128 0x8
 2831 14b5 B5010000 		.4byte	.LASF318
 2832 14b9 18       		.byte	0x18
 2833 14ba 76       		.byte	0x76
 2834 14bb F4000000 		.4byte	0xf4
 2835 14bf 28       		.byte	0x28
 2836 14c0 08       		.uleb128 0x8
 2837 14c1 470F0000 		.4byte	.LASF319
 2838 14c5 18       		.byte	0x18
 2839 14c6 78       		.byte	0x78
 2840 14c7 F4000000 		.4byte	0xf4
 2841 14cb 2C       		.byte	0x2c
 2842 14cc 08       		.uleb128 0x8
 2843 14cd D90F0000 		.4byte	.LASF320
 2844 14d1 18       		.byte	0x18
 2845 14d2 7A       		.byte	0x7a
 2846 14d3 F4000000 		.4byte	0xf4
 2847 14d7 30       		.byte	0x30
 2848 14d8 08       		.uleb128 0x8
 2849 14d9 EB0F0000 		.4byte	.LASF321
 2850 14dd 18       		.byte	0x18
ARM GAS  /tmp/ccKyNeCd.s 			page 51


 2851 14de 7B       		.byte	0x7b
 2852 14df F4000000 		.4byte	0xf4
 2853 14e3 34       		.byte	0x34
 2854 14e4 08       		.uleb128 0x8
 2855 14e5 91030000 		.4byte	.LASF322
 2856 14e9 18       		.byte	0x18
 2857 14ea 7C       		.byte	0x7c
 2858 14eb F4000000 		.4byte	0xf4
 2859 14ef 38       		.byte	0x38
 2860 14f0 17       		.uleb128 0x17
 2861 14f1 43494400 		.ascii	"CID\000"
 2862 14f5 18       		.byte	0x18
 2863 14f6 7D       		.byte	0x7d
 2864 14f7 F4000000 		.4byte	0xf4
 2865 14fb 3C       		.byte	0x3c
 2866 14fc 08       		.uleb128 0x8
 2867 14fd D5100000 		.4byte	.LASF323
 2868 1501 18       		.byte	0x18
 2869 1502 7E       		.byte	0x7e
 2870 1503 1E170000 		.4byte	0x171e
 2871 1507 40       		.byte	0x40
 2872 1508 21       		.uleb128 0x21
 2873 1509 E30A0000 		.4byte	.LASF324
 2874 150d 18       		.byte	0x18
 2875 150e 7F       		.byte	0x7f
 2876 150f F4000000 		.4byte	0xf4
 2877 1513 0001     		.2byte	0x100
 2878 1515 21       		.uleb128 0x21
 2879 1516 11060000 		.4byte	.LASF325
 2880 151a 18       		.byte	0x18
 2881 151b 81       		.byte	0x81
 2882 151c BF070000 		.4byte	0x7bf
 2883 1520 0401     		.2byte	0x104
 2884 1522 21       		.uleb128 0x21
 2885 1523 48110000 		.4byte	.LASF326
 2886 1527 18       		.byte	0x18
 2887 1528 83       		.byte	0x83
 2888 1529 33170000 		.4byte	0x1733
 2889 152d 4001     		.2byte	0x140
 2890 152f 21       		.uleb128 0x21
 2891 1530 D9030000 		.4byte	.LASF327
 2892 1534 18       		.byte	0x18
 2893 1535 84       		.byte	0x84
 2894 1536 F4000000 		.4byte	0xf4
 2895 153a 0004     		.2byte	0x400
 2896 153c 21       		.uleb128 0x21
 2897 153d DA000000 		.4byte	.LASF328
 2898 1541 18       		.byte	0x18
 2899 1542 85       		.byte	0x85
 2900 1543 F4000000 		.4byte	0xf4
 2901 1547 0404     		.2byte	0x404
 2902 1549 21       		.uleb128 0x21
 2903 154a 7E040000 		.4byte	.LASF329
 2904 154e 18       		.byte	0x18
 2905 154f 86       		.byte	0x86
 2906 1550 F4000000 		.4byte	0xf4
 2907 1554 0804     		.2byte	0x408
ARM GAS  /tmp/ccKyNeCd.s 			page 52


 2908 1556 21       		.uleb128 0x21
 2909 1557 6D070000 		.4byte	.LASF330
 2910 155b 18       		.byte	0x18
 2911 155c 88       		.byte	0x88
 2912 155d F4000000 		.4byte	0xf4
 2913 1561 0C04     		.2byte	0x40c
 2914 1563 21       		.uleb128 0x21
 2915 1564 C3100000 		.4byte	.LASF331
 2916 1568 18       		.byte	0x18
 2917 1569 89       		.byte	0x89
 2918 156a F4000000 		.4byte	0xf4
 2919 156e 1004     		.2byte	0x410
 2920 1570 21       		.uleb128 0x21
 2921 1571 D2050000 		.4byte	.LASF332
 2922 1575 18       		.byte	0x18
 2923 1576 8B       		.byte	0x8b
 2924 1577 F4000000 		.4byte	0xf4
 2925 157b 1404     		.2byte	0x414
 2926 157d 21       		.uleb128 0x21
 2927 157e 67090000 		.4byte	.LASF333
 2928 1582 18       		.byte	0x18
 2929 1583 8D       		.byte	0x8d
 2930 1584 F4000000 		.4byte	0xf4
 2931 1588 1804     		.2byte	0x418
 2932 158a 21       		.uleb128 0x21
 2933 158b 9E0D0000 		.4byte	.LASF334
 2934 158f 18       		.byte	0x18
 2935 1590 8F       		.byte	0x8f
 2936 1591 48170000 		.4byte	0x1748
 2937 1595 1C04     		.2byte	0x41c
 2938 1597 21       		.uleb128 0x21
 2939 1598 18040000 		.4byte	.LASF335
 2940 159c 18       		.byte	0x18
 2941 159d 90       		.byte	0x90
 2942 159e F4000000 		.4byte	0xf4
 2943 15a2 4004     		.2byte	0x440
 2944 15a4 21       		.uleb128 0x21
 2945 15a5 46090000 		.4byte	.LASF336
 2946 15a9 18       		.byte	0x18
 2947 15aa 92       		.byte	0x92
 2948 15ab 5D170000 		.4byte	0x175d
 2949 15af 4404     		.2byte	0x444
 2950 15b1 22       		.uleb128 0x22
 2951 15b2 686300   		.ascii	"hc\000"
 2952 15b5 18       		.byte	0x18
 2953 15b6 93       		.byte	0x93
 2954 15b7 62170000 		.4byte	0x1762
 2955 15bb 0005     		.2byte	0x500
 2956 15bd 21       		.uleb128 0x21
 2957 15be E6000000 		.4byte	.LASF337
 2958 15c2 18       		.byte	0x18
 2959 15c3 94       		.byte	0x94
 2960 15c4 82170000 		.4byte	0x1782
 2961 15c8 0007     		.2byte	0x700
 2962 15ca 21       		.uleb128 0x21
 2963 15cb 7B030000 		.4byte	.LASF338
 2964 15cf 18       		.byte	0x18
ARM GAS  /tmp/ccKyNeCd.s 			page 53


 2965 15d0 95       		.byte	0x95
 2966 15d1 F4000000 		.4byte	0xf4
 2967 15d5 0008     		.2byte	0x800
 2968 15d7 21       		.uleb128 0x21
 2969 15d8 260B0000 		.4byte	.LASF339
 2970 15dc 18       		.byte	0x18
 2971 15dd 96       		.byte	0x96
 2972 15de F4000000 		.4byte	0xf4
 2973 15e2 0408     		.2byte	0x804
 2974 15e4 21       		.uleb128 0x21
 2975 15e5 51100000 		.4byte	.LASF340
 2976 15e9 18       		.byte	0x18
 2977 15ea 97       		.byte	0x97
 2978 15eb F4000000 		.4byte	0xf4
 2979 15ef 0808     		.2byte	0x808
 2980 15f1 21       		.uleb128 0x21
 2981 15f2 FA040000 		.4byte	.LASF341
 2982 15f6 18       		.byte	0x18
 2983 15f7 98       		.byte	0x98
 2984 15f8 F4000000 		.4byte	0xf4
 2985 15fc 0C08     		.2byte	0x80c
 2986 15fe 21       		.uleb128 0x21
 2987 15ff A20E0000 		.4byte	.LASF342
 2988 1603 18       		.byte	0x18
 2989 1604 99       		.byte	0x99
 2990 1605 F4000000 		.4byte	0xf4
 2991 1609 1008     		.2byte	0x810
 2992 160b 21       		.uleb128 0x21
 2993 160c 5C020000 		.4byte	.LASF343
 2994 1610 18       		.byte	0x18
 2995 1611 9B       		.byte	0x9b
 2996 1612 F4000000 		.4byte	0xf4
 2997 1616 1408     		.2byte	0x814
 2998 1618 21       		.uleb128 0x21
 2999 1619 40020000 		.4byte	.LASF344
 3000 161d 18       		.byte	0x18
 3001 161e 9D       		.byte	0x9d
 3002 161f F4000000 		.4byte	0xf4
 3003 1623 1808     		.2byte	0x818
 3004 1625 21       		.uleb128 0x21
 3005 1626 F20C0000 		.4byte	.LASF345
 3006 162a 18       		.byte	0x18
 3007 162b 9F       		.byte	0x9f
 3008 162c F4000000 		.4byte	0xf4
 3009 1630 1C08     		.2byte	0x81c
 3010 1632 21       		.uleb128 0x21
 3011 1633 E8040000 		.4byte	.LASF346
 3012 1637 18       		.byte	0x18
 3013 1638 A1       		.byte	0xa1
 3014 1639 F4000000 		.4byte	0xf4
 3015 163d 2008     		.2byte	0x820
 3016 163f 21       		.uleb128 0x21
 3017 1640 F1040000 		.4byte	.LASF347
 3018 1644 18       		.byte	0x18
 3019 1645 A2       		.byte	0xa2
 3020 1646 F4000000 		.4byte	0xf4
 3021 164a 2408     		.2byte	0x824
ARM GAS  /tmp/ccKyNeCd.s 			page 54


 3022 164c 21       		.uleb128 0x21
 3023 164d 050D0000 		.4byte	.LASF348
 3024 1651 18       		.byte	0x18
 3025 1652 A3       		.byte	0xa3
 3026 1653 F4000000 		.4byte	0xf4
 3027 1657 2808     		.2byte	0x828
 3028 1659 21       		.uleb128 0x21
 3029 165a 08050000 		.4byte	.LASF349
 3030 165e 18       		.byte	0x18
 3031 165f A5       		.byte	0xa5
 3032 1660 F4000000 		.4byte	0xf4
 3033 1664 2C08     		.2byte	0x82c
 3034 1666 21       		.uleb128 0x21
 3035 1667 2B0E0000 		.4byte	.LASF350
 3036 166b 18       		.byte	0x18
 3037 166c A7       		.byte	0xa7
 3038 166d F4000000 		.4byte	0xf4
 3039 1671 3008     		.2byte	0x830
 3040 1673 21       		.uleb128 0x21
 3041 1674 CD0E0000 		.4byte	.LASF351
 3042 1678 18       		.byte	0x18
 3043 1679 A8       		.byte	0xa8
 3044 167a F4000000 		.4byte	0xf4
 3045 167e 3408     		.2byte	0x834
 3046 1680 21       		.uleb128 0x21
 3047 1681 46080000 		.4byte	.LASF352
 3048 1685 18       		.byte	0x18
 3049 1686 AA       		.byte	0xaa
 3050 1687 F4000000 		.4byte	0xf4
 3051 168b 3808     		.2byte	0x838
 3052 168d 21       		.uleb128 0x21
 3053 168e 7E080000 		.4byte	.LASF353
 3054 1692 18       		.byte	0x18
 3055 1693 AB       		.byte	0xab
 3056 1694 F4000000 		.4byte	0xf4
 3057 1698 3C08     		.2byte	0x83c
 3058 169a 21       		.uleb128 0x21
 3059 169b F0050000 		.4byte	.LASF354
 3060 169f 18       		.byte	0x18
 3061 16a0 AC       		.byte	0xac
 3062 16a1 97170000 		.4byte	0x1797
 3063 16a5 4008     		.2byte	0x840
 3064 16a7 21       		.uleb128 0x21
 3065 16a8 68080000 		.4byte	.LASF355
 3066 16ac 18       		.byte	0x18
 3067 16ad AD       		.byte	0xad
 3068 16ae 97170000 		.4byte	0x1797
 3069 16b2 8008     		.2byte	0x880
 3070 16b4 21       		.uleb128 0x21
 3071 16b5 80030000 		.4byte	.LASF356
 3072 16b9 18       		.byte	0x18
 3073 16ba AE       		.byte	0xae
 3074 16bb 97170000 		.4byte	0x1797
 3075 16bf C008     		.2byte	0x8c0
 3076 16c1 22       		.uleb128 0x22
 3077 16c2 696500   		.ascii	"ie\000"
 3078 16c5 18       		.byte	0x18
ARM GAS  /tmp/ccKyNeCd.s 			page 55


 3079 16c6 AF       		.byte	0xaf
 3080 16c7 9C170000 		.4byte	0x179c
 3081 16cb 0009     		.2byte	0x900
 3082 16cd 22       		.uleb128 0x22
 3083 16ce 6F6500   		.ascii	"oe\000"
 3084 16d1 18       		.byte	0x18
 3085 16d2 B0       		.byte	0xb0
 3086 16d3 AC170000 		.4byte	0x17ac
 3087 16d7 000B     		.2byte	0xb00
 3088 16d9 21       		.uleb128 0x21
 3089 16da C30A0000 		.4byte	.LASF357
 3090 16de 18       		.byte	0x18
 3091 16df B1       		.byte	0xb1
 3092 16e0 82170000 		.4byte	0x1782
 3093 16e4 000D     		.2byte	0xd00
 3094 16e6 21       		.uleb128 0x21
 3095 16e7 BB070000 		.4byte	.LASF358
 3096 16eb 18       		.byte	0x18
 3097 16ec B2       		.byte	0xb2
 3098 16ed F4000000 		.4byte	0xf4
 3099 16f1 000E     		.2byte	0xe00
 3100 16f3 21       		.uleb128 0x21
 3101 16f4 D00F0000 		.4byte	.LASF359
 3102 16f8 18       		.byte	0x18
 3103 16f9 B4       		.byte	0xb4
 3104 16fa CC170000 		.4byte	0x17cc
 3105 16fe 040E     		.2byte	0xe04
 3106 1700 21       		.uleb128 0x21
 3107 1701 720D0000 		.4byte	.LASF360
 3108 1705 18       		.byte	0x18
 3109 1706 B5       		.byte	0xb5
 3110 1707 E8170000 		.4byte	0x17e8
 3111 170b 0010     		.2byte	0x1000
 3112 170d 00       		.byte	0
 3113 170e 11       		.uleb128 0x11
 3114 170f F4000000 		.4byte	0xf4
 3115 1713 1E170000 		.4byte	0x171e
 3116 1717 12       		.uleb128 0x12
 3117 1718 3C000000 		.4byte	0x3c
 3118 171c 2F       		.byte	0x2f
 3119 171d 00       		.byte	0
 3120 171e 04       		.uleb128 0x4
 3121 171f 0E170000 		.4byte	0x170e
 3122 1723 11       		.uleb128 0x11
 3123 1724 F4000000 		.4byte	0xf4
 3124 1728 33170000 		.4byte	0x1733
 3125 172c 12       		.uleb128 0x12
 3126 172d 3C000000 		.4byte	0x3c
 3127 1731 AF       		.byte	0xaf
 3128 1732 00       		.byte	0
 3129 1733 04       		.uleb128 0x4
 3130 1734 23170000 		.4byte	0x1723
 3131 1738 11       		.uleb128 0x11
 3132 1739 F4000000 		.4byte	0xf4
 3133 173d 48170000 		.4byte	0x1748
 3134 1741 12       		.uleb128 0x12
 3135 1742 3C000000 		.4byte	0x3c
ARM GAS  /tmp/ccKyNeCd.s 			page 56


 3136 1746 08       		.byte	0x8
 3137 1747 00       		.byte	0
 3138 1748 04       		.uleb128 0x4
 3139 1749 38170000 		.4byte	0x1738
 3140 174d 11       		.uleb128 0x11
 3141 174e F4000000 		.4byte	0xf4
 3142 1752 5D170000 		.4byte	0x175d
 3143 1756 12       		.uleb128 0x12
 3144 1757 3C000000 		.4byte	0x3c
 3145 175b 2E       		.byte	0x2e
 3146 175c 00       		.byte	0
 3147 175d 04       		.uleb128 0x4
 3148 175e 4D170000 		.4byte	0x174d
 3149 1762 11       		.uleb128 0x11
 3150 1763 3E130000 		.4byte	0x133e
 3151 1767 72170000 		.4byte	0x1772
 3152 176b 12       		.uleb128 0x12
 3153 176c 3C000000 		.4byte	0x3c
 3154 1770 0F       		.byte	0xf
 3155 1771 00       		.byte	0
 3156 1772 11       		.uleb128 0x11
 3157 1773 F4000000 		.4byte	0xf4
 3158 1777 82170000 		.4byte	0x1782
 3159 177b 12       		.uleb128 0x12
 3160 177c 3C000000 		.4byte	0x3c
 3161 1780 3F       		.byte	0x3f
 3162 1781 00       		.byte	0
 3163 1782 04       		.uleb128 0x4
 3164 1783 72170000 		.4byte	0x1772
 3165 1787 11       		.uleb128 0x11
 3166 1788 F4000000 		.4byte	0xf4
 3167 178c 97170000 		.4byte	0x1797
 3168 1790 12       		.uleb128 0x12
 3169 1791 3C000000 		.4byte	0x3c
 3170 1795 0F       		.byte	0xf
 3171 1796 00       		.byte	0
 3172 1797 04       		.uleb128 0x4
 3173 1798 87170000 		.4byte	0x1787
 3174 179c 11       		.uleb128 0x11
 3175 179d B2130000 		.4byte	0x13b2
 3176 17a1 AC170000 		.4byte	0x17ac
 3177 17a5 12       		.uleb128 0x12
 3178 17a6 3C000000 		.4byte	0x3c
 3179 17aa 0F       		.byte	0xf
 3180 17ab 00       		.byte	0
 3181 17ac 11       		.uleb128 0x11
 3182 17ad 26140000 		.4byte	0x1426
 3183 17b1 BC170000 		.4byte	0x17bc
 3184 17b5 12       		.uleb128 0x12
 3185 17b6 3C000000 		.4byte	0x3c
 3186 17ba 0F       		.byte	0xf
 3187 17bb 00       		.byte	0
 3188 17bc 11       		.uleb128 0x11
 3189 17bd F4000000 		.4byte	0xf4
 3190 17c1 CC170000 		.4byte	0x17cc
 3191 17c5 12       		.uleb128 0x12
 3192 17c6 3C000000 		.4byte	0x3c
ARM GAS  /tmp/ccKyNeCd.s 			page 57


 3193 17ca 7E       		.byte	0x7e
 3194 17cb 00       		.byte	0
 3195 17cc 04       		.uleb128 0x4
 3196 17cd BC170000 		.4byte	0x17bc
 3197 17d1 11       		.uleb128 0x11
 3198 17d2 F4000000 		.4byte	0xf4
 3199 17d6 E8170000 		.4byte	0x17e8
 3200 17da 12       		.uleb128 0x12
 3201 17db 3C000000 		.4byte	0x3c
 3202 17df 0F       		.byte	0xf
 3203 17e0 23       		.uleb128 0x23
 3204 17e1 3C000000 		.4byte	0x3c
 3205 17e5 FF03     		.2byte	0x3ff
 3206 17e7 00       		.byte	0
 3207 17e8 04       		.uleb128 0x4
 3208 17e9 D1170000 		.4byte	0x17d1
 3209 17ed 03       		.uleb128 0x3
 3210 17ee 1D090000 		.4byte	.LASF361
 3211 17f2 18       		.byte	0x18
 3212 17f3 B6       		.byte	0xb6
 3213 17f4 31140000 		.4byte	0x1431
 3214 17f8 18       		.uleb128 0x18
 3215 17f9 0C       		.byte	0xc
 3216 17fa 17       		.byte	0x17
 3217 17fb C6       		.byte	0xc6
 3218 17fc 25180000 		.4byte	0x1825
 3219 1800 08       		.uleb128 0x8
 3220 1801 460E0000 		.4byte	.LASF362
 3221 1805 17       		.byte	0x17
 3222 1806 C7       		.byte	0xc7
 3223 1807 E9000000 		.4byte	0xe9
 3224 180b 00       		.byte	0
 3225 180c 08       		.uleb128 0x8
 3226 180d 24050000 		.4byte	.LASF363
 3227 1811 17       		.byte	0x17
 3228 1812 C8       		.byte	0xc8
 3229 1813 E9000000 		.4byte	0xe9
 3230 1817 04       		.byte	0x4
 3231 1818 08       		.uleb128 0x8
 3232 1819 CD060000 		.4byte	.LASF364
 3233 181d 17       		.byte	0x17
 3234 181e C9       		.byte	0xc9
 3235 181f E9000000 		.4byte	0xe9
 3236 1823 08       		.byte	0x8
 3237 1824 00       		.byte	0
 3238 1825 03       		.uleb128 0x3
 3239 1826 51050000 		.4byte	.LASF365
 3240 182a 17       		.byte	0x17
 3241 182b CA       		.byte	0xca
 3242 182c F8170000 		.4byte	0x17f8
 3243 1830 06       		.uleb128 0x6
 3244 1831 25180000 		.4byte	0x1825
 3245 1835 18       		.uleb128 0x18
 3246 1836 04       		.byte	0x4
 3247 1837 17       		.byte	0x17
 3248 1838 DD       		.byte	0xdd
 3249 1839 4A180000 		.4byte	0x184a
ARM GAS  /tmp/ccKyNeCd.s 			page 58


 3250 183d 08       		.uleb128 0x8
 3251 183e 31020000 		.4byte	.LASF366
 3252 1842 17       		.byte	0x17
 3253 1843 E1       		.byte	0xe1
 3254 1844 2A0C0000 		.4byte	0xc2a
 3255 1848 00       		.byte	0
 3256 1849 00       		.byte	0
 3257 184a 18       		.uleb128 0x18
 3258 184b 04       		.byte	0x4
 3259 184c 17       		.byte	0x17
 3260 184d E3       		.byte	0xe3
 3261 184e 5F180000 		.4byte	0x185f
 3262 1852 08       		.uleb128 0x8
 3263 1853 920E0000 		.4byte	.LASF367
 3264 1857 17       		.byte	0x17
 3265 1858 E7       		.byte	0xe7
 3266 1859 5F180000 		.4byte	0x185f
 3267 185d 00       		.byte	0
 3268 185e 00       		.byte	0
 3269 185f 0B       		.uleb128 0xb
 3270 1860 04       		.byte	0x4
 3271 1861 1F0C0000 		.4byte	0xc1f
 3272 1865 19       		.uleb128 0x19
 3273 1866 04       		.byte	0x4
 3274 1867 17       		.byte	0x17
 3275 1868 DC       		.byte	0xdc
 3276 1869 84180000 		.4byte	0x1884
 3277 186d 24       		.uleb128 0x24
 3278 186e 190B0000 		.4byte	.LASF368
 3279 1872 17       		.byte	0x17
 3280 1873 E2       		.byte	0xe2
 3281 1874 35180000 		.4byte	0x1835
 3282 1878 24       		.uleb128 0x24
 3283 1879 900C0000 		.4byte	.LASF369
 3284 187d 17       		.byte	0x17
 3285 187e E8       		.byte	0xe8
 3286 187f 4A180000 		.4byte	0x184a
 3287 1883 00       		.byte	0
 3288 1884 18       		.uleb128 0x18
 3289 1885 14       		.byte	0x14
 3290 1886 17       		.byte	0x17
 3291 1887 CF       		.byte	0xcf
 3292 1888 C9180000 		.4byte	0x18c9
 3293 188c 08       		.uleb128 0x8
 3294 188d 25110000 		.4byte	.LASF370
 3295 1891 17       		.byte	0x17
 3296 1892 D3       		.byte	0xd3
 3297 1893 B20C0000 		.4byte	0xcb2
 3298 1897 00       		.byte	0
 3299 1898 08       		.uleb128 0x8
 3300 1899 0A070000 		.4byte	.LASF371
 3301 189d 17       		.byte	0x17
 3302 189e D7       		.byte	0xd7
 3303 189f 2C000000 		.4byte	0x2c
 3304 18a3 04       		.byte	0x4
 3305 18a4 08       		.uleb128 0x8
 3306 18a5 E0050000 		.4byte	.LASF372
ARM GAS  /tmp/ccKyNeCd.s 			page 59


 3307 18a9 17       		.byte	0x17
 3308 18aa DB       		.byte	0xdb
 3309 18ab 2C000000 		.4byte	0x2c
 3310 18af 08       		.byte	0x8
 3311 18b0 08       		.uleb128 0x8
 3312 18b1 5C0E0000 		.4byte	.LASF373
 3313 18b5 17       		.byte	0x17
 3314 18b6 E9       		.byte	0xe9
 3315 18b7 65180000 		.4byte	0x1865
 3316 18bb 0C       		.byte	0xc
 3317 18bc 08       		.uleb128 0x8
 3318 18bd 3E0E0000 		.4byte	.LASF374
 3319 18c1 17       		.byte	0x17
 3320 18c2 ED       		.byte	0xed
 3321 18c3 2C000000 		.4byte	0x2c
 3322 18c7 10       		.byte	0x10
 3323 18c8 00       		.byte	0
 3324 18c9 03       		.uleb128 0x3
 3325 18ca D5040000 		.4byte	.LASF375
 3326 18ce 17       		.byte	0x17
 3327 18cf EE       		.byte	0xee
 3328 18d0 84180000 		.4byte	0x1884
 3329 18d4 15       		.uleb128 0x15
 3330 18d5 04       		.byte	0x4
 3331 18d6 17       		.byte	0x17
 3332 18d7 0101     		.2byte	0x101
 3333 18d9 EB180000 		.4byte	0x18eb
 3334 18dd 0A       		.uleb128 0xa
 3335 18de 140A0000 		.4byte	.LASF227
 3336 18e2 17       		.byte	0x17
 3337 18e3 0501     		.2byte	0x105
 3338 18e5 0E0C0000 		.4byte	0xc0e
 3339 18e9 00       		.byte	0
 3340 18ea 00       		.byte	0
 3341 18eb 15       		.uleb128 0x15
 3342 18ec 04       		.byte	0x4
 3343 18ed 17       		.byte	0x17
 3344 18ee 0701     		.2byte	0x107
 3345 18f0 02190000 		.4byte	0x1902
 3346 18f4 0A       		.uleb128 0xa
 3347 18f5 D70C0000 		.4byte	.LASF376
 3348 18f9 17       		.byte	0x17
 3349 18fa 0B01     		.2byte	0x10b
 3350 18fc 02190000 		.4byte	0x1902
 3351 1900 00       		.byte	0
 3352 1901 00       		.byte	0
 3353 1902 0B       		.uleb128 0xb
 3354 1903 04       		.byte	0x4
 3355 1904 140C0000 		.4byte	0xc14
 3356 1908 25       		.uleb128 0x25
 3357 1909 04       		.byte	0x4
 3358 190a 17       		.byte	0x17
 3359 190b 0001     		.2byte	0x100
 3360 190d 2A190000 		.4byte	0x192a
 3361 1911 1A       		.uleb128 0x1a
 3362 1912 190B0000 		.4byte	.LASF368
 3363 1916 17       		.byte	0x17
ARM GAS  /tmp/ccKyNeCd.s 			page 60


 3364 1917 0601     		.2byte	0x106
 3365 1919 D4180000 		.4byte	0x18d4
 3366 191d 1A       		.uleb128 0x1a
 3367 191e 900C0000 		.4byte	.LASF369
 3368 1922 17       		.byte	0x17
 3369 1923 0C01     		.2byte	0x10c
 3370 1925 EB180000 		.4byte	0x18eb
 3371 1929 00       		.byte	0
 3372 192a 18       		.uleb128 0x18
 3373 192b 14       		.byte	0x14
 3374 192c 17       		.byte	0x17
 3375 192d F3       		.byte	0xf3
 3376 192e 71190000 		.4byte	0x1971
 3377 1932 08       		.uleb128 0x8
 3378 1933 640B0000 		.4byte	.LASF377
 3379 1937 17       		.byte	0x17
 3380 1938 F7       		.byte	0xf7
 3381 1939 B20C0000 		.4byte	0xcb2
 3382 193d 00       		.byte	0
 3383 193e 08       		.uleb128 0x8
 3384 193f 13030000 		.4byte	.LASF378
 3385 1943 17       		.byte	0x17
 3386 1944 FB       		.byte	0xfb
 3387 1945 2C000000 		.4byte	0x2c
 3388 1949 04       		.byte	0x4
 3389 194a 08       		.uleb128 0x8
 3390 194b 21070000 		.4byte	.LASF379
 3391 194f 17       		.byte	0x17
 3392 1950 FF       		.byte	0xff
 3393 1951 2C000000 		.4byte	0x2c
 3394 1955 08       		.byte	0x8
 3395 1956 0A       		.uleb128 0xa
 3396 1957 5C0E0000 		.4byte	.LASF373
 3397 195b 17       		.byte	0x17
 3398 195c 0D01     		.2byte	0x10d
 3399 195e 08190000 		.4byte	0x1908
 3400 1962 0C       		.byte	0xc
 3401 1963 0A       		.uleb128 0xa
 3402 1964 3E0E0000 		.4byte	.LASF374
 3403 1968 17       		.byte	0x17
 3404 1969 1101     		.2byte	0x111
 3405 196b 2C000000 		.4byte	0x2c
 3406 196f 10       		.byte	0x10
 3407 1970 00       		.byte	0
 3408 1971 16       		.uleb128 0x16
 3409 1972 A50A0000 		.4byte	.LASF380
 3410 1976 17       		.byte	0x17
 3411 1977 1201     		.2byte	0x112
 3412 1979 2A190000 		.4byte	0x192a
 3413 197d 15       		.uleb128 0x15
 3414 197e 24       		.byte	0x24
 3415 197f 17       		.byte	0x17
 3416 1980 1801     		.2byte	0x118
 3417 1982 091A0000 		.4byte	0x1a09
 3418 1986 0A       		.uleb128 0xa
 3419 1987 FC000000 		.4byte	.LASF381
 3420 198b 17       		.byte	0x17
ARM GAS  /tmp/ccKyNeCd.s 			page 61


 3421 198c 1C01     		.2byte	0x11c
 3422 198e E9000000 		.4byte	0xe9
 3423 1992 00       		.byte	0
 3424 1993 0A       		.uleb128 0xa
 3425 1994 5F080000 		.4byte	.LASF382
 3426 1998 17       		.byte	0x17
 3427 1999 2701     		.2byte	0x127
 3428 199b 3A120000 		.4byte	0x123a
 3429 199f 04       		.byte	0x4
 3430 19a0 0A       		.uleb128 0xa
 3431 19a1 5F040000 		.4byte	.LASF383
 3432 19a5 17       		.byte	0x17
 3433 19a6 2D01     		.2byte	0x12d
 3434 19a8 3A120000 		.4byte	0x123a
 3435 19ac 08       		.byte	0x8
 3436 19ad 0A       		.uleb128 0xa
 3437 19ae 4F090000 		.4byte	.LASF384
 3438 19b2 17       		.byte	0x17
 3439 19b3 3301     		.2byte	0x133
 3440 19b5 3A120000 		.4byte	0x123a
 3441 19b9 0C       		.byte	0xc
 3442 19ba 0A       		.uleb128 0xa
 3443 19bb 77090000 		.4byte	.LASF385
 3444 19bf 17       		.byte	0x17
 3445 19c0 3901     		.2byte	0x139
 3446 19c2 C9000000 		.4byte	0xc9
 3447 19c6 10       		.byte	0x10
 3448 19c7 0A       		.uleb128 0xa
 3449 19c8 3F0D0000 		.4byte	.LASF386
 3450 19cc 17       		.byte	0x17
 3451 19cd 3F01     		.2byte	0x13f
 3452 19cf C9000000 		.4byte	0xc9
 3453 19d3 12       		.byte	0x12
 3454 19d4 0A       		.uleb128 0xa
 3455 19d5 99070000 		.4byte	.LASF387
 3456 19d9 17       		.byte	0x17
 3457 19da 4401     		.2byte	0x144
 3458 19dc 091A0000 		.4byte	0x1a09
 3459 19e0 14       		.byte	0x14
 3460 19e1 0A       		.uleb128 0xa
 3461 19e2 A9090000 		.4byte	.LASF388
 3462 19e6 17       		.byte	0x17
 3463 19e7 4901     		.2byte	0x149
 3464 19e9 0F1A0000 		.4byte	0x1a0f
 3465 19ed 18       		.byte	0x18
 3466 19ee 0A       		.uleb128 0xa
 3467 19ef A2060000 		.4byte	.LASF389
 3468 19f3 17       		.byte	0x17
 3469 19f4 5001     		.2byte	0x150
 3470 19f6 C9000000 		.4byte	0xc9
 3471 19fa 1C       		.byte	0x1c
 3472 19fb 0A       		.uleb128 0xa
 3473 19fc 3C090000 		.4byte	.LASF390
 3474 1a00 17       		.byte	0x17
 3475 1a01 5601     		.2byte	0x156
 3476 1a03 0E0C0000 		.4byte	0xc0e
 3477 1a07 20       		.byte	0x20
ARM GAS  /tmp/ccKyNeCd.s 			page 62


 3478 1a08 00       		.byte	0
 3479 1a09 0B       		.uleb128 0xb
 3480 1a0a 04       		.byte	0x4
 3481 1a0b C9180000 		.4byte	0x18c9
 3482 1a0f 0B       		.uleb128 0xb
 3483 1a10 04       		.byte	0x4
 3484 1a11 71190000 		.4byte	0x1971
 3485 1a15 16       		.uleb128 0x16
 3486 1a16 3C0B0000 		.4byte	.LASF391
 3487 1a1a 17       		.byte	0x17
 3488 1a1b 5701     		.2byte	0x157
 3489 1a1d 7D190000 		.4byte	0x197d
 3490 1a21 06       		.uleb128 0x6
 3491 1a22 151A0000 		.4byte	0x1a15
 3492 1a26 15       		.uleb128 0x15
 3493 1a27 10       		.byte	0x10
 3494 1a28 17       		.byte	0x17
 3495 1a29 5C01     		.2byte	0x15c
 3496 1a2b 641A0000 		.4byte	0x1a64
 3497 1a2f 0A       		.uleb128 0xa
 3498 1a30 CE070000 		.4byte	.LASF392
 3499 1a34 17       		.byte	0x17
 3500 1a35 6101     		.2byte	0x161
 3501 1a37 5C120000 		.4byte	0x125c
 3502 1a3b 00       		.byte	0
 3503 1a3c 0A       		.uleb128 0xa
 3504 1a3d 56100000 		.4byte	.LASF393
 3505 1a41 17       		.byte	0x17
 3506 1a42 6601     		.2byte	0x166
 3507 1a44 9F120000 		.4byte	0x129f
 3508 1a48 04       		.byte	0x4
 3509 1a49 0A       		.uleb128 0xa
 3510 1a4a B8030000 		.4byte	.LASF394
 3511 1a4e 17       		.byte	0x17
 3512 1a4f 6C01     		.2byte	0x16c
 3513 1a51 7E120000 		.4byte	0x127e
 3514 1a55 08       		.byte	0x8
 3515 1a56 0A       		.uleb128 0xa
 3516 1a57 36110000 		.4byte	.LASF395
 3517 1a5b 17       		.byte	0x17
 3518 1a5c 7001     		.2byte	0x170
 3519 1a5e 17120000 		.4byte	0x1217
 3520 1a62 0C       		.byte	0xc
 3521 1a63 00       		.byte	0
 3522 1a64 16       		.uleb128 0x16
 3523 1a65 F9080000 		.4byte	.LASF396
 3524 1a69 17       		.byte	0x17
 3525 1a6a 7201     		.2byte	0x172
 3526 1a6c 261A0000 		.4byte	0x1a26
 3527 1a70 06       		.uleb128 0x6
 3528 1a71 641A0000 		.4byte	0x1a64
 3529 1a75 0B       		.uleb128 0xb
 3530 1a76 04       		.byte	0x4
 3531 1a77 701A0000 		.4byte	0x1a70
 3532 1a7b 11       		.uleb128 0x11
 3533 1a7c 8B1A0000 		.4byte	0x1a8b
 3534 1a80 8B1A0000 		.4byte	0x1a8b
ARM GAS  /tmp/ccKyNeCd.s 			page 63


 3535 1a84 12       		.uleb128 0x12
 3536 1a85 3C000000 		.4byte	0x3c
 3537 1a89 03       		.byte	0x3
 3538 1a8a 00       		.byte	0
 3539 1a8b 0B       		.uleb128 0xb
 3540 1a8c 04       		.byte	0x4
 3541 1a8d 211A0000 		.4byte	0x1a21
 3542 1a91 11       		.uleb128 0x11
 3543 1a92 47030000 		.4byte	0x347
 3544 1a96 A11A0000 		.4byte	0x1aa1
 3545 1a9a 12       		.uleb128 0x12
 3546 1a9b 3C000000 		.4byte	0x3c
 3547 1a9f 02       		.byte	0x2
 3548 1aa0 00       		.byte	0
 3549 1aa1 11       		.uleb128 0x11
 3550 1aa2 B9000000 		.4byte	0xb9
 3551 1aa6 B11A0000 		.4byte	0x1ab1
 3552 1aaa 12       		.uleb128 0x12
 3553 1aab 3C000000 		.4byte	0x3c
 3554 1aaf 07       		.byte	0x7
 3555 1ab0 00       		.byte	0
 3556 1ab1 0B       		.uleb128 0xb
 3557 1ab2 04       		.byte	0x4
 3558 1ab3 ED170000 		.4byte	0x17ed
 3559 1ab7 0B       		.uleb128 0xb
 3560 1ab8 04       		.byte	0x4
 3561 1ab9 30180000 		.4byte	0x1830
 3562 1abd 11       		.uleb128 0x11
 3563 1abe CF070000 		.4byte	0x7cf
 3564 1ac2 CD1A0000 		.4byte	0x1acd
 3565 1ac6 12       		.uleb128 0x12
 3566 1ac7 3C000000 		.4byte	0x3c
 3567 1acb 39       		.byte	0x39
 3568 1acc 00       		.byte	0
 3569 1acd 13       		.uleb128 0x13
 3570 1ace 500F0000 		.4byte	.LASF397
 3571 1ad2 17       		.byte	0x17
 3572 1ad3 0602     		.2byte	0x206
 3573 1ad5 E30F0000 		.4byte	0xfe3
 3574 1ad9 26       		.uleb128 0x26
 3575 1ada 99040000 		.4byte	0x499
 3576 1ade 01       		.byte	0x1
 3577 1adf 27       		.byte	0x27
 3578 1ae0 05       		.uleb128 0x5
 3579 1ae1 03       		.byte	0x3
 3580 1ae2 00000000 		.4byte	SystemCoreClock
 3581 1ae6 27       		.uleb128 0x27
 3582 1ae7 6B0A0000 		.4byte	.LASF401
 3583 1aeb 01       		.byte	0x1
 3584 1aec 92       		.byte	0x92
 3585 1aed 00000000 		.4byte	.LFB262
 3586 1af1 C0000000 		.4byte	.LFE262-.LFB262
 3587 1af5 01       		.uleb128 0x1
 3588 1af6 9C       		.byte	0x9c
 3589 1af7 28       		.uleb128 0x28
 3590 1af8 F2020000 		.4byte	.LASF402
 3591 1afc 01       		.byte	0x1
ARM GAS  /tmp/ccKyNeCd.s 			page 64


 3592 1afd 72       		.byte	0x72
 3593 1afe 00000000 		.4byte	.LFB261
 3594 1b02 68000000 		.4byte	.LFE261-.LFB261
 3595 1b06 01       		.uleb128 0x1
 3596 1b07 9C       		.byte	0x9c
 3597 1b08 251B0000 		.4byte	0x1b25
 3598 1b0c 29       		.uleb128 0x29
 3599 1b0d 251B0000 		.4byte	0x1b25
 3600 1b11 18000000 		.4byte	.LBB4
 3601 1b15 00000000 		.4byte	.Ldebug_ranges0+0
 3602 1b19 01       		.byte	0x1
 3603 1b1a 7F       		.byte	0x7f
 3604 1b1b 2A       		.uleb128 0x2a
 3605 1b1c 5E000000 		.4byte	.LVL0
 3606 1b20 2D1B0000 		.4byte	0x1b2d
 3607 1b24 00       		.byte	0
 3608 1b25 2B       		.uleb128 0x2b
 3609 1b26 1A0A0000 		.4byte	.LASF403
 3610 1b2a 01       		.byte	0x1
 3611 1b2b 36       		.byte	0x36
 3612 1b2c 01       		.byte	0x1
 3613 1b2d 2C       		.uleb128 0x2c
 3614 1b2e C0040000 		.4byte	.LASF404
 3615 1b32 C0040000 		.4byte	.LASF404
 3616 1b36 12       		.byte	0x12
 3617 1b37 C101     		.2byte	0x1c1
 3618 1b39 00       		.byte	0
 3619              		.section	.debug_abbrev,"",%progbits
 3620              	.Ldebug_abbrev0:
 3621 0000 01       		.uleb128 0x1
 3622 0001 11       		.uleb128 0x11
 3623 0002 01       		.byte	0x1
 3624 0003 25       		.uleb128 0x25
 3625 0004 0E       		.uleb128 0xe
 3626 0005 13       		.uleb128 0x13
 3627 0006 0B       		.uleb128 0xb
 3628 0007 03       		.uleb128 0x3
 3629 0008 0E       		.uleb128 0xe
 3630 0009 1B       		.uleb128 0x1b
 3631 000a 0E       		.uleb128 0xe
 3632 000b 55       		.uleb128 0x55
 3633 000c 17       		.uleb128 0x17
 3634 000d 11       		.uleb128 0x11
 3635 000e 01       		.uleb128 0x1
 3636 000f 10       		.uleb128 0x10
 3637 0010 17       		.uleb128 0x17
 3638 0011 00       		.byte	0
 3639 0012 00       		.byte	0
 3640 0013 02       		.uleb128 0x2
 3641 0014 24       		.uleb128 0x24
 3642 0015 00       		.byte	0
 3643 0016 0B       		.uleb128 0xb
 3644 0017 0B       		.uleb128 0xb
 3645 0018 3E       		.uleb128 0x3e
 3646 0019 0B       		.uleb128 0xb
 3647 001a 03       		.uleb128 0x3
 3648 001b 08       		.uleb128 0x8
ARM GAS  /tmp/ccKyNeCd.s 			page 65


 3649 001c 00       		.byte	0
 3650 001d 00       		.byte	0
 3651 001e 03       		.uleb128 0x3
 3652 001f 16       		.uleb128 0x16
 3653 0020 00       		.byte	0
 3654 0021 03       		.uleb128 0x3
 3655 0022 0E       		.uleb128 0xe
 3656 0023 3A       		.uleb128 0x3a
 3657 0024 0B       		.uleb128 0xb
 3658 0025 3B       		.uleb128 0x3b
 3659 0026 0B       		.uleb128 0xb
 3660 0027 49       		.uleb128 0x49
 3661 0028 13       		.uleb128 0x13
 3662 0029 00       		.byte	0
 3663 002a 00       		.byte	0
 3664 002b 04       		.uleb128 0x4
 3665 002c 35       		.uleb128 0x35
 3666 002d 00       		.byte	0
 3667 002e 49       		.uleb128 0x49
 3668 002f 13       		.uleb128 0x13
 3669 0030 00       		.byte	0
 3670 0031 00       		.byte	0
 3671 0032 05       		.uleb128 0x5
 3672 0033 24       		.uleb128 0x24
 3673 0034 00       		.byte	0
 3674 0035 0B       		.uleb128 0xb
 3675 0036 0B       		.uleb128 0xb
 3676 0037 3E       		.uleb128 0x3e
 3677 0038 0B       		.uleb128 0xb
 3678 0039 03       		.uleb128 0x3
 3679 003a 0E       		.uleb128 0xe
 3680 003b 00       		.byte	0
 3681 003c 00       		.byte	0
 3682 003d 06       		.uleb128 0x6
 3683 003e 26       		.uleb128 0x26
 3684 003f 00       		.byte	0
 3685 0040 49       		.uleb128 0x49
 3686 0041 13       		.uleb128 0x13
 3687 0042 00       		.byte	0
 3688 0043 00       		.byte	0
 3689 0044 07       		.uleb128 0x7
 3690 0045 13       		.uleb128 0x13
 3691 0046 01       		.byte	0x1
 3692 0047 03       		.uleb128 0x3
 3693 0048 0E       		.uleb128 0xe
 3694 0049 0B       		.uleb128 0xb
 3695 004a 0B       		.uleb128 0xb
 3696 004b 3A       		.uleb128 0x3a
 3697 004c 0B       		.uleb128 0xb
 3698 004d 3B       		.uleb128 0x3b
 3699 004e 0B       		.uleb128 0xb
 3700 004f 01       		.uleb128 0x1
 3701 0050 13       		.uleb128 0x13
 3702 0051 00       		.byte	0
 3703 0052 00       		.byte	0
 3704 0053 08       		.uleb128 0x8
 3705 0054 0D       		.uleb128 0xd
ARM GAS  /tmp/ccKyNeCd.s 			page 66


 3706 0055 00       		.byte	0
 3707 0056 03       		.uleb128 0x3
 3708 0057 0E       		.uleb128 0xe
 3709 0058 3A       		.uleb128 0x3a
 3710 0059 0B       		.uleb128 0xb
 3711 005a 3B       		.uleb128 0x3b
 3712 005b 0B       		.uleb128 0xb
 3713 005c 49       		.uleb128 0x49
 3714 005d 13       		.uleb128 0x13
 3715 005e 38       		.uleb128 0x38
 3716 005f 0B       		.uleb128 0xb
 3717 0060 00       		.byte	0
 3718 0061 00       		.byte	0
 3719 0062 09       		.uleb128 0x9
 3720 0063 0D       		.uleb128 0xd
 3721 0064 00       		.byte	0
 3722 0065 03       		.uleb128 0x3
 3723 0066 08       		.uleb128 0x8
 3724 0067 3A       		.uleb128 0x3a
 3725 0068 0B       		.uleb128 0xb
 3726 0069 3B       		.uleb128 0x3b
 3727 006a 05       		.uleb128 0x5
 3728 006b 49       		.uleb128 0x49
 3729 006c 13       		.uleb128 0x13
 3730 006d 38       		.uleb128 0x38
 3731 006e 0B       		.uleb128 0xb
 3732 006f 00       		.byte	0
 3733 0070 00       		.byte	0
 3734 0071 0A       		.uleb128 0xa
 3735 0072 0D       		.uleb128 0xd
 3736 0073 00       		.byte	0
 3737 0074 03       		.uleb128 0x3
 3738 0075 0E       		.uleb128 0xe
 3739 0076 3A       		.uleb128 0x3a
 3740 0077 0B       		.uleb128 0xb
 3741 0078 3B       		.uleb128 0x3b
 3742 0079 05       		.uleb128 0x5
 3743 007a 49       		.uleb128 0x49
 3744 007b 13       		.uleb128 0x13
 3745 007c 38       		.uleb128 0x38
 3746 007d 0B       		.uleb128 0xb
 3747 007e 00       		.byte	0
 3748 007f 00       		.byte	0
 3749 0080 0B       		.uleb128 0xb
 3750 0081 0F       		.uleb128 0xf
 3751 0082 00       		.byte	0
 3752 0083 0B       		.uleb128 0xb
 3753 0084 0B       		.uleb128 0xb
 3754 0085 49       		.uleb128 0x49
 3755 0086 13       		.uleb128 0x13
 3756 0087 00       		.byte	0
 3757 0088 00       		.byte	0
 3758 0089 0C       		.uleb128 0xc
 3759 008a 13       		.uleb128 0x13
 3760 008b 01       		.byte	0x1
 3761 008c 03       		.uleb128 0x3
 3762 008d 0E       		.uleb128 0xe
ARM GAS  /tmp/ccKyNeCd.s 			page 67


 3763 008e 0B       		.uleb128 0xb
 3764 008f 0B       		.uleb128 0xb
 3765 0090 3A       		.uleb128 0x3a
 3766 0091 0B       		.uleb128 0xb
 3767 0092 3B       		.uleb128 0x3b
 3768 0093 05       		.uleb128 0x5
 3769 0094 01       		.uleb128 0x1
 3770 0095 13       		.uleb128 0x13
 3771 0096 00       		.byte	0
 3772 0097 00       		.byte	0
 3773 0098 0D       		.uleb128 0xd
 3774 0099 15       		.uleb128 0x15
 3775 009a 01       		.byte	0x1
 3776 009b 27       		.uleb128 0x27
 3777 009c 19       		.uleb128 0x19
 3778 009d 01       		.uleb128 0x1
 3779 009e 13       		.uleb128 0x13
 3780 009f 00       		.byte	0
 3781 00a0 00       		.byte	0
 3782 00a1 0E       		.uleb128 0xe
 3783 00a2 05       		.uleb128 0x5
 3784 00a3 00       		.byte	0
 3785 00a4 49       		.uleb128 0x49
 3786 00a5 13       		.uleb128 0x13
 3787 00a6 00       		.byte	0
 3788 00a7 00       		.byte	0
 3789 00a8 0F       		.uleb128 0xf
 3790 00a9 0F       		.uleb128 0xf
 3791 00aa 00       		.byte	0
 3792 00ab 0B       		.uleb128 0xb
 3793 00ac 0B       		.uleb128 0xb
 3794 00ad 00       		.byte	0
 3795 00ae 00       		.byte	0
 3796 00af 10       		.uleb128 0x10
 3797 00b0 13       		.uleb128 0x13
 3798 00b1 01       		.byte	0x1
 3799 00b2 03       		.uleb128 0x3
 3800 00b3 0E       		.uleb128 0xe
 3801 00b4 0B       		.uleb128 0xb
 3802 00b5 05       		.uleb128 0x5
 3803 00b6 3A       		.uleb128 0x3a
 3804 00b7 0B       		.uleb128 0xb
 3805 00b8 3B       		.uleb128 0x3b
 3806 00b9 05       		.uleb128 0x5
 3807 00ba 01       		.uleb128 0x1
 3808 00bb 13       		.uleb128 0x13
 3809 00bc 00       		.byte	0
 3810 00bd 00       		.byte	0
 3811 00be 11       		.uleb128 0x11
 3812 00bf 01       		.uleb128 0x1
 3813 00c0 01       		.byte	0x1
 3814 00c1 49       		.uleb128 0x49
 3815 00c2 13       		.uleb128 0x13
 3816 00c3 01       		.uleb128 0x1
 3817 00c4 13       		.uleb128 0x13
 3818 00c5 00       		.byte	0
 3819 00c6 00       		.byte	0
ARM GAS  /tmp/ccKyNeCd.s 			page 68


 3820 00c7 12       		.uleb128 0x12
 3821 00c8 21       		.uleb128 0x21
 3822 00c9 00       		.byte	0
 3823 00ca 49       		.uleb128 0x49
 3824 00cb 13       		.uleb128 0x13
 3825 00cc 2F       		.uleb128 0x2f
 3826 00cd 0B       		.uleb128 0xb
 3827 00ce 00       		.byte	0
 3828 00cf 00       		.byte	0
 3829 00d0 13       		.uleb128 0x13
 3830 00d1 34       		.uleb128 0x34
 3831 00d2 00       		.byte	0
 3832 00d3 03       		.uleb128 0x3
 3833 00d4 0E       		.uleb128 0xe
 3834 00d5 3A       		.uleb128 0x3a
 3835 00d6 0B       		.uleb128 0xb
 3836 00d7 3B       		.uleb128 0x3b
 3837 00d8 05       		.uleb128 0x5
 3838 00d9 49       		.uleb128 0x49
 3839 00da 13       		.uleb128 0x13
 3840 00db 3F       		.uleb128 0x3f
 3841 00dc 19       		.uleb128 0x19
 3842 00dd 3C       		.uleb128 0x3c
 3843 00de 19       		.uleb128 0x19
 3844 00df 00       		.byte	0
 3845 00e0 00       		.byte	0
 3846 00e1 14       		.uleb128 0x14
 3847 00e2 34       		.uleb128 0x34
 3848 00e3 00       		.byte	0
 3849 00e4 03       		.uleb128 0x3
 3850 00e5 0E       		.uleb128 0xe
 3851 00e6 3A       		.uleb128 0x3a
 3852 00e7 0B       		.uleb128 0xb
 3853 00e8 3B       		.uleb128 0x3b
 3854 00e9 0B       		.uleb128 0xb
 3855 00ea 49       		.uleb128 0x49
 3856 00eb 13       		.uleb128 0x13
 3857 00ec 3F       		.uleb128 0x3f
 3858 00ed 19       		.uleb128 0x19
 3859 00ee 3C       		.uleb128 0x3c
 3860 00ef 19       		.uleb128 0x19
 3861 00f0 00       		.byte	0
 3862 00f1 00       		.byte	0
 3863 00f2 15       		.uleb128 0x15
 3864 00f3 13       		.uleb128 0x13
 3865 00f4 01       		.byte	0x1
 3866 00f5 0B       		.uleb128 0xb
 3867 00f6 0B       		.uleb128 0xb
 3868 00f7 3A       		.uleb128 0x3a
 3869 00f8 0B       		.uleb128 0xb
 3870 00f9 3B       		.uleb128 0x3b
 3871 00fa 05       		.uleb128 0x5
 3872 00fb 01       		.uleb128 0x1
 3873 00fc 13       		.uleb128 0x13
 3874 00fd 00       		.byte	0
 3875 00fe 00       		.byte	0
 3876 00ff 16       		.uleb128 0x16
ARM GAS  /tmp/ccKyNeCd.s 			page 69


 3877 0100 16       		.uleb128 0x16
 3878 0101 00       		.byte	0
 3879 0102 03       		.uleb128 0x3
 3880 0103 0E       		.uleb128 0xe
 3881 0104 3A       		.uleb128 0x3a
 3882 0105 0B       		.uleb128 0xb
 3883 0106 3B       		.uleb128 0x3b
 3884 0107 05       		.uleb128 0x5
 3885 0108 49       		.uleb128 0x49
 3886 0109 13       		.uleb128 0x13
 3887 010a 00       		.byte	0
 3888 010b 00       		.byte	0
 3889 010c 17       		.uleb128 0x17
 3890 010d 0D       		.uleb128 0xd
 3891 010e 00       		.byte	0
 3892 010f 03       		.uleb128 0x3
 3893 0110 08       		.uleb128 0x8
 3894 0111 3A       		.uleb128 0x3a
 3895 0112 0B       		.uleb128 0xb
 3896 0113 3B       		.uleb128 0x3b
 3897 0114 0B       		.uleb128 0xb
 3898 0115 49       		.uleb128 0x49
 3899 0116 13       		.uleb128 0x13
 3900 0117 38       		.uleb128 0x38
 3901 0118 0B       		.uleb128 0xb
 3902 0119 00       		.byte	0
 3903 011a 00       		.byte	0
 3904 011b 18       		.uleb128 0x18
 3905 011c 13       		.uleb128 0x13
 3906 011d 01       		.byte	0x1
 3907 011e 0B       		.uleb128 0xb
 3908 011f 0B       		.uleb128 0xb
 3909 0120 3A       		.uleb128 0x3a
 3910 0121 0B       		.uleb128 0xb
 3911 0122 3B       		.uleb128 0x3b
 3912 0123 0B       		.uleb128 0xb
 3913 0124 01       		.uleb128 0x1
 3914 0125 13       		.uleb128 0x13
 3915 0126 00       		.byte	0
 3916 0127 00       		.byte	0
 3917 0128 19       		.uleb128 0x19
 3918 0129 17       		.uleb128 0x17
 3919 012a 01       		.byte	0x1
 3920 012b 0B       		.uleb128 0xb
 3921 012c 0B       		.uleb128 0xb
 3922 012d 3A       		.uleb128 0x3a
 3923 012e 0B       		.uleb128 0xb
 3924 012f 3B       		.uleb128 0x3b
 3925 0130 0B       		.uleb128 0xb
 3926 0131 01       		.uleb128 0x1
 3927 0132 13       		.uleb128 0x13
 3928 0133 00       		.byte	0
 3929 0134 00       		.byte	0
 3930 0135 1A       		.uleb128 0x1a
 3931 0136 0D       		.uleb128 0xd
 3932 0137 00       		.byte	0
 3933 0138 03       		.uleb128 0x3
ARM GAS  /tmp/ccKyNeCd.s 			page 70


 3934 0139 0E       		.uleb128 0xe
 3935 013a 3A       		.uleb128 0x3a
 3936 013b 0B       		.uleb128 0xb
 3937 013c 3B       		.uleb128 0x3b
 3938 013d 05       		.uleb128 0x5
 3939 013e 49       		.uleb128 0x49
 3940 013f 13       		.uleb128 0x13
 3941 0140 00       		.byte	0
 3942 0141 00       		.byte	0
 3943 0142 1B       		.uleb128 0x1b
 3944 0143 34       		.uleb128 0x34
 3945 0144 00       		.byte	0
 3946 0145 03       		.uleb128 0x3
 3947 0146 08       		.uleb128 0x8
 3948 0147 3A       		.uleb128 0x3a
 3949 0148 0B       		.uleb128 0xb
 3950 0149 3B       		.uleb128 0x3b
 3951 014a 05       		.uleb128 0x5
 3952 014b 49       		.uleb128 0x49
 3953 014c 13       		.uleb128 0x13
 3954 014d 3F       		.uleb128 0x3f
 3955 014e 19       		.uleb128 0x19
 3956 014f 3C       		.uleb128 0x3c
 3957 0150 19       		.uleb128 0x19
 3958 0151 00       		.byte	0
 3959 0152 00       		.byte	0
 3960 0153 1C       		.uleb128 0x1c
 3961 0154 04       		.uleb128 0x4
 3962 0155 01       		.byte	0x1
 3963 0156 3E       		.uleb128 0x3e
 3964 0157 0B       		.uleb128 0xb
 3965 0158 0B       		.uleb128 0xb
 3966 0159 0B       		.uleb128 0xb
 3967 015a 49       		.uleb128 0x49
 3968 015b 13       		.uleb128 0x13
 3969 015c 3A       		.uleb128 0x3a
 3970 015d 0B       		.uleb128 0xb
 3971 015e 3B       		.uleb128 0x3b
 3972 015f 0B       		.uleb128 0xb
 3973 0160 01       		.uleb128 0x1
 3974 0161 13       		.uleb128 0x13
 3975 0162 00       		.byte	0
 3976 0163 00       		.byte	0
 3977 0164 1D       		.uleb128 0x1d
 3978 0165 28       		.uleb128 0x28
 3979 0166 00       		.byte	0
 3980 0167 03       		.uleb128 0x3
 3981 0168 0E       		.uleb128 0xe
 3982 0169 1C       		.uleb128 0x1c
 3983 016a 0B       		.uleb128 0xb
 3984 016b 00       		.byte	0
 3985 016c 00       		.byte	0
 3986 016d 1E       		.uleb128 0x1e
 3987 016e 04       		.uleb128 0x4
 3988 016f 01       		.byte	0x1
 3989 0170 3E       		.uleb128 0x3e
 3990 0171 0B       		.uleb128 0xb
ARM GAS  /tmp/ccKyNeCd.s 			page 71


 3991 0172 0B       		.uleb128 0xb
 3992 0173 0B       		.uleb128 0xb
 3993 0174 49       		.uleb128 0x49
 3994 0175 13       		.uleb128 0x13
 3995 0176 3A       		.uleb128 0x3a
 3996 0177 0B       		.uleb128 0xb
 3997 0178 3B       		.uleb128 0x3b
 3998 0179 05       		.uleb128 0x5
 3999 017a 01       		.uleb128 0x1
 4000 017b 13       		.uleb128 0x13
 4001 017c 00       		.byte	0
 4002 017d 00       		.byte	0
 4003 017e 1F       		.uleb128 0x1f
 4004 017f 15       		.uleb128 0x15
 4005 0180 01       		.byte	0x1
 4006 0181 27       		.uleb128 0x27
 4007 0182 19       		.uleb128 0x19
 4008 0183 49       		.uleb128 0x49
 4009 0184 13       		.uleb128 0x13
 4010 0185 01       		.uleb128 0x1
 4011 0186 13       		.uleb128 0x13
 4012 0187 00       		.byte	0
 4013 0188 00       		.byte	0
 4014 0189 20       		.uleb128 0x20
 4015 018a 13       		.uleb128 0x13
 4016 018b 01       		.byte	0x1
 4017 018c 0B       		.uleb128 0xb
 4018 018d 06       		.uleb128 0x6
 4019 018e 3A       		.uleb128 0x3a
 4020 018f 0B       		.uleb128 0xb
 4021 0190 3B       		.uleb128 0x3b
 4022 0191 0B       		.uleb128 0xb
 4023 0192 01       		.uleb128 0x1
 4024 0193 13       		.uleb128 0x13
 4025 0194 00       		.byte	0
 4026 0195 00       		.byte	0
 4027 0196 21       		.uleb128 0x21
 4028 0197 0D       		.uleb128 0xd
 4029 0198 00       		.byte	0
 4030 0199 03       		.uleb128 0x3
 4031 019a 0E       		.uleb128 0xe
 4032 019b 3A       		.uleb128 0x3a
 4033 019c 0B       		.uleb128 0xb
 4034 019d 3B       		.uleb128 0x3b
 4035 019e 0B       		.uleb128 0xb
 4036 019f 49       		.uleb128 0x49
 4037 01a0 13       		.uleb128 0x13
 4038 01a1 38       		.uleb128 0x38
 4039 01a2 05       		.uleb128 0x5
 4040 01a3 00       		.byte	0
 4041 01a4 00       		.byte	0
 4042 01a5 22       		.uleb128 0x22
 4043 01a6 0D       		.uleb128 0xd
 4044 01a7 00       		.byte	0
 4045 01a8 03       		.uleb128 0x3
 4046 01a9 08       		.uleb128 0x8
 4047 01aa 3A       		.uleb128 0x3a
ARM GAS  /tmp/ccKyNeCd.s 			page 72


 4048 01ab 0B       		.uleb128 0xb
 4049 01ac 3B       		.uleb128 0x3b
 4050 01ad 0B       		.uleb128 0xb
 4051 01ae 49       		.uleb128 0x49
 4052 01af 13       		.uleb128 0x13
 4053 01b0 38       		.uleb128 0x38
 4054 01b1 05       		.uleb128 0x5
 4055 01b2 00       		.byte	0
 4056 01b3 00       		.byte	0
 4057 01b4 23       		.uleb128 0x23
 4058 01b5 21       		.uleb128 0x21
 4059 01b6 00       		.byte	0
 4060 01b7 49       		.uleb128 0x49
 4061 01b8 13       		.uleb128 0x13
 4062 01b9 2F       		.uleb128 0x2f
 4063 01ba 05       		.uleb128 0x5
 4064 01bb 00       		.byte	0
 4065 01bc 00       		.byte	0
 4066 01bd 24       		.uleb128 0x24
 4067 01be 0D       		.uleb128 0xd
 4068 01bf 00       		.byte	0
 4069 01c0 03       		.uleb128 0x3
 4070 01c1 0E       		.uleb128 0xe
 4071 01c2 3A       		.uleb128 0x3a
 4072 01c3 0B       		.uleb128 0xb
 4073 01c4 3B       		.uleb128 0x3b
 4074 01c5 0B       		.uleb128 0xb
 4075 01c6 49       		.uleb128 0x49
 4076 01c7 13       		.uleb128 0x13
 4077 01c8 00       		.byte	0
 4078 01c9 00       		.byte	0
 4079 01ca 25       		.uleb128 0x25
 4080 01cb 17       		.uleb128 0x17
 4081 01cc 01       		.byte	0x1
 4082 01cd 0B       		.uleb128 0xb
 4083 01ce 0B       		.uleb128 0xb
 4084 01cf 3A       		.uleb128 0x3a
 4085 01d0 0B       		.uleb128 0xb
 4086 01d1 3B       		.uleb128 0x3b
 4087 01d2 05       		.uleb128 0x5
 4088 01d3 01       		.uleb128 0x1
 4089 01d4 13       		.uleb128 0x13
 4090 01d5 00       		.byte	0
 4091 01d6 00       		.byte	0
 4092 01d7 26       		.uleb128 0x26
 4093 01d8 34       		.uleb128 0x34
 4094 01d9 00       		.byte	0
 4095 01da 47       		.uleb128 0x47
 4096 01db 13       		.uleb128 0x13
 4097 01dc 3A       		.uleb128 0x3a
 4098 01dd 0B       		.uleb128 0xb
 4099 01de 3B       		.uleb128 0x3b
 4100 01df 0B       		.uleb128 0xb
 4101 01e0 02       		.uleb128 0x2
 4102 01e1 18       		.uleb128 0x18
 4103 01e2 00       		.byte	0
 4104 01e3 00       		.byte	0
ARM GAS  /tmp/ccKyNeCd.s 			page 73


 4105 01e4 27       		.uleb128 0x27
 4106 01e5 2E       		.uleb128 0x2e
 4107 01e6 00       		.byte	0
 4108 01e7 3F       		.uleb128 0x3f
 4109 01e8 19       		.uleb128 0x19
 4110 01e9 03       		.uleb128 0x3
 4111 01ea 0E       		.uleb128 0xe
 4112 01eb 3A       		.uleb128 0x3a
 4113 01ec 0B       		.uleb128 0xb
 4114 01ed 3B       		.uleb128 0x3b
 4115 01ee 0B       		.uleb128 0xb
 4116 01ef 27       		.uleb128 0x27
 4117 01f0 19       		.uleb128 0x19
 4118 01f1 11       		.uleb128 0x11
 4119 01f2 01       		.uleb128 0x1
 4120 01f3 12       		.uleb128 0x12
 4121 01f4 06       		.uleb128 0x6
 4122 01f5 40       		.uleb128 0x40
 4123 01f6 18       		.uleb128 0x18
 4124 01f7 9742     		.uleb128 0x2117
 4125 01f9 19       		.uleb128 0x19
 4126 01fa 00       		.byte	0
 4127 01fb 00       		.byte	0
 4128 01fc 28       		.uleb128 0x28
 4129 01fd 2E       		.uleb128 0x2e
 4130 01fe 01       		.byte	0x1
 4131 01ff 3F       		.uleb128 0x3f
 4132 0200 19       		.uleb128 0x19
 4133 0201 03       		.uleb128 0x3
 4134 0202 0E       		.uleb128 0xe
 4135 0203 3A       		.uleb128 0x3a
 4136 0204 0B       		.uleb128 0xb
 4137 0205 3B       		.uleb128 0x3b
 4138 0206 0B       		.uleb128 0xb
 4139 0207 27       		.uleb128 0x27
 4140 0208 19       		.uleb128 0x19
 4141 0209 11       		.uleb128 0x11
 4142 020a 01       		.uleb128 0x1
 4143 020b 12       		.uleb128 0x12
 4144 020c 06       		.uleb128 0x6
 4145 020d 40       		.uleb128 0x40
 4146 020e 18       		.uleb128 0x18
 4147 020f 9742     		.uleb128 0x2117
 4148 0211 19       		.uleb128 0x19
 4149 0212 01       		.uleb128 0x1
 4150 0213 13       		.uleb128 0x13
 4151 0214 00       		.byte	0
 4152 0215 00       		.byte	0
 4153 0216 29       		.uleb128 0x29
 4154 0217 1D       		.uleb128 0x1d
 4155 0218 00       		.byte	0
 4156 0219 31       		.uleb128 0x31
 4157 021a 13       		.uleb128 0x13
 4158 021b 52       		.uleb128 0x52
 4159 021c 01       		.uleb128 0x1
 4160 021d 55       		.uleb128 0x55
 4161 021e 17       		.uleb128 0x17
ARM GAS  /tmp/ccKyNeCd.s 			page 74


 4162 021f 58       		.uleb128 0x58
 4163 0220 0B       		.uleb128 0xb
 4164 0221 59       		.uleb128 0x59
 4165 0222 0B       		.uleb128 0xb
 4166 0223 00       		.byte	0
 4167 0224 00       		.byte	0
 4168 0225 2A       		.uleb128 0x2a
 4169 0226 898201   		.uleb128 0x4109
 4170 0229 00       		.byte	0
 4171 022a 11       		.uleb128 0x11
 4172 022b 01       		.uleb128 0x1
 4173 022c 9542     		.uleb128 0x2115
 4174 022e 19       		.uleb128 0x19
 4175 022f 31       		.uleb128 0x31
 4176 0230 13       		.uleb128 0x13
 4177 0231 00       		.byte	0
 4178 0232 00       		.byte	0
 4179 0233 2B       		.uleb128 0x2b
 4180 0234 2E       		.uleb128 0x2e
 4181 0235 00       		.byte	0
 4182 0236 03       		.uleb128 0x3
 4183 0237 0E       		.uleb128 0xe
 4184 0238 3A       		.uleb128 0x3a
 4185 0239 0B       		.uleb128 0xb
 4186 023a 3B       		.uleb128 0x3b
 4187 023b 0B       		.uleb128 0xb
 4188 023c 27       		.uleb128 0x27
 4189 023d 19       		.uleb128 0x19
 4190 023e 20       		.uleb128 0x20
 4191 023f 0B       		.uleb128 0xb
 4192 0240 00       		.byte	0
 4193 0241 00       		.byte	0
 4194 0242 2C       		.uleb128 0x2c
 4195 0243 2E       		.uleb128 0x2e
 4196 0244 00       		.byte	0
 4197 0245 3F       		.uleb128 0x3f
 4198 0246 19       		.uleb128 0x19
 4199 0247 3C       		.uleb128 0x3c
 4200 0248 19       		.uleb128 0x19
 4201 0249 6E       		.uleb128 0x6e
 4202 024a 0E       		.uleb128 0xe
 4203 024b 03       		.uleb128 0x3
 4204 024c 0E       		.uleb128 0xe
 4205 024d 3A       		.uleb128 0x3a
 4206 024e 0B       		.uleb128 0xb
 4207 024f 3B       		.uleb128 0x3b
 4208 0250 05       		.uleb128 0x5
 4209 0251 00       		.byte	0
 4210 0252 00       		.byte	0
 4211 0253 00       		.byte	0
 4212              		.section	.debug_aranges,"",%progbits
 4213 0000 24000000 		.4byte	0x24
 4214 0004 0200     		.2byte	0x2
 4215 0006 00000000 		.4byte	.Ldebug_info0
 4216 000a 04       		.byte	0x4
 4217 000b 00       		.byte	0
 4218 000c 0000     		.2byte	0
ARM GAS  /tmp/ccKyNeCd.s 			page 75


 4219 000e 0000     		.2byte	0
 4220 0010 00000000 		.4byte	.LFB261
 4221 0014 68000000 		.4byte	.LFE261-.LFB261
 4222 0018 00000000 		.4byte	.LFB262
 4223 001c C0000000 		.4byte	.LFE262-.LFB262
 4224 0020 00000000 		.4byte	0
 4225 0024 00000000 		.4byte	0
 4226              		.section	.debug_ranges,"",%progbits
 4227              	.Ldebug_ranges0:
 4228 0000 18000000 		.4byte	.LBB4
 4229 0004 1A000000 		.4byte	.LBE4
 4230 0008 30000000 		.4byte	.LBB8
 4231 000c 4E000000 		.4byte	.LBE8
 4232 0010 52000000 		.4byte	.LBB9
 4233 0014 5A000000 		.4byte	.LBE9
 4234 0018 00000000 		.4byte	0
 4235 001c 00000000 		.4byte	0
 4236 0020 00000000 		.4byte	.LFB261
 4237 0024 68000000 		.4byte	.LFE261
 4238 0028 00000000 		.4byte	.LFB262
 4239 002c C0000000 		.4byte	.LFE262
 4240 0030 00000000 		.4byte	0
 4241 0034 00000000 		.4byte	0
 4242              		.section	.debug_line,"",%progbits
 4243              	.Ldebug_line0:
 4244 0000 DB030000 		.section	.debug_str,"MS",%progbits,1
 4244      02004203 
 4244      00000201 
 4244      FB0E0D00 
 4244      01010101 
 4245              	.LASF86:
 4246 0000 4D314152 		.ascii	"M1AR\000"
 4246      00
 4247              	.LASF184:
 4248 0005 73746D33 		.ascii	"stm32_dma_stream_t\000"
 4248      325F646D 
 4248      615F7374 
 4248      7265616D 
 4248      5F7400
 4249              	.LASF4:
 4250 0018 73697A65 		.ascii	"size_t\000"
 4250      5F7400
 4251              	.LASF134:
 4252 001f 77747365 		.ascii	"wtsemp\000"
 4252      6D7000
 4253              	.LASF156:
 4254 0026 63665F6F 		.ascii	"cf_off_name\000"
 4254      66665F6E 
 4254      616D6500 
 4255              	.LASF29:
 4256 0032 73797374 		.ascii	"systime_t\000"
 4256      696D655F 
 4256      7400
 4257              	.LASF206:
 4258 003c 55415254 		.ascii	"UART_STOP\000"
 4258      5F53544F 
 4258      5000
ARM GAS  /tmp/ccKyNeCd.s 			page 76


 4259              	.LASF120:
 4260 0046 504C4C49 		.ascii	"PLLI2SCFGR\000"
 4260      32534346 
 4260      475200
 4261              	.LASF145:
 4262 0051 63685F69 		.ascii	"ch_identifier\000"
 4262      64656E74 
 4262      69666965 
 4262      7200
 4263              	.LASF34:
 4264 005f 705F6374 		.ascii	"p_ctx\000"
 4264      7800
 4265              	.LASF25:
 4266 0065 74707269 		.ascii	"tprio_t\000"
 4266      6F5F7400 
 4267              	.LASF164:
 4268 006d 63685F64 		.ascii	"ch_debug\000"
 4268      65627567 
 4268      00
 4269              	.LASF42:
 4270 0076 705F6D73 		.ascii	"p_msgqueue\000"
 4270      67717565 
 4270      756500
 4271              	.LASF58:
 4272 0081 725F6374 		.ascii	"r_ctx\000"
 4272      7800
 4273              	.LASF18:
 4274 0087 696E7433 		.ascii	"int32_t\000"
 4274      325F7400 
 4275              	.LASF297:
 4276 008f 72657376 		.ascii	"resvd4\000"
 4276      643400
 4277              	.LASF288:
 4278 0096 72657376 		.ascii	"resvd8\000"
 4278      643800
 4279              	.LASF153:
 4280 009d 63665F6F 		.ascii	"cf_off_ctx\000"
 4280      66665F63 
 4280      747800
 4281              	.LASF62:
 4282 00a8 76746675 		.ascii	"vtfunc_t\000"
 4282      6E635F74 
 4282      00
 4283              	.LASF299:
 4284 00b1 72657376 		.ascii	"resvdC\000"
 4284      644300
 4285              	.LASF71:
 4286 00b8 63685F76 		.ascii	"ch_virtual_timers_list\000"
 4286      69727475 
 4286      616C5F74 
 4286      696D6572 
 4286      735F6C69 
 4287              	.LASF265:
 4288 00cf 5553425F 		.ascii	"USB_EP0_TX\000"
 4288      4550305F 
 4288      545800
 4289              	.LASF328:
ARM GAS  /tmp/ccKyNeCd.s 			page 77


 4290 00da 48464952 		.ascii	"HFIR\000"
 4290      00
 4291              	.LASF291:
 4292 00df 48435453 		.ascii	"HCTSIZ\000"
 4292      495A00
 4293              	.LASF337:
 4294 00e6 72657376 		.ascii	"resvd700\000"
 4294      64373030 
 4294      00
 4295              	.LASF222:
 4296 00ef 636F6E66 		.ascii	"config\000"
 4296      696700
 4297              	.LASF219:
 4298 00f6 73746174 		.ascii	"state\000"
 4298      6500
 4299              	.LASF381:
 4300 00fc 65705F6D 		.ascii	"ep_mode\000"
 4300      6F646500 
 4301              	.LASF198:
 4302 0104 50454461 		.ascii	"PEData\000"
 4302      746100
 4303              	.LASF221:
 4304 010b 72787374 		.ascii	"rxstate\000"
 4304      61746500 
 4305              	.LASF149:
 4306 0113 63685F70 		.ascii	"ch_ptrsize\000"
 4306      74727369 
 4306      7A6500
 4307              	.LASF262:
 4308 011e 5553425F 		.ascii	"USB_ACTIVE\000"
 4308      41435449 
 4308      564500
 4309              	.LASF233:
 4310 0129 7278656E 		.ascii	"rxend_cb\000"
 4310      645F6362 
 4310      00
 4311              	.LASF193:
 4312 0132 73746D33 		.ascii	"stm32_gpio_setup_t\000"
 4312      325F6770 
 4312      696F5F73 
 4312      65747570 
 4312      5F7400
 4313              	.LASF142:
 4314 0145 6D5F6F77 		.ascii	"m_owner\000"
 4314      6E657200 
 4315              	.LASF69:
 4316 014d 76745F70 		.ascii	"vt_par\000"
 4316      617200
 4317              	.LASF131:
 4318 0154 65786974 		.ascii	"exitcode\000"
 4318      636F6465 
 4318      00
 4319              	.LASF271:
 4320 015d 75736265 		.ascii	"usbep0state_t\000"
 4320      70307374 
 4320      6174655F 
 4320      7400
ARM GAS  /tmp/ccKyNeCd.s 			page 78


 4321              	.LASF5:
 4322 016b 5F5F7569 		.ascii	"__uint8_t\000"
 4322      6E74385F 
 4322      7400
 4323              	.LASF171:
 4324 0175 715F746F 		.ascii	"q_top\000"
 4324      7000
 4325              	.LASF179:
 4326 017b 73747265 		.ascii	"stream\000"
 4326      616D00
 4327              	.LASF111:
 4328 0182 41484232 		.ascii	"AHB2LPENR\000"
 4328      4C50454E 
 4328      5200
 4329              	.LASF151:
 4330 018c 63685F74 		.ascii	"ch_threadsize\000"
 4330      68726561 
 4330      6473697A 
 4330      6500
 4331              	.LASF170:
 4332 019a 715F6275 		.ascii	"q_buffer\000"
 4332      66666572 
 4332      00
 4333              	.LASF273:
 4334 01a3 5553425F 		.ascii	"USB_EVENT_ADDRESS\000"
 4334      4556454E 
 4334      545F4144 
 4334      44524553 
 4334      5300
 4335              	.LASF318:
 4336 01b5 44494550 		.ascii	"DIEPTXF0\000"
 4336      54584630 
 4336      00
 4337              	.LASF174:
 4338 01be 715F6E6F 		.ascii	"q_notify\000"
 4338      74696679 
 4338      00
 4339              	.LASF35:
 4340 01c7 705F6E65 		.ascii	"p_newer\000"
 4340      77657200 
 4341              	.LASF218:
 4342 01cf 55415254 		.ascii	"UARTDriver\000"
 4342      44726976 
 4342      657200
 4343              	.LASF11:
 4344 01da 6C6F6E67 		.ascii	"long int\000"
 4344      20696E74 
 4344      00
 4345              	.LASF31:
 4346 01e3 705F6E65 		.ascii	"p_next\000"
 4346      787400
 4347              	.LASF173:
 4348 01ea 715F7264 		.ascii	"q_rdptr\000"
 4348      70747200 
 4349              	.LASF158:
 4350 01f2 63665F6F 		.ascii	"cf_off_state\000"
 4350      66665F73 
ARM GAS  /tmp/ccKyNeCd.s 			page 79


 4350      74617465 
 4350      00
 4351              	.LASF32:
 4352 01ff 705F7072 		.ascii	"p_prev\000"
 4352      657600
 4353              	.LASF224:
 4354 0206 646D616D 		.ascii	"dmamode\000"
 4354      6F646500 
 4355              	.LASF23:
 4356 020e 74737461 		.ascii	"tstate_t\000"
 4356      74655F74 
 4356      00
 4357              	.LASF52:
 4358 0217 74687265 		.ascii	"threads_queue_t\000"
 4358      6164735F 
 4358      71756575 
 4358      655F7400 
 4359              	.LASF45:
 4360 0227 705F6D74 		.ascii	"p_mtxlist\000"
 4360      786C6973 
 4360      7400
 4361              	.LASF366:
 4362 0231 74786275 		.ascii	"txbuf\000"
 4362      6600
 4363              	.LASF124:
 4364 0237 72656761 		.ascii	"regarm_t\000"
 4364      726D5F74 
 4364      00
 4365              	.LASF344:
 4366 0240 4441494E 		.ascii	"DAINT\000"
 4366      5400
 4367              	.LASF264:
 4368 0246 5553425F 		.ascii	"USB_EP0_WAITING_SETUP\000"
 4368      4550305F 
 4368      57414954 
 4368      494E475F 
 4368      53455455 
 4369              	.LASF343:
 4370 025c 444F4550 		.ascii	"DOEPMSK\000"
 4370      4D534B00 
 4371              	.LASF220:
 4372 0264 74787374 		.ascii	"txstate\000"
 4372      61746500 
 4373              	.LASF108:
 4374 026c 41504232 		.ascii	"APB2ENR\000"
 4374      454E5200 
 4375              	.LASF167:
 4376 0274 696F5F71 		.ascii	"io_queue\000"
 4376      75657565 
 4376      00
 4377              	.LASF110:
 4378 027d 41484231 		.ascii	"AHB1LPENR\000"
 4378      4C50454E 
 4378      5200
 4379              	.LASF212:
 4380 0287 75617274 		.ascii	"uarttxstate_t\000"
 4380      74787374 
ARM GAS  /tmp/ccKyNeCd.s 			page 80


 4380      6174655F 
 4380      7400
 4381              	.LASF304:
 4382 0295 444F4550 		.ascii	"DOEPCTL\000"
 4382      43544C00 
 4383              	.LASF223:
 4384 029d 75736172 		.ascii	"usart\000"
 4384      7400
 4385              	.LASF204:
 4386 02a3 70616C5F 		.ascii	"pal_default_config\000"
 4386      64656661 
 4386      756C745F 
 4386      636F6E66 
 4386      696700
 4387              	.LASF175:
 4388 02b6 715F6C69 		.ascii	"q_link\000"
 4388      6E6B00
 4389              	.LASF3:
 4390 02bd 7369676E 		.ascii	"signed char\000"
 4390      65642063 
 4390      68617200 
 4391              	.LASF136:
 4392 02c9 65776D61 		.ascii	"ewmask\000"
 4392      736B00
 4393              	.LASF16:
 4394 02d0 75696E74 		.ascii	"uint8_t\000"
 4394      385F7400 
 4395              	.LASF277:
 4396 02d8 5553425F 		.ascii	"USB_EVENT_STALLED\000"
 4396      4556454E 
 4396      545F5354 
 4396      414C4C45 
 4396      4400
 4397              	.LASF305:
 4398 02ea 444F4550 		.ascii	"DOEPINT\000"
 4398      494E5400 
 4399              	.LASF402:
 4400 02f2 68616C5F 		.ascii	"hal_lld_init\000"
 4400      6C6C645F 
 4400      696E6974 
 4400      00
 4401              	.LASF27:
 4402 02ff 6576656E 		.ascii	"eventmask_t\000"
 4402      746D6173 
 4402      6B5F7400 
 4403              	.LASF126:
 4404 030b 636F6E74 		.ascii	"context\000"
 4404      65787400 
 4405              	.LASF378:
 4406 0313 72787369 		.ascii	"rxsize\000"
 4406      7A6500
 4407              	.LASF133:
 4408 031a 77747472 		.ascii	"wttrp\000"
 4408      7000
 4409              	.LASF99:
 4410 0320 52455345 		.ascii	"RESERVED0\000"
 4410      52564544 
ARM GAS  /tmp/ccKyNeCd.s 			page 81


 4410      3000
 4411              	.LASF102:
 4412 032a 52455345 		.ascii	"RESERVED1\000"
 4412      52564544 
 4412      3100
 4413              	.LASF6:
 4414 0334 756E7369 		.ascii	"unsigned char\000"
 4414      676E6564 
 4414      20636861 
 4414      7200
 4415              	.LASF109:
 4416 0342 52455345 		.ascii	"RESERVED3\000"
 4416      52564544 
 4416      3300
 4417              	.LASF113:
 4418 034c 52455345 		.ascii	"RESERVED4\000"
 4418      52564544 
 4418      3400
 4419              	.LASF116:
 4420 0356 52455345 		.ascii	"RESERVED5\000"
 4420      52564544 
 4420      3500
 4421              	.LASF118:
 4422 0360 52455345 		.ascii	"RESERVED6\000"
 4422      52564544 
 4422      3600
 4423              	.LASF197:
 4424 036a 50444461 		.ascii	"PDData\000"
 4424      746100
 4425              	.LASF75:
 4426 0371 70616E69 		.ascii	"panic_msg\000"
 4426      635F6D73 
 4426      6700
 4427              	.LASF338:
 4428 037b 44434647 		.ascii	"DCFG\000"
 4428      00
 4429              	.LASF356:
 4430 0380 72657376 		.ascii	"resvd8C0\000"
 4430      64384330 
 4430      00
 4431              	.LASF59:
 4432 0389 725F6E65 		.ascii	"r_newer\000"
 4432      77657200 
 4433              	.LASF322:
 4434 0391 47434346 		.ascii	"GCCFG\000"
 4434      4700
 4435              	.LASF244:
 4436 0397 65703073 		.ascii	"ep0state\000"
 4436      74617465 
 4436      00
 4437              	.LASF73:
 4438 03a0 73797374 		.ascii	"system_debug_t\000"
 4438      656D5F64 
 4438      65627567 
 4438      5F7400
 4439              	.LASF300:
 4440 03af 44494550 		.ascii	"DIEPTSIZ\000"
ARM GAS  /tmp/ccKyNeCd.s 			page 82


 4440      5453495A 
 4440      00
 4441              	.LASF394:
 4442 03b8 72657175 		.ascii	"requests_hook_cb\000"
 4442      65737473 
 4442      5F686F6F 
 4442      6B5F6362 
 4442      00
 4443              	.LASF186:
 4444 03c9 5F426F6F 		.ascii	"_Bool\000"
 4444      6C00
 4445              	.LASF106:
 4446 03cf 52455345 		.ascii	"RESERVED2\000"
 4446      52564544 
 4446      3200
 4447              	.LASF327:
 4448 03d9 48434647 		.ascii	"HCFG\000"
 4448      00
 4449              	.LASF287:
 4450 03de 48434348 		.ascii	"HCCHAR\000"
 4450      415200
 4451              	.LASF307:
 4452 03e5 73746D33 		.ascii	"stm32_otg_out_ep_t\000"
 4452      325F6F74 
 4452      675F6F75 
 4452      745F6570 
 4452      5F7400
 4453              	.LASF144:
 4454 03f8 63686172 		.ascii	"char\000"
 4454      00
 4455              	.LASF187:
 4456 03fd 6D6F6465 		.ascii	"moder\000"
 4456      7200
 4457              	.LASF181:
 4458 0403 69736869 		.ascii	"ishift\000"
 4458      667400
 4459              	.LASF246:
 4460 040a 6570306E 		.ascii	"ep0n\000"
 4460      00
 4461              	.LASF96:
 4462 040f 41484231 		.ascii	"AHB1RSTR\000"
 4462      52535452 
 4462      00
 4463              	.LASF335:
 4464 0418 48505254 		.ascii	"HPRT\000"
 4464      00
 4465              	.LASF33:
 4466 041d 705F7072 		.ascii	"p_prio\000"
 4466      696F00
 4467              	.LASF241:
 4468 0424 72656365 		.ascii	"receiving\000"
 4468      6976696E 
 4468      6700
 4469              	.LASF8:
 4470 042e 5F5F7569 		.ascii	"__uint16_t\000"
 4470      6E743136 
 4470      5F7400
ARM GAS  /tmp/ccKyNeCd.s 			page 83


 4471              	.LASF104:
 4472 0439 41484232 		.ascii	"AHB2ENR\000"
 4472      454E5200 
 4473              	.LASF239:
 4474 0441 55534244 		.ascii	"USBDriver\000"
 4474      72697665 
 4474      7200
 4475              	.LASF132:
 4476 044b 77746F62 		.ascii	"wtobjp\000"
 4476      6A7000
 4477              	.LASF154:
 4478 0452 63665F6F 		.ascii	"cf_off_newer\000"
 4478      66665F6E 
 4478      65776572 
 4478      00
 4479              	.LASF383:
 4480 045f 696E5F63 		.ascii	"in_cb\000"
 4480      6200
 4481              	.LASF125:
 4482 0465 73746B61 		.ascii	"stkalign_t\000"
 4482      6C69676E 
 4482      5F7400
 4483              	.LASF123:
 4484 0470 55534152 		.ascii	"USART_TypeDef\000"
 4484      545F5479 
 4484      70654465 
 4484      6600
 4485              	.LASF329:
 4486 047e 48464E55 		.ascii	"HFNUM\000"
 4486      4D00
 4487              	.LASF284:
 4488 0484 75736265 		.ascii	"usbeventcb_t\000"
 4488      76656E74 
 4488      63625F74 
 4488      00
 4489              	.LASF152:
 4490 0491 63665F6F 		.ascii	"cf_off_prio\000"
 4490      66665F70 
 4490      72696F00 
 4491              	.LASF92:
 4492 049d 464C4153 		.ascii	"FLASH_TypeDef\000"
 4492      485F5479 
 4492      70654465 
 4492      6600
 4493              	.LASF295:
 4494 04ab 73746D33 		.ascii	"stm32_otg_host_chn_t\000"
 4494      325F6F74 
 4494      675F686F 
 4494      73745F63 
 4494      686E5F74 
 4495              	.LASF404:
 4496 04c0 646D6149 		.ascii	"dmaInit\000"
 4496      6E697400 
 4497              	.LASF240:
 4498 04c8 7472616E 		.ascii	"transmitting\000"
 4498      736D6974 
 4498      74696E67 
ARM GAS  /tmp/ccKyNeCd.s 			page 84


 4498      00
 4499              	.LASF375:
 4500 04d5 55534249 		.ascii	"USBInEndpointState\000"
 4500      6E456E64 
 4500      706F696E 
 4500      74537461 
 4500      746500
 4501              	.LASF346:
 4502 04e8 72657376 		.ascii	"resvd820\000"
 4502      64383230 
 4502      00
 4503              	.LASF347:
 4504 04f1 72657376 		.ascii	"resvd824\000"
 4504      64383234 
 4504      00
 4505              	.LASF341:
 4506 04fa 72657376 		.ascii	"resvd80C\000"
 4506      64383043 
 4506      00
 4507              	.LASF117:
 4508 0503 42444352 		.ascii	"BDCR\000"
 4508      00
 4509              	.LASF349:
 4510 0508 44564255 		.ascii	"DVBUSPULSE\000"
 4510      5350554C 
 4510      534500
 4511              	.LASF258:
 4512 0513 5553425F 		.ascii	"USB_UNINIT\000"
 4512      554E494E 
 4512      495400
 4513              	.LASF28:
 4514 051e 636E745F 		.ascii	"cnt_t\000"
 4514      7400
 4515              	.LASF363:
 4516 0524 6F74675F 		.ascii	"otg_ram_size\000"
 4516      72616D5F 
 4516      73697A65 
 4516      00
 4517              	.LASF234:
 4518 0531 72786368 		.ascii	"rxchar_cb\000"
 4518      61725F63 
 4518      6200
 4519              	.LASF68:
 4520 053b 76745F66 		.ascii	"vt_func\000"
 4520      756E6300 
 4521              	.LASF281:
 4522 0543 55534244 		.ascii	"USBDescriptor\000"
 4522      65736372 
 4522      6970746F 
 4522      7200
 4523              	.LASF365:
 4524 0551 73746D33 		.ascii	"stm32_otg_params_t\000"
 4524      325F6F74 
 4524      675F7061 
 4524      72616D73 
 4524      5F7400
 4525              	.LASF248:
ARM GAS  /tmp/ccKyNeCd.s 			page 85


 4526 0564 73657475 		.ascii	"setup\000"
 4526      7000
 4527              	.LASF236:
 4528 056a 73706565 		.ascii	"speed\000"
 4528      6400
 4529              	.LASF44:
 4530 0570 705F6570 		.ascii	"p_epending\000"
 4530      656E6469 
 4530      6E6700
 4531              	.LASF135:
 4532 057b 77746D74 		.ascii	"wtmtxp\000"
 4532      787000
 4533              	.LASF278:
 4534 0582 75736265 		.ascii	"usbevent_t\000"
 4534      76656E74 
 4534      5F7400
 4535              	.LASF55:
 4536 058d 63685F72 		.ascii	"ch_ready_list\000"
 4536      65616479 
 4536      5F6C6973 
 4536      7400
 4537              	.LASF279:
 4538 059b 75645F73 		.ascii	"ud_size\000"
 4538      697A6500 
 4539              	.LASF95:
 4540 05a3 43464752 		.ascii	"CFGR\000"
 4540      00
 4541              	.LASF189:
 4542 05a8 6F737065 		.ascii	"ospeedr\000"
 4542      65647200 
 4543              	.LASF261:
 4544 05b0 5553425F 		.ascii	"USB_SELECTED\000"
 4544      53454C45 
 4544      43544544 
 4544      00
 4545              	.LASF196:
 4546 05bd 50434461 		.ascii	"PCData\000"
 4546      746100
 4547              	.LASF251:
 4548 05c4 636F6E66 		.ascii	"configuration\000"
 4548      69677572 
 4548      6174696F 
 4548      6E00
 4549              	.LASF332:
 4550 05d2 4841494E 		.ascii	"HAINT\000"
 4550      5400
 4551              	.LASF317:
 4552 05d8 47525846 		.ascii	"GRXFSIZ\000"
 4552      53495A00 
 4553              	.LASF372:
 4554 05e0 7478636E 		.ascii	"txcnt\000"
 4554      7400
 4555              	.LASF169:
 4556 05e6 715F636F 		.ascii	"q_counter\000"
 4556      756E7465 
 4556      7200
 4557              	.LASF354:
ARM GAS  /tmp/ccKyNeCd.s 			page 86


 4558 05f0 72657376 		.ascii	"resvd840\000"
 4558      64383430 
 4558      00
 4559              	.LASF89:
 4560 05f9 4F50544B 		.ascii	"OPTKEYR\000"
 4560      45595200 
 4561              	.LASF192:
 4562 0601 61667268 		.ascii	"afrh\000"
 4562      00
 4563              	.LASF14:
 4564 0606 5F5F7569 		.ascii	"__uint64_t\000"
 4564      6E743634 
 4564      5F7400
 4565              	.LASF325:
 4566 0611 44494550 		.ascii	"DIEPTXF\000"
 4566      54584600 
 4567              	.LASF13:
 4568 0619 6C6F6E67 		.ascii	"long unsigned int\000"
 4568      20756E73 
 4568      69676E65 
 4568      6420696E 
 4568      7400
 4569              	.LASF107:
 4570 062b 41504231 		.ascii	"APB1ENR\000"
 4570      454E5200 
 4571              	.LASF237:
 4572 0633 55415254 		.ascii	"UARTConfig\000"
 4572      436F6E66 
 4572      696700
 4573              	.LASF249:
 4574 063e 73746174 		.ascii	"status\000"
 4574      757300
 4575              	.LASF250:
 4576 0645 61646472 		.ascii	"address\000"
 4576      65737300 
 4577              	.LASF188:
 4578 064d 6F747970 		.ascii	"otyper\000"
 4578      657200
 4579              	.LASF83:
 4580 0654 53797374 		.ascii	"SystemCoreClock\000"
 4580      656D436F 
 4580      7265436C 
 4580      6F636B00 
 4581              	.LASF137:
 4582 0664 63685F73 		.ascii	"ch_semaphore\000"
 4582      656D6170 
 4582      686F7265 
 4582      00
 4583              	.LASF247:
 4584 0671 65703065 		.ascii	"ep0endcb\000"
 4584      6E646362 
 4584      00
 4585              	.LASF50:
 4586 067a 63685F74 		.ascii	"ch_thread\000"
 4586      68726561 
 4586      6400
 4587              	.LASF310:
ARM GAS  /tmp/ccKyNeCd.s 			page 87


 4588 0684 47414842 		.ascii	"GAHBCFG\000"
 4588      43464700 
 4589              	.LASF70:
 4590 068c 76697274 		.ascii	"virtual_timers_list_t\000"
 4590      75616C5F 
 4590      74696D65 
 4590      72735F6C 
 4590      6973745F 
 4591              	.LASF389:
 4592 06a2 696E5F6D 		.ascii	"in_multiplier\000"
 4592      756C7469 
 4592      706C6965 
 4592      7200
 4593              	.LASF185:
 4594 06b0 5F73746D 		.ascii	"_stm32_dma_streams\000"
 4594      33325F64 
 4594      6D615F73 
 4594      74726561 
 4594      6D7300
 4595              	.LASF232:
 4596 06c3 7478656E 		.ascii	"txend2_cb\000"
 4596      64325F63 
 4596      6200
 4597              	.LASF364:
 4598 06cd 6E756D5F 		.ascii	"num_endpoints\000"
 4598      656E6470 
 4598      6F696E74 
 4598      7300
 4599              	.LASF63:
 4600 06db 76697274 		.ascii	"virtual_timer_t\000"
 4600      75616C5F 
 4600      74696D65 
 4600      725F7400 
 4601              	.LASF54:
 4602 06eb 72656164 		.ascii	"ready_list_t\000"
 4602      795F6C69 
 4602      73745F74 
 4602      00
 4603              	.LASF172:
 4604 06f8 715F7772 		.ascii	"q_wrptr\000"
 4604      70747200 
 4605              	.LASF230:
 4606 0700 75617274 		.ascii	"uartecb_t\000"
 4606      6563625F 
 4606      7400
 4607              	.LASF371:
 4608 070a 74787369 		.ascii	"txsize\000"
 4608      7A6500
 4609              	.LASF259:
 4610 0711 5553425F 		.ascii	"USB_STOP\000"
 4610      53544F50 
 4610      00
 4611              	.LASF202:
 4612 071a 50494461 		.ascii	"PIData\000"
 4612      746100
 4613              	.LASF379:
 4614 0721 7278636E 		.ascii	"rxcnt\000"
ARM GAS  /tmp/ccKyNeCd.s 			page 88


 4614      7400
 4615              	.LASF205:
 4616 0727 55415254 		.ascii	"UART_UNINIT\000"
 4616      5F554E49 
 4616      4E495400 
 4617              	.LASF263:
 4618 0733 75736273 		.ascii	"usbstate_t\000"
 4618      74617465 
 4618      5F7400
 4619              	.LASF51:
 4620 073e 63685F74 		.ascii	"ch_threads_list\000"
 4620      68726561 
 4620      64735F6C 
 4620      69737400 
 4621              	.LASF215:
 4622 074e 55415254 		.ascii	"UART_RX_COMPLETE\000"
 4622      5F52585F 
 4622      434F4D50 
 4622      4C455445 
 4622      00
 4623              	.LASF270:
 4624 075f 5553425F 		.ascii	"USB_EP0_ERROR\000"
 4624      4550305F 
 4624      4552524F 
 4624      5200
 4625              	.LASF330:
 4626 076d 72657376 		.ascii	"resvd40C\000"
 4626      64343043 
 4626      00
 4627              	.LASF190:
 4628 0776 70757064 		.ascii	"pupdr\000"
 4628      7200
 4629              	.LASF308:
 4630 077c 474F5447 		.ascii	"GOTGCTL\000"
 4630      43544C00 
 4631              	.LASF161:
 4632 0784 63665F6F 		.ascii	"cf_off_preempt\000"
 4632      66665F70 
 4632      7265656D 
 4632      707400
 4633              	.LASF225:
 4634 0793 646D6172 		.ascii	"dmarx\000"
 4634      7800
 4635              	.LASF387:
 4636 0799 696E5F73 		.ascii	"in_state\000"
 4636      74617465 
 4636      00
 4637              	.LASF315:
 4638 07a2 47525853 		.ascii	"GRXSTSR\000"
 4638      54535200 
 4639              	.LASF276:
 4640 07aa 5553425F 		.ascii	"USB_EVENT_WAKEUP\000"
 4640      4556454E 
 4640      545F5741 
 4640      4B455550 
 4640      00
 4641              	.LASF358:
ARM GAS  /tmp/ccKyNeCd.s 			page 89


 4642 07bb 50434743 		.ascii	"PCGCCTL\000"
 4642      43544C00 
 4643              	.LASF12:
 4644 07c3 5F5F7569 		.ascii	"__uint32_t\000"
 4644      6E743332 
 4644      5F7400
 4645              	.LASF392:
 4646 07ce 6576656E 		.ascii	"event_cb\000"
 4646      745F6362 
 4646      00
 4647              	.LASF309:
 4648 07d7 474F5447 		.ascii	"GOTGINT\000"
 4648      494E5400 
 4649              	.LASF1:
 4650 07df 6C6F6E67 		.ascii	"long long int\000"
 4650      206C6F6E 
 4650      6720696E 
 4650      7400
 4651              	.LASF260:
 4652 07ed 5553425F 		.ascii	"USB_READY\000"
 4652      52454144 
 4652      5900
 4653              	.LASF316:
 4654 07f7 47525853 		.ascii	"GRXSTSP\000"
 4654      54535000 
 4655              	.LASF148:
 4656 07ff 63685F76 		.ascii	"ch_version\000"
 4656      65727369 
 4656      6F6E00
 4657              	.LASF141:
 4658 080a 6D5F7175 		.ascii	"m_queue\000"
 4658      65756500 
 4659              	.LASF119:
 4660 0812 53534347 		.ascii	"SSCGR\000"
 4660      5200
 4661              	.LASF65:
 4662 0818 76745F6E 		.ascii	"vt_next\000"
 4662      65787400 
 4663              	.LASF245:
 4664 0820 6570306E 		.ascii	"ep0next\000"
 4664      65787400 
 4665              	.LASF94:
 4666 0828 504C4C43 		.ascii	"PLLCFGR\000"
 4666      46475200 
 4667              	.LASF66:
 4668 0830 76745F70 		.ascii	"vt_prev\000"
 4668      72657600 
 4669              	.LASF122:
 4670 0838 47545052 		.ascii	"GTPR\000"
 4670      00
 4671              	.LASF101:
 4672 083d 41504232 		.ascii	"APB2RSTR\000"
 4672      52535452 
 4672      00
 4673              	.LASF352:
 4674 0846 72657376 		.ascii	"resvd838\000"
 4674      64383338 
ARM GAS  /tmp/ccKyNeCd.s 			page 90


 4674      00
 4675              	.LASF283:
 4676 084f 75736265 		.ascii	"usbepcallback_t\000"
 4676      7063616C 
 4676      6C626163 
 4676      6B5F7400 
 4677              	.LASF382:
 4678 085f 73657475 		.ascii	"setup_cb\000"
 4678      705F6362 
 4678      00
 4679              	.LASF355:
 4680 0868 72657376 		.ascii	"resvd880\000"
 4680      64383830 
 4680      00
 4681              	.LASF82:
 4682 0871 49544D5F 		.ascii	"ITM_RxBuffer\000"
 4682      52784275 
 4682      66666572 
 4682      00
 4683              	.LASF353:
 4684 087e 72657376 		.ascii	"resvd83C\000"
 4684      64383343 
 4684      00
 4685              	.LASF195:
 4686 0887 50424461 		.ascii	"PBData\000"
 4686      746100
 4687              	.LASF115:
 4688 088e 41504232 		.ascii	"APB2LPENR\000"
 4688      4C50454E 
 4688      5200
 4689              	.LASF255:
 4690 0898 77616974 		.ascii	"wait\000"
 4690      00
 4691              	.LASF176:
 4692 089d 716E6F74 		.ascii	"qnotify_t\000"
 4692      6966795F 
 4692      7400
 4693              	.LASF41:
 4694 08a7 705F7761 		.ascii	"p_waiting\000"
 4694      6974696E 
 4694      6700
 4695              	.LASF217:
 4696 08b1 75617274 		.ascii	"uartflags_t\000"
 4696      666C6167 
 4696      735F7400 
 4697              	.LASF226:
 4698 08bd 646D6174 		.ascii	"dmatx\000"
 4698      7800
 4699              	.LASF39:
 4700 08c3 705F666C 		.ascii	"p_flags\000"
 4700      61677300 
 4701              	.LASF306:
 4702 08cb 444F4550 		.ascii	"DOEPTSIZ\000"
 4702      5453495A 
 4702      00
 4703              	.LASF81:
 4704 08d4 69646C65 		.ascii	"idle_thread_wa\000"
ARM GAS  /tmp/ccKyNeCd.s 			page 91


 4704      5F746872 
 4704      6561645F 
 4704      776100
 4705              	.LASF235:
 4706 08e3 72786572 		.ascii	"rxerr_cb\000"
 4706      725F6362 
 4706      00
 4707              	.LASF0:
 4708 08ec 756E7369 		.ascii	"unsigned int\000"
 4708      676E6564 
 4708      20696E74 
 4708      00
 4709              	.LASF396:
 4710 08f9 55534243 		.ascii	"USBConfig\000"
 4710      6F6E6669 
 4710      6700
 4711              	.LASF21:
 4712 0903 7274636E 		.ascii	"rtcnt_t\000"
 4712      745F7400 
 4713              	.LASF254:
 4714 090b 74787065 		.ascii	"txpending\000"
 4714      6E64696E 
 4714      6700
 4715              	.LASF47:
 4716 0915 705F6D70 		.ascii	"p_mpool\000"
 4716      6F6F6C00 
 4717              	.LASF361:
 4718 091d 73746D33 		.ascii	"stm32_otg_t\000"
 4718      325F6F74 
 4718      675F7400 
 4719              	.LASF40:
 4720 0929 705F7265 		.ascii	"p_refs\000"
 4720      667300
 4721              	.LASF150:
 4722 0930 63685F74 		.ascii	"ch_timesize\000"
 4722      696D6573 
 4722      697A6500 
 4723              	.LASF390:
 4724 093c 73657475 		.ascii	"setup_buf\000"
 4724      705F6275 
 4724      6600
 4725              	.LASF336:
 4726 0946 72657376 		.ascii	"resvd444\000"
 4726      64343434 
 4726      00
 4727              	.LASF384:
 4728 094f 6F75745F 		.ascii	"out_cb\000"
 4728      636200
 4729              	.LASF128:
 4730 0956 6F666673 		.ascii	"offset\000"
 4730      657400
 4731              	.LASF114:
 4732 095d 41504231 		.ascii	"APB1LPENR\000"
 4732      4C50454E 
 4732      5200
 4733              	.LASF333:
 4734 0967 4841494E 		.ascii	"HAINTMSK\000"
ARM GAS  /tmp/ccKyNeCd.s 			page 92


 4734      544D534B 
 4734      00
 4735              	.LASF201:
 4736 0970 50484461 		.ascii	"PHData\000"
 4736      746100
 4737              	.LASF385:
 4738 0977 696E5F6D 		.ascii	"in_maxsize\000"
 4738      61787369 
 4738      7A6500
 4739              	.LASF314:
 4740 0982 47494E54 		.ascii	"GINTMSK\000"
 4740      4D534B00 
 4741              	.LASF87:
 4742 098a 444D415F 		.ascii	"DMA_Stream_TypeDef\000"
 4742      53747265 
 4742      616D5F54 
 4742      79706544 
 4742      656600
 4743              	.LASF160:
 4744 099d 63665F6F 		.ascii	"cf_off_refs\000"
 4744      66665F72 
 4744      65667300 
 4745              	.LASF388:
 4746 09a9 6F75745F 		.ascii	"out_state\000"
 4746      73746174 
 4746      6500
 4747              	.LASF191:
 4748 09b3 6166726C 		.ascii	"afrl\000"
 4748      00
 4749              	.LASF210:
 4750 09b8 55415254 		.ascii	"UART_TX_ACTIVE\000"
 4750      5F54585F 
 4750      41435449 
 4750      564500
 4751              	.LASF98:
 4752 09c7 41484233 		.ascii	"AHB3RSTR\000"
 4752      52535452 
 4752      00
 4753              	.LASF30:
 4754 09d0 74687265 		.ascii	"thread_t\000"
 4754      61645F74 
 4754      00
 4755              	.LASF2:
 4756 09d9 6C6F6E67 		.ascii	"long double\000"
 4756      20646F75 
 4756      626C6500 
 4757              	.LASF48:
 4758 09e5 74687265 		.ascii	"thread_reference_t\000"
 4758      61645F72 
 4758      65666572 
 4758      656E6365 
 4758      5F7400
 4759              	.LASF91:
 4760 09f8 4F505443 		.ascii	"OPTCR1\000"
 4760      523100
 4761              	.LASF280:
 4762 09ff 75645F73 		.ascii	"ud_string\000"
ARM GAS  /tmp/ccKyNeCd.s 			page 93


 4762      7472696E 
 4762      6700
 4763              	.LASF46:
 4764 0a09 705F7265 		.ascii	"p_realprio\000"
 4764      616C7072 
 4764      696F00
 4765              	.LASF227:
 4766 0a14 72786275 		.ascii	"rxbuf\000"
 4766      6600
 4767              	.LASF403:
 4768 0a1a 68616C5F 		.ascii	"hal_lld_backup_domain_init\000"
 4768      6C6C645F 
 4768      6261636B 
 4768      75705F64 
 4768      6F6D6169 
 4769              	.LASF266:
 4770 0a35 5553425F 		.ascii	"USB_EP0_WAITING_TX0\000"
 4770      4550305F 
 4770      57414954 
 4770      494E475F 
 4770      54583000 
 4771              	.LASF127:
 4772 0a49 706F7274 		.ascii	"port_intctx\000"
 4772      5F696E74 
 4772      63747800 
 4773              	.LASF252:
 4774 0a55 6F746770 		.ascii	"otgparams\000"
 4774      6172616D 
 4774      7300
 4775              	.LASF162:
 4776 0a5f 63665F6F 		.ascii	"cf_off_time\000"
 4776      66665F74 
 4776      696D6500 
 4777              	.LASF401:
 4778 0a6b 73746D33 		.ascii	"stm32_clock_init\000"
 4778      325F636C 
 4778      6F636B5F 
 4778      696E6974 
 4778      00
 4779              	.LASF67:
 4780 0a7c 76745F64 		.ascii	"vt_delta\000"
 4780      656C7461 
 4780      00
 4781              	.LASF100:
 4782 0a85 41504231 		.ascii	"APB1RSTR\000"
 4782      52535452 
 4782      00
 4783              	.LASF64:
 4784 0a8e 63685F76 		.ascii	"ch_virtual_timer\000"
 4784      69727475 
 4784      616C5F74 
 4784      696D6572 
 4784      00
 4785              	.LASF139:
 4786 0a9f 735F636E 		.ascii	"s_cnt\000"
 4786      7400
 4787              	.LASF380:
ARM GAS  /tmp/ccKyNeCd.s 			page 94


 4788 0aa5 5553424F 		.ascii	"USBOutEndpointState\000"
 4788      7574456E 
 4788      64706F69 
 4788      6E745374 
 4788      61746500 
 4789              	.LASF182:
 4790 0ab9 73656C66 		.ascii	"selfindex\000"
 4790      696E6465 
 4790      7800
 4791              	.LASF357:
 4792 0ac3 72657376 		.ascii	"resvdD00\000"
 4792      64443030 
 4792      00
 4793              	.LASF15:
 4794 0acc 6C6F6E67 		.ascii	"long long unsigned int\000"
 4794      206C6F6E 
 4794      6720756E 
 4794      7369676E 
 4794      65642069 
 4795              	.LASF324:
 4796 0ae3 48505458 		.ascii	"HPTXFSIZ\000"
 4796      4653495A 
 4796      00
 4797              	.LASF194:
 4798 0aec 50414461 		.ascii	"PAData\000"
 4798      746100
 4799              	.LASF36:
 4800 0af3 705F6F6C 		.ascii	"p_older\000"
 4800      64657200 
 4801              	.LASF17:
 4802 0afb 75696E74 		.ascii	"uint16_t\000"
 4802      31365F74 
 4802      00
 4803              	.LASF214:
 4804 0b04 55415254 		.ascii	"UART_RX_ACTIVE\000"
 4804      5F52585F 
 4804      41435449 
 4804      564500
 4805              	.LASF289:
 4806 0b13 4843494E 		.ascii	"HCINT\000"
 4806      5400
 4807              	.LASF368:
 4808 0b19 6C696E65 		.ascii	"linear\000"
 4808      617200
 4809              	.LASF26:
 4810 0b20 6D73675F 		.ascii	"msg_t\000"
 4810      7400
 4811              	.LASF339:
 4812 0b26 4443544C 		.ascii	"DCTL\000"
 4812      00
 4813              	.LASF53:
 4814 0b2b 63685F74 		.ascii	"ch_threads_queue\000"
 4814      68726561 
 4814      64735F71 
 4814      75657565 
 4814      00
 4815              	.LASF391:
ARM GAS  /tmp/ccKyNeCd.s 			page 95


 4816 0b3c 55534245 		.ascii	"USBEndpointConfig\000"
 4816      6E64706F 
 4816      696E7443 
 4816      6F6E6669 
 4816      6700
 4817              	.LASF290:
 4818 0b4e 4843494E 		.ascii	"HCINTMSK\000"
 4818      544D534B 
 4818      00
 4819              	.LASF159:
 4820 0b57 63665F6F 		.ascii	"cf_off_flags\000"
 4820      66665F66 
 4820      6C616773 
 4820      00
 4821              	.LASF377:
 4822 0b64 72787175 		.ascii	"rxqueued\000"
 4822      65756564 
 4822      00
 4823              	.LASF398:
 4824 0b6d 474E5520 		.ascii	"GNU C11 7.3.1 20180622 (release) [ARM/embedded-7-br"
 4824      43313120 
 4824      372E332E 
 4824      31203230 
 4824      31383036 
 4825 0ba0 616E6368 		.ascii	"anch revision 261907] -mcpu=cortex-m4 -mfloat-abi=h"
 4825      20726576 
 4825      6973696F 
 4825      6E203236 
 4825      31393037 
 4826 0bd3 61726420 		.ascii	"ard -mfpu=fpv4-sp-d16 -mno-thumb-interwork -mthumb "
 4826      2D6D6670 
 4826      753D6670 
 4826      76342D73 
 4826      702D6431 
 4827 0c06 2D676764 		.ascii	"-ggdb -O2 -fomit-frame-pointer -falign-functions=16"
 4827      62202D4F 
 4827      32202D66 
 4827      6F6D6974 
 4827      2D667261 
 4828 0c39 202D6666 		.ascii	" -ffunction-sections -fdata-sections -fno-common -f"
 4828      756E6374 
 4828      696F6E2D 
 4828      73656374 
 4828      696F6E73 
 4829 0c6c 73696E67 		.ascii	"single-precision-constant\000"
 4829      6C652D70 
 4829      72656369 
 4829      73696F6E 
 4829      2D636F6E 
 4830              	.LASF61:
 4831 0c86 725F6375 		.ascii	"r_current\000"
 4831      7272656E 
 4831      7400
 4832              	.LASF369:
 4833 0c90 71756575 		.ascii	"queue\000"
 4833      6500
 4834              	.LASF183:
ARM GAS  /tmp/ccKyNeCd.s 			page 96


 4835 0c96 76656374 		.ascii	"vector\000"
 4835      6F7200
 4836              	.LASF400:
 4837 0c9d 2F686F6D 		.ascii	"/home/jhl/myprogram/vesc/bldc_uart_comm_stm32f4_dis"
 4837      652F6A68 
 4837      6C2F6D79 
 4837      70726F67 
 4837      72616D2F 
 4838 0cd0 636F7665 		.ascii	"covery\000"
 4838      727900
 4839              	.LASF376:
 4840 0cd7 72787175 		.ascii	"rxqueue\000"
 4840      65756500 
 4841              	.LASF146:
 4842 0cdf 63685F7A 		.ascii	"ch_zero\000"
 4842      65726F00 
 4843              	.LASF80:
 4844 0ce7 6D61696E 		.ascii	"mainthread\000"
 4844      74687265 
 4844      616400
 4845              	.LASF345:
 4846 0cf2 4441494E 		.ascii	"DAINTMSK\000"
 4846      544D534B 
 4846      00
 4847              	.LASF112:
 4848 0cfb 41484233 		.ascii	"AHB3LPENR\000"
 4848      4C50454E 
 4848      5200
 4849              	.LASF348:
 4850 0d05 44564255 		.ascii	"DVBUSDIS\000"
 4850      53444953 
 4850      00
 4851              	.LASF303:
 4852 0d0e 73746D33 		.ascii	"stm32_otg_in_ep_t\000"
 4852      325F6F74 
 4852      675F696E 
 4852      5F65705F 
 4852      7400
 4853              	.LASF211:
 4854 0d20 55415254 		.ascii	"UART_TX_COMPLETE\000"
 4854      5F54585F 
 4854      434F4D50 
 4854      4C455445 
 4854      00
 4855              	.LASF216:
 4856 0d31 75617274 		.ascii	"uartrxstate_t\000"
 4856      72787374 
 4856      6174655F 
 4856      7400
 4857              	.LASF386:
 4858 0d3f 6F75745F 		.ascii	"out_maxsize\000"
 4858      6D617873 
 4858      697A6500 
 4859              	.LASF56:
 4860 0d4b 725F7175 		.ascii	"r_queue\000"
 4860      65756500 
 4861              	.LASF274:
ARM GAS  /tmp/ccKyNeCd.s 			page 97


 4862 0d53 5553425F 		.ascii	"USB_EVENT_CONFIGURED\000"
 4862      4556454E 
 4862      545F434F 
 4862      4E464947 
 4862      55524544 
 4863              	.LASF229:
 4864 0d68 75617274 		.ascii	"uartccb_t\000"
 4864      6363625F 
 4864      7400
 4865              	.LASF360:
 4866 0d72 4649464F 		.ascii	"FIFO\000"
 4866      00
 4867              	.LASF200:
 4868 0d77 50474461 		.ascii	"PGData\000"
 4868      746100
 4869              	.LASF168:
 4870 0d7e 715F7761 		.ascii	"q_waiting\000"
 4870      6974696E 
 4870      6700
 4871              	.LASF78:
 4872 0d88 726C6973 		.ascii	"rlist\000"
 4872      7400
 4873              	.LASF22:
 4874 0d8e 746D6F64 		.ascii	"tmode_t\000"
 4874      655F7400 
 4875              	.LASF103:
 4876 0d96 41484231 		.ascii	"AHB1ENR\000"
 4876      454E5200 
 4877              	.LASF334:
 4878 0d9e 72657376 		.ascii	"resvd41C\000"
 4878      64343143 
 4878      00
 4879              	.LASF286:
 4880 0da7 75736267 		.ascii	"usbgetdescriptor_t\000"
 4880      65746465 
 4880      73637269 
 4880      70746F72 
 4880      5F7400
 4881              	.LASF231:
 4882 0dba 7478656E 		.ascii	"txend1_cb\000"
 4882      64315F63 
 4882      6200
 4883              	.LASF213:
 4884 0dc4 55415254 		.ascii	"UART_RX_IDLE\000"
 4884      5F52585F 
 4884      49444C45 
 4884      00
 4885              	.LASF256:
 4886 0dd1 77615F70 		.ascii	"wa_pump\000"
 4886      756D7000 
 4887              	.LASF242:
 4888 0dd9 696E5F70 		.ascii	"in_params\000"
 4888      6172616D 
 4888      7300
 4889              	.LASF105:
 4890 0de3 41484233 		.ascii	"AHB3ENR\000"
 4890      454E5200 
ARM GAS  /tmp/ccKyNeCd.s 			page 98


 4891              	.LASF60:
 4892 0deb 725F6F6C 		.ascii	"r_older\000"
 4892      64657200 
 4893              	.LASF129:
 4894 0df3 746D5F63 		.ascii	"tm_calibration_t\000"
 4894      616C6962 
 4894      72617469 
 4894      6F6E5F74 
 4894      00
 4895              	.LASF97:
 4896 0e04 41484232 		.ascii	"AHB2RSTR\000"
 4896      52535452 
 4896      00
 4897              	.LASF85:
 4898 0e0d 4D304152 		.ascii	"M0AR\000"
 4898      00
 4899              	.LASF138:
 4900 0e12 735F7175 		.ascii	"s_queue\000"
 4900      65756500 
 4901              	.LASF88:
 4902 0e1a 4B455952 		.ascii	"KEYR\000"
 4902      00
 4903              	.LASF121:
 4904 0e1f 5243435F 		.ascii	"RCC_TypeDef\000"
 4904      54797065 
 4904      44656600 
 4905              	.LASF350:
 4906 0e2b 72657376 		.ascii	"resvd830\000"
 4906      64383330 
 4906      00
 4907              	.LASF7:
 4908 0e34 73686F72 		.ascii	"short int\000"
 4908      7420696E 
 4908      7400
 4909              	.LASF374:
 4910 0e3e 746F7473 		.ascii	"totsize\000"
 4910      697A6500 
 4911              	.LASF362:
 4912 0e46 72785F66 		.ascii	"rx_fifo_size\000"
 4912      69666F5F 
 4912      73697A65 
 4912      00
 4913              	.LASF20:
 4914 0e53 75696E74 		.ascii	"uint64_t\000"
 4914      36345F74 
 4914      00
 4915              	.LASF373:
 4916 0e5c 6D6F6465 		.ascii	"mode\000"
 4916      00
 4917              	.LASF140:
 4918 0e61 63685F6D 		.ascii	"ch_mutex\000"
 4918      75746578 
 4918      00
 4919              	.LASF272:
 4920 0e6a 5553425F 		.ascii	"USB_EVENT_RESET\000"
 4920      4556454E 
 4920      545F5245 
ARM GAS  /tmp/ccKyNeCd.s 			page 99


 4920      53455400 
 4921              	.LASF292:
 4922 0e7a 72657376 		.ascii	"resvd14\000"
 4922      64313400 
 4923              	.LASF293:
 4924 0e82 72657376 		.ascii	"resvd18\000"
 4924      64313800 
 4925              	.LASF301:
 4926 0e8a 44545846 		.ascii	"DTXFSTS\000"
 4926      53545300 
 4927              	.LASF367:
 4928 0e92 74787175 		.ascii	"txqueue\000"
 4928      65756500 
 4929              	.LASF302:
 4930 0e9a 72657376 		.ascii	"resvd1C\000"
 4930      64314300 
 4931              	.LASF342:
 4932 0ea2 44494550 		.ascii	"DIEPMSK\000"
 4932      4D534B00 
 4933              	.LASF57:
 4934 0eaa 725F7072 		.ascii	"r_prio\000"
 4934      696F00
 4935              	.LASF208:
 4936 0eb1 75617274 		.ascii	"uartstate_t\000"
 4936      73746174 
 4936      655F7400 
 4937              	.LASF74:
 4938 0ebd 63685F73 		.ascii	"ch_system_debug\000"
 4938      79737465 
 4938      6D5F6465 
 4938      62756700 
 4939              	.LASF351:
 4940 0ecd 44494550 		.ascii	"DIEPEMPMSK\000"
 4940      454D504D 
 4940      534B00
 4941              	.LASF155:
 4942 0ed8 63665F6F 		.ascii	"cf_off_older\000"
 4942      66665F6F 
 4942      6C646572 
 4942      00
 4943              	.LASF294:
 4944 0ee5 72657376 		.ascii	"resvd1c\000"
 4944      64316300 
 4945              	.LASF166:
 4946 0eed 696F5F71 		.ascii	"io_queue_t\000"
 4946      75657565 
 4946      5F7400
 4947              	.LASF285:
 4948 0ef8 75736272 		.ascii	"usbreqhandler_t\000"
 4948      65716861 
 4948      6E646C65 
 4948      725F7400 
 4949              	.LASF296:
 4950 0f08 44494550 		.ascii	"DIEPCTL\000"
 4950      43544C00 
 4951              	.LASF203:
 4952 0f10 50414C43 		.ascii	"PALConfig\000"
ARM GAS  /tmp/ccKyNeCd.s 			page 100


 4952      6F6E6669 
 4952      6700
 4953              	.LASF282:
 4954 0f1a 75736263 		.ascii	"usbcallback_t\000"
 4954      616C6C62 
 4954      61636B5F 
 4954      7400
 4955              	.LASF312:
 4956 0f28 47525354 		.ascii	"GRSTCTL\000"
 4956      43544C00 
 4957              	.LASF313:
 4958 0f30 47494E54 		.ascii	"GINTSTS\000"
 4958      53545300 
 4959              	.LASF79:
 4960 0f38 76746C69 		.ascii	"vtlist\000"
 4960      737400
 4961              	.LASF298:
 4962 0f3f 44494550 		.ascii	"DIEPINT\000"
 4962      494E5400 
 4963              	.LASF319:
 4964 0f47 484E5054 		.ascii	"HNPTXSTS\000"
 4964      58535453 
 4964      00
 4965              	.LASF397:
 4966 0f50 55534244 		.ascii	"USBD1\000"
 4966      3100
 4967              	.LASF165:
 4968 0f56 6D757465 		.ascii	"mutex_t\000"
 4968      785F7400 
 4969              	.LASF24:
 4970 0f5e 74726566 		.ascii	"trefs_t\000"
 4970      735F7400 
 4971              	.LASF157:
 4972 0f66 63665F6F 		.ascii	"cf_off_stklimit\000"
 4972      66665F73 
 4972      746B6C69 
 4972      6D697400 
 4973              	.LASF399:
 4974 0f76 43686962 		.ascii	"ChibiOS_3.0.2/os/hal/ports/STM32/STM32F4xx/hal_lld."
 4974      694F535F 
 4974      332E302E 
 4974      322F6F73 
 4974      2F68616C 
 4975 0fa9 6300     		.ascii	"c\000"
 4976              	.LASF49:
 4977 0fab 74687265 		.ascii	"threads_list_t\000"
 4977      6164735F 
 4977      6C697374 
 4977      5F7400
 4978              	.LASF209:
 4979 0fba 55415254 		.ascii	"UART_TX_IDLE\000"
 4979      5F54585F 
 4979      49444C45 
 4979      00
 4980              	.LASF228:
 4981 0fc7 75617274 		.ascii	"uartcb_t\000"
 4981      63625F74 
ARM GAS  /tmp/ccKyNeCd.s 			page 101


 4981      00
 4982              	.LASF359:
 4983 0fd0 72657376 		.ascii	"resvdE04\000"
 4983      64453034 
 4983      00
 4984              	.LASF320:
 4985 0fd9 72657376 		.ascii	"resvd30\000"
 4985      64333000 
 4986              	.LASF77:
 4987 0fe1 63685F73 		.ascii	"ch_system\000"
 4987      79737465 
 4987      6D00
 4988              	.LASF321:
 4989 0feb 72657376 		.ascii	"resvd34\000"
 4989      64333400 
 4990              	.LASF19:
 4991 0ff3 75696E74 		.ascii	"uint32_t\000"
 4991      33325F74 
 4991      00
 4992              	.LASF257:
 4993 0ffc 75736265 		.ascii	"usbep_t\000"
 4993      705F7400 
 4994              	.LASF90:
 4995 1004 4F505443 		.ascii	"OPTCR\000"
 4995      5200
 4996              	.LASF177:
 4997 100a 696E7075 		.ascii	"input_queue_t\000"
 4997      745F7175 
 4997      6575655F 
 4997      7400
 4998              	.LASF93:
 4999 1018 5057525F 		.ascii	"PWR_TypeDef\000"
 4999      54797065 
 4999      44656600 
 5000              	.LASF199:
 5001 1024 50464461 		.ascii	"PFData\000"
 5001      746100
 5002              	.LASF130:
 5003 102b 7264796D 		.ascii	"rdymsg\000"
 5003      736700
 5004              	.LASF72:
 5005 1032 76745F6C 		.ascii	"vt_lasttime\000"
 5005      61737474 
 5005      696D6500 
 5006              	.LASF9:
 5007 103e 73686F72 		.ascii	"short unsigned int\000"
 5007      7420756E 
 5007      7369676E 
 5007      65642069 
 5007      6E7400
 5008              	.LASF340:
 5009 1051 44535453 		.ascii	"DSTS\000"
 5009      00
 5010              	.LASF393:
 5011 1056 6765745F 		.ascii	"get_descriptor_cb\000"
 5011      64657363 
 5011      72697074 
ARM GAS  /tmp/ccKyNeCd.s 			page 102


 5011      6F725F63 
 5011      6200
 5012              	.LASF76:
 5013 1068 63685F73 		.ascii	"ch_system_t\000"
 5013      79737465 
 5013      6D5F7400 
 5014              	.LASF163:
 5015 1074 63686465 		.ascii	"chdebug_t\000"
 5015      6275675F 
 5015      7400
 5016              	.LASF275:
 5017 107e 5553425F 		.ascii	"USB_EVENT_SUSPEND\000"
 5017      4556454E 
 5017      545F5355 
 5017      5350454E 
 5017      4400
 5018              	.LASF147:
 5019 1090 63685F73 		.ascii	"ch_size\000"
 5019      697A6500 
 5020              	.LASF178:
 5021 1098 6F757470 		.ascii	"output_queue_t\000"
 5021      75745F71 
 5021      75657565 
 5021      5F7400
 5022              	.LASF243:
 5023 10a7 6F75745F 		.ascii	"out_params\000"
 5023      70617261 
 5023      6D7300
 5024              	.LASF238:
 5025 10b2 55415254 		.ascii	"UARTD3\000"
 5025      443300
 5026              	.LASF10:
 5027 10b9 5F5F696E 		.ascii	"__int32_t\000"
 5027      7433325F 
 5027      7400
 5028              	.LASF331:
 5029 10c3 48505458 		.ascii	"HPTXSTS\000"
 5029      53545300 
 5030              	.LASF84:
 5031 10cb 4E445452 		.ascii	"NDTR\000"
 5031      00
 5032              	.LASF180:
 5033 10d0 69666372 		.ascii	"ifcr\000"
 5033      00
 5034              	.LASF323:
 5035 10d5 72657376 		.ascii	"resvd58\000"
 5035      64353800 
 5036              	.LASF269:
 5037 10dd 5553425F 		.ascii	"USB_EP0_SENDING_STS\000"
 5037      4550305F 
 5037      53454E44 
 5037      494E475F 
 5037      53545300 
 5038              	.LASF207:
 5039 10f1 55415254 		.ascii	"UART_READY\000"
 5039      5F524541 
 5039      445900
ARM GAS  /tmp/ccKyNeCd.s 			page 103


 5040              	.LASF267:
 5041 10fc 5553425F 		.ascii	"USB_EP0_WAITING_STS\000"
 5041      4550305F 
 5041      57414954 
 5041      494E475F 
 5041      53545300 
 5042              	.LASF37:
 5043 1110 705F6E61 		.ascii	"p_name\000"
 5043      6D6500
 5044              	.LASF143:
 5045 1117 6D5F6E65 		.ascii	"m_next\000"
 5045      787400
 5046              	.LASF253:
 5047 111e 706D6E65 		.ascii	"pmnext\000"
 5047      787400
 5048              	.LASF370:
 5049 1125 74787175 		.ascii	"txqueued\000"
 5049      65756564 
 5049      00
 5050              	.LASF311:
 5051 112e 47555342 		.ascii	"GUSBCFG\000"
 5051      43464700 
 5052              	.LASF395:
 5053 1136 736F665F 		.ascii	"sof_cb\000"
 5053      636200
 5054              	.LASF268:
 5055 113d 5553425F 		.ascii	"USB_EP0_RX\000"
 5055      4550305F 
 5055      525800
 5056              	.LASF326:
 5057 1148 72657376 		.ascii	"resvd140\000"
 5057      64313430 
 5057      00
 5058              	.LASF43:
 5059 1151 705F6D73 		.ascii	"p_msg\000"
 5059      6700
 5060              	.LASF38:
 5061 1157 705F7374 		.ascii	"p_state\000"
 5061      61746500 
 5062              		.ident	"GCC: (GNU Tools for Arm Embedded Processors 7-2018-q3-update) 7.3.1 20180622 (release) [AR
ARM GAS  /tmp/ccKyNeCd.s 			page 104


DEFINED SYMBOLS
                            *ABS*:0000000000000000 hal_lld.c
     /tmp/ccKyNeCd.s:18     .text.hal_lld_init:0000000000000000 $t
     /tmp/ccKyNeCd.s:26     .text.hal_lld_init:0000000000000000 hal_lld_init
     /tmp/ccKyNeCd.s:109    .text.hal_lld_init:0000000000000060 $d
     /tmp/ccKyNeCd.s:115    .text.stm32_clock_init:0000000000000000 $t
     /tmp/ccKyNeCd.s:123    .text.stm32_clock_init:0000000000000000 stm32_clock_init
     /tmp/ccKyNeCd.s:251    .text.stm32_clock_init:00000000000000ac $d
     /tmp/ccKyNeCd.s:264    .data.SystemCoreClock:0000000000000000 SystemCoreClock
     /tmp/ccKyNeCd.s:261    .data.SystemCoreClock:0000000000000000 $d

UNDEFINED SYMBOLS
dmaInit
