ARM GAS  /tmp/cc1U8jrO.s 			page 1


   1              		.cpu cortex-m4
   2              		.eabi_attribute 27, 1
   3              		.eabi_attribute 28, 1
   4              		.eabi_attribute 20, 1
   5              		.eabi_attribute 21, 1
   6              		.eabi_attribute 23, 3
   7              		.eabi_attribute 24, 1
   8              		.eabi_attribute 25, 1
   9              		.eabi_attribute 26, 1
  10              		.eabi_attribute 30, 2
  11              		.eabi_attribute 34, 1
  12              		.eabi_attribute 18, 4
  13              		.file	"main.c"
  14              		.text
  15              	.Ltext0:
  16              		.cfi_sections	.debug_frame
  17              		.section	.text.chprintf.constprop.1,"ax",%progbits
  18              		.align	1
  19              		.p2align 4,,15
  20              		.syntax unified
  21              		.thumb
  22              		.thumb_func
  23              		.fpu fpv4-sp-d16
  24              		.type	chprintf.constprop.1, %function
  25              	chprintf.constprop.1:
  26              	.LFB269:
  27              		.file 1 "ChibiOS_3.0.2/os/hal/lib/streams/chprintf.h"
  28              		.loc 1 69 0
  29              		.cfi_startproc
  30              		@ args = 4, pretend = 12, frame = 8
  31              		@ frame_needed = 0, uses_anonymous_args = 1
  32              	.LVL0:
  33 0000 0EB4     		push	{r1, r2, r3}
  34              		.cfi_def_cfa_offset 12
  35              		.cfi_offset 1, -12
  36              		.cfi_offset 2, -8
  37              		.cfi_offset 3, -4
  38 0002 00B5     		push	{lr}
  39              		.cfi_def_cfa_offset 16
  40              		.cfi_offset 14, -16
  41 0004 82B0     		sub	sp, sp, #8
  42              		.cfi_def_cfa_offset 24
  43              		.loc 1 73 0
  44 0006 04AB     		add	r3, sp, #16
  45              		.loc 1 74 0
  46 0008 1A46     		mov	r2, r3
  47 000a 0449     		ldr	r1, .L4
  48              		.loc 1 73 0
  49 000c 0193     		str	r3, [sp, #4]
  50              		.loc 1 74 0
  51 000e FFF7FEFF 		bl	chvprintf
  52              	.LVL1:
  53              		.loc 1 78 0
  54 0012 02B0     		add	sp, sp, #8
  55              		.cfi_def_cfa_offset 16
  56              		@ sp needed
  57 0014 5DF804EB 		ldr	lr, [sp], #4
ARM GAS  /tmp/cc1U8jrO.s 			page 2


  58              		.cfi_restore 14
  59              		.cfi_def_cfa_offset 12
  60 0018 03B0     		add	sp, sp, #12
  61              		.cfi_restore 3
  62              		.cfi_restore 2
  63              		.cfi_restore 1
  64              		.cfi_def_cfa_offset 0
  65 001a 7047     		bx	lr
  66              	.L5:
  67              		.align	2
  68              	.L4:
  69 001c 00000000 		.word	.LC0
  70              		.cfi_endproc
  71              	.LFE269:
  72              		.size	chprintf.constprop.1, .-chprintf.constprop.1
  73              		.section	.text.cmd_val,"ax",%progbits
  74              		.align	1
  75              		.p2align 4,,15
  76              		.syntax unified
  77              		.thumb
  78              		.thumb_func
  79              		.fpu fpv4-sp-d16
  80              		.type	cmd_val, %function
  81              	cmd_val:
  82              	.LFB265:
  83              		.file 2 "main.c"
  84              		.loc 2 25 0
  85              		.cfi_startproc
  86              		@ args = 0, pretend = 0, frame = 0
  87              		@ frame_needed = 0, uses_anonymous_args = 0
  88              		@ link register save eliminated.
  89              	.LVL2:
  90              		.loc 2 27 0
  91 0000 0029     		cmp	r1, #0
  92 0002 02DD     		ble	.L7
  93              		.loc 2 28 0
  94 0004 0249     		ldr	r1, .L8
  95              	.LVL3:
  96 0006 FFF7FEBF 		b	chprintf.constprop.1
  97              	.LVL4:
  98              	.L7:
  99              		.loc 2 32 0
 100 000a FFF7FEBF 		b	bldc_interface_get_values
 101              	.LVL5:
 102              	.L9:
 103 000e 00BF     		.align	2
 104              	.L8:
 105 0010 00000000 		.word	.LC0
 106              		.cfi_endproc
 107              	.LFE265:
 108              		.size	cmd_val, .-cmd_val
 109              		.section	.text.main_printf,"ax",%progbits
 110              		.align	1
 111              		.p2align 4,,15
 112              		.global	main_printf
 113              		.syntax unified
 114              		.thumb
ARM GAS  /tmp/cc1U8jrO.s 			page 3


 115              		.thumb_func
 116              		.fpu fpv4-sp-d16
 117              		.type	main_printf, %function
 118              	main_printf:
 119              	.LFB264:
 120              		.loc 2 17 0
 121              		.cfi_startproc
 122              		@ args = 4, pretend = 16, frame = 8
 123              		@ frame_needed = 0, uses_anonymous_args = 1
 124              	.LVL6:
 125 0000 0FB4     		push	{r0, r1, r2, r3}
 126              		.cfi_def_cfa_offset 16
 127              		.cfi_offset 0, -16
 128              		.cfi_offset 1, -12
 129              		.cfi_offset 2, -8
 130              		.cfi_offset 3, -4
 131 0002 00B5     		push	{lr}
 132              		.cfi_def_cfa_offset 20
 133              		.cfi_offset 14, -20
 134 0004 83B0     		sub	sp, sp, #12
 135              		.cfi_def_cfa_offset 32
 136              		.loc 2 17 0
 137 0006 04AA     		add	r2, sp, #16
 138              		.loc 2 21 0
 139 0008 0548     		ldr	r0, .L12
 140              		.loc 2 17 0
 141 000a 52F8041B 		ldr	r1, [r2], #4
 142              		.loc 2 20 0
 143 000e 0192     		str	r2, [sp, #4]
 144              		.loc 2 21 0
 145 0010 FFF7FEFF 		bl	chvprintf
 146              	.LVL7:
 147              		.loc 2 23 0
 148 0014 03B0     		add	sp, sp, #12
 149              		.cfi_def_cfa_offset 20
 150              		@ sp needed
 151 0016 5DF804EB 		ldr	lr, [sp], #4
 152              		.cfi_restore 14
 153              		.cfi_def_cfa_offset 16
 154 001a 04B0     		add	sp, sp, #16
 155              		.cfi_restore 3
 156              		.cfi_restore 2
 157              		.cfi_restore 1
 158              		.cfi_restore 0
 159              		.cfi_def_cfa_offset 0
 160 001c 7047     		bx	lr
 161              	.L13:
 162 001e 00BF     		.align	2
 163              	.L12:
 164 0020 00000000 		.word	SDU1
 165              		.cfi_endproc
 166              	.LFE264:
 167              		.size	main_printf, .-main_printf
 168              		.global	__aeabi_f2d
 169              		.section	.text.bldc_val_received,"ax",%progbits
 170              		.align	1
 171              		.p2align 4,,15
ARM GAS  /tmp/cc1U8jrO.s 			page 4


 172              		.global	bldc_val_received
 173              		.syntax unified
 174              		.thumb
 175              		.thumb_func
 176              		.fpu fpv4-sp-d16
 177              		.type	bldc_val_received, %function
 178              	bldc_val_received:
 179              	.LFB266:
 180              		.loc 2 45 0
 181              		.cfi_startproc
 182              		@ args = 0, pretend = 0, frame = 0
 183              		@ frame_needed = 0, uses_anonymous_args = 0
 184              	.LVL8:
 185 0000 10B5     		push	{r4, lr}
 186              		.cfi_def_cfa_offset 8
 187              		.cfi_offset 4, -8
 188              		.cfi_offset 14, -4
 189              		.loc 2 45 0
 190 0002 0446     		mov	r4, r0
 191              		.loc 2 46 0
 192 0004 3548     		ldr	r0, .L16
 193              	.LVL9:
 194 0006 FFF7FEFF 		bl	main_printf
 195              	.LVL10:
 196              		.loc 2 47 0
 197 000a 2068     		ldr	r0, [r4]	@ float
 198 000c FFF7FEFF 		bl	__aeabi_f2d
 199              	.LVL11:
 200 0010 0246     		mov	r2, r0
 201 0012 0B46     		mov	r3, r1
 202 0014 3248     		ldr	r0, .L16+4
 203 0016 FFF7FEFF 		bl	main_printf
 204              	.LVL12:
 205              		.loc 2 48 0
 206 001a 6068     		ldr	r0, [r4, #4]	@ float
 207 001c FFF7FEFF 		bl	__aeabi_f2d
 208              	.LVL13:
 209 0020 0246     		mov	r2, r0
 210 0022 0B46     		mov	r3, r1
 211 0024 2F48     		ldr	r0, .L16+8
 212 0026 FFF7FEFF 		bl	main_printf
 213              	.LVL14:
 214              		.loc 2 49 0
 215 002a E068     		ldr	r0, [r4, #12]	@ float
 216 002c FFF7FEFF 		bl	__aeabi_f2d
 217              	.LVL15:
 218 0030 0246     		mov	r2, r0
 219 0032 0B46     		mov	r3, r1
 220 0034 2C48     		ldr	r0, .L16+12
 221 0036 FFF7FEFF 		bl	main_printf
 222              	.LVL16:
 223              		.loc 2 50 0
 224 003a 2069     		ldr	r0, [r4, #16]	@ float
 225 003c FFF7FEFF 		bl	__aeabi_f2d
 226              	.LVL17:
 227 0040 0246     		mov	r2, r0
 228 0042 0B46     		mov	r3, r1
ARM GAS  /tmp/cc1U8jrO.s 			page 5


 229 0044 2948     		ldr	r0, .L16+16
 230 0046 FFF7FEFF 		bl	main_printf
 231              	.LVL18:
 232              		.loc 2 51 0
 233 004a E069     		ldr	r0, [r4, #28]	@ float
 234 004c FFF7FEFF 		bl	__aeabi_f2d
 235              	.LVL19:
 236 0050 0246     		mov	r2, r0
 237 0052 0B46     		mov	r3, r1
 238 0054 2648     		ldr	r0, .L16+20
 239 0056 FFF7FEFF 		bl	main_printf
 240              	.LVL20:
 241              		.loc 2 52 0
 242 005a 94ED087A 		vldr.32	s14, [r4, #32]
 243 005e DFED257A 		vldr.32	s15, .L16+24
 244 0062 67EE277A 		vmul.f32	s15, s14, s15
 245 0066 17EE900A 		vmov	r0, s15
 246 006a FFF7FEFF 		bl	__aeabi_f2d
 247              	.LVL21:
 248 006e 0246     		mov	r2, r0
 249 0070 0B46     		mov	r3, r1
 250 0072 2148     		ldr	r0, .L16+28
 251 0074 FFF7FEFF 		bl	main_printf
 252              	.LVL22:
 253              		.loc 2 53 0
 254 0078 606A     		ldr	r0, [r4, #36]	@ float
 255 007a FFF7FEFF 		bl	__aeabi_f2d
 256              	.LVL23:
 257 007e 0246     		mov	r2, r0
 258 0080 0B46     		mov	r3, r1
 259 0082 1E48     		ldr	r0, .L16+32
 260 0084 FFF7FEFF 		bl	main_printf
 261              	.LVL24:
 262              		.loc 2 54 0
 263 0088 A06A     		ldr	r0, [r4, #40]	@ float
 264 008a FFF7FEFF 		bl	__aeabi_f2d
 265              	.LVL25:
 266 008e 0246     		mov	r2, r0
 267 0090 0B46     		mov	r3, r1
 268 0092 1B48     		ldr	r0, .L16+36
 269 0094 FFF7FEFF 		bl	main_printf
 270              	.LVL26:
 271              		.loc 2 55 0
 272 0098 E06A     		ldr	r0, [r4, #44]	@ float
 273 009a FFF7FEFF 		bl	__aeabi_f2d
 274              	.LVL27:
 275 009e 0246     		mov	r2, r0
 276 00a0 0B46     		mov	r3, r1
 277 00a2 1848     		ldr	r0, .L16+40
 278 00a4 FFF7FEFF 		bl	main_printf
 279              	.LVL28:
 280              		.loc 2 56 0
 281 00a8 206B     		ldr	r0, [r4, #48]	@ float
 282 00aa FFF7FEFF 		bl	__aeabi_f2d
 283              	.LVL29:
 284 00ae 0246     		mov	r2, r0
 285 00b0 0B46     		mov	r3, r1
ARM GAS  /tmp/cc1U8jrO.s 			page 6


 286 00b2 1548     		ldr	r0, .L16+44
 287 00b4 FFF7FEFF 		bl	main_printf
 288              	.LVL30:
 289              		.loc 2 57 0
 290 00b8 616B     		ldr	r1, [r4, #52]
 291 00ba 1448     		ldr	r0, .L16+48
 292 00bc FFF7FEFF 		bl	main_printf
 293              	.LVL31:
 294              		.loc 2 58 0
 295 00c0 A16B     		ldr	r1, [r4, #56]
 296 00c2 1348     		ldr	r0, .L16+52
 297 00c4 FFF7FEFF 		bl	main_printf
 298              	.LVL32:
 299              		.loc 2 59 0
 300 00c8 94F83C00 		ldrb	r0, [r4, #60]	@ zero_extendqisi2
 301 00cc FFF7FEFF 		bl	bldc_interface_fault_to_string
 302              	.LVL33:
 303              		.loc 2 60 0
 304 00d0 BDE81040 		pop	{r4, lr}
 305              		.cfi_restore 14
 306              		.cfi_restore 4
 307              		.cfi_def_cfa_offset 0
 308              	.LVL34:
 309              		.loc 2 59 0
 310 00d4 0146     		mov	r1, r0
 311 00d6 0F48     		ldr	r0, .L16+56
 312 00d8 FFF7FEBF 		b	main_printf
 313              	.LVL35:
 314              	.L17:
 315              		.align	2
 316              	.L16:
 317 00dc 00000000 		.word	.LC1
 318 00e0 04000000 		.word	.LC2
 319 00e4 1C000000 		.word	.LC3
 320 00e8 38000000 		.word	.LC4
 321 00ec 50000000 		.word	.LC5
 322 00f0 68000000 		.word	.LC6
 323 00f4 0000C842 		.word	1120403456
 324 00f8 84000000 		.word	.LC7
 325 00fc A0000000 		.word	.LC8
 326 0100 BC000000 		.word	.LC9
 327 0104 D8000000 		.word	.LC10
 328 0108 F4000000 		.word	.LC11
 329 010c 10010000 		.word	.LC12
 330 0110 2C010000 		.word	.LC13
 331 0114 48010000 		.word	.LC14
 332              		.cfi_endproc
 333              	.LFE266:
 334              		.size	bldc_val_received, .-bldc_val_received
 335              		.section	.text.startup.main,"ax",%progbits
 336              		.align	1
 337              		.p2align 4,,15
 338              		.global	main
 339              		.syntax unified
 340              		.thumb
 341              		.thumb_func
 342              		.fpu fpv4-sp-d16
ARM GAS  /tmp/cc1U8jrO.s 			page 7


 343              		.type	main, %function
 344              	main:
 345              	.LFB267:
 346              		.loc 2 62 0
 347              		.cfi_startproc
 348              		@ args = 0, pretend = 0, frame = 0
 349              		@ frame_needed = 0, uses_anonymous_args = 0
 350              	.LVL36:
 351 0000 70B5     		push	{r4, r5, r6, lr}
 352              		.cfi_def_cfa_offset 16
 353              		.cfi_offset 4, -16
 354              		.cfi_offset 5, -12
 355              		.cfi_offset 6, -8
 356              		.cfi_offset 14, -4
 357              		.loc 2 66 0
 358 0002 FFF7FEFF 		bl	halInit
 359              	.LVL37:
 360              		.loc 2 63 0
 361 0006 0024     		movs	r4, #0
 362              		.loc 2 67 0
 363 0008 FFF7FEFF 		bl	chSysInit
 364              	.LVL38:
 365              		.loc 2 70 0
 366 000c FFF7FEFF 		bl	comm_usb_serial_init
 367              	.LVL39:
 368              		.loc 2 71 0
 369 0010 FFF7FEFF 		bl	shellInit
 370              	.LVL40:
 371              		.loc 2 74 0
 372 0014 FFF7FEFF 		bl	comm_uart_init
 373              	.LVL41:
 374              		.loc 2 77 0
 375 0018 1648     		ldr	r0, .L33
 376 001a 174D     		ldr	r5, .L33+4
 377              		.loc 2 82 0
 378 001c 174E     		ldr	r6, .L33+8
 379              		.loc 2 77 0
 380 001e FFF7FEFF 		bl	bldc_interface_set_rx_value_func
 381              	.LVL42:
 382              		.loc 2 81 0
 383 0022 44B1     		cbz	r4, .L19
 384              	.L28:
 385              	.LVL43:
 386              		.loc 2 83 0
 387 0024 237F     		ldrb	r3, [r4, #28]	@ zero_extendqisi2
 388 0026 0F2B     		cmp	r3, #15
 389 0028 0ED0     		beq	.L31
 390              	.LVL44:
 391              	.L21:
 392              		.loc 2 87 0
 393 002a 42F21070 		movw	r0, #10000
 394 002e FFF7FEFF 		bl	chThdSleep
 395              	.LVL45:
 396              		.loc 2 81 0
 397 0032 002C     		cmp	r4, #0
 398 0034 F6D1     		bne	.L28
 399              	.L19:
ARM GAS  /tmp/cc1U8jrO.s 			page 8


 400              		.loc 2 81 0 is_stmt 0 discriminator 1
 401 0036 D5F85432 		ldr	r3, [r5, #596]
 402 003a 1B68     		ldr	r3, [r3]
 403 003c 1B78     		ldrb	r3, [r3]	@ zero_extendqisi2
 404 003e 042B     		cmp	r3, #4
 405 0040 0FD0     		beq	.L32
 406              	.LVL46:
 407              	.L29:
 408              		.loc 2 83 0 is_stmt 1
 409 0042 0023     		movs	r3, #0
 410 0044 1B7F     		ldrb	r3, [r3, #28]	@ zero_extendqisi2
 411 0046 FFDE     		.inst	0xdeff
 412              	.LVL47:
 413              	.L31:
 414              		.loc 2 84 0
 415 0048 2046     		mov	r0, r4
 416 004a FFF7FEFF 		bl	chThdRelease
 417              	.LVL48:
 418              		.loc 2 87 0
 419 004e 42F21070 		movw	r0, #10000
 420 0052 FFF7FEFF 		bl	chThdSleep
 421              	.LVL49:
 422              		.loc 2 81 0
 423 0056 D5F85432 		ldr	r3, [r5, #596]
 424 005a 1B68     		ldr	r3, [r3]
 425 005c 1B78     		ldrb	r3, [r3]	@ zero_extendqisi2
 426 005e 042B     		cmp	r3, #4
 427 0060 EFD1     		bne	.L29
 428              	.LVL50:
 429              	.L32:
 430              		.loc 2 82 0
 431 0062 4022     		movs	r2, #64
 432 0064 41F25011 		movw	r1, #4432
 433 0068 3046     		mov	r0, r6
 434 006a FFF7FEFF 		bl	shellCreate
 435              	.LVL51:
 436 006e 0446     		mov	r4, r0
 437              	.LVL52:
 438 0070 DBE7     		b	.L21
 439              	.L34:
 440 0072 00BF     		.align	2
 441              	.L33:
 442 0074 00000000 		.word	bldc_val_received
 443 0078 00000000 		.word	SDU1
 444 007c 00000000 		.word	.LANCHOR0
 445              		.cfi_endproc
 446              	.LFE267:
 447              		.size	main, .-main
 448              		.section	.rodata.bldc_val_received.str1.4,"aMS",%progbits,1
 449              		.align	2
 450              	.LC1:
 451 0000 0D0A00   		.ascii	"\015\012\000"
 452 0003 00       		.space	1
 453              	.LC2:
 454 0004 496E7075 		.ascii	"Input voltage: %.2f V\015\012\000"
 454      7420766F 
 454      6C746167 
ARM GAS  /tmp/cc1U8jrO.s 			page 9


 454      653A2025 
 454      2E326620 
 455              	.LC3:
 456 001c 54656D70 		.ascii	"Temp:          %.2f degC\015\012\000"
 456      3A202020 
 456      20202020 
 456      20202025 
 456      2E326620 
 457 0037 00       		.space	1
 458              	.LC4:
 459 0038 43757272 		.ascii	"Current motor: %.2f A\015\012\000"
 459      656E7420 
 459      6D6F746F 
 459      723A2025 
 459      2E326620 
 460              	.LC5:
 461 0050 43757272 		.ascii	"Current in:    %.2f A\015\012\000"
 461      656E7420 
 461      696E3A20 
 461      20202025 
 461      2E326620 
 462              	.LC6:
 463 0068 52504D3A 		.ascii	"RPM:           %.1f RPM\015\012\000"
 463      20202020 
 463      20202020 
 463      20202025 
 463      2E316620 
 464 0082 0000     		.space	2
 465              	.LC7:
 466 0084 44757479 		.ascii	"Duty cycle:    %.1f %%\015\012\000"
 466      20637963 
 466      6C653A20 
 466      20202025 
 466      2E316620 
 467 009d 000000   		.space	3
 468              	.LC8:
 469 00a0 41682044 		.ascii	"Ah Drawn:      %.4f Ah\015\012\000"
 469      7261776E 
 469      3A202020 
 469      20202025 
 469      2E346620 
 470 00b9 000000   		.space	3
 471              	.LC9:
 472 00bc 41682052 		.ascii	"Ah Regen:      %.4f Ah\015\012\000"
 472      6567656E 
 472      3A202020 
 472      20202025 
 472      2E346620 
 473 00d5 000000   		.space	3
 474              	.LC10:
 475 00d8 57682044 		.ascii	"Wh Drawn:      %.4f Wh\015\012\000"
 475      7261776E 
 475      3A202020 
 475      20202025 
 475      2E346620 
 476 00f1 000000   		.space	3
 477              	.LC11:
ARM GAS  /tmp/cc1U8jrO.s 			page 10


 478 00f4 57682052 		.ascii	"Wh Regen:      %.4f Wh\015\012\000"
 478      6567656E 
 478      3A202020 
 478      20202025 
 478      2E346620 
 479 010d 000000   		.space	3
 480              	.LC12:
 481 0110 54616368 		.ascii	"Tacho:         %i counts\015\012\000"
 481      6F3A2020 
 481      20202020 
 481      20202025 
 481      6920636F 
 482 012b 00       		.space	1
 483              	.LC13:
 484 012c 54616368 		.ascii	"Tacho ABS:     %i counts\015\012\000"
 484      6F204142 
 484      533A2020 
 484      20202025 
 484      6920636F 
 485 0147 00       		.space	1
 486              	.LC14:
 487 0148 4661756C 		.ascii	"Fault Code:    %s\015\012\000"
 487      7420436F 
 487      64653A20 
 487      20202025 
 487      730D0A00 
 488              		.section	.rodata.chprintf.constprop.1.str1.4,"aMS",%progbits,1
 489              		.align	2
 490              	.LC0:
 491 0000 55736167 		.ascii	"Usage: val\015\012\000"
 491      653A2076 
 491      616C0D0A 
 491      00
 492              		.section	.rodata.commands,"a",%progbits
 493              		.align	2
 494              		.type	commands, %object
 495              		.size	commands, 16
 496              	commands:
 497 0000 00000000 		.word	.LC15
 498 0004 00000000 		.word	cmd_val
 499 0008 00000000 		.word	0
 500 000c 00000000 		.word	0
 501              		.section	.rodata.shell_cfg1,"a",%progbits
 502              		.align	2
 503              		.set	.LANCHOR0,. + 0
 504              		.type	shell_cfg1, %object
 505              		.size	shell_cfg1, 8
 506              	shell_cfg1:
 507 0000 00000000 		.word	SDU1
 508 0004 00000000 		.word	commands
 509              		.section	.rodata.str1.4,"aMS",%progbits,1
 510              		.align	2
 511              	.LC15:
 512 0000 76616C00 		.ascii	"val\000"
 513              		.text
 514              	.Letext0:
 515              		.file 3 "/usr/arm-none-eabi/include/machine/_default_types.h"
ARM GAS  /tmp/cc1U8jrO.s 			page 11


 516              		.file 4 "/usr/lib/gcc/arm-none-eabi/7.3.1/include/stddef.h"
 517              		.file 5 "/usr/lib/gcc/arm-none-eabi/7.3.1/include/stdarg.h"
 518              		.file 6 "/usr/arm-none-eabi/include/stdio.h"
 519              		.file 7 "/usr/arm-none-eabi/include/sys/lock.h"
 520              		.file 8 "/usr/arm-none-eabi/include/sys/_types.h"
 521              		.file 9 "/usr/arm-none-eabi/include/sys/reent.h"
 522              		.file 10 "<built-in>"
 523              		.file 11 "/usr/arm-none-eabi/include/sys/_stdint.h"
 524              		.file 12 "ChibiOS_3.0.2/os/rt/ports/ARMCMx/compilers/GCC/chtypes.h"
 525              		.file 13 "ChibiOS_3.0.2/os/rt/include/chsystypes.h"
 526              		.file 14 "ChibiOS_3.0.2/os/rt/include/chschd.h"
 527              		.file 15 "ChibiOS_3.0.2/os/ext/CMSIS/include/core_cm4.h"
 528              		.file 16 "ChibiOS_3.0.2/os/ext/CMSIS/ST/system_stm32f4xx.h"
 529              		.file 17 "ChibiOS_3.0.2/os/ext/CMSIS/ST/stm32f407xx.h"
 530              		.file 18 "ChibiOS_3.0.2/os/rt/ports/ARMCMx/chcore.h"
 531              		.file 19 "ChibiOS_3.0.2/os/rt/ports/ARMCMx/chcore_v7m.h"
 532              		.file 20 "ChibiOS_3.0.2/os/rt/include/chtm.h"
 533              		.file 21 "ChibiOS_3.0.2/os/rt/include/chsem.h"
 534              		.file 22 "ChibiOS_3.0.2/os/rt/include/chmtx.h"
 535              		.file 23 "ChibiOS_3.0.2/os/rt/include/chregistry.h"
 536              		.file 24 "ChibiOS_3.0.2/os/rt/include/chevents.h"
 537              		.file 25 "ChibiOS_3.0.2/os/rt/include/chqueues.h"
 538              		.file 26 "ChibiOS_3.0.2/os/rt/include/chstreams.h"
 539              		.file 27 "ChibiOS_3.0.2/os/hal/ports/STM32/STM32F4xx/stm32_dma.h"
 540              		.file 28 "ChibiOS_3.0.2/os/hal/ports/STM32/LLD/GPIOv2/pal_lld.h"
 541              		.file 29 "ChibiOS_3.0.2/os/hal/include/uart.h"
 542              		.file 30 "ChibiOS_3.0.2/os/hal/ports/STM32/LLD/USARTv1/uart_lld.h"
 543              		.file 31 "ChibiOS_3.0.2/os/hal/include/usb.h"
 544              		.file 32 "ChibiOS_3.0.2/os/hal/ports/STM32/LLD/OTGv1/usb_lld.h"
 545              		.file 33 "ChibiOS_3.0.2/os/hal/ports/STM32/LLD/OTGv1/stm32_otg.h"
 546              		.file 34 "ChibiOS_3.0.2/os/hal/include/serial_usb.h"
 547              		.file 35 "ChibiOS_3.0.2/os/various/shell.h"
 548              		.file 36 "comm_usb_serial.h"
 549              		.file 37 "datatypes.h"
 550              		.file 38 "ChibiOS_3.0.2/os/rt/include/chthreads.h"
 551              		.file 39 "ChibiOS_3.0.2/os/hal/include/hal.h"
 552              		.file 40 "ChibiOS_3.0.2/os/rt/include/chsys.h"
 553              		.file 41 "comm_uart.h"
 554              		.file 42 "bldc_interface.h"
 555              		.file 43 "ChibiOS_3.0.2/os/rt/include/chdynamic.h"