ARM GAS  /tmp/ccHj5goS.s 			page 1


   1              		.cpu cortex-m4
   2              		.eabi_attribute 27, 1
   3              		.eabi_attribute 28, 1
   4              		.eabi_attribute 20, 1
   5              		.eabi_attribute 21, 1
   6              		.eabi_attribute 23, 3
   7              		.eabi_attribute 24, 1
   8              		.eabi_attribute 25, 1
   9              		.eabi_attribute 26, 1
  10              		.eabi_attribute 30, 2
  11              		.eabi_attribute 34, 1
  12              		.eabi_attribute 18, 4
  13              		.file	"memstreams.c"
  14              		.text
  15              	.Ltext0:
  16              		.cfi_sections	.debug_frame
  17              		.section	.text.put,"ax",%progbits
  18              		.align	1
  19              		.p2align 4,,15
  20              		.syntax unified
  21              		.thumb
  22              		.thumb_func
  23              		.fpu fpv4-sp-d16
  24              		.type	put, %function
  25              	put:
  26              	.LFB262:
  27              		.file 1 "ChibiOS_3.0.2/os/hal/lib/streams/memstreams.c"
  28              		.loc 1 66 0
  29              		.cfi_startproc
  30              		@ args = 0, pretend = 0, frame = 0
  31              		@ frame_needed = 0, uses_anonymous_args = 0
  32              		@ link register save eliminated.
  33              	.LVL0:
  34              		.loc 1 69 0
  35 0000 D0E90223 		ldrd	r2, r3, [r0, #8]
  36 0004 9A42     		cmp	r2, r3
  37 0006 06D0     		beq	.L3
  38              		.loc 1 71 0
  39 0008 4268     		ldr	r2, [r0, #4]
  40 000a D154     		strb	r1, [r2, r3]
  41              		.loc 1 72 0
  42 000c C368     		ldr	r3, [r0, #12]
  43 000e 0133     		adds	r3, r3, #1
  44 0010 C360     		str	r3, [r0, #12]
  45              		.loc 1 73 0
  46 0012 0020     		movs	r0, #0
  47              	.LVL1:
  48 0014 7047     		bx	lr
  49              	.LVL2:
  50              	.L3:
  51              		.loc 1 70 0
  52 0016 6FF00100 		mvn	r0, #1
  53              	.LVL3:
  54              		.loc 1 74 0
  55 001a 7047     		bx	lr
  56              		.cfi_endproc
  57              	.LFE262:
ARM GAS  /tmp/ccHj5goS.s 			page 2


  58              		.size	put, .-put
  59              		.section	.text.get,"ax",%progbits
  60              		.align	1
  61              		.p2align 4,,15
  62              		.syntax unified
  63              		.thumb
  64              		.thumb_func
  65              		.fpu fpv4-sp-d16
  66              		.type	get, %function
  67              	get:
  68              	.LFB263:
  69              		.loc 1 76 0
  70              		.cfi_startproc
  71              		@ args = 0, pretend = 0, frame = 0
  72              		@ frame_needed = 0, uses_anonymous_args = 0
  73              		@ link register save eliminated.
  74              	.LVL4:
  75              		.loc 1 80 0
  76 0000 D0E90313 		ldrd	r1, r3, [r0, #12]
  77 0004 9942     		cmp	r1, r3
  78              		.loc 1 76 0
  79 0006 0246     		mov	r2, r0
  80              	.LVL5:
  81              		.loc 1 80 0
  82 0008 04D0     		beq	.L7
  83              		.loc 1 82 0
  84 000a 4168     		ldr	r1, [r0, #4]
  85 000c C85C     		ldrb	r0, [r1, r3]	@ zero_extendqisi2
  86              	.LVL6:
  87              		.loc 1 83 0
  88 000e 0133     		adds	r3, r3, #1
  89 0010 1361     		str	r3, [r2, #16]
  90              		.loc 1 84 0
  91 0012 7047     		bx	lr
  92              	.LVL7:
  93              	.L7:
  94              		.loc 1 81 0
  95 0014 6FF00100 		mvn	r0, #1
  96              	.LVL8:
  97              		.loc 1 85 0
  98 0018 7047     		bx	lr
  99              		.cfi_endproc
 100              	.LFE263:
 101              		.size	get, .-get
 102 001a 00BF     		.section	.text.reads,"ax",%progbits
 103              		.align	1
 104              		.p2align 4,,15
 105              		.syntax unified
 106              		.thumb
 107              		.thumb_func
 108              		.fpu fpv4-sp-d16
 109              		.type	reads, %function
 110              	reads:
 111              	.LFB261:
 112              		.loc 1 56 0
 113              		.cfi_startproc
 114              		@ args = 0, pretend = 0, frame = 0
ARM GAS  /tmp/ccHj5goS.s 			page 3


 115              		@ frame_needed = 0, uses_anonymous_args = 0
 116              	.LVL9:
 117 0000 70B5     		push	{r4, r5, r6, lr}
 118              		.cfi_def_cfa_offset 16
 119              		.cfi_offset 4, -16
 120              		.cfi_offset 5, -12
 121              		.cfi_offset 6, -8
 122              		.cfi_offset 14, -4
 123              		.loc 1 59 0
 124 0002 D0E90343 		ldrd	r4, r3, [r0, #12]
 125 0006 E41A     		subs	r4, r4, r3
 126              		.loc 1 61 0
 127 0008 4668     		ldr	r6, [r0, #4]
 128 000a 9442     		cmp	r4, r2
 129 000c 28BF     		it	cs
 130 000e 1446     		movcs	r4, r2
 131              		.loc 1 56 0
 132 0010 0546     		mov	r5, r0
 133              	.LVL10:
 134              		.loc 1 61 0
 135 0012 2246     		mov	r2, r4
 136 0014 0846     		mov	r0, r1
 137              	.LVL11:
 138 0016 F118     		adds	r1, r6, r3
 139              	.LVL12:
 140 0018 FFF7FEFF 		bl	memcpy
 141              	.LVL13:
 142              		.loc 1 62 0
 143 001c 2B69     		ldr	r3, [r5, #16]
 144 001e 2344     		add	r3, r3, r4
 145 0020 2B61     		str	r3, [r5, #16]
 146              		.loc 1 64 0
 147 0022 2046     		mov	r0, r4
 148 0024 70BD     		pop	{r4, r5, r6, pc}
 149              		.cfi_endproc
 150              	.LFE261:
 151              		.size	reads, .-reads
 152 0026 00BF     		.section	.text.writes,"ax",%progbits
 153              		.align	1
 154              		.p2align 4,,15
 155              		.syntax unified
 156              		.thumb
 157              		.thumb_func
 158              		.fpu fpv4-sp-d16
 159              		.type	writes, %function
 160              	writes:
 161              	.LFB260:
 162              		.loc 1 46 0
 163              		.cfi_startproc
 164              		@ args = 0, pretend = 0, frame = 0
 165              		@ frame_needed = 0, uses_anonymous_args = 0
 166              	.LVL14:
 167 0000 38B5     		push	{r3, r4, r5, lr}
 168              		.cfi_def_cfa_offset 16
 169              		.cfi_offset 3, -16
 170              		.cfi_offset 4, -12
 171              		.cfi_offset 5, -8
ARM GAS  /tmp/ccHj5goS.s 			page 4


 172              		.cfi_offset 14, -4
 173              		.loc 1 49 0
 174 0002 D0E90243 		ldrd	r4, r3, [r0, #8]
 175 0006 E41A     		subs	r4, r4, r3
 176              		.loc 1 46 0
 177 0008 0546     		mov	r5, r0
 178              	.LVL15:
 179 000a 9442     		cmp	r4, r2
 180              		.loc 1 51 0
 181 000c 4068     		ldr	r0, [r0, #4]
 182              	.LVL16:
 183 000e 28BF     		it	cs
 184 0010 1446     		movcs	r4, r2
 185              	.LVL17:
 186 0012 1844     		add	r0, r0, r3
 187 0014 2246     		mov	r2, r4
 188 0016 FFF7FEFF 		bl	memcpy
 189              	.LVL18:
 190              		.loc 1 52 0
 191 001a EB68     		ldr	r3, [r5, #12]
 192 001c 2344     		add	r3, r3, r4
 193 001e EB60     		str	r3, [r5, #12]
 194              		.loc 1 54 0
 195 0020 2046     		mov	r0, r4
 196 0022 38BD     		pop	{r3, r4, r5, pc}
 197              		.cfi_endproc
 198              	.LFE260:
 199              		.size	writes, .-writes
 200              		.section	.text.msObjectInit,"ax",%progbits
 201              		.align	1
 202              		.p2align 4,,15
 203              		.global	msObjectInit
 204              		.syntax unified
 205              		.thumb
 206              		.thumb_func
 207              		.fpu fpv4-sp-d16
 208              		.type	msObjectInit, %function
 209              	msObjectInit:
 210              	.LFB264:
 211              		.loc 1 104 0
 212              		.cfi_startproc
 213              		@ args = 0, pretend = 0, frame = 0
 214              		@ frame_needed = 0, uses_anonymous_args = 0
 215              		@ link register save eliminated.
 216              	.LVL19:
 217 0000 10B4     		push	{r4}
 218              		.cfi_def_cfa_offset 4
 219              		.cfi_offset 4, -4
 220              		.loc 1 107 0
 221 0002 4160     		str	r1, [r0, #4]
 222              		.loc 1 106 0
 223 0004 044C     		ldr	r4, .L14
 224 0006 0460     		str	r4, [r0]
 225              		.loc 1 110 0
 226 0008 0021     		movs	r1, #0
 227              	.LVL20:
 228              		.loc 1 109 0
ARM GAS  /tmp/ccHj5goS.s 			page 5


 229 000a C0E90223 		strd	r2, r3, [r0, #8]
 230              		.loc 1 110 0
 231 000e 0161     		str	r1, [r0, #16]
 232              		.loc 1 111 0
 233 0010 5DF8044B 		ldr	r4, [sp], #4
 234              		.cfi_restore 4
 235              		.cfi_def_cfa_offset 0
 236 0014 7047     		bx	lr
 237              	.L15:
 238 0016 00BF     		.align	2
 239              	.L14:
 240 0018 00000000 		.word	.LANCHOR0
 241              		.cfi_endproc
 242              	.LFE264:
 243              		.size	msObjectInit, .-msObjectInit
 244              		.section	.rodata.vmt,"a",%progbits
 245              		.align	2
 246              		.set	.LANCHOR0,. + 0
 247              		.type	vmt, %object
 248              		.size	vmt, 16
 249              	vmt:
 250 0000 00000000 		.word	writes
 251 0004 00000000 		.word	reads
 252 0008 00000000 		.word	put
 253 000c 00000000 		.word	get
 254              		.text
 255              	.Letext0:
 256              		.file 2 "/usr/lib/gcc/arm-none-eabi/7.3.1/include/stddef.h"
 257              		.file 3 "/usr/arm-none-eabi/include/machine/_default_types.h"
 258              		.file 4 "/usr/arm-none-eabi/include/sys/lock.h"
 259              		.file 5 "/usr/arm-none-eabi/include/sys/_types.h"
 260              		.file 6 "/usr/arm-none-eabi/include/sys/reent.h"
 261              		.file 7 "/usr/arm-none-eabi/include/sys/_stdint.h"
 262              		.file 8 "ChibiOS_3.0.2/os/rt/ports/ARMCMx/compilers/GCC/chtypes.h"
 263              		.file 9 "ChibiOS_3.0.2/os/rt/include/chsystypes.h"
 264              		.file 10 "ChibiOS_3.0.2/os/rt/include/chschd.h"
 265              		.file 11 "ChibiOS_3.0.2/os/ext/CMSIS/include/core_cm4.h"
 266              		.file 12 "ChibiOS_3.0.2/os/ext/CMSIS/ST/system_stm32f4xx.h"
 267              		.file 13 "ChibiOS_3.0.2/os/ext/CMSIS/ST/stm32f407xx.h"
 268              		.file 14 "ChibiOS_3.0.2/os/rt/ports/ARMCMx/chcore.h"
 269              		.file 15 "ChibiOS_3.0.2/os/rt/ports/ARMCMx/chcore_v7m.h"
 270              		.file 16 "ChibiOS_3.0.2/os/rt/include/chtm.h"
 271              		.file 17 "ChibiOS_3.0.2/os/rt/include/chsem.h"
 272              		.file 18 "ChibiOS_3.0.2/os/rt/include/chmtx.h"
 273              		.file 19 "ChibiOS_3.0.2/os/rt/include/chregistry.h"
 274              		.file 20 "ChibiOS_3.0.2/os/rt/include/chqueues.h"
 275              		.file 21 "ChibiOS_3.0.2/os/hal/ports/STM32/STM32F4xx/stm32_dma.h"
 276              		.file 22 "ChibiOS_3.0.2/os/hal/ports/STM32/LLD/GPIOv2/pal_lld.h"
 277              		.file 23 "ChibiOS_3.0.2/os/hal/include/uart.h"
 278              		.file 24 "ChibiOS_3.0.2/os/hal/ports/STM32/LLD/USARTv1/uart_lld.h"
 279              		.file 25 "ChibiOS_3.0.2/os/hal/include/usb.h"
 280              		.file 26 "ChibiOS_3.0.2/os/hal/ports/STM32/LLD/OTGv1/usb_lld.h"
 281              		.file 27 "ChibiOS_3.0.2/os/hal/ports/STM32/LLD/OTGv1/stm32_otg.h"
 282              		.file 28 "ChibiOS_3.0.2/os/hal/lib/streams/memstreams.h"
 283              		.file 29 "<built-in>"