ARM GAS  /tmp/ccfmfRrI.s 			page 1


   1              		.cpu cortex-m4
   2              		.eabi_attribute 27, 1
   3              		.eabi_attribute 28, 1
   4              		.eabi_attribute 20, 1
   5              		.eabi_attribute 21, 1
   6              		.eabi_attribute 23, 3
   7              		.eabi_attribute 24, 1
   8              		.eabi_attribute 25, 1
   9              		.eabi_attribute 26, 1
  10              		.eabi_attribute 30, 2
  11              		.eabi_attribute 34, 1
  12              		.eabi_attribute 18, 4
  13              		.file	"packet.c"
  14              		.text
  15              	.Ltext0:
  16              		.cfi_sections	.debug_frame
  17              		.section	.text.packet_init,"ax",%progbits
  18              		.align	1
  19              		.p2align 4,,15
  20              		.global	packet_init
  21              		.syntax unified
  22              		.thumb
  23              		.thumb_func
  24              		.fpu fpv4-sp-d16
  25              		.type	packet_init, %function
  26              	packet_init:
  27              	.LFB0:
  28              		.file 1 "packet.c"
  29              		.loc 1 45 0
  30              		.cfi_startproc
  31              		@ args = 0, pretend = 0, frame = 0
  32              		@ frame_needed = 0, uses_anonymous_args = 0
  33              		@ link register save eliminated.
  34              	.LVL0:
  35              		.loc 1 46 0
  36 0000 034B     		ldr	r3, .L3
  37 0002 02EB4212 		add	r2, r2, r2, lsl #5
  38              	.LVL1:
  39 0006 03EB4212 		add	r2, r3, r2, lsl #5
  40              		.loc 1 47 0
  41 000a C2E90101 		strd	r0, r1, [r2, #4]
  42              		.loc 1 48 0
  43 000e 7047     		bx	lr
  44              	.L4:
  45              		.align	2
  46              	.L3:
  47 0010 00000000 		.word	.LANCHOR0
  48              		.cfi_endproc
  49              	.LFE0:
  50              		.size	packet_init, .-packet_init
  51              		.section	.text.packet_send_packet,"ax",%progbits
  52              		.align	1
  53              		.p2align 4,,15
  54              		.global	packet_send_packet
  55              		.syntax unified
  56              		.thumb
  57              		.thumb_func
ARM GAS  /tmp/ccfmfRrI.s 			page 2


  58              		.fpu fpv4-sp-d16
  59              		.type	packet_send_packet, %function
  60              	packet_send_packet:
  61              	.LFB1:
  62              		.loc 1 50 0
  63              		.cfi_startproc
  64              		@ args = 0, pretend = 0, frame = 0
  65              		@ frame_needed = 0, uses_anonymous_args = 0
  66              	.LVL2:
  67              		.loc 1 51 0
  68 0000 B1F5007F 		cmp	r1, #512
  69 0004 3ED8     		bhi	.L15
  70              	.LVL3:
  71              		.loc 1 50 0
  72 0006 2DE9F047 		push	{r4, r5, r6, r7, r8, r9, r10, lr}
  73              		.cfi_def_cfa_offset 32
  74              		.cfi_offset 4, -32
  75              		.cfi_offset 5, -28
  76              		.cfi_offset 6, -24
  77              		.cfi_offset 7, -20
  78              		.cfi_offset 8, -16
  79              		.cfi_offset 9, -12
  80              		.cfi_offset 10, -8
  81              		.cfi_offset 14, -4
  82              		.loc 1 58 0
  83 000a 5301     		lsls	r3, r2, #5
  84 000c 1E4E     		ldr	r6, .L19
  85 000e 9C18     		adds	r4, r3, r2
  86              		.loc 1 57 0
  87 0010 B1F5807F 		cmp	r1, #256
  88 0014 5FFA81FC 		uxtb	ip, r1
  89              		.loc 1 58 0
  90 0018 06EB4414 		add	r4, r6, r4, lsl #5
  91              		.loc 1 57 0
  92 001c 2AD9     		bls	.L18
  93              	.LVL4:
  94              		.loc 1 62 0
  95 001e 0D0A     		lsrs	r5, r1, #8
  96              		.loc 1 61 0
  97 0020 0327     		movs	r7, #3
  98              		.loc 1 63 0
  99 0022 84F812C2 		strb	ip, [r4, #530]
 100              		.loc 1 62 0
 101 0026 84F81152 		strb	r5, [r4, #529]
 102              		.loc 1 61 0
 103 002a 84F81072 		strb	r7, [r4, #528]
 104              	.LVL5:
 105              	.L9:
 106              		.loc 1 66 0
 107 002e 9C18     		adds	r4, r3, r2
 108 0030 6401     		lsls	r4, r4, #5
 109 0032 04F50479 		add	r9, r4, #528
 110 0036 8046     		mov	r8, r0
 111 0038 B144     		add	r9, r9, r6
 112 003a 0A46     		mov	r2, r1
 113              	.LVL6:
 114 003c 0D46     		mov	r5, r1
ARM GAS  /tmp/ccfmfRrI.s 			page 3


 115 003e 09EB0700 		add	r0, r9, r7
 116              	.LVL7:
 117 0042 4146     		mov	r1, r8
 118              	.LVL8:
 119 0044 FFF7FEFF 		bl	memcpy
 120              	.LVL9:
 121              		.loc 1 69 0
 122 0048 2946     		mov	r1, r5
 123 004a 4046     		mov	r0, r8
 124 004c FFF7FEFF 		bl	crc16
 125              	.LVL10:
 126              		.loc 1 70 0
 127 0050 3444     		add	r4, r4, r6
 128              		.loc 1 67 0
 129 0052 E919     		adds	r1, r5, r7
 130              	.LVL11:
 131              		.loc 1 70 0
 132 0054 6318     		adds	r3, r4, r1
 133              		.loc 1 74 0
 134 0056 6268     		ldr	r2, [r4, #4]
 135              		.loc 1 71 0
 136 0058 83F81102 		strb	r0, [r3, #529]
 137              		.loc 1 72 0
 138 005c 0324     		movs	r4, #3
 139              		.loc 1 70 0
 140 005e 000A     		lsrs	r0, r0, #8
 141              	.LVL12:
 142 0060 83F81002 		strb	r0, [r3, #528]
 143              	.LVL13:
 144              		.loc 1 72 0
 145 0064 2144     		add	r1, r1, r4
 146              	.LVL14:
 147 0066 83F81242 		strb	r4, [r3, #530]
 148              		.loc 1 74 0
 149 006a 4AB1     		cbz	r2, .L5
 150              		.loc 1 75 0
 151 006c 4846     		mov	r0, r9
 152              		.loc 1 77 0
 153 006e BDE8F047 		pop	{r4, r5, r6, r7, r8, r9, r10, lr}
 154              		.cfi_remember_state
 155              		.cfi_restore 14
 156              		.cfi_restore 10
 157              		.cfi_restore 9
 158              		.cfi_restore 8
 159              		.cfi_restore 7
 160              		.cfi_restore 6
 161              		.cfi_restore 5
 162              		.cfi_restore 4
 163              		.cfi_def_cfa_offset 0
 164              	.LVL15:
 165              		.loc 1 75 0
 166 0072 1047     		bx	r2	@ indirect register sibling call
 167              	.LVL16:
 168              	.L18:
 169              		.cfi_restore_state
 170              		.loc 1 58 0
 171 0074 0227     		movs	r7, #2
ARM GAS  /tmp/ccfmfRrI.s 			page 4


 172              		.loc 1 59 0
 173 0076 84F811C2 		strb	ip, [r4, #529]
 174              		.loc 1 58 0
 175 007a 84F81072 		strb	r7, [r4, #528]
 176              	.LVL17:
 177 007e D6E7     		b	.L9
 178              	.LVL18:
 179              	.L5:
 180              		.loc 1 77 0
 181 0080 BDE8F087 		pop	{r4, r5, r6, r7, r8, r9, r10, pc}
 182              	.LVL19:
 183              	.L15:
 184              		.cfi_def_cfa_offset 0
 185              		.cfi_restore 4
 186              		.cfi_restore 5
 187              		.cfi_restore 6
 188              		.cfi_restore 7
 189              		.cfi_restore 8
 190              		.cfi_restore 9
 191              		.cfi_restore 10
 192              		.cfi_restore 14
 193 0084 7047     		bx	lr
 194              	.L20:
 195 0086 00BF     		.align	2
 196              	.L19:
 197 0088 00000000 		.word	.LANCHOR0
 198              		.cfi_endproc
 199              	.LFE1:
 200              		.size	packet_send_packet, .-packet_send_packet
 201              		.section	.text.packet_timerfunc,"ax",%progbits
 202              		.align	1
 203              		.p2align 4,,15
 204              		.global	packet_timerfunc
 205              		.syntax unified
 206              		.thumb
 207              		.thumb_func
 208              		.fpu fpv4-sp-d16
 209              		.type	packet_timerfunc, %function
 210              	packet_timerfunc:
 211              	.LFB2:
 212              		.loc 1 82 0
 213              		.cfi_startproc
 214              		@ args = 0, pretend = 0, frame = 0
 215              		@ frame_needed = 0, uses_anonymous_args = 0
 216              		@ link register save eliminated.
 217              	.LVL20:
 218              		.loc 1 85 0
 219 0000 054B     		ldr	r3, .L24
 220 0002 5A78     		ldrb	r2, [r3, #1]	@ zero_extendqisi2
 221 0004 02F0FF01 		and	r1, r2, #255
 222 0008 22B1     		cbz	r2, .L22
 223              		.loc 1 86 0
 224 000a 5A78     		ldrb	r2, [r3, #1]	@ zero_extendqisi2
 225 000c 013A     		subs	r2, r2, #1
 226 000e D2B2     		uxtb	r2, r2
 227 0010 5A70     		strb	r2, [r3, #1]
 228              	.LVL21:
ARM GAS  /tmp/ccfmfRrI.s 			page 5


 229 0012 7047     		bx	lr
 230              	.LVL22:
 231              	.L22:
 232              		.loc 1 88 0
 233 0014 1970     		strb	r1, [r3]
 234              	.LVL23:
 235              		.loc 1 91 0
 236 0016 7047     		bx	lr
 237              	.L25:
 238              		.align	2
 239              	.L24:
 240 0018 00000000 		.word	.LANCHOR0
 241              		.cfi_endproc
 242              	.LFE2:
 243              		.size	packet_timerfunc, .-packet_timerfunc
 244              		.section	.text.packet_process_byte,"ax",%progbits
 245              		.align	1
 246              		.p2align 4,,15
 247              		.global	packet_process_byte
 248              		.syntax unified
 249              		.thumb
 250              		.thumb_func
 251              		.fpu fpv4-sp-d16
 252              		.type	packet_process_byte, %function
 253              	packet_process_byte:
 254              	.LFB3:
 255              		.loc 1 93 0
 256              		.cfi_startproc
 257              		@ args = 0, pretend = 0, frame = 0
 258              		@ frame_needed = 0, uses_anonymous_args = 0
 259              	.LVL24:
 260 0000 2DE9F041 		push	{r4, r5, r6, r7, r8, lr}
 261              		.cfi_def_cfa_offset 24
 262              		.cfi_offset 4, -24
 263              		.cfi_offset 5, -20
 264              		.cfi_offset 6, -16
 265              		.cfi_offset 7, -12
 266              		.cfi_offset 8, -8
 267              		.cfi_offset 14, -4
 268              		.loc 1 94 0
 269 0004 4E01     		lsls	r6, r1, #5
 270 0006 7318     		adds	r3, r6, r1
 271 0008 5B01     		lsls	r3, r3, #5
 272 000a 4B4D     		ldr	r5, .L53
 273 000c EB5C     		ldrb	r3, [r5, r3]	@ zero_extendqisi2
 274 000e 062B     		cmp	r3, #6
 275 0010 60D8     		bhi	.L27
 276 0012 DFE803F0 		tbb	[pc, r3]
 277              	.L29:
 278 0016 0D       		.byte	(.L28-.L29)/2
 279 0017 18       		.byte	(.L30-.L29)/2
 280 0018 25       		.byte	(.L31-.L29)/2
 281 0019 37       		.byte	(.L32-.L29)/2
 282 001a 51       		.byte	(.L33-.L29)/2
 283 001b 58       		.byte	(.L34-.L29)/2
 284 001c 04       		.byte	(.L35-.L29)/2
 285 001d 00       		.p2align 1
ARM GAS  /tmp/ccfmfRrI.s 			page 6


 286              	.L35:
 287              		.loc 1 151 0
 288 001e 0328     		cmp	r0, #3
 289 0020 0C46     		mov	r4, r1
 290 0022 71D0     		beq	.L50
 291              	.LVL25:
 292              	.L42:
 293              		.loc 1 162 0
 294 0024 3444     		add	r4, r4, r6
 295              	.LVL26:
 296 0026 6401     		lsls	r4, r4, #5
 297 0028 0023     		movs	r3, #0
 298 002a 2B55     		strb	r3, [r5, r4]
 299              	.L26:
 300              		.loc 1 169 0
 301 002c BDE8F081 		pop	{r4, r5, r6, r7, r8, pc}
 302              	.LVL27:
 303              	.L28:
 304              		.loc 1 98 0
 305 0030 3144     		add	r1, r1, r6
 306              	.LVL28:
 307              		.loc 1 96 0
 308 0032 0228     		cmp	r0, #2
 309              		.loc 1 98 0
 310 0034 4FEA4111 		lsl	r1, r1, #5
 311              		.loc 1 96 0
 312 0038 4FD0     		beq	.L51
 313              		.loc 1 102 0
 314 003a 0328     		cmp	r0, #3
 315 003c 58D0     		beq	.L52
 316              	.LVL29:
 317              	.L48:
 318              		.loc 1 166 0
 319 003e 0023     		movs	r3, #0
 320 0040 6B54     		strb	r3, [r5, r1]
 321              		.loc 1 169 0
 322 0042 BDE8F081 		pop	{r4, r5, r6, r7, r8, pc}
 323              	.LVL30:
 324              	.L30:
 325              		.loc 1 114 0
 326 0046 3144     		add	r1, r1, r6
 327              	.LVL31:
 328 0048 4901     		lsls	r1, r1, #5
 329 004a 6A18     		adds	r2, r5, r1
 330              		.loc 1 115 0
 331 004c 6B5C     		ldrb	r3, [r5, r1]	@ zero_extendqisi2
 332 004e 0133     		adds	r3, r3, #1
 333 0050 DBB2     		uxtb	r3, r3
 334              		.loc 1 116 0
 335 0052 0224     		movs	r4, #2
 336              		.loc 1 115 0
 337 0054 6B54     		strb	r3, [r5, r1]
 338              		.loc 1 114 0
 339 0056 0002     		lsls	r0, r0, #8
 340              	.LVL32:
 341              		.loc 1 116 0
 342 0058 5470     		strb	r4, [r2, #1]
ARM GAS  /tmp/ccfmfRrI.s 			page 7


 343              		.loc 1 114 0
 344 005a D060     		str	r0, [r2, #12]
 345              		.loc 1 169 0
 346 005c BDE8F081 		pop	{r4, r5, r6, r7, r8, pc}
 347              	.LVL33:
 348              	.L31:
 349              		.loc 1 120 0
 350 0060 3144     		add	r1, r1, r6
 351              	.LVL34:
 352 0062 4901     		lsls	r1, r1, #5
 353 0064 6A18     		adds	r2, r5, r1
 354 0066 D368     		ldr	r3, [r2, #12]
 355 0068 1843     		orrs	r0, r0, r3
 356              	.LVL35:
 357              		.loc 1 121 0
 358 006a 431E     		subs	r3, r0, #1
 359 006c B3F5007F 		cmp	r3, #512
 360              		.loc 1 120 0
 361 0070 D060     		str	r0, [r2, #12]
 362              		.loc 1 121 0
 363 0072 E4D2     		bcs	.L48
 364              		.loc 1 123 0
 365 0074 6B5C     		ldrb	r3, [r5, r1]	@ zero_extendqisi2
 366              	.L49:
 367              		.loc 1 146 0
 368 0076 0133     		adds	r3, r3, #1
 369 0078 DBB2     		uxtb	r3, r3
 370              		.loc 1 147 0
 371 007a 0220     		movs	r0, #2
 372              		.loc 1 146 0
 373 007c 6B54     		strb	r3, [r5, r1]
 374              		.loc 1 147 0
 375 007e 5070     		strb	r0, [r2, #1]
 376              		.loc 1 169 0
 377 0080 BDE8F081 		pop	{r4, r5, r6, r7, r8, pc}
 378              	.LVL36:
 379              	.L32:
 380              		.loc 1 131 0
 381 0084 7418     		adds	r4, r6, r1
 382 0086 6401     		lsls	r4, r4, #5
 383 0088 2A19     		adds	r2, r5, r4
 384 008a D2F81834 		ldr	r3, [r2, #1048]
 385              		.loc 1 132 0
 386 008e D768     		ldr	r7, [r2, #12]
 387              		.loc 1 131 0
 388 0090 02EB030C 		add	ip, r2, r3
 389 0094 0133     		adds	r3, r3, #1
 390              		.loc 1 132 0
 391 0096 BB42     		cmp	r3, r7
 392              		.loc 1 131 0
 393 0098 8CF81000 		strb	r0, [ip, #16]
 394 009c C2F81834 		str	r3, [r2, #1048]
 395              		.loc 1 132 0
 396 00a0 03D1     		bne	.L40
 397              		.loc 1 133 0
 398 00a2 2B5D     		ldrb	r3, [r5, r4]	@ zero_extendqisi2
 399 00a4 0133     		adds	r3, r3, #1
ARM GAS  /tmp/ccfmfRrI.s 			page 8


 400 00a6 DBB2     		uxtb	r3, r3
 401 00a8 2B55     		strb	r3, [r5, r4]
 402              	.L40:
 403              		.loc 1 135 0
 404 00aa 3144     		add	r1, r1, r6
 405              	.LVL37:
 406 00ac 05EB4115 		add	r5, r5, r1, lsl #5
 407 00b0 0223     		movs	r3, #2
 408 00b2 6B70     		strb	r3, [r5, #1]
 409              		.loc 1 169 0
 410 00b4 BDE8F081 		pop	{r4, r5, r6, r7, r8, pc}
 411              	.LVL38:
 412              	.L33:
 413              		.loc 1 139 0
 414 00b8 3144     		add	r1, r1, r6
 415              	.LVL39:
 416 00ba 4901     		lsls	r1, r1, #5
 417 00bc 6A18     		adds	r2, r5, r1
 418              		.loc 1 140 0
 419 00be 6B5C     		ldrb	r3, [r5, r1]	@ zero_extendqisi2
 420              		.loc 1 139 0
 421 00c0 82F81D04 		strb	r0, [r2, #1053]
 422 00c4 D7E7     		b	.L49
 423              	.LVL40:
 424              	.L34:
 425              		.loc 1 145 0
 426 00c6 3144     		add	r1, r1, r6
 427              	.LVL41:
 428 00c8 4901     		lsls	r1, r1, #5
 429 00ca 6A18     		adds	r2, r5, r1
 430              		.loc 1 146 0
 431 00cc 6B5C     		ldrb	r3, [r5, r1]	@ zero_extendqisi2
 432              		.loc 1 145 0
 433 00ce 82F81C04 		strb	r0, [r2, #1052]
 434 00d2 D0E7     		b	.L49
 435              	.LVL42:
 436              	.L27:
 437              		.loc 1 166 0
 438 00d4 3144     		add	r1, r1, r6
 439              	.LVL43:
 440 00d6 4901     		lsls	r1, r1, #5
 441 00d8 B1E7     		b	.L48
 442              	.L51:
 443              		.loc 1 98 0
 444 00da 6B5C     		ldrb	r3, [r5, r1]	@ zero_extendqisi2
 445 00dc 6A18     		adds	r2, r5, r1
 446 00de 0233     		adds	r3, r3, #2
 447              		.loc 1 100 0
 448 00e0 0024     		movs	r4, #0
 449              		.loc 1 98 0
 450 00e2 DBB2     		uxtb	r3, r3
 451 00e4 6B54     		strb	r3, [r5, r1]
 452              		.loc 1 100 0
 453 00e6 C2F81844 		str	r4, [r2, #1048]
 454              		.loc 1 99 0
 455 00ea 5070     		strb	r0, [r2, #1]
 456              		.loc 1 101 0
ARM GAS  /tmp/ccfmfRrI.s 			page 9


 457 00ec D460     		str	r4, [r2, #12]
 458 00ee 9DE7     		b	.L26
 459              	.L52:
 460              		.loc 1 104 0
 461 00f0 6B5C     		ldrb	r3, [r5, r1]	@ zero_extendqisi2
 462 00f2 6A18     		adds	r2, r5, r1
 463 00f4 0133     		adds	r3, r3, #1
 464              		.loc 1 106 0
 465 00f6 0020     		movs	r0, #0
 466              	.LVL44:
 467              		.loc 1 104 0
 468 00f8 DBB2     		uxtb	r3, r3
 469              		.loc 1 105 0
 470 00fa 0224     		movs	r4, #2
 471              		.loc 1 104 0
 472 00fc 6B54     		strb	r3, [r5, r1]
 473              		.loc 1 106 0
 474 00fe C2F81804 		str	r0, [r2, #1048]
 475              		.loc 1 105 0
 476 0102 5470     		strb	r4, [r2, #1]
 477              		.loc 1 107 0
 478 0104 D060     		str	r0, [r2, #12]
 479 0106 91E7     		b	.L26
 480              	.LVL45:
 481              	.L50:
 482 0108 7718     		adds	r7, r6, r1
 483 010a 7F01     		lsls	r7, r7, #5
 484              		.loc 1 152 0
 485 010c 07F11008 		add	r8, r7, #16
 486 0110 2F44     		add	r7, r7, r5
 487 0112 A844     		add	r8, r8, r5
 488 0114 4046     		mov	r0, r8
 489              	.LVL46:
 490 0116 F968     		ldr	r1, [r7, #12]
 491              	.LVL47:
 492 0118 FFF7FEFF 		bl	crc16
 493              	.LVL48:
 494 011c B7F81C34 		ldrh	r3, [r7, #1052]
 495 0120 8342     		cmp	r3, r0
 496 0122 7FF47FAF 		bne	.L42
 497              		.loc 1 156 0
 498 0126 BB68     		ldr	r3, [r7, #8]
 499 0128 002B     		cmp	r3, #0
 500 012a 3FF47BAF 		beq	.L42
 501              		.loc 1 157 0
 502 012e F968     		ldr	r1, [r7, #12]
 503 0130 4046     		mov	r0, r8
 504 0132 9847     		blx	r3
 505              	.LVL49:
 506 0134 76E7     		b	.L42
 507              	.L54:
 508 0136 00BF     		.align	2
 509              	.L53:
 510 0138 00000000 		.word	.LANCHOR0
 511              		.cfi_endproc
 512              	.LFE3:
 513              		.size	packet_process_byte, .-packet_process_byte
ARM GAS  /tmp/ccfmfRrI.s 			page 10


 514              		.section	.bss.handler_states,"aw",%nobits
 515              		.align	2
 516              		.set	.LANCHOR0,. + 0
 517              		.type	handler_states, %object
 518              		.size	handler_states, 1056
 519              	handler_states:
 520 0000 00000000 		.space	1056
 520      00000000 
 520      00000000 
 520      00000000 
 520      00000000 
 521              		.text
 522              	.Letext0:
 523              		.file 2 "/usr/arm-none-eabi/include/machine/_default_types.h"
 524              		.file 3 "/usr/arm-none-eabi/include/sys/lock.h"
 525              		.file 4 "/usr/arm-none-eabi/include/sys/_types.h"
 526              		.file 5 "/usr/lib/gcc/arm-none-eabi/7.3.1/include/stddef.h"
 527              		.file 6 "/usr/arm-none-eabi/include/sys/reent.h"
 528              		.file 7 "/usr/arm-none-eabi/include/sys/_stdint.h"
 529              		.file 8 "crc.h"
 530              		.file 9 "<built-in>"