ARM GAS  /tmp/cckjBIeA.s 			page 1


   1              		.cpu cortex-m4
   2              		.eabi_attribute 27, 1
   3              		.eabi_attribute 28, 1
   4              		.eabi_attribute 20, 1
   5              		.eabi_attribute 21, 1
   6              		.eabi_attribute 23, 3
   7              		.eabi_attribute 24, 1
   8              		.eabi_attribute 25, 1
   9              		.eabi_attribute 26, 1
  10              		.eabi_attribute 30, 2
  11              		.eabi_attribute 34, 1
  12              		.eabi_attribute 18, 4
  13              		.file	"st.c"
  14              		.text
  15              	.Ltext0:
  16              		.cfi_sections	.debug_frame
  17              		.section	.text.stInit,"ax",%progbits
  18              		.align	1
  19              		.p2align 4,,15
  20              		.global	stInit
  21              		.syntax unified
  22              		.thumb
  23              		.thumb_func
  24              		.fpu fpv4-sp-d16
  25              		.type	stInit, %function
  26              	stInit:
  27              	.LFB260:
  28              		.file 1 "ChibiOS_3.0.2/os/hal/src/st.c"
  29              		.loc 1 60 0
  30              		.cfi_startproc
  31              		@ args = 0, pretend = 0, frame = 0
  32              		@ frame_needed = 0, uses_anonymous_args = 0
  33              		@ link register save eliminated.
  34              		.loc 1 62 0
  35 0000 FFF7FEBF 		b	st_lld_init
  36              	.LVL0:
  37              		.cfi_endproc
  38              	.LFE260:
  39              		.size	stInit, .-stInit
  40              		.section	.text.stStartAlarm,"ax",%progbits
  41              		.align	1
  42              		.p2align 4,,15
  43              		.global	stStartAlarm
  44              		.syntax unified
  45              		.thumb
  46              		.thumb_func
  47              		.fpu fpv4-sp-d16
  48              		.type	stStartAlarm, %function
  49              	stStartAlarm:
  50              	.LFB261:
  51              		.loc 1 77 0
  52              		.cfi_startproc
  53              		@ args = 0, pretend = 0, frame = 0
  54              		@ frame_needed = 0, uses_anonymous_args = 0
  55              		@ link register save eliminated.
  56              	.LVL1:
  57              	.LBB10:
ARM GAS  /tmp/cckjBIeA.s 			page 2


  58              	.LBB11:
  59              		.file 2 "ChibiOS_3.0.2/os/hal/ports/STM32/LLD/TIMv1/st_lld.h"
  60              		.loc 2 143 0
  61 0000 4FF08043 		mov	r3, #1073741824
  62              	.LVL2:
  63              		.loc 2 144 0
  64 0004 0021     		movs	r1, #0
  65              		.loc 2 145 0
  66 0006 0222     		movs	r2, #2
  67              		.loc 2 143 0
  68 0008 5863     		str	r0, [r3, #52]
  69              		.loc 2 144 0
  70 000a 1961     		str	r1, [r3, #16]
  71              		.loc 2 145 0
  72 000c DA60     		str	r2, [r3, #12]
  73              	.LVL3:
  74              	.LBE11:
  75              	.LBE10:
  76              		.loc 1 82 0
  77 000e 7047     		bx	lr
  78              		.cfi_endproc
  79              	.LFE261:
  80              		.size	stStartAlarm, .-stStartAlarm
  81              		.section	.text.stStopAlarm,"ax",%progbits
  82              		.align	1
  83              		.p2align 4,,15
  84              		.global	stStopAlarm
  85              		.syntax unified
  86              		.thumb
  87              		.thumb_func
  88              		.fpu fpv4-sp-d16
  89              		.type	stStopAlarm, %function
  90              	stStopAlarm:
  91              	.LFB262:
  92              		.loc 1 91 0
  93              		.cfi_startproc
  94              		@ args = 0, pretend = 0, frame = 0
  95              		@ frame_needed = 0, uses_anonymous_args = 0
  96              		@ link register save eliminated.
  97              	.LBB12:
  98              	.LBB13:
  99              		.loc 2 155 0
 100 0000 4FF08043 		mov	r3, #1073741824
 101 0004 0022     		movs	r2, #0
 102 0006 DA60     		str	r2, [r3, #12]
 103              	.LBE13:
 104              	.LBE12:
 105              		.loc 1 94 0
 106 0008 7047     		bx	lr
 107              		.cfi_endproc
 108              	.LFE262:
 109              		.size	stStopAlarm, .-stStopAlarm
 110 000a 00BF     		.section	.text.stSetAlarm,"ax",%progbits
 111              		.align	1
 112              		.p2align 4,,15
 113              		.global	stSetAlarm
 114              		.syntax unified
ARM GAS  /tmp/cckjBIeA.s 			page 3


 115              		.thumb
 116              		.thumb_func
 117              		.fpu fpv4-sp-d16
 118              		.type	stSetAlarm, %function
 119              	stSetAlarm:
 120              	.LFB263:
 121              		.loc 1 105 0
 122              		.cfi_startproc
 123              		@ args = 0, pretend = 0, frame = 0
 124              		@ frame_needed = 0, uses_anonymous_args = 0
 125              		@ link register save eliminated.
 126              	.LVL4:
 127              	.LBB14:
 128              	.LBB15:
 129              		.loc 2 167 0
 130 0000 4FF08043 		mov	r3, #1073741824
 131              	.LVL5:
 132 0004 5863     		str	r0, [r3, #52]
 133              	.LVL6:
 134              	.LBE15:
 135              	.LBE14:
 136              		.loc 1 110 0
 137 0006 7047     		bx	lr
 138              		.cfi_endproc
 139              	.LFE263:
 140              		.size	stSetAlarm, .-stSetAlarm
 141              		.section	.text.stGetAlarm,"ax",%progbits
 142              		.align	1
 143              		.p2align 4,,15
 144              		.global	stGetAlarm
 145              		.syntax unified
 146              		.thumb
 147              		.thumb_func
 148              		.fpu fpv4-sp-d16
 149              		.type	stGetAlarm, %function
 150              	stGetAlarm:
 151              	.LFB264:
 152              		.loc 1 121 0
 153              		.cfi_startproc
 154              		@ args = 0, pretend = 0, frame = 0
 155              		@ frame_needed = 0, uses_anonymous_args = 0
 156              		@ link register save eliminated.
 157              	.LBB16:
 158              	.LBB17:
 159              		.loc 2 179 0
 160 0000 4FF08043 		mov	r3, #1073741824
 161 0004 586B     		ldr	r0, [r3, #52]
 162              	.LBE17:
 163              	.LBE16:
 164              		.loc 1 126 0
 165 0006 7047     		bx	lr
 166              		.cfi_endproc
 167              	.LFE264:
 168              		.size	stGetAlarm, .-stGetAlarm
 169              		.text
 170              	.Letext0:
 171              		.file 3 "/usr/lib/gcc/arm-none-eabi/7.3.1/include/stddef.h"
ARM GAS  /tmp/cckjBIeA.s 			page 4


 172              		.file 4 "/usr/arm-none-eabi/include/machine/_default_types.h"
 173              		.file 5 "/usr/arm-none-eabi/include/sys/_stdint.h"
 174              		.file 6 "ChibiOS_3.0.2/os/rt/ports/ARMCMx/compilers/GCC/chtypes.h"
 175              		.file 7 "ChibiOS_3.0.2/os/rt/include/chsystypes.h"
 176              		.file 8 "ChibiOS_3.0.2/os/rt/include/chschd.h"
 177              		.file 9 "ChibiOS_3.0.2/os/ext/CMSIS/include/core_cm4.h"
 178              		.file 10 "ChibiOS_3.0.2/os/ext/CMSIS/ST/system_stm32f4xx.h"
 179              		.file 11 "ChibiOS_3.0.2/os/ext/CMSIS/ST/stm32f407xx.h"
 180              		.file 12 "ChibiOS_3.0.2/os/rt/ports/ARMCMx/chcore.h"
 181              		.file 13 "ChibiOS_3.0.2/os/rt/ports/ARMCMx/chcore_v7m.h"
 182              		.file 14 "ChibiOS_3.0.2/os/hal/ports/STM32/LLD/TIMv1/stm32_tim.h"
 183              		.file 15 "ChibiOS_3.0.2/os/rt/include/chtm.h"
 184              		.file 16 "ChibiOS_3.0.2/os/rt/include/chsem.h"
 185              		.file 17 "ChibiOS_3.0.2/os/rt/include/chmtx.h"
 186              		.file 18 "ChibiOS_3.0.2/os/rt/include/chregistry.h"
 187              		.file 19 "ChibiOS_3.0.2/os/rt/include/chqueues.h"
 188              		.file 20 "ChibiOS_3.0.2/os/hal/ports/STM32/STM32F4xx/stm32_dma.h"
 189              		.file 21 "ChibiOS_3.0.2/os/hal/ports/STM32/LLD/GPIOv2/pal_lld.h"
 190              		.file 22 "ChibiOS_3.0.2/os/hal/include/uart.h"
 191              		.file 23 "ChibiOS_3.0.2/os/hal/ports/STM32/LLD/USARTv1/uart_lld.h"
 192              		.file 24 "ChibiOS_3.0.2/os/hal/include/usb.h"
 193              		.file 25 "ChibiOS_3.0.2/os/hal/ports/STM32/LLD/OTGv1/usb_lld.h"
 194              		.file 26 "ChibiOS_3.0.2/os/hal/ports/STM32/LLD/OTGv1/stm32_otg.h"