ARM GAS  /tmp/cckjBIeA.s 			page 1


   1              		.cpu cortex-m4
   2              		.eabi_attribute 27, 1
   3              		.eabi_attribute 28, 1
   4              		.eabi_attribute 20, 1
   5              		.eabi_attribute 21, 1
   6              		.eabi_attribute 23, 3
   7              		.eabi_attribute 24, 1
   8              		.eabi_attribute 25, 1
   9              		.eabi_attribute 26, 1
  10              		.eabi_attribute 30, 2
  11              		.eabi_attribute 34, 1
  12              		.eabi_attribute 18, 4
  13              		.file	"st.c"
  14              		.text
  15              	.Ltext0:
  16              		.cfi_sections	.debug_frame
  17              		.section	.text.stInit,"ax",%progbits
  18              		.align	1
  19              		.p2align 4,,15
  20              		.global	stInit
  21              		.syntax unified
  22              		.thumb
  23              		.thumb_func
  24              		.fpu fpv4-sp-d16
  25              		.type	stInit, %function
  26              	stInit:
  27              	.LFB260:
  28              		.file 1 "ChibiOS_3.0.2/os/hal/src/st.c"
  29              		.loc 1 60 0
  30              		.cfi_startproc
  31              		@ args = 0, pretend = 0, frame = 0
  32              		@ frame_needed = 0, uses_anonymous_args = 0
  33              		@ link register save eliminated.
  34              		.loc 1 62 0
  35 0000 FFF7FEBF 		b	st_lld_init
  36              	.LVL0:
  37              		.cfi_endproc
  38              	.LFE260:
  39              		.size	stInit, .-stInit
  40              		.section	.text.stStartAlarm,"ax",%progbits
  41              		.align	1
  42              		.p2align 4,,15
  43              		.global	stStartAlarm
  44              		.syntax unified
  45              		.thumb
  46              		.thumb_func
  47              		.fpu fpv4-sp-d16
  48              		.type	stStartAlarm, %function
  49              	stStartAlarm:
  50              	.LFB261:
  51              		.loc 1 77 0
  52              		.cfi_startproc
  53              		@ args = 0, pretend = 0, frame = 0
  54              		@ frame_needed = 0, uses_anonymous_args = 0
  55              		@ link register save eliminated.
  56              	.LVL1:
  57              	.LBB10:
ARM GAS  /tmp/cckjBIeA.s 			page 2


  58              	.LBB11:
  59              		.file 2 "ChibiOS_3.0.2/os/hal/ports/STM32/LLD/TIMv1/st_lld.h"
  60              		.loc 2 143 0
  61 0000 4FF08043 		mov	r3, #1073741824
  62              	.LVL2:
  63              		.loc 2 144 0
  64 0004 0021     		movs	r1, #0
  65              		.loc 2 145 0
  66 0006 0222     		movs	r2, #2
  67              		.loc 2 143 0
  68 0008 5863     		str	r0, [r3, #52]
  69              		.loc 2 144 0
  70 000a 1961     		str	r1, [r3, #16]
  71              		.loc 2 145 0
  72 000c DA60     		str	r2, [r3, #12]
  73              	.LVL3:
  74              	.LBE11:
  75              	.LBE10:
  76              		.loc 1 82 0
  77 000e 7047     		bx	lr
  78              		.cfi_endproc
  79              	.LFE261:
  80              		.size	stStartAlarm, .-stStartAlarm
  81              		.section	.text.stStopAlarm,"ax",%progbits
  82              		.align	1
  83              		.p2align 4,,15
  84              		.global	stStopAlarm
  85              		.syntax unified
  86              		.thumb
  87              		.thumb_func
  88              		.fpu fpv4-sp-d16
  89              		.type	stStopAlarm, %function
  90              	stStopAlarm:
  91              	.LFB262:
  92              		.loc 1 91 0
  93              		.cfi_startproc
  94              		@ args = 0, pretend = 0, frame = 0
  95              		@ frame_needed = 0, uses_anonymous_args = 0
  96              		@ link register save eliminated.
  97              	.LBB12:
  98              	.LBB13:
  99              		.loc 2 155 0
 100 0000 4FF08043 		mov	r3, #1073741824
 101 0004 0022     		movs	r2, #0
 102 0006 DA60     		str	r2, [r3, #12]
 103              	.LBE13:
 104              	.LBE12:
 105              		.loc 1 94 0
 106 0008 7047     		bx	lr
 107              		.cfi_endproc
 108              	.LFE262:
 109              		.size	stStopAlarm, .-stStopAlarm
 110 000a 00BF     		.section	.text.stSetAlarm,"ax",%progbits
 111              		.align	1
 112              		.p2align 4,,15
 113              		.global	stSetAlarm
 114              		.syntax unified
ARM GAS  /tmp/cckjBIeA.s 			page 3


 115              		.thumb
 116              		.thumb_func
 117              		.fpu fpv4-sp-d16
 118              		.type	stSetAlarm, %function
 119              	stSetAlarm:
 120              	.LFB263:
 121              		.loc 1 105 0
 122              		.cfi_startproc
 123              		@ args = 0, pretend = 0, frame = 0
 124              		@ frame_needed = 0, uses_anonymous_args = 0
 125              		@ link register save eliminated.
 126              	.LVL4:
 127              	.LBB14:
 128              	.LBB15:
 129              		.loc 2 167 0
 130 0000 4FF08043 		mov	r3, #1073741824
 131              	.LVL5:
 132 0004 5863     		str	r0, [r3, #52]
 133              	.LVL6:
 134              	.LBE15:
 135              	.LBE14:
 136              		.loc 1 110 0
 137 0006 7047     		bx	lr
 138              		.cfi_endproc
 139              	.LFE263:
 140              		.size	stSetAlarm, .-stSetAlarm
 141              		.section	.text.stGetAlarm,"ax",%progbits
 142              		.align	1
 143              		.p2align 4,,15
 144              		.global	stGetAlarm
 145              		.syntax unified
 146              		.thumb
 147              		.thumb_func
 148              		.fpu fpv4-sp-d16
 149              		.type	stGetAlarm, %function
 150              	stGetAlarm:
 151              	.LFB264:
 152              		.loc 1 121 0
 153              		.cfi_startproc
 154              		@ args = 0, pretend = 0, frame = 0
 155              		@ frame_needed = 0, uses_anonymous_args = 0
 156              		@ link register save eliminated.
 157              	.LBB16:
 158              	.LBB17:
 159              		.loc 2 179 0
 160 0000 4FF08043 		mov	r3, #1073741824
 161 0004 586B     		ldr	r0, [r3, #52]
 162              	.LBE17:
 163              	.LBE16:
 164              		.loc 1 126 0
 165 0006 7047     		bx	lr
 166              		.cfi_endproc
 167              	.LFE264:
 168              		.size	stGetAlarm, .-stGetAlarm
 169              		.text
 170              	.Letext0:
 171              		.file 3 "/usr/lib/gcc/arm-none-eabi/7.3.1/include/stddef.h"
ARM GAS  /tmp/cckjBIeA.s 			page 4


 172              		.file 4 "/usr/arm-none-eabi/include/machine/_default_types.h"
 173              		.file 5 "/usr/arm-none-eabi/include/sys/_stdint.h"
 174              		.file 6 "ChibiOS_3.0.2/os/rt/ports/ARMCMx/compilers/GCC/chtypes.h"
 175              		.file 7 "ChibiOS_3.0.2/os/rt/include/chsystypes.h"
 176              		.file 8 "ChibiOS_3.0.2/os/rt/include/chschd.h"
 177              		.file 9 "ChibiOS_3.0.2/os/ext/CMSIS/include/core_cm4.h"
 178              		.file 10 "ChibiOS_3.0.2/os/ext/CMSIS/ST/system_stm32f4xx.h"
 179              		.file 11 "ChibiOS_3.0.2/os/ext/CMSIS/ST/stm32f407xx.h"
 180              		.file 12 "ChibiOS_3.0.2/os/rt/ports/ARMCMx/chcore.h"
 181              		.file 13 "ChibiOS_3.0.2/os/rt/ports/ARMCMx/chcore_v7m.h"
 182              		.file 14 "ChibiOS_3.0.2/os/hal/ports/STM32/LLD/TIMv1/stm32_tim.h"
 183              		.file 15 "ChibiOS_3.0.2/os/rt/include/chtm.h"
 184              		.file 16 "ChibiOS_3.0.2/os/rt/include/chsem.h"
 185              		.file 17 "ChibiOS_3.0.2/os/rt/include/chmtx.h"
 186              		.file 18 "ChibiOS_3.0.2/os/rt/include/chregistry.h"
 187              		.file 19 "ChibiOS_3.0.2/os/rt/include/chqueues.h"
 188              		.file 20 "ChibiOS_3.0.2/os/hal/ports/STM32/STM32F4xx/stm32_dma.h"
 189              		.file 21 "ChibiOS_3.0.2/os/hal/ports/STM32/LLD/GPIOv2/pal_lld.h"
 190              		.file 22 "ChibiOS_3.0.2/os/hal/include/uart.h"
 191              		.file 23 "ChibiOS_3.0.2/os/hal/ports/STM32/LLD/USARTv1/uart_lld.h"
 192              		.file 24 "ChibiOS_3.0.2/os/hal/include/usb.h"
 193              		.file 25 "ChibiOS_3.0.2/os/hal/ports/STM32/LLD/OTGv1/usb_lld.h"
 194              		.file 26 "ChibiOS_3.0.2/os/hal/ports/STM32/LLD/OTGv1/stm32_otg.h"
 195              		.section	.debug_info,"",%progbits
 196              	.Ldebug_info0:
 197 0000 481B0000 		.4byte	0x1b48
 198 0004 0400     		.2byte	0x4
 199 0006 00000000 		.4byte	.Ldebug_abbrev0
 200 000a 04       		.byte	0x4
 201 000b 01       		.uleb128 0x1
 202 000c 190B0000 		.4byte	.LASF383
 203 0010 0C       		.byte	0xc
 204 0011 65050000 		.4byte	.LASF384
 205 0015 490C0000 		.4byte	.LASF385
 206 0019 00000000 		.4byte	.Ldebug_ranges0+0
 207 001d 00000000 		.4byte	0
 208 0021 00000000 		.4byte	.Ldebug_line0
 209 0025 02       		.uleb128 0x2
 210 0026 04       		.byte	0x4
 211 0027 05       		.byte	0x5
 212 0028 696E7400 		.ascii	"int\000"
 213 002c 03       		.uleb128 0x3
 214 002d 18000000 		.4byte	.LASF4
 215 0031 03       		.byte	0x3
 216 0032 D8       		.byte	0xd8
 217 0033 3C000000 		.4byte	0x3c
 218 0037 04       		.uleb128 0x4
 219 0038 2C000000 		.4byte	0x2c
 220 003c 05       		.uleb128 0x5
 221 003d 04       		.byte	0x4
 222 003e 07       		.byte	0x7
 223 003f A9080000 		.4byte	.LASF0
 224 0043 05       		.uleb128 0x5
 225 0044 08       		.byte	0x8
 226 0045 05       		.byte	0x5
 227 0046 AC070000 		.4byte	.LASF1
 228 004a 05       		.uleb128 0x5
ARM GAS  /tmp/cckjBIeA.s 			page 5


 229 004b 08       		.byte	0x8
 230 004c 04       		.byte	0x4
 231 004d AE090000 		.4byte	.LASF2
 232 0051 05       		.uleb128 0x5
 233 0052 01       		.byte	0x1
 234 0053 06       		.byte	0x6
 235 0054 9F020000 		.4byte	.LASF3
 236 0058 03       		.uleb128 0x3
 237 0059 6E010000 		.4byte	.LASF5
 238 005d 04       		.byte	0x4
 239 005e 2B       		.byte	0x2b
 240 005f 63000000 		.4byte	0x63
 241 0063 05       		.uleb128 0x5
 242 0064 01       		.byte	0x1
 243 0065 08       		.byte	0x8
 244 0066 FB020000 		.4byte	.LASF6
 245 006a 05       		.uleb128 0x5
 246 006b 02       		.byte	0x2
 247 006c 05       		.byte	0x5
 248 006d C30D0000 		.4byte	.LASF7
 249 0071 03       		.uleb128 0x3
 250 0072 F6030000 		.4byte	.LASF8
 251 0076 04       		.byte	0x4
 252 0077 39       		.byte	0x39
 253 0078 7C000000 		.4byte	0x7c
 254 007c 05       		.uleb128 0x5
 255 007d 02       		.byte	0x2
 256 007e 07       		.byte	0x7
 257 007f 850F0000 		.4byte	.LASF9
 258 0083 03       		.uleb128 0x3
 259 0084 0C100000 		.4byte	.LASF10
 260 0088 04       		.byte	0x4
 261 0089 4D       		.byte	0x4d
 262 008a 8E000000 		.4byte	0x8e
 263 008e 05       		.uleb128 0x5
 264 008f 04       		.byte	0x4
 265 0090 05       		.byte	0x5
 266 0091 DD010000 		.4byte	.LASF11
 267 0095 03       		.uleb128 0x3
 268 0096 90070000 		.4byte	.LASF12
 269 009a 04       		.byte	0x4
 270 009b 4F       		.byte	0x4f
 271 009c A0000000 		.4byte	0xa0
 272 00a0 05       		.uleb128 0x5
 273 00a1 04       		.byte	0x4
 274 00a2 07       		.byte	0x7
 275 00a3 D7050000 		.4byte	.LASF13
 276 00a7 03       		.uleb128 0x3
 277 00a8 C4050000 		.4byte	.LASF14
 278 00ac 04       		.byte	0x4
 279 00ad 69       		.byte	0x69
 280 00ae B2000000 		.4byte	0xb2
 281 00b2 05       		.uleb128 0x5
 282 00b3 08       		.byte	0x8
 283 00b4 07       		.byte	0x7
 284 00b5 730A0000 		.4byte	.LASF15
 285 00b9 03       		.uleb128 0x3
ARM GAS  /tmp/cckjBIeA.s 			page 6


 286 00ba B2020000 		.4byte	.LASF16
 287 00be 05       		.byte	0x5
 288 00bf 18       		.byte	0x18
 289 00c0 58000000 		.4byte	0x58
 290 00c4 06       		.uleb128 0x6
 291 00c5 B9000000 		.4byte	0xb9
 292 00c9 03       		.uleb128 0x3
 293 00ca A20A0000 		.4byte	.LASF17
 294 00ce 05       		.byte	0x5
 295 00cf 24       		.byte	0x24
 296 00d0 71000000 		.4byte	0x71
 297 00d4 04       		.uleb128 0x4
 298 00d5 C9000000 		.4byte	0xc9
 299 00d9 03       		.uleb128 0x3
 300 00da 7C000000 		.4byte	.LASF18
 301 00de 05       		.byte	0x5
 302 00df 2C       		.byte	0x2c
 303 00e0 83000000 		.4byte	0x83
 304 00e4 04       		.uleb128 0x4
 305 00e5 D9000000 		.4byte	0xd9
 306 00e9 03       		.uleb128 0x3
 307 00ea 4C0F0000 		.4byte	.LASF19
 308 00ee 05       		.byte	0x5
 309 00ef 30       		.byte	0x30
 310 00f0 95000000 		.4byte	0x95
 311 00f4 04       		.uleb128 0x4
 312 00f5 E9000000 		.4byte	0xe9
 313 00f9 03       		.uleb128 0x3
 314 00fa E20D0000 		.4byte	.LASF20
 315 00fe 05       		.byte	0x5
 316 00ff 3C       		.byte	0x3c
 317 0100 A7000000 		.4byte	0xa7
 318 0104 03       		.uleb128 0x3
 319 0105 C0080000 		.4byte	.LASF21
 320 0109 06       		.byte	0x6
 321 010a 45       		.byte	0x45
 322 010b E9000000 		.4byte	0xe9
 323 010f 03       		.uleb128 0x3
 324 0110 330D0000 		.4byte	.LASF22
 325 0114 06       		.byte	0x6
 326 0115 48       		.byte	0x48
 327 0116 B9000000 		.4byte	0xb9
 328 011a 03       		.uleb128 0x3
 329 011b 09020000 		.4byte	.LASF23
 330 011f 06       		.byte	0x6
 331 0120 49       		.byte	0x49
 332 0121 B9000000 		.4byte	0xb9
 333 0125 03       		.uleb128 0x3
 334 0126 E70E0000 		.4byte	.LASF24
 335 012a 06       		.byte	0x6
 336 012b 4A       		.byte	0x4a
 337 012c B9000000 		.4byte	0xb9
 338 0130 03       		.uleb128 0x3
 339 0131 5A000000 		.4byte	.LASF25
 340 0135 06       		.byte	0x6
 341 0136 4C       		.byte	0x4c
 342 0137 E9000000 		.4byte	0xe9
ARM GAS  /tmp/cckjBIeA.s 			page 7


 343 013b 03       		.uleb128 0x3
 344 013c C70A0000 		.4byte	.LASF26
 345 0140 06       		.byte	0x6
 346 0141 4D       		.byte	0x4d
 347 0142 D9000000 		.4byte	0xd9
 348 0146 03       		.uleb128 0x3
 349 0147 D4020000 		.4byte	.LASF27
 350 014b 06       		.byte	0x6
 351 014c 4F       		.byte	0x4f
 352 014d E9000000 		.4byte	0xe9
 353 0151 03       		.uleb128 0x3
 354 0152 C6040000 		.4byte	.LASF28
 355 0156 06       		.byte	0x6
 356 0157 51       		.byte	0x51
 357 0158 D9000000 		.4byte	0xd9
 358 015c 03       		.uleb128 0x3
 359 015d 32000000 		.4byte	.LASF29
 360 0161 07       		.byte	0x7
 361 0162 33       		.byte	0x33
 362 0163 E9000000 		.4byte	0xe9
 363 0167 03       		.uleb128 0x3
 364 0168 A5090000 		.4byte	.LASF30
 365 016c 07       		.byte	0x7
 366 016d 3F       		.byte	0x3f
 367 016e 72010000 		.4byte	0x172
 368 0172 07       		.uleb128 0x7
 369 0173 3D060000 		.4byte	.LASF50
 370 0177 44       		.byte	0x44
 371 0178 08       		.byte	0x8
 372 0179 C2       		.byte	0xc2
 373 017a 5F020000 		.4byte	0x25f
 374 017e 08       		.uleb128 0x8
 375 017f E6010000 		.4byte	.LASF31
 376 0183 08       		.byte	0x8
 377 0184 C3       		.byte	0xc3
 378 0185 6A020000 		.4byte	0x26a
 379 0189 00       		.byte	0
 380 018a 08       		.uleb128 0x8
 381 018b 02020000 		.4byte	.LASF32
 382 018f 08       		.byte	0x8
 383 0190 C5       		.byte	0xc5
 384 0191 6A020000 		.4byte	0x26a
 385 0195 04       		.byte	0x4
 386 0196 08       		.uleb128 0x8
 387 0197 E5030000 		.4byte	.LASF33
 388 019b 08       		.byte	0x8
 389 019c C7       		.byte	0xc7
 390 019d 30010000 		.4byte	0x130
 391 01a1 08       		.byte	0x8
 392 01a2 08       		.uleb128 0x8
 393 01a3 54000000 		.4byte	.LASF34
 394 01a7 08       		.byte	0x8
 395 01a8 C8       		.byte	0xc8
 396 01a9 BB050000 		.4byte	0x5bb
 397 01ad 0C       		.byte	0xc
 398 01ae 08       		.uleb128 0x8
 399 01af CA010000 		.4byte	.LASF35
ARM GAS  /tmp/cckjBIeA.s 			page 8


 400 01b3 08       		.byte	0x8
 401 01b4 CA       		.byte	0xca
 402 01b5 6A020000 		.4byte	0x26a
 403 01b9 10       		.byte	0x10
 404 01ba 08       		.uleb128 0x8
 405 01bb 9A0A0000 		.4byte	.LASF36
 406 01bf 08       		.byte	0x8
 407 01c0 CB       		.byte	0xcb
 408 01c1 6A020000 		.4byte	0x26a
 409 01c5 14       		.byte	0x14
 410 01c6 08       		.uleb128 0x8
 411 01c7 63100000 		.4byte	.LASF37
 412 01cb 08       		.byte	0x8
 413 01cc D2       		.byte	0xd2
 414 01cd 18090000 		.4byte	0x918
 415 01d1 18       		.byte	0x18
 416 01d2 08       		.uleb128 0x8
 417 01d3 AA100000 		.4byte	.LASF38
 418 01d7 08       		.byte	0x8
 419 01d8 DD       		.byte	0xdd
 420 01d9 1A010000 		.4byte	0x11a
 421 01dd 1C       		.byte	0x1c
 422 01de 08       		.uleb128 0x8
 423 01df 80080000 		.4byte	.LASF39
 424 01e3 08       		.byte	0x8
 425 01e4 E1       		.byte	0xe1
 426 01e5 0F010000 		.4byte	0x10f
 427 01e9 1D       		.byte	0x1d
 428 01ea 08       		.uleb128 0x8
 429 01eb E6080000 		.4byte	.LASF40
 430 01ef 08       		.byte	0x8
 431 01f0 E6       		.byte	0xe6
 432 01f1 25010000 		.4byte	0x125
 433 01f5 1E       		.byte	0x1e
 434 01f6 09       		.uleb128 0x9
 435 01f7 705F7500 		.ascii	"p_u\000"
 436 01fb 08       		.byte	0x8
 437 01fc 3101     		.2byte	0x131
 438 01fe 53080000 		.4byte	0x853
 439 0202 20       		.byte	0x20
 440 0203 0A       		.uleb128 0xa
 441 0204 64080000 		.4byte	.LASF41
 442 0208 08       		.byte	0x8
 443 0209 3601     		.2byte	0x136
 444 020b 70020000 		.4byte	0x270
 445 020f 24       		.byte	0x24
 446 0210 0A       		.uleb128 0xa
 447 0211 6B000000 		.4byte	.LASF42
 448 0215 08       		.byte	0x8
 449 0216 3C01     		.2byte	0x13c
 450 0218 94020000 		.4byte	0x294
 451 021c 28       		.byte	0x28
 452 021d 0A       		.uleb128 0xa
 453 021e A4100000 		.4byte	.LASF43
 454 0222 08       		.byte	0x8
 455 0223 4001     		.2byte	0x140
 456 0225 3B010000 		.4byte	0x13b
ARM GAS  /tmp/cckjBIeA.s 			page 9


 457 0229 30       		.byte	0x30
 458 022a 0A       		.uleb128 0xa
 459 022b 0B050000 		.4byte	.LASF44
 460 022f 08       		.byte	0x8
 461 0230 4601     		.2byte	0x146
 462 0232 46010000 		.4byte	0x146
 463 0236 34       		.byte	0x34
 464 0237 0A       		.uleb128 0xa
 465 0238 22020000 		.4byte	.LASF45
 466 023c 08       		.byte	0x8
 467 023d 4D01     		.2byte	0x14d
 468 023f 12090000 		.4byte	0x912
 469 0243 38       		.byte	0x38
 470 0244 0A       		.uleb128 0xa
 471 0245 DA090000 		.4byte	.LASF46
 472 0249 08       		.byte	0x8
 473 024a 5101     		.2byte	0x151
 474 024c 30010000 		.4byte	0x130
 475 0250 3C       		.byte	0x3c
 476 0251 0A       		.uleb128 0xa
 477 0252 D2080000 		.4byte	.LASF47
 478 0256 08       		.byte	0x8
 479 0257 5801     		.2byte	0x158
 480 0259 47030000 		.4byte	0x347
 481 025d 40       		.byte	0x40
 482 025e 00       		.byte	0
 483 025f 03       		.uleb128 0x3
 484 0260 BA090000 		.4byte	.LASF48
 485 0264 07       		.byte	0x7
 486 0265 44       		.byte	0x44
 487 0266 6A020000 		.4byte	0x26a
 488 026a 0B       		.uleb128 0xb
 489 026b 04       		.byte	0x4
 490 026c 67010000 		.4byte	0x167
 491 0270 03       		.uleb128 0x3
 492 0271 FF0E0000 		.4byte	.LASF49
 493 0275 07       		.byte	0x7
 494 0276 49       		.byte	0x49
 495 0277 7B020000 		.4byte	0x27b
 496 027b 07       		.uleb128 0x7
 497 027c 0D070000 		.4byte	.LASF51
 498 0280 04       		.byte	0x4
 499 0281 08       		.byte	0x8
 500 0282 B0       		.byte	0xb0
 501 0283 94020000 		.4byte	0x294
 502 0287 08       		.uleb128 0x8
 503 0288 E6010000 		.4byte	.LASF31
 504 028c 08       		.byte	0x8
 505 028d B1       		.byte	0xb1
 506 028e 6A020000 		.4byte	0x26a
 507 0292 00       		.byte	0
 508 0293 00       		.byte	0
 509 0294 03       		.uleb128 0x3
 510 0295 12020000 		.4byte	.LASF52
 511 0299 07       		.byte	0x7
 512 029a 50       		.byte	0x50
 513 029b 9F020000 		.4byte	0x29f
ARM GAS  /tmp/cckjBIeA.s 			page 10


 514 029f 07       		.uleb128 0x7
 515 02a0 D20A0000 		.4byte	.LASF53
 516 02a4 08       		.byte	0x8
 517 02a5 08       		.byte	0x8
 518 02a6 B7       		.byte	0xb7
 519 02a7 C4020000 		.4byte	0x2c4
 520 02ab 08       		.uleb128 0x8
 521 02ac E6010000 		.4byte	.LASF31
 522 02b0 08       		.byte	0x8
 523 02b1 B8       		.byte	0xb8
 524 02b2 6A020000 		.4byte	0x26a
 525 02b6 00       		.byte	0
 526 02b7 08       		.uleb128 0x8
 527 02b8 02020000 		.4byte	.LASF32
 528 02bc 08       		.byte	0x8
 529 02bd B9       		.byte	0xb9
 530 02be 6A020000 		.4byte	0x26a
 531 02c2 04       		.byte	0x4
 532 02c3 00       		.byte	0
 533 02c4 03       		.uleb128 0x3
 534 02c5 AE060000 		.4byte	.LASF54
 535 02c9 07       		.byte	0x7
 536 02ca 57       		.byte	0x57
 537 02cb CF020000 		.4byte	0x2cf
 538 02cf 0C       		.uleb128 0xc
 539 02d0 28050000 		.4byte	.LASF55
 540 02d4 1C       		.byte	0x1c
 541 02d5 08       		.byte	0x8
 542 02d6 9001     		.2byte	0x190
 543 02d8 2B030000 		.4byte	0x32b
 544 02dc 0A       		.uleb128 0xa
 545 02dd EA0C0000 		.4byte	.LASF56
 546 02e1 08       		.byte	0x8
 547 02e2 9101     		.2byte	0x191
 548 02e4 94020000 		.4byte	0x294
 549 02e8 00       		.byte	0
 550 02e9 0A       		.uleb128 0xa
 551 02ea 390E0000 		.4byte	.LASF57
 552 02ee 08       		.byte	0x8
 553 02ef 9201     		.2byte	0x192
 554 02f1 30010000 		.4byte	0x130
 555 02f5 08       		.byte	0x8
 556 02f6 0A       		.uleb128 0xa
 557 02f7 76000000 		.4byte	.LASF58
 558 02fb 08       		.byte	0x8
 559 02fc 9401     		.2byte	0x194
 560 02fe BB050000 		.4byte	0x5bb
 561 0302 0C       		.byte	0xc
 562 0303 0A       		.uleb128 0xa
 563 0304 3D030000 		.4byte	.LASF59
 564 0308 08       		.byte	0x8
 565 0309 9701     		.2byte	0x197
 566 030b 6A020000 		.4byte	0x26a
 567 030f 10       		.byte	0x10
 568 0310 0A       		.uleb128 0xa
 569 0311 940D0000 		.4byte	.LASF60
 570 0315 08       		.byte	0x8
ARM GAS  /tmp/cckjBIeA.s 			page 11


 571 0316 9801     		.2byte	0x198
 572 0318 6A020000 		.4byte	0x26a
 573 031c 14       		.byte	0x14
 574 031d 0A       		.uleb128 0xa
 575 031e 320C0000 		.4byte	.LASF61
 576 0322 08       		.byte	0x8
 577 0323 9B01     		.2byte	0x19b
 578 0325 6A020000 		.4byte	0x26a
 579 0329 18       		.byte	0x18
 580 032a 00       		.byte	0
 581 032b 03       		.uleb128 0x3
 582 032c 9D000000 		.4byte	.LASF62
 583 0330 07       		.byte	0x7
 584 0331 5C       		.byte	0x5c
 585 0332 36030000 		.4byte	0x336
 586 0336 0B       		.uleb128 0xb
 587 0337 04       		.byte	0x4
 588 0338 3C030000 		.4byte	0x33c
 589 033c 0D       		.uleb128 0xd
 590 033d 47030000 		.4byte	0x347
 591 0341 0E       		.uleb128 0xe
 592 0342 47030000 		.4byte	0x347
 593 0346 00       		.byte	0
 594 0347 0F       		.uleb128 0xf
 595 0348 04       		.byte	0x4
 596 0349 03       		.uleb128 0x3
 597 034a 9E060000 		.4byte	.LASF63
 598 034e 07       		.byte	0x7
 599 034f 61       		.byte	0x61
 600 0350 54030000 		.4byte	0x354
 601 0354 0C       		.uleb128 0xc
 602 0355 350A0000 		.4byte	.LASF64
 603 0359 14       		.byte	0x14
 604 035a 08       		.byte	0x8
 605 035b 6B01     		.2byte	0x16b
 606 035d A3030000 		.4byte	0x3a3
 607 0361 0A       		.uleb128 0xa
 608 0362 E8070000 		.4byte	.LASF65
 609 0366 08       		.byte	0x8
 610 0367 6C01     		.2byte	0x16c
 611 0369 2F090000 		.4byte	0x92f
 612 036d 00       		.byte	0
 613 036e 0A       		.uleb128 0xa
 614 036f F8070000 		.4byte	.LASF66
 615 0373 08       		.byte	0x8
 616 0374 6D01     		.2byte	0x16d
 617 0376 2F090000 		.4byte	0x92f
 618 037a 04       		.byte	0x4
 619 037b 0A       		.uleb128 0xa
 620 037c 210A0000 		.4byte	.LASF67
 621 0380 08       		.byte	0x8
 622 0381 6E01     		.2byte	0x16e
 623 0383 5C010000 		.4byte	0x15c
 624 0387 08       		.byte	0x8
 625 0388 0A       		.uleb128 0xa
 626 0389 D6040000 		.4byte	.LASF68
 627 038d 08       		.byte	0x8
ARM GAS  /tmp/cckjBIeA.s 			page 12


 628 038e 6F01     		.2byte	0x16f
 629 0390 2B030000 		.4byte	0x32b
 630 0394 0C       		.byte	0xc
 631 0395 0A       		.uleb128 0xa
 632 0396 50010000 		.4byte	.LASF69
 633 039a 08       		.byte	0x8
 634 039b 7101     		.2byte	0x171
 635 039d 47030000 		.4byte	0x347
 636 03a1 10       		.byte	0x10
 637 03a2 00       		.byte	0
 638 03a3 03       		.uleb128 0x3
 639 03a4 4F060000 		.4byte	.LASF70
 640 03a8 07       		.byte	0x7
 641 03a9 66       		.byte	0x66
 642 03aa AE030000 		.4byte	0x3ae
 643 03ae 0C       		.uleb128 0xc
 644 03af AD000000 		.4byte	.LASF71
 645 03b3 10       		.byte	0x10
 646 03b4 08       		.byte	0x8
 647 03b5 7B01     		.2byte	0x17b
 648 03b7 F0030000 		.4byte	0x3f0
 649 03bb 0A       		.uleb128 0xa
 650 03bc E8070000 		.4byte	.LASF65
 651 03c0 08       		.byte	0x8
 652 03c1 7C01     		.2byte	0x17c
 653 03c3 2F090000 		.4byte	0x92f
 654 03c7 00       		.byte	0
 655 03c8 0A       		.uleb128 0xa
 656 03c9 F8070000 		.4byte	.LASF66
 657 03cd 08       		.byte	0x8
 658 03ce 7E01     		.2byte	0x17e
 659 03d0 2F090000 		.4byte	0x92f
 660 03d4 04       		.byte	0x4
 661 03d5 0A       		.uleb128 0xa
 662 03d6 210A0000 		.4byte	.LASF67
 663 03da 08       		.byte	0x8
 664 03db 8001     		.2byte	0x180
 665 03dd 5C010000 		.4byte	0x15c
 666 03e1 08       		.byte	0x8
 667 03e2 0A       		.uleb128 0xa
 668 03e3 790F0000 		.4byte	.LASF72
 669 03e7 08       		.byte	0x8
 670 03e8 8801     		.2byte	0x188
 671 03ea 5C010000 		.4byte	0x15c
 672 03ee 0C       		.byte	0xc
 673 03ef 00       		.byte	0
 674 03f0 03       		.uleb128 0x3
 675 03f1 54030000 		.4byte	.LASF73
 676 03f5 07       		.byte	0x7
 677 03f6 6B       		.byte	0x6b
 678 03f7 FB030000 		.4byte	0x3fb
 679 03fb 0C       		.uleb128 0xc
 680 03fc 4C0E0000 		.4byte	.LASF74
 681 0400 04       		.byte	0x4
 682 0401 08       		.byte	0x8
 683 0402 A201     		.2byte	0x1a2
 684 0404 16040000 		.4byte	0x416
ARM GAS  /tmp/cckjBIeA.s 			page 13


 685 0408 0A       		.uleb128 0xa
 686 0409 25030000 		.4byte	.LASF75
 687 040d 08       		.byte	0x8
 688 040e AA01     		.2byte	0x1aa
 689 0410 1E090000 		.4byte	0x91e
 690 0414 00       		.byte	0
 691 0415 00       		.byte	0
 692 0416 03       		.uleb128 0x3
 693 0417 AF0F0000 		.4byte	.LASF76
 694 041b 07       		.byte	0x7
 695 041c 70       		.byte	0x70
 696 041d 21040000 		.4byte	0x421
 697 0421 10       		.uleb128 0x10
 698 0422 350F0000 		.4byte	.LASF77
 699 0426 D801     		.2byte	0x1d8
 700 0428 08       		.byte	0x8
 701 0429 C201     		.2byte	0x1c2
 702 042b 7D040000 		.4byte	0x47d
 703 042f 0A       		.uleb128 0xa
 704 0430 2D0D0000 		.4byte	.LASF78
 705 0434 08       		.byte	0x8
 706 0435 C601     		.2byte	0x1c6
 707 0437 C4020000 		.4byte	0x2c4
 708 043b 00       		.byte	0
 709 043c 0A       		.uleb128 0xa
 710 043d C70E0000 		.4byte	.LASF79
 711 0441 08       		.byte	0x8
 712 0442 CA01     		.2byte	0x1ca
 713 0444 A3030000 		.4byte	0x3a3
 714 0448 1C       		.byte	0x1c
 715 0449 09       		.uleb128 0x9
 716 044a 64626700 		.ascii	"dbg\000"
 717 044e 08       		.byte	0x8
 718 044f CE01     		.2byte	0x1ce
 719 0451 F0030000 		.4byte	0x3f0
 720 0455 2C       		.byte	0x2c
 721 0456 0A       		.uleb128 0xa
 722 0457 8B0C0000 		.4byte	.LASF80
 723 045b 08       		.byte	0x8
 724 045c D201     		.2byte	0x1d2
 725 045e 67010000 		.4byte	0x167
 726 0462 30       		.byte	0x30
 727 0463 09       		.uleb128 0x9
 728 0464 746D00   		.ascii	"tm\000"
 729 0467 08       		.byte	0x8
 730 0468 D701     		.2byte	0x1d7
 731 046a 48080000 		.4byte	0x848
 732 046e 74       		.byte	0x74
 733 046f 0A       		.uleb128 0xa
 734 0470 91080000 		.4byte	.LASF81
 735 0474 08       		.byte	0x8
 736 0475 E301     		.2byte	0x1e3
 737 0477 35090000 		.4byte	0x935
 738 047b 78       		.byte	0x78
 739 047c 00       		.byte	0
 740 047d 11       		.uleb128 0x11
 741 047e 30080000 		.4byte	.LASF82
ARM GAS  /tmp/cckjBIeA.s 			page 14


 742 0482 09       		.byte	0x9
 743 0483 A706     		.2byte	0x6a7
 744 0485 E4000000 		.4byte	0xe4
 745 0489 12       		.uleb128 0x12
 746 048a 17060000 		.4byte	.LASF83
 747 048e 0A       		.byte	0xa
 748 048f 4C       		.byte	0x4c
 749 0490 E9000000 		.4byte	0xe9
 750 0494 13       		.uleb128 0x13
 751 0495 18       		.byte	0x18
 752 0496 0B       		.byte	0xb
 753 0497 6B01     		.2byte	0x16b
 754 0499 EB040000 		.4byte	0x4eb
 755 049d 09       		.uleb128 0x9
 756 049e 435200   		.ascii	"CR\000"
 757 04a1 0B       		.byte	0xb
 758 04a2 6D01     		.2byte	0x16d
 759 04a4 F4000000 		.4byte	0xf4
 760 04a8 00       		.byte	0
 761 04a9 0A       		.uleb128 0xa
 762 04aa 1E100000 		.4byte	.LASF84
 763 04ae 0B       		.byte	0xb
 764 04af 6E01     		.2byte	0x16e
 765 04b1 F4000000 		.4byte	0xf4
 766 04b5 04       		.byte	0x4
 767 04b6 09       		.uleb128 0x9
 768 04b7 50415200 		.ascii	"PAR\000"
 769 04bb 0B       		.byte	0xb
 770 04bc 6F01     		.2byte	0x16f
 771 04be F4000000 		.4byte	0xf4
 772 04c2 08       		.byte	0x8
 773 04c3 0A       		.uleb128 0xa
 774 04c4 AD0D0000 		.4byte	.LASF85
 775 04c8 0B       		.byte	0xb
 776 04c9 7001     		.2byte	0x170
 777 04cb F4000000 		.4byte	0xf4
 778 04cf 0C       		.byte	0xc
 779 04d0 0A       		.uleb128 0xa
 780 04d1 00000000 		.4byte	.LASF86
 781 04d5 0B       		.byte	0xb
 782 04d6 7101     		.2byte	0x171
 783 04d8 F4000000 		.4byte	0xf4
 784 04dc 10       		.byte	0x10
 785 04dd 09       		.uleb128 0x9
 786 04de 46435200 		.ascii	"FCR\000"
 787 04e2 0B       		.byte	0xb
 788 04e3 7201     		.2byte	0x172
 789 04e5 F4000000 		.4byte	0xf4
 790 04e9 14       		.byte	0x14
 791 04ea 00       		.byte	0
 792 04eb 14       		.uleb128 0x14
 793 04ec 48090000 		.4byte	.LASF87
 794 04f0 0B       		.byte	0xb
 795 04f1 7301     		.2byte	0x173
 796 04f3 94040000 		.4byte	0x494
 797 04f7 15       		.uleb128 0x15
 798 04f8 F4000000 		.4byte	0xf4
ARM GAS  /tmp/cckjBIeA.s 			page 15


 799 04fc 07050000 		.4byte	0x507
 800 0500 16       		.uleb128 0x16
 801 0501 3C000000 		.4byte	0x3c
 802 0505 01       		.byte	0x1
 803 0506 00       		.byte	0
 804 0507 04       		.uleb128 0x4
 805 0508 F7040000 		.4byte	0x4f7
 806 050c 15       		.uleb128 0x15
 807 050d F4000000 		.4byte	0xf4
 808 0511 1C050000 		.4byte	0x51c
 809 0515 16       		.uleb128 0x16
 810 0516 3C000000 		.4byte	0x3c
 811 051a 03       		.byte	0x3
 812 051b 00       		.byte	0
 813 051c 04       		.uleb128 0x4
 814 051d 0C050000 		.4byte	0x50c
 815 0521 13       		.uleb128 0x13
 816 0522 1C       		.byte	0x1c
 817 0523 0B       		.byte	0xb
 818 0524 0903     		.2byte	0x309
 819 0526 84050000 		.4byte	0x584
 820 052a 09       		.uleb128 0x9
 821 052b 535200   		.ascii	"SR\000"
 822 052e 0B       		.byte	0xb
 823 052f 0B03     		.2byte	0x30b
 824 0531 F4000000 		.4byte	0xf4
 825 0535 00       		.byte	0
 826 0536 09       		.uleb128 0x9
 827 0537 445200   		.ascii	"DR\000"
 828 053a 0B       		.byte	0xb
 829 053b 0C03     		.2byte	0x30c
 830 053d F4000000 		.4byte	0xf4
 831 0541 04       		.byte	0x4
 832 0542 09       		.uleb128 0x9
 833 0543 42525200 		.ascii	"BRR\000"
 834 0547 0B       		.byte	0xb
 835 0548 0D03     		.2byte	0x30d
 836 054a F4000000 		.4byte	0xf4
 837 054e 08       		.byte	0x8
 838 054f 09       		.uleb128 0x9
 839 0550 43523100 		.ascii	"CR1\000"
 840 0554 0B       		.byte	0xb
 841 0555 0E03     		.2byte	0x30e
 842 0557 F4000000 		.4byte	0xf4
 843 055b 0C       		.byte	0xc
 844 055c 09       		.uleb128 0x9
 845 055d 43523200 		.ascii	"CR2\000"
 846 0561 0B       		.byte	0xb
 847 0562 0F03     		.2byte	0x30f
 848 0564 F4000000 		.4byte	0xf4
 849 0568 10       		.byte	0x10
 850 0569 09       		.uleb128 0x9
 851 056a 43523300 		.ascii	"CR3\000"
 852 056e 0B       		.byte	0xb
 853 056f 1003     		.2byte	0x310
 854 0571 F4000000 		.4byte	0xf4
 855 0575 14       		.byte	0x14
ARM GAS  /tmp/cckjBIeA.s 			page 16


 856 0576 0A       		.uleb128 0xa
 857 0577 00080000 		.4byte	.LASF88
 858 057b 0B       		.byte	0xb
 859 057c 1103     		.2byte	0x311
 860 057e F4000000 		.4byte	0xf4
 861 0582 18       		.byte	0x18
 862 0583 00       		.byte	0
 863 0584 14       		.uleb128 0x14
 864 0585 30040000 		.4byte	.LASF89
 865 0589 0B       		.byte	0xb
 866 058a 1203     		.2byte	0x312
 867 058c 21050000 		.4byte	0x521
 868 0590 15       		.uleb128 0x15
 869 0591 F4000000 		.4byte	0xf4
 870 0595 A0050000 		.4byte	0x5a0
 871 0599 16       		.uleb128 0x16
 872 059a 3C000000 		.4byte	0x3c
 873 059e 0E       		.byte	0xe
 874 059f 00       		.byte	0
 875 05a0 04       		.uleb128 0x4
 876 05a1 90050000 		.4byte	0x590
 877 05a5 03       		.uleb128 0x3
 878 05a6 32020000 		.4byte	.LASF90
 879 05aa 0C       		.byte	0xc
 880 05ab 65       		.byte	0x65
 881 05ac 47030000 		.4byte	0x347
 882 05b0 03       		.uleb128 0x3
 883 05b1 25040000 		.4byte	.LASF91
 884 05b5 0C       		.byte	0xc
 885 05b6 6D       		.byte	0x6d
 886 05b7 F9000000 		.4byte	0xf9
 887 05bb 07       		.uleb128 0x7
 888 05bc E0020000 		.4byte	.LASF92
 889 05c0 04       		.byte	0x4
 890 05c1 0C       		.byte	0xc
 891 05c2 89       		.byte	0x89
 892 05c3 D4050000 		.4byte	0x5d4
 893 05c7 17       		.uleb128 0x17
 894 05c8 72313300 		.ascii	"r13\000"
 895 05cc 0C       		.byte	0xc
 896 05cd 8A       		.byte	0x8a
 897 05ce 15070000 		.4byte	0x715
 898 05d2 00       		.byte	0
 899 05d3 00       		.byte	0
 900 05d4 07       		.uleb128 0x7
 901 05d5 FF090000 		.4byte	.LASF93
 902 05d9 64       		.byte	0x64
 903 05da 0D       		.byte	0xd
 904 05db F4       		.byte	0xf4
 905 05dc 15070000 		.4byte	0x715
 906 05e0 17       		.uleb128 0x17
 907 05e1 73313600 		.ascii	"s16\000"
 908 05e5 0D       		.byte	0xd
 909 05e6 F6       		.byte	0xf6
 910 05e7 A5050000 		.4byte	0x5a5
 911 05eb 00       		.byte	0
 912 05ec 17       		.uleb128 0x17
ARM GAS  /tmp/cckjBIeA.s 			page 17


 913 05ed 73313700 		.ascii	"s17\000"
 914 05f1 0D       		.byte	0xd
 915 05f2 F7       		.byte	0xf7
 916 05f3 A5050000 		.4byte	0x5a5
 917 05f7 04       		.byte	0x4
 918 05f8 17       		.uleb128 0x17
 919 05f9 73313800 		.ascii	"s18\000"
 920 05fd 0D       		.byte	0xd
 921 05fe F8       		.byte	0xf8
 922 05ff A5050000 		.4byte	0x5a5
 923 0603 08       		.byte	0x8
 924 0604 17       		.uleb128 0x17
 925 0605 73313900 		.ascii	"s19\000"
 926 0609 0D       		.byte	0xd
 927 060a F9       		.byte	0xf9
 928 060b A5050000 		.4byte	0x5a5
 929 060f 0C       		.byte	0xc
 930 0610 17       		.uleb128 0x17
 931 0611 73323000 		.ascii	"s20\000"
 932 0615 0D       		.byte	0xd
 933 0616 FA       		.byte	0xfa
 934 0617 A5050000 		.4byte	0x5a5
 935 061b 10       		.byte	0x10
 936 061c 17       		.uleb128 0x17
 937 061d 73323100 		.ascii	"s21\000"
 938 0621 0D       		.byte	0xd
 939 0622 FB       		.byte	0xfb
 940 0623 A5050000 		.4byte	0x5a5
 941 0627 14       		.byte	0x14
 942 0628 17       		.uleb128 0x17
 943 0629 73323200 		.ascii	"s22\000"
 944 062d 0D       		.byte	0xd
 945 062e FC       		.byte	0xfc
 946 062f A5050000 		.4byte	0x5a5
 947 0633 18       		.byte	0x18
 948 0634 17       		.uleb128 0x17
 949 0635 73323300 		.ascii	"s23\000"
 950 0639 0D       		.byte	0xd
 951 063a FD       		.byte	0xfd
 952 063b A5050000 		.4byte	0x5a5
 953 063f 1C       		.byte	0x1c
 954 0640 17       		.uleb128 0x17
 955 0641 73323400 		.ascii	"s24\000"
 956 0645 0D       		.byte	0xd
 957 0646 FE       		.byte	0xfe
 958 0647 A5050000 		.4byte	0x5a5
 959 064b 20       		.byte	0x20
 960 064c 17       		.uleb128 0x17
 961 064d 73323500 		.ascii	"s25\000"
 962 0651 0D       		.byte	0xd
 963 0652 FF       		.byte	0xff
 964 0653 A5050000 		.4byte	0x5a5
 965 0657 24       		.byte	0x24
 966 0658 09       		.uleb128 0x9
 967 0659 73323600 		.ascii	"s26\000"
 968 065d 0D       		.byte	0xd
 969 065e 0001     		.2byte	0x100
ARM GAS  /tmp/cckjBIeA.s 			page 18


 970 0660 A5050000 		.4byte	0x5a5
 971 0664 28       		.byte	0x28
 972 0665 09       		.uleb128 0x9
 973 0666 73323700 		.ascii	"s27\000"
 974 066a 0D       		.byte	0xd
 975 066b 0101     		.2byte	0x101
 976 066d A5050000 		.4byte	0x5a5
 977 0671 2C       		.byte	0x2c
 978 0672 09       		.uleb128 0x9
 979 0673 73323800 		.ascii	"s28\000"
 980 0677 0D       		.byte	0xd
 981 0678 0201     		.2byte	0x102
 982 067a A5050000 		.4byte	0x5a5
 983 067e 30       		.byte	0x30
 984 067f 09       		.uleb128 0x9
 985 0680 73323900 		.ascii	"s29\000"
 986 0684 0D       		.byte	0xd
 987 0685 0301     		.2byte	0x103
 988 0687 A5050000 		.4byte	0x5a5
 989 068b 34       		.byte	0x34
 990 068c 09       		.uleb128 0x9
 991 068d 73333000 		.ascii	"s30\000"
 992 0691 0D       		.byte	0xd
 993 0692 0401     		.2byte	0x104
 994 0694 A5050000 		.4byte	0x5a5
 995 0698 38       		.byte	0x38
 996 0699 09       		.uleb128 0x9
 997 069a 73333100 		.ascii	"s31\000"
 998 069e 0D       		.byte	0xd
 999 069f 0501     		.2byte	0x105
 1000 06a1 A5050000 		.4byte	0x5a5
 1001 06a5 3C       		.byte	0x3c
 1002 06a6 09       		.uleb128 0x9
 1003 06a7 723400   		.ascii	"r4\000"
 1004 06aa 0D       		.byte	0xd
 1005 06ab 0701     		.2byte	0x107
 1006 06ad A5050000 		.4byte	0x5a5
 1007 06b1 40       		.byte	0x40
 1008 06b2 09       		.uleb128 0x9
 1009 06b3 723500   		.ascii	"r5\000"
 1010 06b6 0D       		.byte	0xd
 1011 06b7 0801     		.2byte	0x108
 1012 06b9 A5050000 		.4byte	0x5a5
 1013 06bd 44       		.byte	0x44
 1014 06be 09       		.uleb128 0x9
 1015 06bf 723600   		.ascii	"r6\000"
 1016 06c2 0D       		.byte	0xd
 1017 06c3 0901     		.2byte	0x109
 1018 06c5 A5050000 		.4byte	0x5a5
 1019 06c9 48       		.byte	0x48
 1020 06ca 09       		.uleb128 0x9
 1021 06cb 723700   		.ascii	"r7\000"
 1022 06ce 0D       		.byte	0xd
 1023 06cf 0A01     		.2byte	0x10a
 1024 06d1 A5050000 		.4byte	0x5a5
 1025 06d5 4C       		.byte	0x4c
 1026 06d6 09       		.uleb128 0x9
ARM GAS  /tmp/cckjBIeA.s 			page 19


 1027 06d7 723800   		.ascii	"r8\000"
 1028 06da 0D       		.byte	0xd
 1029 06db 0B01     		.2byte	0x10b
 1030 06dd A5050000 		.4byte	0x5a5
 1031 06e1 50       		.byte	0x50
 1032 06e2 09       		.uleb128 0x9
 1033 06e3 723900   		.ascii	"r9\000"
 1034 06e6 0D       		.byte	0xd
 1035 06e7 0C01     		.2byte	0x10c
 1036 06e9 A5050000 		.4byte	0x5a5
 1037 06ed 54       		.byte	0x54
 1038 06ee 09       		.uleb128 0x9
 1039 06ef 72313000 		.ascii	"r10\000"
 1040 06f3 0D       		.byte	0xd
 1041 06f4 0D01     		.2byte	0x10d
 1042 06f6 A5050000 		.4byte	0x5a5
 1043 06fa 58       		.byte	0x58
 1044 06fb 09       		.uleb128 0x9
 1045 06fc 72313100 		.ascii	"r11\000"
 1046 0700 0D       		.byte	0xd
 1047 0701 0E01     		.2byte	0x10e
 1048 0703 A5050000 		.4byte	0x5a5
 1049 0707 5C       		.byte	0x5c
 1050 0708 09       		.uleb128 0x9
 1051 0709 6C7200   		.ascii	"lr\000"
 1052 070c 0D       		.byte	0xd
 1053 070d 0F01     		.2byte	0x10f
 1054 070f A5050000 		.4byte	0x5a5
 1055 0713 60       		.byte	0x60
 1056 0714 00       		.byte	0
 1057 0715 0B       		.uleb128 0xb
 1058 0716 04       		.byte	0x4
 1059 0717 D4050000 		.4byte	0x5d4
 1060 071b 13       		.uleb128 0x13
 1061 071c 60       		.byte	0x60
 1062 071d 0E       		.byte	0xe
 1063 071e 9E01     		.2byte	0x19e
 1064 0720 27080000 		.4byte	0x827
 1065 0724 09       		.uleb128 0x9
 1066 0725 43523100 		.ascii	"CR1\000"
 1067 0729 0E       		.byte	0xe
 1068 072a 9F01     		.2byte	0x19f
 1069 072c F4000000 		.4byte	0xf4
 1070 0730 00       		.byte	0
 1071 0731 09       		.uleb128 0x9
 1072 0732 43523200 		.ascii	"CR2\000"
 1073 0736 0E       		.byte	0xe
 1074 0737 A001     		.2byte	0x1a0
 1075 0739 F4000000 		.4byte	0xf4
 1076 073d 04       		.byte	0x4
 1077 073e 0A       		.uleb128 0xa
 1078 073f 9F0C0000 		.4byte	.LASF94
 1079 0743 0E       		.byte	0xe
 1080 0744 A101     		.2byte	0x1a1
 1081 0746 F4000000 		.4byte	0xf4
 1082 074a 08       		.byte	0x8
 1083 074b 0A       		.uleb128 0xa
ARM GAS  /tmp/cckjBIeA.s 			page 20


 1084 074c 03060000 		.4byte	.LASF95
 1085 0750 0E       		.byte	0xe
 1086 0751 A201     		.2byte	0x1a2
 1087 0753 F4000000 		.4byte	0xf4
 1088 0757 0C       		.byte	0xc
 1089 0758 09       		.uleb128 0x9
 1090 0759 535200   		.ascii	"SR\000"
 1091 075c 0E       		.byte	0xe
 1092 075d A301     		.2byte	0x1a3
 1093 075f F4000000 		.4byte	0xf4
 1094 0763 10       		.byte	0x10
 1095 0764 09       		.uleb128 0x9
 1096 0765 45475200 		.ascii	"EGR\000"
 1097 0769 0E       		.byte	0xe
 1098 076a A401     		.2byte	0x1a4
 1099 076c F4000000 		.4byte	0xf4
 1100 0770 14       		.byte	0x14
 1101 0771 0A       		.uleb128 0xa
 1102 0772 8F030000 		.4byte	.LASF96
 1103 0776 0E       		.byte	0xe
 1104 0777 A501     		.2byte	0x1a5
 1105 0779 F4000000 		.4byte	0xf4
 1106 077d 18       		.byte	0x18
 1107 077e 0A       		.uleb128 0xa
 1108 077f 95030000 		.4byte	.LASF97
 1109 0783 0E       		.byte	0xe
 1110 0784 A601     		.2byte	0x1a6
 1111 0786 F4000000 		.4byte	0xf4
 1112 078a 1C       		.byte	0x1c
 1113 078b 0A       		.uleb128 0xa
 1114 078c 0B0B0000 		.4byte	.LASF98
 1115 0790 0E       		.byte	0xe
 1116 0791 A701     		.2byte	0x1a7
 1117 0793 F4000000 		.4byte	0xf4
 1118 0797 20       		.byte	0x20
 1119 0798 09       		.uleb128 0x9
 1120 0799 434E5400 		.ascii	"CNT\000"
 1121 079d 0E       		.byte	0xe
 1122 079e A801     		.2byte	0x1a8
 1123 07a0 F4000000 		.4byte	0xf4
 1124 07a4 24       		.byte	0x24
 1125 07a5 09       		.uleb128 0x9
 1126 07a6 50534300 		.ascii	"PSC\000"
 1127 07aa 0E       		.byte	0xe
 1128 07ab A901     		.2byte	0x1a9
 1129 07ad F4000000 		.4byte	0xf4
 1130 07b1 28       		.byte	0x28
 1131 07b2 09       		.uleb128 0x9
 1132 07b3 41525200 		.ascii	"ARR\000"
 1133 07b7 0E       		.byte	0xe
 1134 07b8 AA01     		.2byte	0x1aa
 1135 07ba F4000000 		.4byte	0xf4
 1136 07be 2C       		.byte	0x2c
 1137 07bf 09       		.uleb128 0x9
 1138 07c0 52435200 		.ascii	"RCR\000"
 1139 07c4 0E       		.byte	0xe
 1140 07c5 AB01     		.2byte	0x1ab
ARM GAS  /tmp/cckjBIeA.s 			page 21


 1141 07c7 F4000000 		.4byte	0xf4
 1142 07cb 30       		.byte	0x30
 1143 07cc 09       		.uleb128 0x9
 1144 07cd 43435200 		.ascii	"CCR\000"
 1145 07d1 0E       		.byte	0xe
 1146 07d2 AC01     		.2byte	0x1ac
 1147 07d4 1C050000 		.4byte	0x51c
 1148 07d8 34       		.byte	0x34
 1149 07d9 0A       		.uleb128 0xa
 1150 07da 470F0000 		.4byte	.LASF99
 1151 07de 0E       		.byte	0xe
 1152 07df AD01     		.2byte	0x1ad
 1153 07e1 F4000000 		.4byte	0xf4
 1154 07e5 44       		.byte	0x44
 1155 07e6 09       		.uleb128 0x9
 1156 07e7 44435200 		.ascii	"DCR\000"
 1157 07eb 0E       		.byte	0xe
 1158 07ec AE01     		.2byte	0x1ae
 1159 07ee F4000000 		.4byte	0xf4
 1160 07f2 48       		.byte	0x48
 1161 07f3 0A       		.uleb128 0xa
 1162 07f4 27010000 		.4byte	.LASF100
 1163 07f8 0E       		.byte	0xe
 1164 07f9 AF01     		.2byte	0x1af
 1165 07fb F4000000 		.4byte	0xf4
 1166 07ff 4C       		.byte	0x4c
 1167 0800 09       		.uleb128 0x9
 1168 0801 4F5200   		.ascii	"OR\000"
 1169 0804 0E       		.byte	0xe
 1170 0805 B001     		.2byte	0x1b0
 1171 0807 F4000000 		.4byte	0xf4
 1172 080b 50       		.byte	0x50
 1173 080c 0A       		.uleb128 0xa
 1174 080d 9B030000 		.4byte	.LASF101
 1175 0811 0E       		.byte	0xe
 1176 0812 B101     		.2byte	0x1b1
 1177 0814 F4000000 		.4byte	0xf4
 1178 0818 54       		.byte	0x54
 1179 0819 0A       		.uleb128 0xa
 1180 081a 91040000 		.4byte	.LASF102
 1181 081e 0E       		.byte	0xe
 1182 081f B201     		.2byte	0x1b2
 1183 0821 07050000 		.4byte	0x507
 1184 0825 58       		.byte	0x58
 1185 0826 00       		.byte	0
 1186 0827 14       		.uleb128 0x14
 1187 0828 DD060000 		.4byte	.LASF103
 1188 082c 0E       		.byte	0xe
 1189 082d B301     		.2byte	0x1b3
 1190 082f 1B070000 		.4byte	0x71b
 1191 0833 18       		.uleb128 0x18
 1192 0834 04       		.byte	0x4
 1193 0835 0F       		.byte	0xf
 1194 0836 38       		.byte	0x38
 1195 0837 48080000 		.4byte	0x848
 1196 083b 08       		.uleb128 0x8
 1197 083c 13090000 		.4byte	.LASF104
ARM GAS  /tmp/cckjBIeA.s 			page 22


 1198 0840 0F       		.byte	0xf
 1199 0841 3C       		.byte	0x3c
 1200 0842 04010000 		.4byte	0x104
 1201 0846 00       		.byte	0
 1202 0847 00       		.byte	0
 1203 0848 03       		.uleb128 0x3
 1204 0849 9C0D0000 		.4byte	.LASF105
 1205 084d 0F       		.byte	0xf
 1206 084e 3D       		.byte	0x3d
 1207 084f 33080000 		.4byte	0x833
 1208 0853 19       		.uleb128 0x19
 1209 0854 04       		.byte	0x4
 1210 0855 08       		.byte	0x8
 1211 0856 FA       		.byte	0xfa
 1212 0857 B0080000 		.4byte	0x8b0
 1213 085b 1A       		.uleb128 0x1a
 1214 085c 720F0000 		.4byte	.LASF106
 1215 0860 08       		.byte	0x8
 1216 0861 0101     		.2byte	0x101
 1217 0863 3B010000 		.4byte	0x13b
 1218 0867 1A       		.uleb128 0x1a
 1219 0868 57010000 		.4byte	.LASF107
 1220 086c 08       		.byte	0x8
 1221 086d 0801     		.2byte	0x108
 1222 086f 3B010000 		.4byte	0x13b
 1223 0873 1A       		.uleb128 0x1a
 1224 0874 0B040000 		.4byte	.LASF108
 1225 0878 08       		.byte	0x8
 1226 0879 0F01     		.2byte	0x10f
 1227 087b 47030000 		.4byte	0x347
 1228 087f 1A       		.uleb128 0x1a
 1229 0880 EF020000 		.4byte	.LASF109
 1230 0884 08       		.byte	0x8
 1231 0885 1601     		.2byte	0x116
 1232 0887 B0080000 		.4byte	0x8b0
 1233 088b 1A       		.uleb128 0x1a
 1234 088c 1F000000 		.4byte	.LASF110
 1235 0890 08       		.byte	0x8
 1236 0891 1E01     		.2byte	0x11e
 1237 0893 DB080000 		.4byte	0x8db
 1238 0897 1A       		.uleb128 0x1a
 1239 0898 16050000 		.4byte	.LASF111
 1240 089c 08       		.byte	0x8
 1241 089d 2701     		.2byte	0x127
 1242 089f 12090000 		.4byte	0x912
 1243 08a3 1A       		.uleb128 0x1a
 1244 08a4 AB020000 		.4byte	.LASF112
 1245 08a8 08       		.byte	0x8
 1246 08a9 2F01     		.2byte	0x12f
 1247 08ab 46010000 		.4byte	0x146
 1248 08af 00       		.byte	0
 1249 08b0 0B       		.uleb128 0xb
 1250 08b1 04       		.byte	0x4
 1251 08b2 5F020000 		.4byte	0x25f
 1252 08b6 07       		.uleb128 0x7
 1253 08b7 27060000 		.4byte	.LASF113
 1254 08bb 0C       		.byte	0xc
ARM GAS  /tmp/cckjBIeA.s 			page 23


 1255 08bc 10       		.byte	0x10
 1256 08bd 34       		.byte	0x34
 1257 08be DB080000 		.4byte	0x8db
 1258 08c2 08       		.uleb128 0x8
 1259 08c3 B20D0000 		.4byte	.LASF114
 1260 08c7 10       		.byte	0x10
 1261 08c8 35       		.byte	0x35
 1262 08c9 94020000 		.4byte	0x294
 1263 08cd 00       		.byte	0
 1264 08ce 08       		.uleb128 0x8
 1265 08cf 460A0000 		.4byte	.LASF115
 1266 08d3 10       		.byte	0x10
 1267 08d4 37       		.byte	0x37
 1268 08d5 51010000 		.4byte	0x151
 1269 08d9 08       		.byte	0x8
 1270 08da 00       		.byte	0
 1271 08db 0B       		.uleb128 0xb
 1272 08dc 04       		.byte	0x4
 1273 08dd B6080000 		.4byte	0x8b6
 1274 08e1 07       		.uleb128 0x7
 1275 08e2 F00D0000 		.4byte	.LASF116
 1276 08e6 10       		.byte	0x10
 1277 08e7 11       		.byte	0x11
 1278 08e8 39       		.byte	0x39
 1279 08e9 12090000 		.4byte	0x912
 1280 08ed 08       		.uleb128 0x8
 1281 08ee D7070000 		.4byte	.LASF117
 1282 08f2 11       		.byte	0x11
 1283 08f3 3A       		.byte	0x3a
 1284 08f4 94020000 		.4byte	0x294
 1285 08f8 00       		.byte	0
 1286 08f9 08       		.uleb128 0x8
 1287 08fa 48010000 		.4byte	.LASF118
 1288 08fe 11       		.byte	0x11
 1289 08ff 3C       		.byte	0x3c
 1290 0900 6A020000 		.4byte	0x26a
 1291 0904 08       		.byte	0x8
 1292 0905 08       		.uleb128 0x8
 1293 0906 6A100000 		.4byte	.LASF119
 1294 090a 11       		.byte	0x11
 1295 090b 3E       		.byte	0x3e
 1296 090c 670A0000 		.4byte	0xa67
 1297 0910 0C       		.byte	0xc
 1298 0911 00       		.byte	0
 1299 0912 0B       		.uleb128 0xb
 1300 0913 04       		.byte	0x4
 1301 0914 E1080000 		.4byte	0x8e1
 1302 0918 0B       		.uleb128 0xb
 1303 0919 04       		.byte	0x4
 1304 091a 2A090000 		.4byte	0x92a
 1305 091e 04       		.uleb128 0x4
 1306 091f 18090000 		.4byte	0x918
 1307 0923 05       		.uleb128 0x5
 1308 0924 01       		.byte	0x1
 1309 0925 08       		.byte	0x8
 1310 0926 C0030000 		.4byte	.LASF120
 1311 092a 06       		.uleb128 0x6
ARM GAS  /tmp/cckjBIeA.s 			page 24


 1312 092b 23090000 		.4byte	0x923
 1313 092f 0B       		.uleb128 0xb
 1314 0930 04       		.byte	0x4
 1315 0931 49030000 		.4byte	0x349
 1316 0935 15       		.uleb128 0x15
 1317 0936 B0050000 		.4byte	0x5b0
 1318 093a 45090000 		.4byte	0x945
 1319 093e 16       		.uleb128 0x16
 1320 093f 3C000000 		.4byte	0x3c
 1321 0943 2B       		.byte	0x2b
 1322 0944 00       		.byte	0
 1323 0945 1B       		.uleb128 0x1b
 1324 0946 636800   		.ascii	"ch\000"
 1325 0949 08       		.byte	0x8
 1326 094a 0902     		.2byte	0x209
 1327 094c 16040000 		.4byte	0x416
 1328 0950 18       		.uleb128 0x18
 1329 0951 16       		.byte	0x16
 1330 0952 12       		.byte	0x12
 1331 0953 34       		.byte	0x34
 1332 0954 310A0000 		.4byte	0xa31
 1333 0958 08       		.uleb128 0x8
 1334 0959 46000000 		.4byte	.LASF121
 1335 095d 12       		.byte	0x12
 1336 095e 35       		.byte	0x35
 1337 095f 310A0000 		.4byte	0xa31
 1338 0963 00       		.byte	0
 1339 0964 08       		.uleb128 0x8
 1340 0965 E9050000 		.4byte	.LASF122
 1341 0969 12       		.byte	0x12
 1342 096a 36       		.byte	0x36
 1343 096b B9000000 		.4byte	0xb9
 1344 096f 04       		.byte	0x4
 1345 0970 08       		.uleb128 0x8
 1346 0971 D70F0000 		.4byte	.LASF123
 1347 0975 12       		.byte	0x12
 1348 0976 37       		.byte	0x37
 1349 0977 B9000000 		.4byte	0xb9
 1350 097b 05       		.byte	0x5
 1351 097c 08       		.uleb128 0x8
 1352 097d CC070000 		.4byte	.LASF124
 1353 0981 12       		.byte	0x12
 1354 0982 38       		.byte	0x38
 1355 0983 C9000000 		.4byte	0xc9
 1356 0987 06       		.byte	0x6
 1357 0988 08       		.uleb128 0x8
 1358 0989 11010000 		.4byte	.LASF125
 1359 098d 12       		.byte	0x12
 1360 098e 39       		.byte	0x39
 1361 098f B9000000 		.4byte	0xb9
 1362 0993 08       		.byte	0x8
 1363 0994 08       		.uleb128 0x8
 1364 0995 ED080000 		.4byte	.LASF126
 1365 0999 12       		.byte	0x12
 1366 099a 3A       		.byte	0x3a
 1367 099b B9000000 		.4byte	0xb9
 1368 099f 09       		.byte	0x9
ARM GAS  /tmp/cckjBIeA.s 			page 25


 1369 09a0 08       		.uleb128 0x8
 1370 09a1 7E010000 		.4byte	.LASF127
 1371 09a5 12       		.byte	0x12
 1372 09a6 3B       		.byte	0x3b
 1373 09a7 B9000000 		.4byte	0xb9
 1374 09ab 0A       		.byte	0xa
 1375 09ac 08       		.uleb128 0x8
 1376 09ad 5C040000 		.4byte	.LASF128
 1377 09b1 12       		.byte	0x12
 1378 09b2 3C       		.byte	0x3c
 1379 09b3 B9000000 		.4byte	0xb9
 1380 09b7 0B       		.byte	0xb
 1381 09b8 08       		.uleb128 0x8
 1382 09b9 92000000 		.4byte	.LASF129
 1383 09bd 12       		.byte	0x12
 1384 09be 3D       		.byte	0x3d
 1385 09bf B9000000 		.4byte	0xb9
 1386 09c3 0C       		.byte	0xc
 1387 09c4 08       		.uleb128 0x8
 1388 09c5 12040000 		.4byte	.LASF130
 1389 09c9 12       		.byte	0x12
 1390 09ca 3E       		.byte	0x3e
 1391 09cb B9000000 		.4byte	0xb9
 1392 09cf 0D       		.byte	0xd
 1393 09d0 08       		.uleb128 0x8
 1394 09d1 670E0000 		.4byte	.LASF131
 1395 09d5 12       		.byte	0x12
 1396 09d6 3F       		.byte	0x3f
 1397 09d7 B9000000 		.4byte	0xb9
 1398 09db 0E       		.byte	0xe
 1399 09dc 08       		.uleb128 0x8
 1400 09dd 26000000 		.4byte	.LASF132
 1401 09e1 12       		.byte	0x12
 1402 09e2 40       		.byte	0x40
 1403 09e3 B9000000 		.4byte	0xb9
 1404 09e7 0F       		.byte	0xf
 1405 09e8 08       		.uleb128 0x8
 1406 09e9 EF0E0000 		.4byte	.LASF133
 1407 09ed 12       		.byte	0x12
 1408 09ee 41       		.byte	0x41
 1409 09ef B9000000 		.4byte	0xb9
 1410 09f3 10       		.byte	0x10
 1411 09f4 08       		.uleb128 0x8
 1412 09f5 F5010000 		.4byte	.LASF134
 1413 09f9 12       		.byte	0x12
 1414 09fa 43       		.byte	0x43
 1415 09fb B9000000 		.4byte	0xb9
 1416 09ff 11       		.byte	0x11
 1417 0a00 08       		.uleb128 0x8
 1418 0a01 FE0A0000 		.4byte	.LASF135
 1419 0a05 12       		.byte	0x12
 1420 0a06 44       		.byte	0x44
 1421 0a07 B9000000 		.4byte	0xb9
 1422 0a0b 12       		.byte	0x12
 1423 0a0c 08       		.uleb128 0x8
 1424 0a0d 5B090000 		.4byte	.LASF136
 1425 0a11 12       		.byte	0x12
ARM GAS  /tmp/cckjBIeA.s 			page 26


 1426 0a12 45       		.byte	0x45
 1427 0a13 B9000000 		.4byte	0xb9
 1428 0a17 13       		.byte	0x13
 1429 0a18 08       		.uleb128 0x8
 1430 0a19 51070000 		.4byte	.LASF137
 1431 0a1d 12       		.byte	0x12
 1432 0a1e 46       		.byte	0x46
 1433 0a1f B9000000 		.4byte	0xb9
 1434 0a23 14       		.byte	0x14
 1435 0a24 08       		.uleb128 0x8
 1436 0a25 150A0000 		.4byte	.LASF138
 1437 0a29 12       		.byte	0x12
 1438 0a2a 48       		.byte	0x48
 1439 0a2b B9000000 		.4byte	0xb9
 1440 0a2f 15       		.byte	0x15
 1441 0a30 00       		.byte	0
 1442 0a31 15       		.uleb128 0x15
 1443 0a32 23090000 		.4byte	0x923
 1444 0a36 410A0000 		.4byte	0xa41
 1445 0a3a 16       		.uleb128 0x16
 1446 0a3b 3C000000 		.4byte	0x3c
 1447 0a3f 03       		.byte	0x3
 1448 0a40 00       		.byte	0
 1449 0a41 03       		.uleb128 0x3
 1450 0a42 BB0F0000 		.4byte	.LASF139
 1451 0a46 12       		.byte	0x12
 1452 0a47 49       		.byte	0x49
 1453 0a48 50090000 		.4byte	0x950
 1454 0a4c 06       		.uleb128 0x6
 1455 0a4d 410A0000 		.4byte	0xa41
 1456 0a51 12       		.uleb128 0x12
 1457 0a52 62000000 		.4byte	.LASF140
 1458 0a56 12       		.byte	0x12
 1459 0a57 6E       		.byte	0x6e
 1460 0a58 4C0A0000 		.4byte	0xa4c
 1461 0a5c 03       		.uleb128 0x3
 1462 0a5d DF0E0000 		.4byte	.LASF141
 1463 0a61 11       		.byte	0x11
 1464 0a62 34       		.byte	0x34
 1465 0a63 E1080000 		.4byte	0x8e1
 1466 0a67 0B       		.uleb128 0xb
 1467 0a68 04       		.byte	0x4
 1468 0a69 5C0A0000 		.4byte	0xa5c
 1469 0a6d 03       		.uleb128 0x3
 1470 0a6e 7C0E0000 		.4byte	.LASF142
 1471 0a72 13       		.byte	0x13
 1472 0a73 3F       		.byte	0x3f
 1473 0a74 780A0000 		.4byte	0xa78
 1474 0a78 07       		.uleb128 0x7
 1475 0a79 67020000 		.4byte	.LASF143
 1476 0a7d 24       		.byte	0x24
 1477 0a7e 13       		.byte	0x13
 1478 0a7f 4D       		.byte	0x4d
 1479 0a80 E50A0000 		.4byte	0xae5
 1480 0a84 08       		.uleb128 0x8
 1481 0a85 230D0000 		.4byte	.LASF144
 1482 0a89 13       		.byte	0x13
ARM GAS  /tmp/cckjBIeA.s 			page 27


 1483 0a8a 4E       		.byte	0x4e
 1484 0a8b 94020000 		.4byte	0x294
 1485 0a8f 00       		.byte	0
 1486 0a90 08       		.uleb128 0x8
 1487 0a91 AC050000 		.4byte	.LASF145
 1488 0a95 13       		.byte	0x13
 1489 0a96 4F       		.byte	0x4f
 1490 0a97 37000000 		.4byte	0x37
 1491 0a9b 08       		.byte	0x8
 1492 0a9c 08       		.uleb128 0x8
 1493 0a9d 8C010000 		.4byte	.LASF146
 1494 0aa1 13       		.byte	0x13
 1495 0aa2 50       		.byte	0x50
 1496 0aa3 070B0000 		.4byte	0xb07
 1497 0aa7 0C       		.byte	0xc
 1498 0aa8 08       		.uleb128 0x8
 1499 0aa9 78010000 		.4byte	.LASF147
 1500 0aad 13       		.byte	0x13
 1501 0aae 51       		.byte	0x51
 1502 0aaf 070B0000 		.4byte	0xb07
 1503 0ab3 10       		.byte	0x10
 1504 0ab4 08       		.uleb128 0x8
 1505 0ab5 BB060000 		.4byte	.LASF148
 1506 0ab9 13       		.byte	0x13
 1507 0aba 53       		.byte	0x53
 1508 0abb 070B0000 		.4byte	0xb07
 1509 0abf 14       		.byte	0x14
 1510 0ac0 08       		.uleb128 0x8
 1511 0ac1 ED010000 		.4byte	.LASF149
 1512 0ac5 13       		.byte	0x13
 1513 0ac6 54       		.byte	0x54
 1514 0ac7 070B0000 		.4byte	0xb07
 1515 0acb 18       		.byte	0x18
 1516 0acc 08       		.uleb128 0x8
 1517 0acd C1010000 		.4byte	.LASF150
 1518 0ad1 13       		.byte	0x13
 1519 0ad2 55       		.byte	0x55
 1520 0ad3 E50A0000 		.4byte	0xae5
 1521 0ad7 1C       		.byte	0x1c
 1522 0ad8 08       		.uleb128 0x8
 1523 0ad9 17030000 		.4byte	.LASF151
 1524 0add 13       		.byte	0x13
 1525 0ade 56       		.byte	0x56
 1526 0adf 47030000 		.4byte	0x347
 1527 0ae3 20       		.byte	0x20
 1528 0ae4 00       		.byte	0
 1529 0ae5 03       		.uleb128 0x3
 1530 0ae6 5A080000 		.4byte	.LASF152
 1531 0aea 13       		.byte	0x13
 1532 0aeb 42       		.byte	0x42
 1533 0aec F00A0000 		.4byte	0xaf0
 1534 0af0 0B       		.uleb128 0xb
 1535 0af1 04       		.byte	0x4
 1536 0af2 F60A0000 		.4byte	0xaf6
 1537 0af6 0D       		.uleb128 0xd
 1538 0af7 010B0000 		.4byte	0xb01
 1539 0afb 0E       		.uleb128 0xe
ARM GAS  /tmp/cckjBIeA.s 			page 28


 1540 0afc 010B0000 		.4byte	0xb01
 1541 0b00 00       		.byte	0
 1542 0b01 0B       		.uleb128 0xb
 1543 0b02 04       		.byte	0x4
 1544 0b03 6D0A0000 		.4byte	0xa6d
 1545 0b07 0B       		.uleb128 0xb
 1546 0b08 04       		.byte	0x4
 1547 0b09 B9000000 		.4byte	0xb9
 1548 0b0d 03       		.uleb128 0x3
 1549 0b0e 5D0F0000 		.4byte	.LASF153
 1550 0b12 13       		.byte	0x13
 1551 0b13 64       		.byte	0x64
 1552 0b14 6D0A0000 		.4byte	0xa6d
 1553 0b18 03       		.uleb128 0x3
 1554 0b19 DF0F0000 		.4byte	.LASF154
 1555 0b1d 13       		.byte	0x13
 1556 0b1e 71       		.byte	0x71
 1557 0b1f 6D0A0000 		.4byte	0xa6d
 1558 0b23 0B       		.uleb128 0xb
 1559 0b24 04       		.byte	0x4
 1560 0b25 C4000000 		.4byte	0xc4
 1561 0b29 18       		.uleb128 0x18
 1562 0b2a 0C       		.byte	0xc
 1563 0b2b 14       		.byte	0x14
 1564 0b2c DA       		.byte	0xda
 1565 0b2d 6E0B0000 		.4byte	0xb6e
 1566 0b31 08       		.uleb128 0x8
 1567 0b32 68040000 		.4byte	.LASF155
 1568 0b36 14       		.byte	0x14
 1569 0b37 DB       		.byte	0xdb
 1570 0b38 6E0B0000 		.4byte	0xb6e
 1571 0b3c 00       		.byte	0
 1572 0b3d 08       		.uleb128 0x8
 1573 0b3e 23100000 		.4byte	.LASF156
 1574 0b42 14       		.byte	0x14
 1575 0b43 DC       		.byte	0xdc
 1576 0b44 740B0000 		.4byte	0xb74
 1577 0b48 04       		.byte	0x4
 1578 0b49 08       		.uleb128 0x8
 1579 0b4a CB030000 		.4byte	.LASF157
 1580 0b4e 14       		.byte	0x14
 1581 0b4f DD       		.byte	0xdd
 1582 0b50 B9000000 		.4byte	0xb9
 1583 0b54 08       		.byte	0x8
 1584 0b55 08       		.uleb128 0x8
 1585 0b56 600A0000 		.4byte	.LASF158
 1586 0b5a 14       		.byte	0x14
 1587 0b5b DF       		.byte	0xdf
 1588 0b5c B9000000 		.4byte	0xb9
 1589 0b60 09       		.byte	0x9
 1590 0b61 08       		.uleb128 0x8
 1591 0b62 420C0000 		.4byte	.LASF159
 1592 0b66 14       		.byte	0x14
 1593 0b67 E0       		.byte	0xe0
 1594 0b68 B9000000 		.4byte	0xb9
 1595 0b6c 0A       		.byte	0xa
 1596 0b6d 00       		.byte	0
ARM GAS  /tmp/cckjBIeA.s 			page 29


 1597 0b6e 0B       		.uleb128 0xb
 1598 0b6f 04       		.byte	0x4
 1599 0b70 EB040000 		.4byte	0x4eb
 1600 0b74 0B       		.uleb128 0xb
 1601 0b75 04       		.byte	0x4
 1602 0b76 F4000000 		.4byte	0xf4
 1603 0b7a 03       		.uleb128 0x3
 1604 0b7b 05000000 		.4byte	.LASF160
 1605 0b7f 14       		.byte	0x14
 1606 0b80 E1       		.byte	0xe1
 1607 0b81 290B0000 		.4byte	0xb29
 1608 0b85 06       		.uleb128 0x6
 1609 0b86 7A0B0000 		.4byte	0xb7a
 1610 0b8a 15       		.uleb128 0x15
 1611 0b8b 850B0000 		.4byte	0xb85
 1612 0b8f 9A0B0000 		.4byte	0xb9a
 1613 0b93 16       		.uleb128 0x16
 1614 0b94 3C000000 		.4byte	0x3c
 1615 0b98 0F       		.byte	0xf
 1616 0b99 00       		.byte	0
 1617 0b9a 06       		.uleb128 0x6
 1618 0b9b 8A0B0000 		.4byte	0xb8a
 1619 0b9f 11       		.uleb128 0x11
 1620 0ba0 73060000 		.4byte	.LASF161
 1621 0ba4 14       		.byte	0x14
 1622 0ba5 BB01     		.2byte	0x1bb
 1623 0ba7 9A0B0000 		.4byte	0xb9a
 1624 0bab 05       		.uleb128 0x5
 1625 0bac 01       		.byte	0x1
 1626 0bad 02       		.byte	0x2
 1627 0bae 7D030000 		.4byte	.LASF162
 1628 0bb2 18       		.uleb128 0x18
 1629 0bb3 1C       		.byte	0x1c
 1630 0bb4 15       		.byte	0x15
 1631 0bb5 C1       		.byte	0xc1
 1632 0bb6 0F0C0000 		.4byte	0xc0f
 1633 0bba 08       		.uleb128 0x8
 1634 0bbb C5030000 		.4byte	.LASF163
 1635 0bbf 15       		.byte	0x15
 1636 0bc0 C3       		.byte	0xc3
 1637 0bc1 E9000000 		.4byte	0xe9
 1638 0bc5 00       		.byte	0
 1639 0bc6 08       		.uleb128 0x8
 1640 0bc7 10060000 		.4byte	.LASF164
 1641 0bcb 15       		.byte	0x15
 1642 0bcc C5       		.byte	0xc5
 1643 0bcd E9000000 		.4byte	0xe9
 1644 0bd1 04       		.byte	0x4
 1645 0bd2 08       		.uleb128 0x8
 1646 0bd3 3E050000 		.4byte	.LASF165
 1647 0bd7 15       		.byte	0x15
 1648 0bd8 C7       		.byte	0xc7
 1649 0bd9 E9000000 		.4byte	0xe9
 1650 0bdd 08       		.byte	0x8
 1651 0bde 08       		.uleb128 0x8
 1652 0bdf F5020000 		.4byte	.LASF166
 1653 0be3 15       		.byte	0x15
ARM GAS  /tmp/cckjBIeA.s 			page 30


 1654 0be4 C9       		.byte	0xc9
 1655 0be5 E9000000 		.4byte	0xe9
 1656 0be9 0C       		.byte	0xc
 1657 0bea 17       		.uleb128 0x17
 1658 0beb 6F647200 		.ascii	"odr\000"
 1659 0bef 15       		.byte	0x15
 1660 0bf0 CB       		.byte	0xcb
 1661 0bf1 E9000000 		.4byte	0xe9
 1662 0bf5 10       		.byte	0x10
 1663 0bf6 08       		.uleb128 0x8
 1664 0bf7 84090000 		.4byte	.LASF167
 1665 0bfb 15       		.byte	0x15
 1666 0bfc CD       		.byte	0xcd
 1667 0bfd E9000000 		.4byte	0xe9
 1668 0c01 14       		.byte	0x14
 1669 0c02 08       		.uleb128 0x8
 1670 0c03 BF050000 		.4byte	.LASF168
 1671 0c07 15       		.byte	0x15
 1672 0c08 CF       		.byte	0xcf
 1673 0c09 E9000000 		.4byte	0xe9
 1674 0c0d 18       		.byte	0x18
 1675 0c0e 00       		.byte	0
 1676 0c0f 03       		.uleb128 0x3
 1677 0c10 35010000 		.4byte	.LASF169
 1678 0c14 15       		.byte	0x15
 1679 0c15 D0       		.byte	0xd0
 1680 0c16 B20B0000 		.4byte	0xbb2
 1681 0c1a 18       		.uleb128 0x18
 1682 0c1b FC       		.byte	0xfc
 1683 0c1c 15       		.byte	0x15
 1684 0c1d D9       		.byte	0xd9
 1685 0c1e 8F0C0000 		.4byte	0xc8f
 1686 0c22 08       		.uleb128 0x8
 1687 0c23 930A0000 		.4byte	.LASF170
 1688 0c27 15       		.byte	0x15
 1689 0c28 DC       		.byte	0xdc
 1690 0c29 0F0C0000 		.4byte	0xc0f
 1691 0c2d 00       		.byte	0
 1692 0c2e 08       		.uleb128 0x8
 1693 0c2f 46080000 		.4byte	.LASF171
 1694 0c33 15       		.byte	0x15
 1695 0c34 E0       		.byte	0xe0
 1696 0c35 0F0C0000 		.4byte	0xc0f
 1697 0c39 1C       		.byte	0x1c
 1698 0c3a 08       		.uleb128 0x8
 1699 0c3b 83050000 		.4byte	.LASF172
 1700 0c3f 15       		.byte	0x15
 1701 0c40 E4       		.byte	0xe4
 1702 0c41 0F0C0000 		.4byte	0xc0f
 1703 0c45 38       		.byte	0x38
 1704 0c46 08       		.uleb128 0x8
 1705 0c47 1E030000 		.4byte	.LASF173
 1706 0c4b 15       		.byte	0x15
 1707 0c4c E8       		.byte	0xe8
 1708 0c4d 0F0C0000 		.4byte	0xc0f
 1709 0c51 54       		.byte	0x54
 1710 0c52 08       		.uleb128 0x8
ARM GAS  /tmp/cckjBIeA.s 			page 31


 1711 0c53 02010000 		.4byte	.LASF174
 1712 0c57 15       		.byte	0x15
 1713 0c58 EC       		.byte	0xec
 1714 0c59 0F0C0000 		.4byte	0xc0f
 1715 0c5d 70       		.byte	0x70
 1716 0c5e 08       		.uleb128 0x8
 1717 0c5f 6B0F0000 		.4byte	.LASF175
 1718 0c63 15       		.byte	0x15
 1719 0c64 F0       		.byte	0xf0
 1720 0c65 0F0C0000 		.4byte	0xc0f
 1721 0c69 8C       		.byte	0x8c
 1722 0c6a 08       		.uleb128 0x8
 1723 0c6b 160D0000 		.4byte	.LASF176
 1724 0c6f 15       		.byte	0x15
 1725 0c70 F4       		.byte	0xf4
 1726 0c71 0F0C0000 		.4byte	0xc0f
 1727 0c75 A8       		.byte	0xa8
 1728 0c76 08       		.uleb128 0x8
 1729 0c77 2E090000 		.4byte	.LASF177
 1730 0c7b 15       		.byte	0x15
 1731 0c7c F8       		.byte	0xf8
 1732 0c7d 0F0C0000 		.4byte	0xc0f
 1733 0c81 C4       		.byte	0xc4
 1734 0c82 08       		.uleb128 0x8
 1735 0c83 E9060000 		.4byte	.LASF178
 1736 0c87 15       		.byte	0x15
 1737 0c88 FC       		.byte	0xfc
 1738 0c89 0F0C0000 		.4byte	0xc0f
 1739 0c8d E0       		.byte	0xe0
 1740 0c8e 00       		.byte	0
 1741 0c8f 03       		.uleb128 0x3
 1742 0c90 9F0E0000 		.4byte	.LASF179
 1743 0c94 15       		.byte	0x15
 1744 0c95 FE       		.byte	0xfe
 1745 0c96 1A0C0000 		.4byte	0xc1a
 1746 0c9a 06       		.uleb128 0x6
 1747 0c9b 8F0C0000 		.4byte	0xc8f
 1748 0c9f 11       		.uleb128 0x11
 1749 0ca0 8C020000 		.4byte	.LASF180
 1750 0ca4 15       		.byte	0x15
 1751 0ca5 DA01     		.2byte	0x1da
 1752 0ca7 9A0C0000 		.4byte	0xc9a
 1753 0cab 1C       		.uleb128 0x1c
 1754 0cac 07       		.byte	0x7
 1755 0cad 01       		.byte	0x1
 1756 0cae 63000000 		.4byte	0x63
 1757 0cb2 16       		.byte	0x16
 1758 0cb3 3D       		.byte	0x3d
 1759 0cb4 CB0C0000 		.4byte	0xccb
 1760 0cb8 1D       		.uleb128 0x1d
 1761 0cb9 F6060000 		.4byte	.LASF181
 1762 0cbd 00       		.byte	0
 1763 0cbe 1D       		.uleb128 0x1d
 1764 0cbf 3C000000 		.4byte	.LASF182
 1765 0cc3 01       		.byte	0x1
 1766 0cc4 1D       		.uleb128 0x1d
 1767 0cc5 44100000 		.4byte	.LASF183
ARM GAS  /tmp/cckjBIeA.s 			page 32


 1768 0cc9 02       		.byte	0x2
 1769 0cca 00       		.byte	0
 1770 0ccb 03       		.uleb128 0x3
 1771 0ccc 400E0000 		.4byte	.LASF184
 1772 0cd0 16       		.byte	0x16
 1773 0cd1 41       		.byte	0x41
 1774 0cd2 AB0C0000 		.4byte	0xcab
 1775 0cd6 1C       		.uleb128 0x1c
 1776 0cd7 07       		.byte	0x7
 1777 0cd8 01       		.byte	0x1
 1778 0cd9 63000000 		.4byte	0x63
 1779 0cdd 16       		.byte	0x16
 1780 0cde 46       		.byte	0x46
 1781 0cdf F60C0000 		.4byte	0xcf6
 1782 0ce3 1D       		.uleb128 0x1d
 1783 0ce4 0E0F0000 		.4byte	.LASF185
 1784 0ce8 00       		.byte	0
 1785 0ce9 1D       		.uleb128 0x1d
 1786 0cea 89090000 		.4byte	.LASF186
 1787 0cee 01       		.byte	0x1
 1788 0cef 1D       		.uleb128 0x1d
 1789 0cf0 BF0C0000 		.4byte	.LASF187
 1790 0cf4 02       		.byte	0x2
 1791 0cf5 00       		.byte	0
 1792 0cf6 03       		.uleb128 0x3
 1793 0cf7 70020000 		.4byte	.LASF188
 1794 0cfb 16       		.byte	0x16
 1795 0cfc 4A       		.byte	0x4a
 1796 0cfd D60C0000 		.4byte	0xcd6
 1797 0d01 1C       		.uleb128 0x1c
 1798 0d02 07       		.byte	0x7
 1799 0d03 01       		.byte	0x1
 1800 0d04 63000000 		.4byte	0x63
 1801 0d08 16       		.byte	0x16
 1802 0d09 4F       		.byte	0x4f
 1803 0d0a 210D0000 		.4byte	0xd21
 1804 0d0e 1D       		.uleb128 0x1d
 1805 0d0f 640D0000 		.4byte	.LASF189
 1806 0d13 00       		.byte	0
 1807 0d14 1D       		.uleb128 0x1d
 1808 0d15 AB0A0000 		.4byte	.LASF190
 1809 0d19 01       		.byte	0x1
 1810 0d1a 1D       		.uleb128 0x1d
 1811 0d1b 1D070000 		.4byte	.LASF191
 1812 0d1f 02       		.byte	0x2
 1813 0d20 00       		.byte	0
 1814 0d21 03       		.uleb128 0x3
 1815 0d22 D00C0000 		.4byte	.LASF192
 1816 0d26 16       		.byte	0x16
 1817 0d27 53       		.byte	0x53
 1818 0d28 010D0000 		.4byte	0xd01
 1819 0d2c 14       		.uleb128 0x14
 1820 0d2d 6E080000 		.4byte	.LASF193
 1821 0d31 17       		.byte	0x17
 1822 0d32 B101     		.2byte	0x1b1
 1823 0d34 E9000000 		.4byte	0xe9
 1824 0d38 14       		.uleb128 0x14
ARM GAS  /tmp/cckjBIeA.s 			page 33


 1825 0d39 D2010000 		.4byte	.LASF194
 1826 0d3d 17       		.byte	0x17
 1827 0d3e B601     		.2byte	0x1b6
 1828 0d40 440D0000 		.4byte	0xd44
 1829 0d44 0C       		.uleb128 0xc
 1830 0d45 D2010000 		.4byte	.LASF194
 1831 0d49 1C       		.byte	0x1c
 1832 0d4a 17       		.byte	0x17
 1833 0d4b FE01     		.2byte	0x1fe
 1834 0d4d C70D0000 		.4byte	0xdc7
 1835 0d51 0A       		.uleb128 0xa
 1836 0d52 F4000000 		.4byte	.LASF195
 1837 0d56 17       		.byte	0x17
 1838 0d57 0202     		.2byte	0x202
 1839 0d59 CB0C0000 		.4byte	0xccb
 1840 0d5d 00       		.byte	0
 1841 0d5e 0A       		.uleb128 0xa
 1842 0d5f 5F020000 		.4byte	.LASF196
 1843 0d63 17       		.byte	0x17
 1844 0d64 0602     		.2byte	0x206
 1845 0d66 F60C0000 		.4byte	0xcf6
 1846 0d6a 01       		.byte	0x1
 1847 0d6b 0A       		.uleb128 0xa
 1848 0d6c 09010000 		.4byte	.LASF197
 1849 0d70 17       		.byte	0x17
 1850 0d71 0A02     		.2byte	0x20a
 1851 0d73 210D0000 		.4byte	0xd21
 1852 0d77 02       		.byte	0x2
 1853 0d78 0A       		.uleb128 0xa
 1854 0d79 ED000000 		.4byte	.LASF198
 1855 0d7d 17       		.byte	0x17
 1856 0d7e 0E02     		.2byte	0x20e
 1857 0d80 BE0E0000 		.4byte	0xebe
 1858 0d84 04       		.byte	0x4
 1859 0d85 0A       		.uleb128 0xa
 1860 0d86 86020000 		.4byte	.LASF199
 1861 0d8a 17       		.byte	0x17
 1862 0d8b 1602     		.2byte	0x216
 1863 0d8d C40E0000 		.4byte	0xec4
 1864 0d91 08       		.byte	0x8
 1865 0d92 0A       		.uleb128 0xa
 1866 0d93 4D080000 		.4byte	.LASF200
 1867 0d97 17       		.byte	0x17
 1868 0d98 1A02     		.2byte	0x21a
 1869 0d9a E9000000 		.4byte	0xe9
 1870 0d9e 0C       		.byte	0xc
 1871 0d9f 0A       		.uleb128 0xa
 1872 0da0 60070000 		.4byte	.LASF201
 1873 0da4 17       		.byte	0x17
 1874 0da5 1E02     		.2byte	0x21e
 1875 0da7 CA0E0000 		.4byte	0xeca
 1876 0dab 10       		.byte	0x10
 1877 0dac 0A       		.uleb128 0xa
 1878 0dad 7A080000 		.4byte	.LASF202
 1879 0db1 17       		.byte	0x17
 1880 0db2 2202     		.2byte	0x222
 1881 0db4 CA0E0000 		.4byte	0xeca
ARM GAS  /tmp/cckjBIeA.s 			page 34


 1882 0db8 14       		.byte	0x14
 1883 0db9 0A       		.uleb128 0xa
 1884 0dba E5090000 		.4byte	.LASF203
 1885 0dbe 17       		.byte	0x17
 1886 0dbf 2602     		.2byte	0x226
 1887 0dc1 D4000000 		.4byte	0xd4
 1888 0dc5 18       		.byte	0x18
 1889 0dc6 00       		.byte	0
 1890 0dc7 14       		.uleb128 0x14
 1891 0dc8 1B0F0000 		.4byte	.LASF204
 1892 0dcc 17       		.byte	0x17
 1893 0dcd BD01     		.2byte	0x1bd
 1894 0dcf D30D0000 		.4byte	0xdd3
 1895 0dd3 0B       		.uleb128 0xb
 1896 0dd4 04       		.byte	0x4
 1897 0dd5 D90D0000 		.4byte	0xdd9
 1898 0dd9 0D       		.uleb128 0xd
 1899 0dda E40D0000 		.4byte	0xde4
 1900 0dde 0E       		.uleb128 0xe
 1901 0ddf E40D0000 		.4byte	0xde4
 1902 0de3 00       		.byte	0
 1903 0de4 0B       		.uleb128 0xb
 1904 0de5 04       		.byte	0x4
 1905 0de6 380D0000 		.4byte	0xd38
 1906 0dea 14       		.uleb128 0x14
 1907 0deb 070D0000 		.4byte	.LASF205
 1908 0def 17       		.byte	0x17
 1909 0df0 C501     		.2byte	0x1c5
 1910 0df2 F60D0000 		.4byte	0xdf6
 1911 0df6 0B       		.uleb128 0xb
 1912 0df7 04       		.byte	0x4
 1913 0df8 FC0D0000 		.4byte	0xdfc
 1914 0dfc 0D       		.uleb128 0xd
 1915 0dfd 0C0E0000 		.4byte	0xe0c
 1916 0e01 0E       		.uleb128 0xe
 1917 0e02 E40D0000 		.4byte	0xde4
 1918 0e06 0E       		.uleb128 0xe
 1919 0e07 C9000000 		.4byte	0xc9
 1920 0e0b 00       		.byte	0
 1921 0e0c 14       		.uleb128 0x14
 1922 0e0d C3060000 		.4byte	.LASF206
 1923 0e11 17       		.byte	0x17
 1924 0e12 CD01     		.2byte	0x1cd
 1925 0e14 180E0000 		.4byte	0xe18
 1926 0e18 0B       		.uleb128 0xb
 1927 0e19 04       		.byte	0x4
 1928 0e1a 1E0E0000 		.4byte	0xe1e
 1929 0e1e 0D       		.uleb128 0xd
 1930 0e1f 2E0E0000 		.4byte	0xe2e
 1931 0e23 0E       		.uleb128 0xe
 1932 0e24 E40D0000 		.4byte	0xde4
 1933 0e28 0E       		.uleb128 0xe
 1934 0e29 2C0D0000 		.4byte	0xd2c
 1935 0e2d 00       		.byte	0
 1936 0e2e 13       		.uleb128 0x13
 1937 0e2f 20       		.byte	0x20
 1938 0e30 17       		.byte	0x17
ARM GAS  /tmp/cckjBIeA.s 			page 35


 1939 0e31 D301     		.2byte	0x1d3
 1940 0e33 AD0E0000 		.4byte	0xead
 1941 0e37 0A       		.uleb128 0xa
 1942 0e38 4E0D0000 		.4byte	.LASF207
 1943 0e3c 17       		.byte	0x17
 1944 0e3d D701     		.2byte	0x1d7
 1945 0e3f C70D0000 		.4byte	0xdc7
 1946 0e43 00       		.byte	0
 1947 0e44 0A       		.uleb128 0xa
 1948 0e45 86060000 		.4byte	.LASF208
 1949 0e49 17       		.byte	0x17
 1950 0e4a DB01     		.2byte	0x1db
 1951 0e4c C70D0000 		.4byte	0xdc7
 1952 0e50 04       		.byte	0x4
 1953 0e51 0A       		.uleb128 0xa
 1954 0e52 2C010000 		.4byte	.LASF209
 1955 0e56 17       		.byte	0x17
 1956 0e57 DF01     		.2byte	0x1df
 1957 0e59 C70D0000 		.4byte	0xdc7
 1958 0e5d 08       		.byte	0x8
 1959 0e5e 0A       		.uleb128 0xa
 1960 0e5f CC040000 		.4byte	.LASF210
 1961 0e63 17       		.byte	0x17
 1962 0e64 E301     		.2byte	0x1e3
 1963 0e66 EA0D0000 		.4byte	0xdea
 1964 0e6a 0C       		.byte	0xc
 1965 0e6b 0A       		.uleb128 0xa
 1966 0e6c A0080000 		.4byte	.LASF211
 1967 0e70 17       		.byte	0x17
 1968 0e71 E701     		.2byte	0x1e7
 1969 0e73 0C0E0000 		.4byte	0xe0c
 1970 0e77 10       		.byte	0x10
 1971 0e78 0A       		.uleb128 0xa
 1972 0e79 05050000 		.4byte	.LASF212
 1973 0e7d 17       		.byte	0x17
 1974 0e7e EC01     		.2byte	0x1ec
 1975 0e80 E9000000 		.4byte	0xe9
 1976 0e84 14       		.byte	0x14
 1977 0e85 09       		.uleb128 0x9
 1978 0e86 63723100 		.ascii	"cr1\000"
 1979 0e8a 17       		.byte	0x17
 1980 0e8b F001     		.2byte	0x1f0
 1981 0e8d C9000000 		.4byte	0xc9
 1982 0e91 18       		.byte	0x18
 1983 0e92 09       		.uleb128 0x9
 1984 0e93 63723200 		.ascii	"cr2\000"
 1985 0e97 17       		.byte	0x17
 1986 0e98 F401     		.2byte	0x1f4
 1987 0e9a C9000000 		.4byte	0xc9
 1988 0e9e 1A       		.byte	0x1a
 1989 0e9f 09       		.uleb128 0x9
 1990 0ea0 63723300 		.ascii	"cr3\000"
 1991 0ea4 17       		.byte	0x17
 1992 0ea5 F801     		.2byte	0x1f8
 1993 0ea7 C9000000 		.4byte	0xc9
 1994 0eab 1C       		.byte	0x1c
 1995 0eac 00       		.byte	0
ARM GAS  /tmp/cckjBIeA.s 			page 36


 1996 0ead 14       		.uleb128 0x14
 1997 0eae F1050000 		.4byte	.LASF213
 1998 0eb2 17       		.byte	0x17
 1999 0eb3 F901     		.2byte	0x1f9
 2000 0eb5 2E0E0000 		.4byte	0xe2e
 2001 0eb9 06       		.uleb128 0x6
 2002 0eba AD0E0000 		.4byte	0xead
 2003 0ebe 0B       		.uleb128 0xb
 2004 0ebf 04       		.byte	0x4
 2005 0ec0 B90E0000 		.4byte	0xeb9
 2006 0ec4 0B       		.uleb128 0xb
 2007 0ec5 04       		.byte	0x4
 2008 0ec6 84050000 		.4byte	0x584
 2009 0eca 0B       		.uleb128 0xb
 2010 0ecb 04       		.byte	0x4
 2011 0ecc 850B0000 		.4byte	0xb85
 2012 0ed0 11       		.uleb128 0x11
 2013 0ed1 05100000 		.4byte	.LASF214
 2014 0ed5 17       		.byte	0x17
 2015 0ed6 3A02     		.2byte	0x23a
 2016 0ed8 380D0000 		.4byte	0xd38
 2017 0edc 03       		.uleb128 0x3
 2018 0edd 01040000 		.4byte	.LASF215
 2019 0ee1 18       		.byte	0x18
 2020 0ee2 FA       		.byte	0xfa
 2021 0ee3 E70E0000 		.4byte	0xee7
 2022 0ee7 10       		.uleb128 0x10
 2023 0ee8 01040000 		.4byte	.LASF215
 2024 0eec 3802     		.2byte	0x238
 2025 0eee 19       		.byte	0x19
 2026 0eef 7701     		.2byte	0x177
 2027 0ef1 13100000 		.4byte	0x1013
 2028 0ef5 0A       		.uleb128 0xa
 2029 0ef6 F4000000 		.4byte	.LASF195
 2030 0efa 19       		.byte	0x19
 2031 0efb 7B01     		.2byte	0x17b
 2032 0efd 4B100000 		.4byte	0x104b
 2033 0f01 00       		.byte	0
 2034 0f02 0A       		.uleb128 0xa
 2035 0f03 ED000000 		.4byte	.LASF198
 2036 0f07 19       		.byte	0x19
 2037 0f08 7F01     		.2byte	0x17f
 2038 0f0a 6E190000 		.4byte	0x196e
 2039 0f0e 04       		.byte	0x4
 2040 0f0f 0A       		.uleb128 0xa
 2041 0f10 84040000 		.4byte	.LASF216
 2042 0f14 19       		.byte	0x19
 2043 0f15 8301     		.2byte	0x183
 2044 0f17 C9000000 		.4byte	0xc9
 2045 0f1b 08       		.byte	0x8
 2046 0f1c 0A       		.uleb128 0xa
 2047 0f1d EC030000 		.4byte	.LASF217
 2048 0f21 19       		.byte	0x19
 2049 0f22 8701     		.2byte	0x187
 2050 0f24 C9000000 		.4byte	0xc9
 2051 0f28 0A       		.byte	0xa
 2052 0f29 09       		.uleb128 0x9
ARM GAS  /tmp/cckjBIeA.s 			page 37


 2053 0f2a 65706300 		.ascii	"epc\000"
 2054 0f2e 19       		.byte	0x19
 2055 0f2f 8B01     		.2byte	0x18b
 2056 0f31 74190000 		.4byte	0x1974
 2057 0f35 0C       		.byte	0xc
 2058 0f36 0A       		.uleb128 0xa
 2059 0f37 790D0000 		.4byte	.LASF218
 2060 0f3b 19       		.byte	0x19
 2061 0f3c 9201     		.2byte	0x192
 2062 0f3e 8A190000 		.4byte	0x198a
 2063 0f42 1C       		.byte	0x1c
 2064 0f43 0A       		.uleb128 0xa
 2065 0f44 EE0F0000 		.4byte	.LASF219
 2066 0f48 19       		.byte	0x19
 2067 0f49 9901     		.2byte	0x199
 2068 0f4b 8A190000 		.4byte	0x198a
 2069 0f4f 28       		.byte	0x28
 2070 0f50 0A       		.uleb128 0xa
 2071 0f51 4B030000 		.4byte	.LASF220
 2072 0f55 19       		.byte	0x19
 2073 0f56 9D01     		.2byte	0x19d
 2074 0f58 90100000 		.4byte	0x1090
 2075 0f5c 34       		.byte	0x34
 2076 0f5d 0A       		.uleb128 0xa
 2077 0f5e F0070000 		.4byte	.LASF221
 2078 0f62 19       		.byte	0x19
 2079 0f63 A101     		.2byte	0x1a1
 2080 0f65 070B0000 		.4byte	0xb07
 2081 0f69 38       		.byte	0x38
 2082 0f6a 0A       		.uleb128 0xa
 2083 0f6b D2030000 		.4byte	.LASF222
 2084 0f6f 19       		.byte	0x19
 2085 0f70 A501     		.2byte	0x1a5
 2086 0f72 2C000000 		.4byte	0x2c
 2087 0f76 3C       		.byte	0x3c
 2088 0f77 0A       		.uleb128 0xa
 2089 0f78 34060000 		.4byte	.LASF223
 2090 0f7c 19       		.byte	0x19
 2091 0f7d A901     		.2byte	0x1a9
 2092 0f7f 10110000 		.4byte	0x1110
 2093 0f83 40       		.byte	0x40
 2094 0f84 0A       		.uleb128 0xa
 2095 0f85 FF040000 		.4byte	.LASF224
 2096 0f89 19       		.byte	0x19
 2097 0f8a AD01     		.2byte	0x1ad
 2098 0f8c 9A190000 		.4byte	0x199a
 2099 0f90 44       		.byte	0x44
 2100 0f91 0A       		.uleb128 0xa
 2101 0f92 FC050000 		.4byte	.LASF225
 2102 0f96 19       		.byte	0x19
 2103 0f97 B101     		.2byte	0x1b1
 2104 0f99 C9000000 		.4byte	0xc9
 2105 0f9d 4C       		.byte	0x4c
 2106 0f9e 0A       		.uleb128 0xa
 2107 0f9f 08060000 		.4byte	.LASF226
 2108 0fa3 19       		.byte	0x19
 2109 0fa4 B501     		.2byte	0x1b5
ARM GAS  /tmp/cckjBIeA.s 			page 38


 2110 0fa6 B9000000 		.4byte	0xb9
 2111 0faa 4E       		.byte	0x4e
 2112 0fab 0A       		.uleb128 0xa
 2113 0fac 8A050000 		.4byte	.LASF227
 2114 0fb0 19       		.byte	0x19
 2115 0fb1 B901     		.2byte	0x1b9
 2116 0fb3 B9000000 		.4byte	0xb9
 2117 0fb7 4F       		.byte	0x4f
 2118 0fb8 09       		.uleb128 0x9
 2119 0fb9 6F746700 		.ascii	"otg\000"
 2120 0fbd 19       		.byte	0x19
 2121 0fbe C101     		.2byte	0x1c1
 2122 0fc0 AA190000 		.4byte	0x19aa
 2123 0fc4 50       		.byte	0x50
 2124 0fc5 0A       		.uleb128 0xa
 2125 0fc6 0B0A0000 		.4byte	.LASF228
 2126 0fca 19       		.byte	0x19
 2127 0fcb C501     		.2byte	0x1c5
 2128 0fcd B0190000 		.4byte	0x19b0
 2129 0fd1 54       		.byte	0x54
 2130 0fd2 0A       		.uleb128 0xa
 2131 0fd3 71100000 		.4byte	.LASF229
 2132 0fd7 19       		.byte	0x19
 2133 0fd8 C901     		.2byte	0x1c9
 2134 0fda E9000000 		.4byte	0xe9
 2135 0fde 58       		.byte	0x58
 2136 0fdf 0A       		.uleb128 0xa
 2137 0fe0 C8080000 		.4byte	.LASF230
 2138 0fe4 19       		.byte	0x19
 2139 0fe5 CD01     		.2byte	0x1cd
 2140 0fe7 E9000000 		.4byte	0xe9
 2141 0feb 5C       		.byte	0x5c
 2142 0fec 0A       		.uleb128 0xa
 2143 0fed 55080000 		.4byte	.LASF231
 2144 0ff1 19       		.byte	0x19
 2145 0ff2 D101     		.2byte	0x1d1
 2146 0ff4 5F020000 		.4byte	0x25f
 2147 0ff8 60       		.byte	0x60
 2148 0ff9 09       		.uleb128 0x9
 2149 0ffa 747200   		.ascii	"tr\000"
 2150 0ffd 19       		.byte	0x19
 2151 0ffe D601     		.2byte	0x1d6
 2152 1000 5F020000 		.4byte	0x25f
 2153 1004 64       		.byte	0x64
 2154 1005 0A       		.uleb128 0xa
 2155 1006 710D0000 		.4byte	.LASF232
 2156 100a 19       		.byte	0x19
 2157 100b DA01     		.2byte	0x1da
 2158 100d B6190000 		.4byte	0x19b6
 2159 1011 68       		.byte	0x68
 2160 1012 00       		.byte	0
 2161 1013 03       		.uleb128 0x3
 2162 1014 550F0000 		.4byte	.LASF233
 2163 1018 18       		.byte	0x18
 2164 1019 FF       		.byte	0xff
 2165 101a B9000000 		.4byte	0xb9
 2166 101e 1E       		.uleb128 0x1e
ARM GAS  /tmp/cckjBIeA.s 			page 39


 2167 101f 07       		.byte	0x7
 2168 1020 01       		.byte	0x1
 2169 1021 63000000 		.4byte	0x63
 2170 1025 18       		.byte	0x18
 2171 1026 0401     		.2byte	0x104
 2172 1028 4B100000 		.4byte	0x104b
 2173 102c 1D       		.uleb128 0x1d
 2174 102d 2A0A0000 		.4byte	.LASF234
 2175 1031 00       		.byte	0
 2176 1032 1D       		.uleb128 0x1d
 2177 1033 D4060000 		.4byte	.LASF235
 2178 1037 01       		.byte	0x1
 2179 1038 1D       		.uleb128 0x1d
 2180 1039 BA070000 		.4byte	.LASF236
 2181 103d 02       		.byte	0x2
 2182 103e 1D       		.uleb128 0x1d
 2183 103f 58050000 		.4byte	.LASF237
 2184 1043 03       		.byte	0x3
 2185 1044 1D       		.uleb128 0x1d
 2186 1045 1C010000 		.4byte	.LASF238
 2187 1049 04       		.byte	0x4
 2188 104a 00       		.byte	0
 2189 104b 14       		.uleb128 0x14
 2190 104c 02070000 		.4byte	.LASF239
 2191 1050 18       		.byte	0x18
 2192 1051 0A01     		.2byte	0x10a
 2193 1053 1E100000 		.4byte	0x101e
 2194 1057 1E       		.uleb128 0x1e
 2195 1058 07       		.byte	0x7
 2196 1059 01       		.byte	0x1
 2197 105a 63000000 		.4byte	0x63
 2198 105e 18       		.byte	0x18
 2199 105f 1801     		.2byte	0x118
 2200 1061 90100000 		.4byte	0x1090
 2201 1065 1D       		.uleb128 0x1d
 2202 1066 41020000 		.4byte	.LASF240
 2203 106a 00       		.byte	0
 2204 106b 1D       		.uleb128 0x1d
 2205 106c CD000000 		.4byte	.LASF241
 2206 1070 01       		.byte	0x1
 2207 1071 1D       		.uleb128 0x1d
 2208 1072 EB090000 		.4byte	.LASF242
 2209 1076 02       		.byte	0x2
 2210 1077 1D       		.uleb128 0x1d
 2211 1078 4F100000 		.4byte	.LASF243
 2212 107c 03       		.byte	0x3
 2213 107d 1D       		.uleb128 0x1d
 2214 107e 90100000 		.4byte	.LASF244
 2215 1082 04       		.byte	0x4
 2216 1083 1D       		.uleb128 0x1d
 2217 1084 30100000 		.4byte	.LASF245
 2218 1088 05       		.byte	0x5
 2219 1089 1D       		.uleb128 0x1d
 2220 108a 09030000 		.4byte	.LASF246
 2221 108e 06       		.byte	0x6
 2222 108f 00       		.byte	0
 2223 1090 14       		.uleb128 0x14
ARM GAS  /tmp/cckjBIeA.s 			page 40


 2224 1091 60010000 		.4byte	.LASF247
 2225 1095 18       		.byte	0x18
 2226 1096 2001     		.2byte	0x120
 2227 1098 57100000 		.4byte	0x1057
 2228 109c 1E       		.uleb128 0x1e
 2229 109d 07       		.byte	0x7
 2230 109e 01       		.byte	0x1
 2231 109f 63000000 		.4byte	0x63
 2232 10a3 18       		.byte	0x18
 2233 10a4 2501     		.2byte	0x125
 2234 10a6 CF100000 		.4byte	0x10cf
 2235 10aa 1D       		.uleb128 0x1d
 2236 10ab F90D0000 		.4byte	.LASF248
 2237 10af 00       		.byte	0
 2238 10b0 1D       		.uleb128 0x1d
 2239 10b1 A6010000 		.4byte	.LASF249
 2240 10b5 01       		.byte	0x1
 2241 10b6 1D       		.uleb128 0x1d
 2242 10b7 F20C0000 		.4byte	.LASF250
 2243 10bb 02       		.byte	0x2
 2244 10bc 1D       		.uleb128 0x1d
 2245 10bd C50F0000 		.4byte	.LASF251
 2246 10c1 03       		.byte	0x3
 2247 10c2 1D       		.uleb128 0x1d
 2248 10c3 77070000 		.4byte	.LASF252
 2249 10c7 04       		.byte	0x4
 2250 10c8 1D       		.uleb128 0x1d
 2251 10c9 BA020000 		.4byte	.LASF253
 2252 10cd 05       		.byte	0x5
 2253 10ce 00       		.byte	0
 2254 10cf 14       		.uleb128 0x14
 2255 10d0 1D050000 		.4byte	.LASF254
 2256 10d4 18       		.byte	0x18
 2257 10d5 2C01     		.2byte	0x12c
 2258 10d7 9C100000 		.4byte	0x109c
 2259 10db 13       		.uleb128 0x13
 2260 10dc 08       		.byte	0x8
 2261 10dd 18       		.byte	0x18
 2262 10de 3101     		.2byte	0x131
 2263 10e0 FF100000 		.4byte	0x10ff
 2264 10e4 0A       		.uleb128 0xa
 2265 10e5 36050000 		.4byte	.LASF255
 2266 10e9 18       		.byte	0x18
 2267 10ea 3501     		.2byte	0x135
 2268 10ec 2C000000 		.4byte	0x2c
 2269 10f0 00       		.byte	0
 2270 10f1 0A       		.uleb128 0xa
 2271 10f2 3F070000 		.4byte	.LASF256
 2272 10f6 18       		.byte	0x18
 2273 10f7 3901     		.2byte	0x139
 2274 10f9 230B0000 		.4byte	0xb23
 2275 10fd 04       		.byte	0x4
 2276 10fe 00       		.byte	0
 2277 10ff 14       		.uleb128 0x14
 2278 1100 DE040000 		.4byte	.LASF257
 2279 1104 18       		.byte	0x18
 2280 1105 3A01     		.2byte	0x13a
ARM GAS  /tmp/cckjBIeA.s 			page 41


 2281 1107 DB100000 		.4byte	0x10db
 2282 110b 06       		.uleb128 0x6
 2283 110c FF100000 		.4byte	0x10ff
 2284 1110 14       		.uleb128 0x14
 2285 1111 A90E0000 		.4byte	.LASF258
 2286 1115 18       		.byte	0x18
 2287 1116 4201     		.2byte	0x142
 2288 1118 1C110000 		.4byte	0x111c
 2289 111c 0B       		.uleb128 0xb
 2290 111d 04       		.byte	0x4
 2291 111e 22110000 		.4byte	0x1122
 2292 1122 0D       		.uleb128 0xd
 2293 1123 2D110000 		.4byte	0x112d
 2294 1127 0E       		.uleb128 0xe
 2295 1128 2D110000 		.4byte	0x112d
 2296 112c 00       		.byte	0
 2297 112d 0B       		.uleb128 0xb
 2298 112e 04       		.byte	0x4
 2299 112f DC0E0000 		.4byte	0xedc
 2300 1133 14       		.uleb128 0x14
 2301 1134 0E080000 		.4byte	.LASF259
 2302 1138 18       		.byte	0x18
 2303 1139 4B01     		.2byte	0x14b
 2304 113b 3F110000 		.4byte	0x113f
 2305 113f 0B       		.uleb128 0xb
 2306 1140 04       		.byte	0x4
 2307 1141 45110000 		.4byte	0x1145
 2308 1145 0D       		.uleb128 0xd
 2309 1146 55110000 		.4byte	0x1155
 2310 114a 0E       		.uleb128 0xe
 2311 114b 2D110000 		.4byte	0x112d
 2312 114f 0E       		.uleb128 0xe
 2313 1150 13100000 		.4byte	0x1013
 2314 1154 00       		.byte	0
 2315 1155 14       		.uleb128 0x14
 2316 1156 44040000 		.4byte	.LASF260
 2317 115a 18       		.byte	0x18
 2318 115b 5401     		.2byte	0x154
 2319 115d 61110000 		.4byte	0x1161
 2320 1161 0B       		.uleb128 0xb
 2321 1162 04       		.byte	0x4
 2322 1163 67110000 		.4byte	0x1167
 2323 1167 0D       		.uleb128 0xd
 2324 1168 77110000 		.4byte	0x1177
 2325 116c 0E       		.uleb128 0xe
 2326 116d 2D110000 		.4byte	0x112d
 2327 1171 0E       		.uleb128 0xe
 2328 1172 CF100000 		.4byte	0x10cf
 2329 1176 00       		.byte	0
 2330 1177 14       		.uleb128 0x14
 2331 1178 870E0000 		.4byte	.LASF261
 2332 117c 18       		.byte	0x18
 2333 117d 6001     		.2byte	0x160
 2334 117f 83110000 		.4byte	0x1183
 2335 1183 0B       		.uleb128 0xb
 2336 1184 04       		.byte	0x4
 2337 1185 89110000 		.4byte	0x1189
ARM GAS  /tmp/cckjBIeA.s 			page 42


 2338 1189 1F       		.uleb128 0x1f
 2339 118a AB0B0000 		.4byte	0xbab
 2340 118e 98110000 		.4byte	0x1198
 2341 1192 0E       		.uleb128 0xe
 2342 1193 2D110000 		.4byte	0x112d
 2343 1197 00       		.byte	0
 2344 1198 14       		.uleb128 0x14
 2345 1199 3B0D0000 		.4byte	.LASF262
 2346 119d 18       		.byte	0x18
 2347 119e 6501     		.2byte	0x165
 2348 11a0 A4110000 		.4byte	0x11a4
 2349 11a4 0B       		.uleb128 0xb
 2350 11a5 04       		.byte	0x4
 2351 11a6 AA110000 		.4byte	0x11aa
 2352 11aa 1F       		.uleb128 0x1f
 2353 11ab C8110000 		.4byte	0x11c8
 2354 11af C8110000 		.4byte	0x11c8
 2355 11b3 0E       		.uleb128 0xe
 2356 11b4 2D110000 		.4byte	0x112d
 2357 11b8 0E       		.uleb128 0xe
 2358 11b9 B9000000 		.4byte	0xb9
 2359 11bd 0E       		.uleb128 0xe
 2360 11be B9000000 		.4byte	0xb9
 2361 11c2 0E       		.uleb128 0xe
 2362 11c3 C9000000 		.4byte	0xc9
 2363 11c7 00       		.byte	0
 2364 11c8 0B       		.uleb128 0xb
 2365 11c9 04       		.byte	0x4
 2366 11ca 0B110000 		.4byte	0x110b
 2367 11ce 18       		.uleb128 0x18
 2368 11cf 20       		.byte	0x20
 2369 11d0 1A       		.byte	0x1a
 2370 11d1 35       		.byte	0x35
 2371 11d2 37120000 		.4byte	0x1237
 2372 11d6 08       		.uleb128 0x8
 2373 11d7 88030000 		.4byte	.LASF263
 2374 11db 1A       		.byte	0x1a
 2375 11dc 36       		.byte	0x36
 2376 11dd F4000000 		.4byte	0xf4
 2377 11e1 00       		.byte	0
 2378 11e2 08       		.uleb128 0x8
 2379 11e3 8B000000 		.4byte	.LASF264
 2380 11e7 1A       		.byte	0x1a
 2381 11e8 38       		.byte	0x38
 2382 11e9 F4000000 		.4byte	0xf4
 2383 11ed 04       		.byte	0x4
 2384 11ee 08       		.uleb128 0x8
 2385 11ef BA0A0000 		.4byte	.LASF265
 2386 11f3 1A       		.byte	0x1a
 2387 11f4 39       		.byte	0x39
 2388 11f5 F4000000 		.4byte	0xf4
 2389 11f9 08       		.byte	0x8
 2390 11fa 08       		.uleb128 0x8
 2391 11fb F50A0000 		.4byte	.LASF266
 2392 11ff 1A       		.byte	0x1a
 2393 1200 3A       		.byte	0x3a
 2394 1201 F4000000 		.4byte	0xf4
ARM GAS  /tmp/cckjBIeA.s 			page 43


 2395 1205 0C       		.byte	0xc
 2396 1206 08       		.uleb128 0x8
 2397 1207 DD000000 		.4byte	.LASF267
 2398 120b 1A       		.byte	0x1a
 2399 120c 3C       		.byte	0x3c
 2400 120d F4000000 		.4byte	0xf4
 2401 1211 10       		.byte	0x10
 2402 1212 08       		.uleb128 0x8
 2403 1213 090E0000 		.4byte	.LASF268
 2404 1217 1A       		.byte	0x1a
 2405 1218 3E       		.byte	0x3e
 2406 1219 F4000000 		.4byte	0xf4
 2407 121d 14       		.byte	0x14
 2408 121e 08       		.uleb128 0x8
 2409 121f 110E0000 		.4byte	.LASF269
 2410 1223 1A       		.byte	0x1a
 2411 1224 3F       		.byte	0x3f
 2412 1225 F4000000 		.4byte	0xf4
 2413 1229 18       		.byte	0x18
 2414 122a 08       		.uleb128 0x8
 2415 122b 740E0000 		.4byte	.LASF270
 2416 122f 1A       		.byte	0x1a
 2417 1230 40       		.byte	0x40
 2418 1231 F4000000 		.4byte	0xf4
 2419 1235 1C       		.byte	0x1c
 2420 1236 00       		.byte	0
 2421 1237 03       		.uleb128 0x3
 2422 1238 6F040000 		.4byte	.LASF271
 2423 123c 1A       		.byte	0x1a
 2424 123d 41       		.byte	0x41
 2425 123e CE110000 		.4byte	0x11ce
 2426 1242 18       		.uleb128 0x18
 2427 1243 20       		.byte	0x20
 2428 1244 1A       		.byte	0x1a
 2429 1245 46       		.byte	0x46
 2430 1246 AB120000 		.4byte	0x12ab
 2431 124a 08       		.uleb128 0x8
 2432 124b 970E0000 		.4byte	.LASF272
 2433 124f 1A       		.byte	0x1a
 2434 1250 47       		.byte	0x47
 2435 1251 F4000000 		.4byte	0xf4
 2436 1255 00       		.byte	0
 2437 1256 08       		.uleb128 0x8
 2438 1257 84000000 		.4byte	.LASF273
 2439 125b 1A       		.byte	0x1a
 2440 125c 49       		.byte	0x49
 2441 125d F4000000 		.4byte	0xf4
 2442 1261 04       		.byte	0x4
 2443 1262 08       		.uleb128 0x8
 2444 1263 CE0E0000 		.4byte	.LASF274
 2445 1267 1A       		.byte	0x1a
 2446 1268 4A       		.byte	0x4a
 2447 1269 F4000000 		.4byte	0xf4
 2448 126d 08       		.byte	0x8
 2449 126e 08       		.uleb128 0x8
 2450 126f A6000000 		.4byte	.LASF275
 2451 1273 1A       		.byte	0x1a
ARM GAS  /tmp/cckjBIeA.s 			page 44


 2452 1274 4C       		.byte	0x4c
 2453 1275 F4000000 		.4byte	0xf4
 2454 1279 0C       		.byte	0xc
 2455 127a 08       		.uleb128 0x8
 2456 127b 63030000 		.4byte	.LASF276
 2457 127f 1A       		.byte	0x1a
 2458 1280 4D       		.byte	0x4d
 2459 1281 F4000000 		.4byte	0xf4
 2460 1285 10       		.byte	0x10
 2461 1286 08       		.uleb128 0x8
 2462 1287 090E0000 		.4byte	.LASF268
 2463 128b 1A       		.byte	0x1a
 2464 128c 4F       		.byte	0x4f
 2465 128d F4000000 		.4byte	0xf4
 2466 1291 14       		.byte	0x14
 2467 1292 08       		.uleb128 0x8
 2468 1293 190E0000 		.4byte	.LASF277
 2469 1297 1A       		.byte	0x1a
 2470 1298 50       		.byte	0x50
 2471 1299 F4000000 		.4byte	0xf4
 2472 129d 18       		.byte	0x18
 2473 129e 08       		.uleb128 0x8
 2474 129f 290E0000 		.4byte	.LASF278
 2475 12a3 1A       		.byte	0x1a
 2476 12a4 52       		.byte	0x52
 2477 12a5 F4000000 		.4byte	0xf4
 2478 12a9 1C       		.byte	0x1c
 2479 12aa 00       		.byte	0
 2480 12ab 03       		.uleb128 0x3
 2481 12ac AD0C0000 		.4byte	.LASF279
 2482 12b0 1A       		.byte	0x1a
 2483 12b1 53       		.byte	0x53
 2484 12b2 42120000 		.4byte	0x1242
 2485 12b6 18       		.uleb128 0x18
 2486 12b7 20       		.byte	0x20
 2487 12b8 1A       		.byte	0x1a
 2488 12b9 58       		.byte	0x58
 2489 12ba 1F130000 		.4byte	0x131f
 2490 12be 08       		.uleb128 0x8
 2491 12bf 7E020000 		.4byte	.LASF280
 2492 12c3 1A       		.byte	0x1a
 2493 12c4 59       		.byte	0x59
 2494 12c5 F4000000 		.4byte	0xf4
 2495 12c9 00       		.byte	0
 2496 12ca 08       		.uleb128 0x8
 2497 12cb 84000000 		.4byte	.LASF273
 2498 12cf 1A       		.byte	0x1a
 2499 12d0 5B       		.byte	0x5b
 2500 12d1 F4000000 		.4byte	0xf4
 2501 12d5 04       		.byte	0x4
 2502 12d6 08       		.uleb128 0x8
 2503 12d7 CC020000 		.4byte	.LASF281
 2504 12db 1A       		.byte	0x1a
 2505 12dc 5C       		.byte	0x5c
 2506 12dd F4000000 		.4byte	0xf4
 2507 12e1 08       		.byte	0x8
 2508 12e2 08       		.uleb128 0x8
ARM GAS  /tmp/cckjBIeA.s 			page 45


 2509 12e3 A6000000 		.4byte	.LASF275
 2510 12e7 1A       		.byte	0x1a
 2511 12e8 5E       		.byte	0x5e
 2512 12e9 F4000000 		.4byte	0xf4
 2513 12ed 0C       		.byte	0xc
 2514 12ee 08       		.uleb128 0x8
 2515 12ef 88080000 		.4byte	.LASF282
 2516 12f3 1A       		.byte	0x1a
 2517 12f4 5F       		.byte	0x5f
 2518 12f5 F4000000 		.4byte	0xf4
 2519 12f9 10       		.byte	0x10
 2520 12fa 08       		.uleb128 0x8
 2521 12fb 090E0000 		.4byte	.LASF268
 2522 12ff 1A       		.byte	0x1a
 2523 1300 61       		.byte	0x61
 2524 1301 F4000000 		.4byte	0xf4
 2525 1305 14       		.byte	0x14
 2526 1306 08       		.uleb128 0x8
 2527 1307 110E0000 		.4byte	.LASF269
 2528 130b 1A       		.byte	0x1a
 2529 130c 62       		.byte	0x62
 2530 130d F4000000 		.4byte	0xf4
 2531 1311 18       		.byte	0x18
 2532 1312 08       		.uleb128 0x8
 2533 1313 290E0000 		.4byte	.LASF278
 2534 1317 1A       		.byte	0x1a
 2535 1318 63       		.byte	0x63
 2536 1319 F4000000 		.4byte	0xf4
 2537 131d 1C       		.byte	0x1c
 2538 131e 00       		.byte	0
 2539 131f 03       		.uleb128 0x3
 2540 1320 A1030000 		.4byte	.LASF283
 2541 1324 1A       		.byte	0x1a
 2542 1325 64       		.byte	0x64
 2543 1326 B6120000 		.4byte	0x12b6
 2544 132a 20       		.uleb128 0x20
 2545 132b 00100100 		.4byte	0x11000
 2546 132f 1A       		.byte	0x1a
 2547 1330 69       		.byte	0x69
 2548 1331 07160000 		.4byte	0x1607
 2549 1335 08       		.uleb128 0x8
 2550 1336 37070000 		.4byte	.LASF284
 2551 133a 1A       		.byte	0x1a
 2552 133b 6A       		.byte	0x6a
 2553 133c F4000000 		.4byte	0xf4
 2554 1340 00       		.byte	0
 2555 1341 08       		.uleb128 0x8
 2556 1342 A4070000 		.4byte	.LASF285
 2557 1346 1A       		.byte	0x1a
 2558 1347 6B       		.byte	0x6b
 2559 1348 F4000000 		.4byte	0xf4
 2560 134c 04       		.byte	0x4
 2561 134d 08       		.uleb128 0x8
 2562 134e 47060000 		.4byte	.LASF286
 2563 1352 1A       		.byte	0x1a
 2564 1353 6C       		.byte	0x6c
 2565 1354 F4000000 		.4byte	0xf4
ARM GAS  /tmp/cckjBIeA.s 			page 46


 2566 1358 08       		.byte	0x8
 2567 1359 08       		.uleb128 0x8
 2568 135a 81100000 		.4byte	.LASF287
 2569 135e 1A       		.byte	0x1a
 2570 135f 6D       		.byte	0x6d
 2571 1360 F4000000 		.4byte	0xf4
 2572 1364 0C       		.byte	0xc
 2573 1365 08       		.uleb128 0x8
 2574 1366 B70E0000 		.4byte	.LASF288
 2575 136a 1A       		.byte	0x1a
 2576 136b 6E       		.byte	0x6e
 2577 136c F4000000 		.4byte	0xf4
 2578 1370 10       		.byte	0x10
 2579 1371 08       		.uleb128 0x8
 2580 1372 BF0E0000 		.4byte	.LASF289
 2581 1376 1A       		.byte	0x1a
 2582 1377 6F       		.byte	0x6f
 2583 1378 F4000000 		.4byte	0xf4
 2584 137c 14       		.byte	0x14
 2585 137d 08       		.uleb128 0x8
 2586 137e 40090000 		.4byte	.LASF290
 2587 1382 1A       		.byte	0x1a
 2588 1383 70       		.byte	0x70
 2589 1384 F4000000 		.4byte	0xf4
 2590 1388 18       		.byte	0x18
 2591 1389 08       		.uleb128 0x8
 2592 138a 6F070000 		.4byte	.LASF291
 2593 138e 1A       		.byte	0x1a
 2594 138f 71       		.byte	0x71
 2595 1390 F4000000 		.4byte	0xf4
 2596 1394 1C       		.byte	0x1c
 2597 1395 08       		.uleb128 0x8
 2598 1396 C4070000 		.4byte	.LASF292
 2599 139a 1A       		.byte	0x1a
 2600 139b 73       		.byte	0x73
 2601 139c F4000000 		.4byte	0xf4
 2602 13a0 20       		.byte	0x20
 2603 13a1 08       		.uleb128 0x8
 2604 13a2 9E050000 		.4byte	.LASF293
 2605 13a6 1A       		.byte	0x1a
 2606 13a7 75       		.byte	0x75
 2607 13a8 F4000000 		.4byte	0xf4
 2608 13ac 24       		.byte	0x24
 2609 13ad 08       		.uleb128 0x8
 2610 13ae B8010000 		.4byte	.LASF294
 2611 13b2 1A       		.byte	0x1a
 2612 13b3 76       		.byte	0x76
 2613 13b4 F4000000 		.4byte	0xf4
 2614 13b8 28       		.byte	0x28
 2615 13b9 08       		.uleb128 0x8
 2616 13ba D60E0000 		.4byte	.LASF295
 2617 13be 1A       		.byte	0x1a
 2618 13bf 78       		.byte	0x78
 2619 13c0 F4000000 		.4byte	0xf4
 2620 13c4 2C       		.byte	0x2c
 2621 13c5 08       		.uleb128 0x8
 2622 13c6 2D0F0000 		.4byte	.LASF296
ARM GAS  /tmp/cckjBIeA.s 			page 47


 2623 13ca 1A       		.byte	0x1a
 2624 13cb 7A       		.byte	0x7a
 2625 13cc F4000000 		.4byte	0xf4
 2626 13d0 30       		.byte	0x30
 2627 13d1 08       		.uleb128 0x8
 2628 13d2 3F0F0000 		.4byte	.LASF297
 2629 13d6 1A       		.byte	0x1a
 2630 13d7 7B       		.byte	0x7b
 2631 13d8 F4000000 		.4byte	0xf4
 2632 13dc 34       		.byte	0x34
 2633 13dd 08       		.uleb128 0x8
 2634 13de 45030000 		.4byte	.LASF298
 2635 13e2 1A       		.byte	0x1a
 2636 13e3 7C       		.byte	0x7c
 2637 13e4 F4000000 		.4byte	0xf4
 2638 13e8 38       		.byte	0x38
 2639 13e9 17       		.uleb128 0x17
 2640 13ea 43494400 		.ascii	"CID\000"
 2641 13ee 1A       		.byte	0x1a
 2642 13ef 7D       		.byte	0x7d
 2643 13f0 F4000000 		.4byte	0xf4
 2644 13f4 3C       		.byte	0x3c
 2645 13f5 08       		.uleb128 0x8
 2646 13f6 28100000 		.4byte	.LASF299
 2647 13fa 1A       		.byte	0x1a
 2648 13fb 7E       		.byte	0x7e
 2649 13fc 17160000 		.4byte	0x1617
 2650 1400 40       		.byte	0x40
 2651 1401 21       		.uleb128 0x21
 2652 1402 8A0A0000 		.4byte	.LASF300
 2653 1406 1A       		.byte	0x1a
 2654 1407 7F       		.byte	0x7f
 2655 1408 F4000000 		.4byte	0xf4
 2656 140c 0001     		.2byte	0x100
 2657 140e 21       		.uleb128 0x21
 2658 140f CF050000 		.4byte	.LASF301
 2659 1413 1A       		.byte	0x1a
 2660 1414 81       		.byte	0x81
 2661 1415 A0050000 		.4byte	0x5a0
 2662 1419 0401     		.2byte	0x104
 2663 141b 21       		.uleb128 0x21
 2664 141c 9B100000 		.4byte	.LASF302
 2665 1420 1A       		.byte	0x1a
 2666 1421 83       		.byte	0x83
 2667 1422 2C160000 		.4byte	0x162c
 2668 1426 4001     		.2byte	0x140
 2669 1428 21       		.uleb128 0x21
 2670 1429 83030000 		.4byte	.LASF303
 2671 142d 1A       		.byte	0x1a
 2672 142e 84       		.byte	0x84
 2673 142f F4000000 		.4byte	0xf4
 2674 1433 0004     		.2byte	0x400
 2675 1435 21       		.uleb128 0x21
 2676 1436 D8000000 		.4byte	.LASF304
 2677 143a 1A       		.byte	0x1a
 2678 143b 85       		.byte	0x85
 2679 143c F4000000 		.4byte	0xf4
ARM GAS  /tmp/cckjBIeA.s 			page 48


 2680 1440 0404     		.2byte	0x404
 2681 1442 21       		.uleb128 0x21
 2682 1443 3E040000 		.4byte	.LASF305
 2683 1447 1A       		.byte	0x1a
 2684 1448 86       		.byte	0x86
 2685 1449 F4000000 		.4byte	0xf4
 2686 144d 0804     		.2byte	0x408
 2687 144f 21       		.uleb128 0x21
 2688 1450 2E070000 		.4byte	.LASF306
 2689 1454 1A       		.byte	0x1a
 2690 1455 88       		.byte	0x88
 2691 1456 F4000000 		.4byte	0xf4
 2692 145a 0C04     		.2byte	0x40c
 2693 145c 21       		.uleb128 0x21
 2694 145d 16100000 		.4byte	.LASF307
 2695 1461 1A       		.byte	0x1a
 2696 1462 89       		.byte	0x89
 2697 1463 F4000000 		.4byte	0xf4
 2698 1467 1004     		.2byte	0x410
 2699 1469 21       		.uleb128 0x21
 2700 146a 98050000 		.4byte	.LASF308
 2701 146e 1A       		.byte	0x1a
 2702 146f 8B       		.byte	0x8b
 2703 1470 F4000000 		.4byte	0xf4
 2704 1474 1404     		.2byte	0x414
 2705 1476 21       		.uleb128 0x21
 2706 1477 25090000 		.4byte	.LASF309
 2707 147b 1A       		.byte	0x1a
 2708 147c 8D       		.byte	0x8d
 2709 147d F4000000 		.4byte	0xf4
 2710 1481 1804     		.2byte	0x418
 2711 1483 21       		.uleb128 0x21
 2712 1484 DF070000 		.4byte	.LASF310
 2713 1488 1A       		.byte	0x1a
 2714 1489 8F       		.byte	0x8f
 2715 148a 41160000 		.4byte	0x1641
 2716 148e 1C04     		.2byte	0x41c
 2717 1490 21       		.uleb128 0x21
 2718 1491 E0030000 		.4byte	.LASF311
 2719 1495 1A       		.byte	0x1a
 2720 1496 90       		.byte	0x90
 2721 1497 F4000000 		.4byte	0xf4
 2722 149b 4004     		.2byte	0x440
 2723 149d 21       		.uleb128 0x21
 2724 149e 03090000 		.4byte	.LASF312
 2725 14a2 1A       		.byte	0x1a
 2726 14a3 92       		.byte	0x92
 2727 14a4 56160000 		.4byte	0x1656
 2728 14a8 4404     		.2byte	0x444
 2729 14aa 22       		.uleb128 0x22
 2730 14ab 686300   		.ascii	"hc\000"
 2731 14ae 1A       		.byte	0x1a
 2732 14af 93       		.byte	0x93
 2733 14b0 5B160000 		.4byte	0x165b
 2734 14b4 0005     		.2byte	0x500
 2735 14b6 21       		.uleb128 0x21
 2736 14b7 E4000000 		.4byte	.LASF313
ARM GAS  /tmp/cckjBIeA.s 			page 49


 2737 14bb 1A       		.byte	0x1a
 2738 14bc 94       		.byte	0x94
 2739 14bd 7B160000 		.4byte	0x167b
 2740 14c1 0007     		.2byte	0x700
 2741 14c3 21       		.uleb128 0x21
 2742 14c4 2F030000 		.4byte	.LASF314
 2743 14c8 1A       		.byte	0x1a
 2744 14c9 95       		.byte	0x95
 2745 14ca F4000000 		.4byte	0xf4
 2746 14ce 0008     		.2byte	0x800
 2747 14d0 21       		.uleb128 0x21
 2748 14d1 CD0A0000 		.4byte	.LASF315
 2749 14d5 1A       		.byte	0x1a
 2750 14d6 96       		.byte	0x96
 2751 14d7 F4000000 		.4byte	0xf4
 2752 14db 0408     		.2byte	0x804
 2753 14dd 21       		.uleb128 0x21
 2754 14de 980F0000 		.4byte	.LASF316
 2755 14e2 1A       		.byte	0x1a
 2756 14e3 97       		.byte	0x97
 2757 14e4 F4000000 		.4byte	0xf4
 2758 14e8 0808     		.2byte	0x808
 2759 14ea 21       		.uleb128 0x21
 2760 14eb D7030000 		.4byte	.LASF317
 2761 14ef 1A       		.byte	0x1a
 2762 14f0 98       		.byte	0x98
 2763 14f1 F4000000 		.4byte	0xf4
 2764 14f5 0C08     		.2byte	0x80c
 2765 14f7 21       		.uleb128 0x21
 2766 14f8 310E0000 		.4byte	.LASF318
 2767 14fc 1A       		.byte	0x1a
 2768 14fd 99       		.byte	0x99
 2769 14fe F4000000 		.4byte	0xf4
 2770 1502 1008     		.2byte	0x810
 2771 1504 21       		.uleb128 0x21
 2772 1505 57020000 		.4byte	.LASF319
 2773 1509 1A       		.byte	0x1a
 2774 150a 9B       		.byte	0x9b
 2775 150b F4000000 		.4byte	0xf4
 2776 150f 1408     		.2byte	0x814
 2777 1511 21       		.uleb128 0x21
 2778 1512 3B020000 		.4byte	.LASF320
 2779 1516 1A       		.byte	0x1a
 2780 1517 9D       		.byte	0x9d
 2781 1518 F4000000 		.4byte	0xf4
 2782 151c 1808     		.2byte	0x818
 2783 151e 21       		.uleb128 0x21
 2784 151f 960C0000 		.4byte	.LASF321
 2785 1523 1A       		.byte	0x1a
 2786 1524 9F       		.byte	0x9f
 2787 1525 F4000000 		.4byte	0xf4
 2788 1529 1C08     		.2byte	0x81c
 2789 152b 21       		.uleb128 0x21
 2790 152c A9040000 		.4byte	.LASF322
 2791 1530 1A       		.byte	0x1a
 2792 1531 A1       		.byte	0xa1
 2793 1532 F4000000 		.4byte	0xf4
ARM GAS  /tmp/cckjBIeA.s 			page 50


 2794 1536 2008     		.2byte	0x820
 2795 1538 21       		.uleb128 0x21
 2796 1539 B2040000 		.4byte	.LASF323
 2797 153d 1A       		.byte	0x1a
 2798 153e A2       		.byte	0xa2
 2799 153f F4000000 		.4byte	0xf4
 2800 1543 2408     		.2byte	0x824
 2801 1545 21       		.uleb128 0x21
 2802 1546 A40C0000 		.4byte	.LASF324
 2803 154a 1A       		.byte	0x1a
 2804 154b A3       		.byte	0xa3
 2805 154c F4000000 		.4byte	0xf4
 2806 1550 2808     		.2byte	0x828
 2807 1552 21       		.uleb128 0x21
 2808 1553 BB040000 		.4byte	.LASF325
 2809 1557 1A       		.byte	0x1a
 2810 1558 A5       		.byte	0xa5
 2811 1559 F4000000 		.4byte	0xf4
 2812 155d 2C08     		.2byte	0x82c
 2813 155f 21       		.uleb128 0x21
 2814 1560 BA0D0000 		.4byte	.LASF326
 2815 1564 1A       		.byte	0x1a
 2816 1565 A7       		.byte	0xa7
 2817 1566 F4000000 		.4byte	0xf4
 2818 156a 3008     		.2byte	0x830
 2819 156c 21       		.uleb128 0x21
 2820 156d 5C0E0000 		.4byte	.LASF327
 2821 1571 1A       		.byte	0x1a
 2822 1572 A8       		.byte	0xa8
 2823 1573 F4000000 		.4byte	0xf4
 2824 1577 3408     		.2byte	0x834
 2825 1579 21       		.uleb128 0x21
 2826 157a 05080000 		.4byte	.LASF328
 2827 157e 1A       		.byte	0x1a
 2828 157f AA       		.byte	0xaa
 2829 1580 F4000000 		.4byte	0xf4
 2830 1584 3808     		.2byte	0x838
 2831 1586 21       		.uleb128 0x21
 2832 1587 3D080000 		.4byte	.LASF329
 2833 158b 1A       		.byte	0x1a
 2834 158c AB       		.byte	0xab
 2835 158d F4000000 		.4byte	0xf4
 2836 1591 3C08     		.2byte	0x83c
 2837 1593 21       		.uleb128 0x21
 2838 1594 B6050000 		.4byte	.LASF330
 2839 1598 1A       		.byte	0x1a
 2840 1599 AC       		.byte	0xac
 2841 159a 90160000 		.4byte	0x1690
 2842 159e 4008     		.2byte	0x840
 2843 15a0 21       		.uleb128 0x21
 2844 15a1 27080000 		.4byte	.LASF331
 2845 15a5 1A       		.byte	0x1a
 2846 15a6 AD       		.byte	0xad
 2847 15a7 90160000 		.4byte	0x1690
 2848 15ab 8008     		.2byte	0x880
 2849 15ad 21       		.uleb128 0x21
 2850 15ae 34030000 		.4byte	.LASF332
ARM GAS  /tmp/cckjBIeA.s 			page 51


 2851 15b2 1A       		.byte	0x1a
 2852 15b3 AE       		.byte	0xae
 2853 15b4 90160000 		.4byte	0x1690
 2854 15b8 C008     		.2byte	0x8c0
 2855 15ba 22       		.uleb128 0x22
 2856 15bb 696500   		.ascii	"ie\000"
 2857 15be 1A       		.byte	0x1a
 2858 15bf AF       		.byte	0xaf
 2859 15c0 95160000 		.4byte	0x1695
 2860 15c4 0009     		.2byte	0x900
 2861 15c6 22       		.uleb128 0x22
 2862 15c7 6F6500   		.ascii	"oe\000"
 2863 15ca 1A       		.byte	0x1a
 2864 15cb B0       		.byte	0xb0
 2865 15cc A5160000 		.4byte	0x16a5
 2866 15d0 000B     		.2byte	0xb00
 2867 15d2 21       		.uleb128 0x21
 2868 15d3 6A0A0000 		.4byte	.LASF333
 2869 15d7 1A       		.byte	0x1a
 2870 15d8 B1       		.byte	0xb1
 2871 15d9 7B160000 		.4byte	0x167b
 2872 15dd 000D     		.2byte	0xd00
 2873 15df 21       		.uleb128 0x21
 2874 15e0 88070000 		.4byte	.LASF334
 2875 15e4 1A       		.byte	0x1a
 2876 15e5 B2       		.byte	0xb2
 2877 15e6 F4000000 		.4byte	0xf4
 2878 15ea 000E     		.2byte	0xe00
 2879 15ec 21       		.uleb128 0x21
 2880 15ed 240F0000 		.4byte	.LASF335
 2881 15f1 1A       		.byte	0x1a
 2882 15f2 B4       		.byte	0xb4
 2883 15f3 C5160000 		.4byte	0x16c5
 2884 15f7 040E     		.2byte	0xe04
 2885 15f9 21       		.uleb128 0x21
 2886 15fa 110D0000 		.4byte	.LASF336
 2887 15fe 1A       		.byte	0x1a
 2888 15ff B5       		.byte	0xb5
 2889 1600 E1160000 		.4byte	0x16e1
 2890 1604 0010     		.2byte	0x1000
 2891 1606 00       		.byte	0
 2892 1607 15       		.uleb128 0x15
 2893 1608 F4000000 		.4byte	0xf4
 2894 160c 17160000 		.4byte	0x1617
 2895 1610 16       		.uleb128 0x16
 2896 1611 3C000000 		.4byte	0x3c
 2897 1615 2F       		.byte	0x2f
 2898 1616 00       		.byte	0
 2899 1617 04       		.uleb128 0x4
 2900 1618 07160000 		.4byte	0x1607
 2901 161c 15       		.uleb128 0x15
 2902 161d F4000000 		.4byte	0xf4
 2903 1621 2C160000 		.4byte	0x162c
 2904 1625 16       		.uleb128 0x16
 2905 1626 3C000000 		.4byte	0x3c
 2906 162a AF       		.byte	0xaf
 2907 162b 00       		.byte	0
ARM GAS  /tmp/cckjBIeA.s 			page 52


 2908 162c 04       		.uleb128 0x4
 2909 162d 1C160000 		.4byte	0x161c
 2910 1631 15       		.uleb128 0x15
 2911 1632 F4000000 		.4byte	0xf4
 2912 1636 41160000 		.4byte	0x1641
 2913 163a 16       		.uleb128 0x16
 2914 163b 3C000000 		.4byte	0x3c
 2915 163f 08       		.byte	0x8
 2916 1640 00       		.byte	0
 2917 1641 04       		.uleb128 0x4
 2918 1642 31160000 		.4byte	0x1631
 2919 1646 15       		.uleb128 0x15
 2920 1647 F4000000 		.4byte	0xf4
 2921 164b 56160000 		.4byte	0x1656
 2922 164f 16       		.uleb128 0x16
 2923 1650 3C000000 		.4byte	0x3c
 2924 1654 2E       		.byte	0x2e
 2925 1655 00       		.byte	0
 2926 1656 04       		.uleb128 0x4
 2927 1657 46160000 		.4byte	0x1646
 2928 165b 15       		.uleb128 0x15
 2929 165c 37120000 		.4byte	0x1237
 2930 1660 6B160000 		.4byte	0x166b
 2931 1664 16       		.uleb128 0x16
 2932 1665 3C000000 		.4byte	0x3c
 2933 1669 0F       		.byte	0xf
 2934 166a 00       		.byte	0
 2935 166b 15       		.uleb128 0x15
 2936 166c F4000000 		.4byte	0xf4
 2937 1670 7B160000 		.4byte	0x167b
 2938 1674 16       		.uleb128 0x16
 2939 1675 3C000000 		.4byte	0x3c
 2940 1679 3F       		.byte	0x3f
 2941 167a 00       		.byte	0
 2942 167b 04       		.uleb128 0x4
 2943 167c 6B160000 		.4byte	0x166b
 2944 1680 15       		.uleb128 0x15
 2945 1681 F4000000 		.4byte	0xf4
 2946 1685 90160000 		.4byte	0x1690
 2947 1689 16       		.uleb128 0x16
 2948 168a 3C000000 		.4byte	0x3c
 2949 168e 0F       		.byte	0xf
 2950 168f 00       		.byte	0
 2951 1690 04       		.uleb128 0x4
 2952 1691 80160000 		.4byte	0x1680
 2953 1695 15       		.uleb128 0x15
 2954 1696 AB120000 		.4byte	0x12ab
 2955 169a A5160000 		.4byte	0x16a5
 2956 169e 16       		.uleb128 0x16
 2957 169f 3C000000 		.4byte	0x3c
 2958 16a3 0F       		.byte	0xf
 2959 16a4 00       		.byte	0
 2960 16a5 15       		.uleb128 0x15
 2961 16a6 1F130000 		.4byte	0x131f
 2962 16aa B5160000 		.4byte	0x16b5
 2963 16ae 16       		.uleb128 0x16
 2964 16af 3C000000 		.4byte	0x3c
ARM GAS  /tmp/cckjBIeA.s 			page 53


 2965 16b3 0F       		.byte	0xf
 2966 16b4 00       		.byte	0
 2967 16b5 15       		.uleb128 0x15
 2968 16b6 F4000000 		.4byte	0xf4
 2969 16ba C5160000 		.4byte	0x16c5
 2970 16be 16       		.uleb128 0x16
 2971 16bf 3C000000 		.4byte	0x3c
 2972 16c3 7E       		.byte	0x7e
 2973 16c4 00       		.byte	0
 2974 16c5 04       		.uleb128 0x4
 2975 16c6 B5160000 		.4byte	0x16b5
 2976 16ca 15       		.uleb128 0x15
 2977 16cb F4000000 		.4byte	0xf4
 2978 16cf E1160000 		.4byte	0x16e1
 2979 16d3 16       		.uleb128 0x16
 2980 16d4 3C000000 		.4byte	0x3c
 2981 16d8 0F       		.byte	0xf
 2982 16d9 23       		.uleb128 0x23
 2983 16da 3C000000 		.4byte	0x3c
 2984 16de FF03     		.2byte	0x3ff
 2985 16e0 00       		.byte	0
 2986 16e1 04       		.uleb128 0x4
 2987 16e2 CA160000 		.4byte	0x16ca
 2988 16e6 03       		.uleb128 0x3
 2989 16e7 DA080000 		.4byte	.LASF337
 2990 16eb 1A       		.byte	0x1a
 2991 16ec B6       		.byte	0xb6
 2992 16ed 2A130000 		.4byte	0x132a
 2993 16f1 18       		.uleb128 0x18
 2994 16f2 0C       		.byte	0xc
 2995 16f3 19       		.byte	0x19
 2996 16f4 C6       		.byte	0xc6
 2997 16f5 1E170000 		.4byte	0x171e
 2998 16f9 08       		.uleb128 0x8
 2999 16fa D50D0000 		.4byte	.LASF338
 3000 16fe 19       		.byte	0x19
 3001 16ff C7       		.byte	0xc7
 3002 1700 E9000000 		.4byte	0xe9
 3003 1704 00       		.byte	0
 3004 1705 08       		.uleb128 0x8
 3005 1706 CD090000 		.4byte	.LASF339
 3006 170a 19       		.byte	0x19
 3007 170b C8       		.byte	0xc8
 3008 170c E9000000 		.4byte	0xe9
 3009 1710 04       		.byte	0x4
 3010 1711 08       		.uleb128 0x8
 3011 1712 90060000 		.4byte	.LASF340
 3012 1716 19       		.byte	0x19
 3013 1717 C9       		.byte	0xc9
 3014 1718 E9000000 		.4byte	0xe9
 3015 171c 08       		.byte	0x8
 3016 171d 00       		.byte	0
 3017 171e 03       		.uleb128 0x3
 3018 171f EC040000 		.4byte	.LASF341
 3019 1723 19       		.byte	0x19
 3020 1724 CA       		.byte	0xca
 3021 1725 F1160000 		.4byte	0x16f1
ARM GAS  /tmp/cckjBIeA.s 			page 54


 3022 1729 06       		.uleb128 0x6
 3023 172a 1E170000 		.4byte	0x171e
 3024 172e 18       		.uleb128 0x18
 3025 172f 04       		.byte	0x4
 3026 1730 19       		.byte	0x19
 3027 1731 DD       		.byte	0xdd
 3028 1732 43170000 		.4byte	0x1743
 3029 1736 08       		.uleb128 0x8
 3030 1737 2C020000 		.4byte	.LASF342
 3031 173b 19       		.byte	0x19
 3032 173c E1       		.byte	0xe1
 3033 173d 230B0000 		.4byte	0xb23
 3034 1741 00       		.byte	0
 3035 1742 00       		.byte	0
 3036 1743 18       		.uleb128 0x18
 3037 1744 04       		.byte	0x4
 3038 1745 19       		.byte	0x19
 3039 1746 E3       		.byte	0xe3
 3040 1747 58170000 		.4byte	0x1758
 3041 174b 08       		.uleb128 0x8
 3042 174c 210E0000 		.4byte	.LASF343
 3043 1750 19       		.byte	0x19
 3044 1751 E7       		.byte	0xe7
 3045 1752 58170000 		.4byte	0x1758
 3046 1756 00       		.byte	0
 3047 1757 00       		.byte	0
 3048 1758 0B       		.uleb128 0xb
 3049 1759 04       		.byte	0x4
 3050 175a 180B0000 		.4byte	0xb18
 3051 175e 19       		.uleb128 0x19
 3052 175f 04       		.byte	0x4
 3053 1760 19       		.byte	0x19
 3054 1761 DC       		.byte	0xdc
 3055 1762 7D170000 		.4byte	0x177d
 3056 1766 24       		.uleb128 0x24
 3057 1767 C00A0000 		.4byte	.LASF344
 3058 176b 19       		.byte	0x19
 3059 176c E2       		.byte	0xe2
 3060 176d 2E170000 		.4byte	0x172e
 3061 1771 24       		.uleb128 0x24
 3062 1772 3C0C0000 		.4byte	.LASF345
 3063 1776 19       		.byte	0x19
 3064 1777 E8       		.byte	0xe8
 3065 1778 43170000 		.4byte	0x1743
 3066 177c 00       		.byte	0
 3067 177d 18       		.uleb128 0x18
 3068 177e 14       		.byte	0x14
 3069 177f 19       		.byte	0x19
 3070 1780 CF       		.byte	0xcf
 3071 1781 C2170000 		.4byte	0x17c2
 3072 1785 08       		.uleb128 0x8
 3073 1786 78100000 		.4byte	.LASF346
 3074 178a 19       		.byte	0x19
 3075 178b D3       		.byte	0xd3
 3076 178c AB0B0000 		.4byte	0xbab
 3077 1790 00       		.byte	0
 3078 1791 08       		.uleb128 0x8
ARM GAS  /tmp/cckjBIeA.s 			page 55


 3079 1792 CD060000 		.4byte	.LASF347
 3080 1796 19       		.byte	0x19
 3081 1797 D7       		.byte	0xd7
 3082 1798 2C000000 		.4byte	0x2c
 3083 179c 04       		.byte	0x4
 3084 179d 08       		.uleb128 0x8
 3085 179e A6050000 		.4byte	.LASF348
 3086 17a2 19       		.byte	0x19
 3087 17a3 DB       		.byte	0xdb
 3088 17a4 2C000000 		.4byte	0x2c
 3089 17a8 08       		.byte	0x8
 3090 17a9 08       		.uleb128 0x8
 3091 17aa EB0D0000 		.4byte	.LASF349
 3092 17ae 19       		.byte	0x19
 3093 17af E9       		.byte	0xe9
 3094 17b0 5E170000 		.4byte	0x175e
 3095 17b4 0C       		.byte	0xc
 3096 17b5 08       		.uleb128 0x8
 3097 17b6 CD0D0000 		.4byte	.LASF350
 3098 17ba 19       		.byte	0x19
 3099 17bb ED       		.byte	0xed
 3100 17bc 2C000000 		.4byte	0x2c
 3101 17c0 10       		.byte	0x10
 3102 17c1 00       		.byte	0
 3103 17c2 03       		.uleb128 0x3
 3104 17c3 96040000 		.4byte	.LASF351
 3105 17c7 19       		.byte	0x19
 3106 17c8 EE       		.byte	0xee
 3107 17c9 7D170000 		.4byte	0x177d
 3108 17cd 13       		.uleb128 0x13
 3109 17ce 04       		.byte	0x4
 3110 17cf 19       		.byte	0x19
 3111 17d0 0101     		.2byte	0x101
 3112 17d2 E4170000 		.4byte	0x17e4
 3113 17d6 0A       		.uleb128 0xa
 3114 17d7 E5090000 		.4byte	.LASF203
 3115 17db 19       		.byte	0x19
 3116 17dc 0501     		.2byte	0x105
 3117 17de 070B0000 		.4byte	0xb07
 3118 17e2 00       		.byte	0
 3119 17e3 00       		.byte	0
 3120 17e4 13       		.uleb128 0x13
 3121 17e5 04       		.byte	0x4
 3122 17e6 19       		.byte	0x19
 3123 17e7 0701     		.2byte	0x107
 3124 17e9 FB170000 		.4byte	0x17fb
 3125 17ed 0A       		.uleb128 0xa
 3126 17ee 830C0000 		.4byte	.LASF352
 3127 17f2 19       		.byte	0x19
 3128 17f3 0B01     		.2byte	0x10b
 3129 17f5 FB170000 		.4byte	0x17fb
 3130 17f9 00       		.byte	0
 3131 17fa 00       		.byte	0
 3132 17fb 0B       		.uleb128 0xb
 3133 17fc 04       		.byte	0x4
 3134 17fd 0D0B0000 		.4byte	0xb0d
 3135 1801 25       		.uleb128 0x25
ARM GAS  /tmp/cckjBIeA.s 			page 56


 3136 1802 04       		.byte	0x4
 3137 1803 19       		.byte	0x19
 3138 1804 0001     		.2byte	0x100
 3139 1806 23180000 		.4byte	0x1823
 3140 180a 1A       		.uleb128 0x1a
 3141 180b C00A0000 		.4byte	.LASF344
 3142 180f 19       		.byte	0x19
 3143 1810 0601     		.2byte	0x106
 3144 1812 CD170000 		.4byte	0x17cd
 3145 1816 1A       		.uleb128 0x1a
 3146 1817 3C0C0000 		.4byte	.LASF345
 3147 181b 19       		.byte	0x19
 3148 181c 0C01     		.2byte	0x10c
 3149 181e E4170000 		.4byte	0x17e4
 3150 1822 00       		.byte	0
 3151 1823 18       		.uleb128 0x18
 3152 1824 14       		.byte	0x14
 3153 1825 19       		.byte	0x19
 3154 1826 F3       		.byte	0xf3
 3155 1827 6A180000 		.4byte	0x186a
 3156 182b 08       		.uleb128 0x8
 3157 182c 100B0000 		.4byte	.LASF353
 3158 1830 19       		.byte	0x19
 3159 1831 F7       		.byte	0xf7
 3160 1832 AB0B0000 		.4byte	0xbab
 3161 1836 00       		.byte	0
 3162 1837 08       		.uleb128 0x8
 3163 1838 E8020000 		.4byte	.LASF354
 3164 183c 19       		.byte	0x19
 3165 183d FB       		.byte	0xfb
 3166 183e 2C000000 		.4byte	0x2c
 3167 1842 04       		.byte	0x4
 3168 1843 08       		.uleb128 0x8
 3169 1844 F0060000 		.4byte	.LASF355
 3170 1848 19       		.byte	0x19
 3171 1849 FF       		.byte	0xff
 3172 184a 2C000000 		.4byte	0x2c
 3173 184e 08       		.byte	0x8
 3174 184f 0A       		.uleb128 0xa
 3175 1850 EB0D0000 		.4byte	.LASF349
 3176 1854 19       		.byte	0x19
 3177 1855 0D01     		.2byte	0x10d
 3178 1857 01180000 		.4byte	0x1801
 3179 185b 0C       		.byte	0xc
 3180 185c 0A       		.uleb128 0xa
 3181 185d CD0D0000 		.4byte	.LASF350
 3182 1861 19       		.byte	0x19
 3183 1862 1101     		.2byte	0x111
 3184 1864 2C000000 		.4byte	0x2c
 3185 1868 10       		.byte	0x10
 3186 1869 00       		.byte	0
 3187 186a 14       		.uleb128 0x14
 3188 186b 4C0A0000 		.4byte	.LASF356
 3189 186f 19       		.byte	0x19
 3190 1870 1201     		.2byte	0x112
 3191 1872 23180000 		.4byte	0x1823
 3192 1876 13       		.uleb128 0x13
ARM GAS  /tmp/cckjBIeA.s 			page 57


 3193 1877 24       		.byte	0x24
 3194 1878 19       		.byte	0x19
 3195 1879 1801     		.2byte	0x118
 3196 187b 02190000 		.4byte	0x1902
 3197 187f 0A       		.uleb128 0xa
 3198 1880 FA000000 		.4byte	.LASF357
 3199 1884 19       		.byte	0x19
 3200 1885 1C01     		.2byte	0x11c
 3201 1887 E9000000 		.4byte	0xe9
 3202 188b 00       		.byte	0
 3203 188c 0A       		.uleb128 0xa
 3204 188d 1E080000 		.4byte	.LASF358
 3205 1891 19       		.byte	0x19
 3206 1892 2701     		.2byte	0x127
 3207 1894 33110000 		.4byte	0x1133
 3208 1898 04       		.byte	0x4
 3209 1899 0A       		.uleb128 0xa
 3210 189a 1F040000 		.4byte	.LASF359
 3211 189e 19       		.byte	0x19
 3212 189f 2D01     		.2byte	0x12d
 3213 18a1 33110000 		.4byte	0x1133
 3214 18a5 08       		.byte	0x8
 3215 18a6 0A       		.uleb128 0xa
 3216 18a7 0C090000 		.4byte	.LASF360
 3217 18ab 19       		.byte	0x19
 3218 18ac 3301     		.2byte	0x133
 3219 18ae 33110000 		.4byte	0x1133
 3220 18b2 0C       		.byte	0xc
 3221 18b3 0A       		.uleb128 0xa
 3222 18b4 35090000 		.4byte	.LASF361
 3223 18b8 19       		.byte	0x19
 3224 18b9 3901     		.2byte	0x139
 3225 18bb C9000000 		.4byte	0xc9
 3226 18bf 10       		.byte	0x10
 3227 18c0 0A       		.uleb128 0xa
 3228 18c1 DE0C0000 		.4byte	.LASF362
 3229 18c5 19       		.byte	0x19
 3230 18c6 3F01     		.2byte	0x13f
 3231 18c8 C9000000 		.4byte	0xc9
 3232 18cc 12       		.byte	0x12
 3233 18cd 0A       		.uleb128 0xa
 3234 18ce 66070000 		.4byte	.LASF363
 3235 18d2 19       		.byte	0x19
 3236 18d3 4401     		.2byte	0x144
 3237 18d5 02190000 		.4byte	0x1902
 3238 18d9 14       		.byte	0x14
 3239 18da 0A       		.uleb128 0xa
 3240 18db 7A090000 		.4byte	.LASF364
 3241 18df 19       		.byte	0x19
 3242 18e0 4901     		.2byte	0x149
 3243 18e2 08190000 		.4byte	0x1908
 3244 18e6 18       		.byte	0x18
 3245 18e7 0A       		.uleb128 0xa
 3246 18e8 65060000 		.4byte	.LASF365
 3247 18ec 19       		.byte	0x19
 3248 18ed 5001     		.2byte	0x150
 3249 18ef C9000000 		.4byte	0xc9
ARM GAS  /tmp/cckjBIeA.s 			page 58


 3250 18f3 1C       		.byte	0x1c
 3251 18f4 0A       		.uleb128 0xa
 3252 18f5 F9080000 		.4byte	.LASF366
 3253 18f9 19       		.byte	0x19
 3254 18fa 5601     		.2byte	0x156
 3255 18fc 070B0000 		.4byte	0xb07
 3256 1900 20       		.byte	0x20
 3257 1901 00       		.byte	0
 3258 1902 0B       		.uleb128 0xb
 3259 1903 04       		.byte	0x4
 3260 1904 C2170000 		.4byte	0x17c2
 3261 1908 0B       		.uleb128 0xb
 3262 1909 04       		.byte	0x4
 3263 190a 6A180000 		.4byte	0x186a
 3264 190e 14       		.uleb128 0x14
 3265 190f E30A0000 		.4byte	.LASF367
 3266 1913 19       		.byte	0x19
 3267 1914 5701     		.2byte	0x157
 3268 1916 76180000 		.4byte	0x1876
 3269 191a 06       		.uleb128 0x6
 3270 191b 0E190000 		.4byte	0x190e
 3271 191f 13       		.uleb128 0x13
 3272 1920 10       		.byte	0x10
 3273 1921 19       		.byte	0x19
 3274 1922 5C01     		.2byte	0x15c
 3275 1924 5D190000 		.4byte	0x195d
 3276 1928 0A       		.uleb128 0xa
 3277 1929 9B070000 		.4byte	.LASF368
 3278 192d 19       		.byte	0x19
 3279 192e 6101     		.2byte	0x161
 3280 1930 55110000 		.4byte	0x1155
 3281 1934 00       		.byte	0
 3282 1935 0A       		.uleb128 0xa
 3283 1936 9D0F0000 		.4byte	.LASF369
 3284 193a 19       		.byte	0x19
 3285 193b 6601     		.2byte	0x166
 3286 193d 98110000 		.4byte	0x1198
 3287 1941 04       		.byte	0x4
 3288 1942 0A       		.uleb128 0xa
 3289 1943 6C030000 		.4byte	.LASF370
 3290 1947 19       		.byte	0x19
 3291 1948 6C01     		.2byte	0x16c
 3292 194a 77110000 		.4byte	0x1177
 3293 194e 08       		.byte	0x8
 3294 194f 0A       		.uleb128 0xa
 3295 1950 89100000 		.4byte	.LASF371
 3296 1954 19       		.byte	0x19
 3297 1955 7001     		.2byte	0x170
 3298 1957 10110000 		.4byte	0x1110
 3299 195b 0C       		.byte	0xc
 3300 195c 00       		.byte	0
 3301 195d 14       		.uleb128 0x14
 3302 195e B6080000 		.4byte	.LASF372
 3303 1962 19       		.byte	0x19
 3304 1963 7201     		.2byte	0x172
 3305 1965 1F190000 		.4byte	0x191f
 3306 1969 06       		.uleb128 0x6
ARM GAS  /tmp/cckjBIeA.s 			page 59


 3307 196a 5D190000 		.4byte	0x195d
 3308 196e 0B       		.uleb128 0xb
 3309 196f 04       		.byte	0x4
 3310 1970 69190000 		.4byte	0x1969
 3311 1974 15       		.uleb128 0x15
 3312 1975 84190000 		.4byte	0x1984
 3313 1979 84190000 		.4byte	0x1984
 3314 197d 16       		.uleb128 0x16
 3315 197e 3C000000 		.4byte	0x3c
 3316 1982 03       		.byte	0x3
 3317 1983 00       		.byte	0
 3318 1984 0B       		.uleb128 0xb
 3319 1985 04       		.byte	0x4
 3320 1986 1A190000 		.4byte	0x191a
 3321 198a 15       		.uleb128 0x15
 3322 198b 47030000 		.4byte	0x347
 3323 198f 9A190000 		.4byte	0x199a
 3324 1993 16       		.uleb128 0x16
 3325 1994 3C000000 		.4byte	0x3c
 3326 1998 02       		.byte	0x2
 3327 1999 00       		.byte	0
 3328 199a 15       		.uleb128 0x15
 3329 199b B9000000 		.4byte	0xb9
 3330 199f AA190000 		.4byte	0x19aa
 3331 19a3 16       		.uleb128 0x16
 3332 19a4 3C000000 		.4byte	0x3c
 3333 19a8 07       		.byte	0x7
 3334 19a9 00       		.byte	0
 3335 19aa 0B       		.uleb128 0xb
 3336 19ab 04       		.byte	0x4
 3337 19ac E6160000 		.4byte	0x16e6
 3338 19b0 0B       		.uleb128 0xb
 3339 19b1 04       		.byte	0x4
 3340 19b2 29170000 		.4byte	0x1729
 3341 19b6 15       		.uleb128 0x15
 3342 19b7 B0050000 		.4byte	0x5b0
 3343 19bb C6190000 		.4byte	0x19c6
 3344 19bf 16       		.uleb128 0x16
 3345 19c0 3C000000 		.4byte	0x3c
 3346 19c4 39       		.byte	0x39
 3347 19c5 00       		.byte	0
 3348 19c6 11       		.uleb128 0x11
 3349 19c7 1D0D0000 		.4byte	.LASF373
 3350 19cb 19       		.byte	0x19
 3351 19cc 0602     		.2byte	0x206
 3352 19ce DC0E0000 		.4byte	0xedc
 3353 19d2 26       		.uleb128 0x26
 3354 19d3 1A090000 		.4byte	.LASF386
 3355 19d7 01       		.byte	0x1
 3356 19d8 79       		.byte	0x79
 3357 19d9 5C010000 		.4byte	0x15c
 3358 19dd 00000000 		.4byte	.LFB264
 3359 19e1 08000000 		.4byte	.LFE264-.LFB264
 3360 19e5 01       		.uleb128 0x1
 3361 19e6 9C       		.byte	0x9c
 3362 19e7 041A0000 		.4byte	0x1a04
 3363 19eb 27       		.uleb128 0x27
ARM GAS  /tmp/cckjBIeA.s 			page 60


 3364 19ec C4000000 		.4byte	.LASF374
 3365 19f0 141A0000 		.4byte	0x1a14
 3366 19f4 28       		.uleb128 0x28
 3367 19f5 FC1A0000 		.4byte	0x1afc
 3368 19f9 00000000 		.4byte	.LBB16
 3369 19fd 06000000 		.4byte	.LBE16-.LBB16
 3370 1a01 01       		.byte	0x1
 3371 1a02 7D       		.byte	0x7d
 3372 1a03 00       		.byte	0
 3373 1a04 15       		.uleb128 0x15
 3374 1a05 2A090000 		.4byte	0x92a
 3375 1a09 141A0000 		.4byte	0x1a14
 3376 1a0d 16       		.uleb128 0x16
 3377 1a0e 3C000000 		.4byte	0x3c
 3378 1a12 0A       		.byte	0xa
 3379 1a13 00       		.byte	0
 3380 1a14 06       		.uleb128 0x6
 3381 1a15 041A0000 		.4byte	0x1a04
 3382 1a19 29       		.uleb128 0x29
 3383 1a1a 51040000 		.4byte	.LASF375
 3384 1a1e 01       		.byte	0x1
 3385 1a1f 69       		.byte	0x69
 3386 1a20 00000000 		.4byte	.LFB263
 3387 1a24 08000000 		.4byte	.LFE263-.LFB263
 3388 1a28 01       		.uleb128 0x1
 3389 1a29 9C       		.byte	0x9c
 3390 1a2a 5E1A0000 		.4byte	0x1a5e
 3391 1a2e 2A       		.uleb128 0x2a
 3392 1a2f 49070000 		.4byte	.LASF378
 3393 1a33 01       		.byte	0x1
 3394 1a34 69       		.byte	0x69
 3395 1a35 5C010000 		.4byte	0x15c
 3396 1a39 01       		.uleb128 0x1
 3397 1a3a 50       		.byte	0x50
 3398 1a3b 27       		.uleb128 0x27
 3399 1a3c C4000000 		.4byte	.LASF374
 3400 1a40 141A0000 		.4byte	0x1a14
 3401 1a44 2B       		.uleb128 0x2b
 3402 1a45 081B0000 		.4byte	0x1b08
 3403 1a49 00000000 		.4byte	.LBB14
 3404 1a4d 06000000 		.4byte	.LBE14-.LBB14
 3405 1a51 01       		.byte	0x1
 3406 1a52 6D       		.byte	0x6d
 3407 1a53 2C       		.uleb128 0x2c
 3408 1a54 141B0000 		.4byte	0x1b14
 3409 1a58 00000000 		.4byte	.LLST1
 3410 1a5c 00       		.byte	0
 3411 1a5d 00       		.byte	0
 3412 1a5e 29       		.uleb128 0x29
 3413 1a5f 580D0000 		.4byte	.LASF376
 3414 1a63 01       		.byte	0x1
 3415 1a64 5B       		.byte	0x5b
 3416 1a65 00000000 		.4byte	.LFB262
 3417 1a69 0A000000 		.4byte	.LFE262-.LFB262
 3418 1a6d 01       		.uleb128 0x1
 3419 1a6e 9C       		.byte	0x9c
 3420 1a6f 831A0000 		.4byte	0x1a83
ARM GAS  /tmp/cckjBIeA.s 			page 61


 3421 1a73 28       		.uleb128 0x28
 3422 1a74 201B0000 		.4byte	0x1b20
 3423 1a78 00000000 		.4byte	.LBB12
 3424 1a7c 08000000 		.4byte	.LBE12-.LBB12
 3425 1a80 01       		.byte	0x1
 3426 1a81 5D       		.byte	0x5d
 3427 1a82 00       		.byte	0
 3428 1a83 29       		.uleb128 0x29
 3429 1a84 98090000 		.4byte	.LASF377
 3430 1a88 01       		.byte	0x1
 3431 1a89 4D       		.byte	0x4d
 3432 1a8a 00000000 		.4byte	.LFB261
 3433 1a8e 10000000 		.4byte	.LFE261-.LFB261
 3434 1a92 01       		.uleb128 0x1
 3435 1a93 9C       		.byte	0x9c
 3436 1a94 C81A0000 		.4byte	0x1ac8
 3437 1a98 2A       		.uleb128 0x2a
 3438 1a99 49070000 		.4byte	.LASF378
 3439 1a9d 01       		.byte	0x1
 3440 1a9e 4D       		.byte	0x4d
 3441 1a9f 5C010000 		.4byte	0x15c
 3442 1aa3 01       		.uleb128 0x1
 3443 1aa4 50       		.byte	0x50
 3444 1aa5 27       		.uleb128 0x27
 3445 1aa6 C4000000 		.4byte	.LASF374
 3446 1aaa D81A0000 		.4byte	0x1ad8
 3447 1aae 2B       		.uleb128 0x2b
 3448 1aaf 281B0000 		.4byte	0x1b28
 3449 1ab3 00000000 		.4byte	.LBB10
 3450 1ab7 0E000000 		.4byte	.LBE10-.LBB10
 3451 1abb 01       		.byte	0x1
 3452 1abc 51       		.byte	0x51
 3453 1abd 2C       		.uleb128 0x2c
 3454 1abe 341B0000 		.4byte	0x1b34
 3455 1ac2 13000000 		.4byte	.LLST0
 3456 1ac6 00       		.byte	0
 3457 1ac7 00       		.byte	0
 3458 1ac8 15       		.uleb128 0x15
 3459 1ac9 2A090000 		.4byte	0x92a
 3460 1acd D81A0000 		.4byte	0x1ad8
 3461 1ad1 16       		.uleb128 0x16
 3462 1ad2 3C000000 		.4byte	0x3c
 3463 1ad6 0C       		.byte	0xc
 3464 1ad7 00       		.byte	0
 3465 1ad8 06       		.uleb128 0x6
 3466 1ad9 C81A0000 		.4byte	0x1ac8
 3467 1add 29       		.uleb128 0x29
 3468 1ade FE0F0000 		.4byte	.LASF379
 3469 1ae2 01       		.byte	0x1
 3470 1ae3 3C       		.byte	0x3c
 3471 1ae4 00000000 		.4byte	.LFB260
 3472 1ae8 04000000 		.4byte	.LFE260-.LFB260
 3473 1aec 01       		.uleb128 0x1
 3474 1aed 9C       		.byte	0x9c
 3475 1aee FC1A0000 		.4byte	0x1afc
 3476 1af2 2D       		.uleb128 0x2d
 3477 1af3 04000000 		.4byte	.LVL0
ARM GAS  /tmp/cckjBIeA.s 			page 62


 3478 1af7 401B0000 		.4byte	0x1b40
 3479 1afb 00       		.byte	0
 3480 1afc 2E       		.uleb128 0x2e
 3481 1afd 95010000 		.4byte	.LASF387
 3482 1b01 02       		.byte	0x2
 3483 1b02 B1       		.byte	0xb1
 3484 1b03 5C010000 		.4byte	0x15c
 3485 1b07 03       		.byte	0x3
 3486 1b08 2F       		.uleb128 0x2f
 3487 1b09 830D0000 		.4byte	.LASF380
 3488 1b0d 02       		.byte	0x2
 3489 1b0e A5       		.byte	0xa5
 3490 1b0f 03       		.byte	0x3
 3491 1b10 201B0000 		.4byte	0x1b20
 3492 1b14 30       		.uleb128 0x30
 3493 1b15 F90F0000 		.4byte	.LASF382
 3494 1b19 02       		.byte	0x2
 3495 1b1a A5       		.byte	0xa5
 3496 1b1b 5C010000 		.4byte	0x15c
 3497 1b1f 00       		.byte	0
 3498 1b20 31       		.uleb128 0x31
 3499 1b21 46050000 		.4byte	.LASF388
 3500 1b25 02       		.byte	0x2
 3501 1b26 99       		.byte	0x99
 3502 1b27 03       		.byte	0x3
 3503 1b28 2F       		.uleb128 0x2f
 3504 1b29 67090000 		.4byte	.LASF381
 3505 1b2d 02       		.byte	0x2
 3506 1b2e 8D       		.byte	0x8d
 3507 1b2f 03       		.byte	0x3
 3508 1b30 401B0000 		.4byte	0x1b40
 3509 1b34 30       		.uleb128 0x30
 3510 1b35 F90F0000 		.4byte	.LASF382
 3511 1b39 02       		.byte	0x2
 3512 1b3a 8D       		.byte	0x8d
 3513 1b3b 5C010000 		.4byte	0x15c
 3514 1b3f 00       		.byte	0
 3515 1b40 32       		.uleb128 0x32
 3516 1b41 B4030000 		.4byte	.LASF389
 3517 1b45 B4030000 		.4byte	.LASF389
 3518 1b49 02       		.byte	0x2
 3519 1b4a 6F       		.byte	0x6f
 3520 1b4b 00       		.byte	0
 3521              		.section	.debug_abbrev,"",%progbits
 3522              	.Ldebug_abbrev0:
 3523 0000 01       		.uleb128 0x1
 3524 0001 11       		.uleb128 0x11
 3525 0002 01       		.byte	0x1
 3526 0003 25       		.uleb128 0x25
 3527 0004 0E       		.uleb128 0xe
 3528 0005 13       		.uleb128 0x13
 3529 0006 0B       		.uleb128 0xb
 3530 0007 03       		.uleb128 0x3
 3531 0008 0E       		.uleb128 0xe
 3532 0009 1B       		.uleb128 0x1b
 3533 000a 0E       		.uleb128 0xe
 3534 000b 55       		.uleb128 0x55
ARM GAS  /tmp/cckjBIeA.s 			page 63


 3535 000c 17       		.uleb128 0x17
 3536 000d 11       		.uleb128 0x11
 3537 000e 01       		.uleb128 0x1
 3538 000f 10       		.uleb128 0x10
 3539 0010 17       		.uleb128 0x17
 3540 0011 00       		.byte	0
 3541 0012 00       		.byte	0
 3542 0013 02       		.uleb128 0x2
 3543 0014 24       		.uleb128 0x24
 3544 0015 00       		.byte	0
 3545 0016 0B       		.uleb128 0xb
 3546 0017 0B       		.uleb128 0xb
 3547 0018 3E       		.uleb128 0x3e
 3548 0019 0B       		.uleb128 0xb
 3549 001a 03       		.uleb128 0x3
 3550 001b 08       		.uleb128 0x8
 3551 001c 00       		.byte	0
 3552 001d 00       		.byte	0
 3553 001e 03       		.uleb128 0x3
 3554 001f 16       		.uleb128 0x16
 3555 0020 00       		.byte	0
 3556 0021 03       		.uleb128 0x3
 3557 0022 0E       		.uleb128 0xe
 3558 0023 3A       		.uleb128 0x3a
 3559 0024 0B       		.uleb128 0xb
 3560 0025 3B       		.uleb128 0x3b
 3561 0026 0B       		.uleb128 0xb
 3562 0027 49       		.uleb128 0x49
 3563 0028 13       		.uleb128 0x13
 3564 0029 00       		.byte	0
 3565 002a 00       		.byte	0
 3566 002b 04       		.uleb128 0x4
 3567 002c 35       		.uleb128 0x35
 3568 002d 00       		.byte	0
 3569 002e 49       		.uleb128 0x49
 3570 002f 13       		.uleb128 0x13
 3571 0030 00       		.byte	0
 3572 0031 00       		.byte	0
 3573 0032 05       		.uleb128 0x5
 3574 0033 24       		.uleb128 0x24
 3575 0034 00       		.byte	0
 3576 0035 0B       		.uleb128 0xb
 3577 0036 0B       		.uleb128 0xb
 3578 0037 3E       		.uleb128 0x3e
 3579 0038 0B       		.uleb128 0xb
 3580 0039 03       		.uleb128 0x3
 3581 003a 0E       		.uleb128 0xe
 3582 003b 00       		.byte	0
 3583 003c 00       		.byte	0
 3584 003d 06       		.uleb128 0x6
 3585 003e 26       		.uleb128 0x26
 3586 003f 00       		.byte	0
 3587 0040 49       		.uleb128 0x49
 3588 0041 13       		.uleb128 0x13
 3589 0042 00       		.byte	0
 3590 0043 00       		.byte	0
 3591 0044 07       		.uleb128 0x7
ARM GAS  /tmp/cckjBIeA.s 			page 64


 3592 0045 13       		.uleb128 0x13
 3593 0046 01       		.byte	0x1
 3594 0047 03       		.uleb128 0x3
 3595 0048 0E       		.uleb128 0xe
 3596 0049 0B       		.uleb128 0xb
 3597 004a 0B       		.uleb128 0xb
 3598 004b 3A       		.uleb128 0x3a
 3599 004c 0B       		.uleb128 0xb
 3600 004d 3B       		.uleb128 0x3b
 3601 004e 0B       		.uleb128 0xb
 3602 004f 01       		.uleb128 0x1
 3603 0050 13       		.uleb128 0x13
 3604 0051 00       		.byte	0
 3605 0052 00       		.byte	0
 3606 0053 08       		.uleb128 0x8
 3607 0054 0D       		.uleb128 0xd
 3608 0055 00       		.byte	0
 3609 0056 03       		.uleb128 0x3
 3610 0057 0E       		.uleb128 0xe
 3611 0058 3A       		.uleb128 0x3a
 3612 0059 0B       		.uleb128 0xb
 3613 005a 3B       		.uleb128 0x3b
 3614 005b 0B       		.uleb128 0xb
 3615 005c 49       		.uleb128 0x49
 3616 005d 13       		.uleb128 0x13
 3617 005e 38       		.uleb128 0x38
 3618 005f 0B       		.uleb128 0xb
 3619 0060 00       		.byte	0
 3620 0061 00       		.byte	0
 3621 0062 09       		.uleb128 0x9
 3622 0063 0D       		.uleb128 0xd
 3623 0064 00       		.byte	0
 3624 0065 03       		.uleb128 0x3
 3625 0066 08       		.uleb128 0x8
 3626 0067 3A       		.uleb128 0x3a
 3627 0068 0B       		.uleb128 0xb
 3628 0069 3B       		.uleb128 0x3b
 3629 006a 05       		.uleb128 0x5
 3630 006b 49       		.uleb128 0x49
 3631 006c 13       		.uleb128 0x13
 3632 006d 38       		.uleb128 0x38
 3633 006e 0B       		.uleb128 0xb
 3634 006f 00       		.byte	0
 3635 0070 00       		.byte	0
 3636 0071 0A       		.uleb128 0xa
 3637 0072 0D       		.uleb128 0xd
 3638 0073 00       		.byte	0
 3639 0074 03       		.uleb128 0x3
 3640 0075 0E       		.uleb128 0xe
 3641 0076 3A       		.uleb128 0x3a
 3642 0077 0B       		.uleb128 0xb
 3643 0078 3B       		.uleb128 0x3b
 3644 0079 05       		.uleb128 0x5
 3645 007a 49       		.uleb128 0x49
 3646 007b 13       		.uleb128 0x13
 3647 007c 38       		.uleb128 0x38
 3648 007d 0B       		.uleb128 0xb
ARM GAS  /tmp/cckjBIeA.s 			page 65


 3649 007e 00       		.byte	0
 3650 007f 00       		.byte	0
 3651 0080 0B       		.uleb128 0xb
 3652 0081 0F       		.uleb128 0xf
 3653 0082 00       		.byte	0
 3654 0083 0B       		.uleb128 0xb
 3655 0084 0B       		.uleb128 0xb
 3656 0085 49       		.uleb128 0x49
 3657 0086 13       		.uleb128 0x13
 3658 0087 00       		.byte	0
 3659 0088 00       		.byte	0
 3660 0089 0C       		.uleb128 0xc
 3661 008a 13       		.uleb128 0x13
 3662 008b 01       		.byte	0x1
 3663 008c 03       		.uleb128 0x3
 3664 008d 0E       		.uleb128 0xe
 3665 008e 0B       		.uleb128 0xb
 3666 008f 0B       		.uleb128 0xb
 3667 0090 3A       		.uleb128 0x3a
 3668 0091 0B       		.uleb128 0xb
 3669 0092 3B       		.uleb128 0x3b
 3670 0093 05       		.uleb128 0x5
 3671 0094 01       		.uleb128 0x1
 3672 0095 13       		.uleb128 0x13
 3673 0096 00       		.byte	0
 3674 0097 00       		.byte	0
 3675 0098 0D       		.uleb128 0xd
 3676 0099 15       		.uleb128 0x15
 3677 009a 01       		.byte	0x1
 3678 009b 27       		.uleb128 0x27
 3679 009c 19       		.uleb128 0x19
 3680 009d 01       		.uleb128 0x1
 3681 009e 13       		.uleb128 0x13
 3682 009f 00       		.byte	0
 3683 00a0 00       		.byte	0
 3684 00a1 0E       		.uleb128 0xe
 3685 00a2 05       		.uleb128 0x5
 3686 00a3 00       		.byte	0
 3687 00a4 49       		.uleb128 0x49
 3688 00a5 13       		.uleb128 0x13
 3689 00a6 00       		.byte	0
 3690 00a7 00       		.byte	0
 3691 00a8 0F       		.uleb128 0xf
 3692 00a9 0F       		.uleb128 0xf
 3693 00aa 00       		.byte	0
 3694 00ab 0B       		.uleb128 0xb
 3695 00ac 0B       		.uleb128 0xb
 3696 00ad 00       		.byte	0
 3697 00ae 00       		.byte	0
 3698 00af 10       		.uleb128 0x10
 3699 00b0 13       		.uleb128 0x13
 3700 00b1 01       		.byte	0x1
 3701 00b2 03       		.uleb128 0x3
 3702 00b3 0E       		.uleb128 0xe
 3703 00b4 0B       		.uleb128 0xb
 3704 00b5 05       		.uleb128 0x5
 3705 00b6 3A       		.uleb128 0x3a
ARM GAS  /tmp/cckjBIeA.s 			page 66


 3706 00b7 0B       		.uleb128 0xb
 3707 00b8 3B       		.uleb128 0x3b
 3708 00b9 05       		.uleb128 0x5
 3709 00ba 01       		.uleb128 0x1
 3710 00bb 13       		.uleb128 0x13
 3711 00bc 00       		.byte	0
 3712 00bd 00       		.byte	0
 3713 00be 11       		.uleb128 0x11
 3714 00bf 34       		.uleb128 0x34
 3715 00c0 00       		.byte	0
 3716 00c1 03       		.uleb128 0x3
 3717 00c2 0E       		.uleb128 0xe
 3718 00c3 3A       		.uleb128 0x3a
 3719 00c4 0B       		.uleb128 0xb
 3720 00c5 3B       		.uleb128 0x3b
 3721 00c6 05       		.uleb128 0x5
 3722 00c7 49       		.uleb128 0x49
 3723 00c8 13       		.uleb128 0x13
 3724 00c9 3F       		.uleb128 0x3f
 3725 00ca 19       		.uleb128 0x19
 3726 00cb 3C       		.uleb128 0x3c
 3727 00cc 19       		.uleb128 0x19
 3728 00cd 00       		.byte	0
 3729 00ce 00       		.byte	0
 3730 00cf 12       		.uleb128 0x12
 3731 00d0 34       		.uleb128 0x34
 3732 00d1 00       		.byte	0
 3733 00d2 03       		.uleb128 0x3
 3734 00d3 0E       		.uleb128 0xe
 3735 00d4 3A       		.uleb128 0x3a
 3736 00d5 0B       		.uleb128 0xb
 3737 00d6 3B       		.uleb128 0x3b
 3738 00d7 0B       		.uleb128 0xb
 3739 00d8 49       		.uleb128 0x49
 3740 00d9 13       		.uleb128 0x13
 3741 00da 3F       		.uleb128 0x3f
 3742 00db 19       		.uleb128 0x19
 3743 00dc 3C       		.uleb128 0x3c
 3744 00dd 19       		.uleb128 0x19
 3745 00de 00       		.byte	0
 3746 00df 00       		.byte	0
 3747 00e0 13       		.uleb128 0x13
 3748 00e1 13       		.uleb128 0x13
 3749 00e2 01       		.byte	0x1
 3750 00e3 0B       		.uleb128 0xb
 3751 00e4 0B       		.uleb128 0xb
 3752 00e5 3A       		.uleb128 0x3a
 3753 00e6 0B       		.uleb128 0xb
 3754 00e7 3B       		.uleb128 0x3b
 3755 00e8 05       		.uleb128 0x5
 3756 00e9 01       		.uleb128 0x1
 3757 00ea 13       		.uleb128 0x13
 3758 00eb 00       		.byte	0
 3759 00ec 00       		.byte	0
 3760 00ed 14       		.uleb128 0x14
 3761 00ee 16       		.uleb128 0x16
 3762 00ef 00       		.byte	0
ARM GAS  /tmp/cckjBIeA.s 			page 67


 3763 00f0 03       		.uleb128 0x3
 3764 00f1 0E       		.uleb128 0xe
 3765 00f2 3A       		.uleb128 0x3a
 3766 00f3 0B       		.uleb128 0xb
 3767 00f4 3B       		.uleb128 0x3b
 3768 00f5 05       		.uleb128 0x5
 3769 00f6 49       		.uleb128 0x49
 3770 00f7 13       		.uleb128 0x13
 3771 00f8 00       		.byte	0
 3772 00f9 00       		.byte	0
 3773 00fa 15       		.uleb128 0x15
 3774 00fb 01       		.uleb128 0x1
 3775 00fc 01       		.byte	0x1
 3776 00fd 49       		.uleb128 0x49
 3777 00fe 13       		.uleb128 0x13
 3778 00ff 01       		.uleb128 0x1
 3779 0100 13       		.uleb128 0x13
 3780 0101 00       		.byte	0
 3781 0102 00       		.byte	0
 3782 0103 16       		.uleb128 0x16
 3783 0104 21       		.uleb128 0x21
 3784 0105 00       		.byte	0
 3785 0106 49       		.uleb128 0x49
 3786 0107 13       		.uleb128 0x13
 3787 0108 2F       		.uleb128 0x2f
 3788 0109 0B       		.uleb128 0xb
 3789 010a 00       		.byte	0
 3790 010b 00       		.byte	0
 3791 010c 17       		.uleb128 0x17
 3792 010d 0D       		.uleb128 0xd
 3793 010e 00       		.byte	0
 3794 010f 03       		.uleb128 0x3
 3795 0110 08       		.uleb128 0x8
 3796 0111 3A       		.uleb128 0x3a
 3797 0112 0B       		.uleb128 0xb
 3798 0113 3B       		.uleb128 0x3b
 3799 0114 0B       		.uleb128 0xb
 3800 0115 49       		.uleb128 0x49
 3801 0116 13       		.uleb128 0x13
 3802 0117 38       		.uleb128 0x38
 3803 0118 0B       		.uleb128 0xb
 3804 0119 00       		.byte	0
 3805 011a 00       		.byte	0
 3806 011b 18       		.uleb128 0x18
 3807 011c 13       		.uleb128 0x13
 3808 011d 01       		.byte	0x1
 3809 011e 0B       		.uleb128 0xb
 3810 011f 0B       		.uleb128 0xb
 3811 0120 3A       		.uleb128 0x3a
 3812 0121 0B       		.uleb128 0xb
 3813 0122 3B       		.uleb128 0x3b
 3814 0123 0B       		.uleb128 0xb
 3815 0124 01       		.uleb128 0x1
 3816 0125 13       		.uleb128 0x13
 3817 0126 00       		.byte	0
 3818 0127 00       		.byte	0
 3819 0128 19       		.uleb128 0x19
ARM GAS  /tmp/cckjBIeA.s 			page 68


 3820 0129 17       		.uleb128 0x17
 3821 012a 01       		.byte	0x1
 3822 012b 0B       		.uleb128 0xb
 3823 012c 0B       		.uleb128 0xb
 3824 012d 3A       		.uleb128 0x3a
 3825 012e 0B       		.uleb128 0xb
 3826 012f 3B       		.uleb128 0x3b
 3827 0130 0B       		.uleb128 0xb
 3828 0131 01       		.uleb128 0x1
 3829 0132 13       		.uleb128 0x13
 3830 0133 00       		.byte	0
 3831 0134 00       		.byte	0
 3832 0135 1A       		.uleb128 0x1a
 3833 0136 0D       		.uleb128 0xd
 3834 0137 00       		.byte	0
 3835 0138 03       		.uleb128 0x3
 3836 0139 0E       		.uleb128 0xe
 3837 013a 3A       		.uleb128 0x3a
 3838 013b 0B       		.uleb128 0xb
 3839 013c 3B       		.uleb128 0x3b
 3840 013d 05       		.uleb128 0x5
 3841 013e 49       		.uleb128 0x49
 3842 013f 13       		.uleb128 0x13
 3843 0140 00       		.byte	0
 3844 0141 00       		.byte	0
 3845 0142 1B       		.uleb128 0x1b
 3846 0143 34       		.uleb128 0x34
 3847 0144 00       		.byte	0
 3848 0145 03       		.uleb128 0x3
 3849 0146 08       		.uleb128 0x8
 3850 0147 3A       		.uleb128 0x3a
 3851 0148 0B       		.uleb128 0xb
 3852 0149 3B       		.uleb128 0x3b
 3853 014a 05       		.uleb128 0x5
 3854 014b 49       		.uleb128 0x49
 3855 014c 13       		.uleb128 0x13
 3856 014d 3F       		.uleb128 0x3f
 3857 014e 19       		.uleb128 0x19
 3858 014f 3C       		.uleb128 0x3c
 3859 0150 19       		.uleb128 0x19
 3860 0151 00       		.byte	0
 3861 0152 00       		.byte	0
 3862 0153 1C       		.uleb128 0x1c
 3863 0154 04       		.uleb128 0x4
 3864 0155 01       		.byte	0x1
 3865 0156 3E       		.uleb128 0x3e
 3866 0157 0B       		.uleb128 0xb
 3867 0158 0B       		.uleb128 0xb
 3868 0159 0B       		.uleb128 0xb
 3869 015a 49       		.uleb128 0x49
 3870 015b 13       		.uleb128 0x13
 3871 015c 3A       		.uleb128 0x3a
 3872 015d 0B       		.uleb128 0xb
 3873 015e 3B       		.uleb128 0x3b
 3874 015f 0B       		.uleb128 0xb
 3875 0160 01       		.uleb128 0x1
 3876 0161 13       		.uleb128 0x13
ARM GAS  /tmp/cckjBIeA.s 			page 69


 3877 0162 00       		.byte	0
 3878 0163 00       		.byte	0
 3879 0164 1D       		.uleb128 0x1d
 3880 0165 28       		.uleb128 0x28
 3881 0166 00       		.byte	0
 3882 0167 03       		.uleb128 0x3
 3883 0168 0E       		.uleb128 0xe
 3884 0169 1C       		.uleb128 0x1c
 3885 016a 0B       		.uleb128 0xb
 3886 016b 00       		.byte	0
 3887 016c 00       		.byte	0
 3888 016d 1E       		.uleb128 0x1e
 3889 016e 04       		.uleb128 0x4
 3890 016f 01       		.byte	0x1
 3891 0170 3E       		.uleb128 0x3e
 3892 0171 0B       		.uleb128 0xb
 3893 0172 0B       		.uleb128 0xb
 3894 0173 0B       		.uleb128 0xb
 3895 0174 49       		.uleb128 0x49
 3896 0175 13       		.uleb128 0x13
 3897 0176 3A       		.uleb128 0x3a
 3898 0177 0B       		.uleb128 0xb
 3899 0178 3B       		.uleb128 0x3b
 3900 0179 05       		.uleb128 0x5
 3901 017a 01       		.uleb128 0x1
 3902 017b 13       		.uleb128 0x13
 3903 017c 00       		.byte	0
 3904 017d 00       		.byte	0
 3905 017e 1F       		.uleb128 0x1f
 3906 017f 15       		.uleb128 0x15
 3907 0180 01       		.byte	0x1
 3908 0181 27       		.uleb128 0x27
 3909 0182 19       		.uleb128 0x19
 3910 0183 49       		.uleb128 0x49
 3911 0184 13       		.uleb128 0x13
 3912 0185 01       		.uleb128 0x1
 3913 0186 13       		.uleb128 0x13
 3914 0187 00       		.byte	0
 3915 0188 00       		.byte	0
 3916 0189 20       		.uleb128 0x20
 3917 018a 13       		.uleb128 0x13
 3918 018b 01       		.byte	0x1
 3919 018c 0B       		.uleb128 0xb
 3920 018d 06       		.uleb128 0x6
 3921 018e 3A       		.uleb128 0x3a
 3922 018f 0B       		.uleb128 0xb
 3923 0190 3B       		.uleb128 0x3b
 3924 0191 0B       		.uleb128 0xb
 3925 0192 01       		.uleb128 0x1
 3926 0193 13       		.uleb128 0x13
 3927 0194 00       		.byte	0
 3928 0195 00       		.byte	0
 3929 0196 21       		.uleb128 0x21
 3930 0197 0D       		.uleb128 0xd
 3931 0198 00       		.byte	0
 3932 0199 03       		.uleb128 0x3
 3933 019a 0E       		.uleb128 0xe
ARM GAS  /tmp/cckjBIeA.s 			page 70


 3934 019b 3A       		.uleb128 0x3a
 3935 019c 0B       		.uleb128 0xb
 3936 019d 3B       		.uleb128 0x3b
 3937 019e 0B       		.uleb128 0xb
 3938 019f 49       		.uleb128 0x49
 3939 01a0 13       		.uleb128 0x13
 3940 01a1 38       		.uleb128 0x38
 3941 01a2 05       		.uleb128 0x5
 3942 01a3 00       		.byte	0
 3943 01a4 00       		.byte	0
 3944 01a5 22       		.uleb128 0x22
 3945 01a6 0D       		.uleb128 0xd
 3946 01a7 00       		.byte	0
 3947 01a8 03       		.uleb128 0x3
 3948 01a9 08       		.uleb128 0x8
 3949 01aa 3A       		.uleb128 0x3a
 3950 01ab 0B       		.uleb128 0xb
 3951 01ac 3B       		.uleb128 0x3b
 3952 01ad 0B       		.uleb128 0xb
 3953 01ae 49       		.uleb128 0x49
 3954 01af 13       		.uleb128 0x13
 3955 01b0 38       		.uleb128 0x38
 3956 01b1 05       		.uleb128 0x5
 3957 01b2 00       		.byte	0
 3958 01b3 00       		.byte	0
 3959 01b4 23       		.uleb128 0x23
 3960 01b5 21       		.uleb128 0x21
 3961 01b6 00       		.byte	0
 3962 01b7 49       		.uleb128 0x49
 3963 01b8 13       		.uleb128 0x13
 3964 01b9 2F       		.uleb128 0x2f
 3965 01ba 05       		.uleb128 0x5
 3966 01bb 00       		.byte	0
 3967 01bc 00       		.byte	0
 3968 01bd 24       		.uleb128 0x24
 3969 01be 0D       		.uleb128 0xd
 3970 01bf 00       		.byte	0
 3971 01c0 03       		.uleb128 0x3
 3972 01c1 0E       		.uleb128 0xe
 3973 01c2 3A       		.uleb128 0x3a
 3974 01c3 0B       		.uleb128 0xb
 3975 01c4 3B       		.uleb128 0x3b
 3976 01c5 0B       		.uleb128 0xb
 3977 01c6 49       		.uleb128 0x49
 3978 01c7 13       		.uleb128 0x13
 3979 01c8 00       		.byte	0
 3980 01c9 00       		.byte	0
 3981 01ca 25       		.uleb128 0x25
 3982 01cb 17       		.uleb128 0x17
 3983 01cc 01       		.byte	0x1
 3984 01cd 0B       		.uleb128 0xb
 3985 01ce 0B       		.uleb128 0xb
 3986 01cf 3A       		.uleb128 0x3a
 3987 01d0 0B       		.uleb128 0xb
 3988 01d1 3B       		.uleb128 0x3b
 3989 01d2 05       		.uleb128 0x5
 3990 01d3 01       		.uleb128 0x1
ARM GAS  /tmp/cckjBIeA.s 			page 71


 3991 01d4 13       		.uleb128 0x13
 3992 01d5 00       		.byte	0
 3993 01d6 00       		.byte	0
 3994 01d7 26       		.uleb128 0x26
 3995 01d8 2E       		.uleb128 0x2e
 3996 01d9 01       		.byte	0x1
 3997 01da 3F       		.uleb128 0x3f
 3998 01db 19       		.uleb128 0x19
 3999 01dc 03       		.uleb128 0x3
 4000 01dd 0E       		.uleb128 0xe
 4001 01de 3A       		.uleb128 0x3a
 4002 01df 0B       		.uleb128 0xb
 4003 01e0 3B       		.uleb128 0x3b
 4004 01e1 0B       		.uleb128 0xb
 4005 01e2 27       		.uleb128 0x27
 4006 01e3 19       		.uleb128 0x19
 4007 01e4 49       		.uleb128 0x49
 4008 01e5 13       		.uleb128 0x13
 4009 01e6 11       		.uleb128 0x11
 4010 01e7 01       		.uleb128 0x1
 4011 01e8 12       		.uleb128 0x12
 4012 01e9 06       		.uleb128 0x6
 4013 01ea 40       		.uleb128 0x40
 4014 01eb 18       		.uleb128 0x18
 4015 01ec 9742     		.uleb128 0x2117
 4016 01ee 19       		.uleb128 0x19
 4017 01ef 01       		.uleb128 0x1
 4018 01f0 13       		.uleb128 0x13
 4019 01f1 00       		.byte	0
 4020 01f2 00       		.byte	0
 4021 01f3 27       		.uleb128 0x27
 4022 01f4 34       		.uleb128 0x34
 4023 01f5 00       		.byte	0
 4024 01f6 03       		.uleb128 0x3
 4025 01f7 0E       		.uleb128 0xe
 4026 01f8 49       		.uleb128 0x49
 4027 01f9 13       		.uleb128 0x13
 4028 01fa 34       		.uleb128 0x34
 4029 01fb 19       		.uleb128 0x19
 4030 01fc 00       		.byte	0
 4031 01fd 00       		.byte	0
 4032 01fe 28       		.uleb128 0x28
 4033 01ff 1D       		.uleb128 0x1d
 4034 0200 00       		.byte	0
 4035 0201 31       		.uleb128 0x31
 4036 0202 13       		.uleb128 0x13
 4037 0203 11       		.uleb128 0x11
 4038 0204 01       		.uleb128 0x1
 4039 0205 12       		.uleb128 0x12
 4040 0206 06       		.uleb128 0x6
 4041 0207 58       		.uleb128 0x58
 4042 0208 0B       		.uleb128 0xb
 4043 0209 59       		.uleb128 0x59
 4044 020a 0B       		.uleb128 0xb
 4045 020b 00       		.byte	0
 4046 020c 00       		.byte	0
 4047 020d 29       		.uleb128 0x29
ARM GAS  /tmp/cckjBIeA.s 			page 72


 4048 020e 2E       		.uleb128 0x2e
 4049 020f 01       		.byte	0x1
 4050 0210 3F       		.uleb128 0x3f
 4051 0211 19       		.uleb128 0x19
 4052 0212 03       		.uleb128 0x3
 4053 0213 0E       		.uleb128 0xe
 4054 0214 3A       		.uleb128 0x3a
 4055 0215 0B       		.uleb128 0xb
 4056 0216 3B       		.uleb128 0x3b
 4057 0217 0B       		.uleb128 0xb
 4058 0218 27       		.uleb128 0x27
 4059 0219 19       		.uleb128 0x19
 4060 021a 11       		.uleb128 0x11
 4061 021b 01       		.uleb128 0x1
 4062 021c 12       		.uleb128 0x12
 4063 021d 06       		.uleb128 0x6
 4064 021e 40       		.uleb128 0x40
 4065 021f 18       		.uleb128 0x18
 4066 0220 9742     		.uleb128 0x2117
 4067 0222 19       		.uleb128 0x19
 4068 0223 01       		.uleb128 0x1
 4069 0224 13       		.uleb128 0x13
 4070 0225 00       		.byte	0
 4071 0226 00       		.byte	0
 4072 0227 2A       		.uleb128 0x2a
 4073 0228 05       		.uleb128 0x5
 4074 0229 00       		.byte	0
 4075 022a 03       		.uleb128 0x3
 4076 022b 0E       		.uleb128 0xe
 4077 022c 3A       		.uleb128 0x3a
 4078 022d 0B       		.uleb128 0xb
 4079 022e 3B       		.uleb128 0x3b
 4080 022f 0B       		.uleb128 0xb
 4081 0230 49       		.uleb128 0x49
 4082 0231 13       		.uleb128 0x13
 4083 0232 02       		.uleb128 0x2
 4084 0233 18       		.uleb128 0x18
 4085 0234 00       		.byte	0
 4086 0235 00       		.byte	0
 4087 0236 2B       		.uleb128 0x2b
 4088 0237 1D       		.uleb128 0x1d
 4089 0238 01       		.byte	0x1
 4090 0239 31       		.uleb128 0x31
 4091 023a 13       		.uleb128 0x13
 4092 023b 11       		.uleb128 0x11
 4093 023c 01       		.uleb128 0x1
 4094 023d 12       		.uleb128 0x12
 4095 023e 06       		.uleb128 0x6
 4096 023f 58       		.uleb128 0x58
 4097 0240 0B       		.uleb128 0xb
 4098 0241 59       		.uleb128 0x59
 4099 0242 0B       		.uleb128 0xb
 4100 0243 00       		.byte	0
 4101 0244 00       		.byte	0
 4102 0245 2C       		.uleb128 0x2c
 4103 0246 05       		.uleb128 0x5
 4104 0247 00       		.byte	0
ARM GAS  /tmp/cckjBIeA.s 			page 73


 4105 0248 31       		.uleb128 0x31
 4106 0249 13       		.uleb128 0x13
 4107 024a 02       		.uleb128 0x2
 4108 024b 17       		.uleb128 0x17
 4109 024c 00       		.byte	0
 4110 024d 00       		.byte	0
 4111 024e 2D       		.uleb128 0x2d
 4112 024f 898201   		.uleb128 0x4109
 4113 0252 00       		.byte	0
 4114 0253 11       		.uleb128 0x11
 4115 0254 01       		.uleb128 0x1
 4116 0255 9542     		.uleb128 0x2115
 4117 0257 19       		.uleb128 0x19
 4118 0258 31       		.uleb128 0x31
 4119 0259 13       		.uleb128 0x13
 4120 025a 00       		.byte	0
 4121 025b 00       		.byte	0
 4122 025c 2E       		.uleb128 0x2e
 4123 025d 2E       		.uleb128 0x2e
 4124 025e 00       		.byte	0
 4125 025f 03       		.uleb128 0x3
 4126 0260 0E       		.uleb128 0xe
 4127 0261 3A       		.uleb128 0x3a
 4128 0262 0B       		.uleb128 0xb
 4129 0263 3B       		.uleb128 0x3b
 4130 0264 0B       		.uleb128 0xb
 4131 0265 27       		.uleb128 0x27
 4132 0266 19       		.uleb128 0x19
 4133 0267 49       		.uleb128 0x49
 4134 0268 13       		.uleb128 0x13
 4135 0269 20       		.uleb128 0x20
 4136 026a 0B       		.uleb128 0xb
 4137 026b 00       		.byte	0
 4138 026c 00       		.byte	0
 4139 026d 2F       		.uleb128 0x2f
 4140 026e 2E       		.uleb128 0x2e
 4141 026f 01       		.byte	0x1
 4142 0270 03       		.uleb128 0x3
 4143 0271 0E       		.uleb128 0xe
 4144 0272 3A       		.uleb128 0x3a
 4145 0273 0B       		.uleb128 0xb
 4146 0274 3B       		.uleb128 0x3b
 4147 0275 0B       		.uleb128 0xb
 4148 0276 27       		.uleb128 0x27
 4149 0277 19       		.uleb128 0x19
 4150 0278 20       		.uleb128 0x20
 4151 0279 0B       		.uleb128 0xb
 4152 027a 01       		.uleb128 0x1
 4153 027b 13       		.uleb128 0x13
 4154 027c 00       		.byte	0
 4155 027d 00       		.byte	0
 4156 027e 30       		.uleb128 0x30
 4157 027f 05       		.uleb128 0x5
 4158 0280 00       		.byte	0
 4159 0281 03       		.uleb128 0x3
 4160 0282 0E       		.uleb128 0xe
 4161 0283 3A       		.uleb128 0x3a
ARM GAS  /tmp/cckjBIeA.s 			page 74


 4162 0284 0B       		.uleb128 0xb
 4163 0285 3B       		.uleb128 0x3b
 4164 0286 0B       		.uleb128 0xb
 4165 0287 49       		.uleb128 0x49
 4166 0288 13       		.uleb128 0x13
 4167 0289 00       		.byte	0
 4168 028a 00       		.byte	0
 4169 028b 31       		.uleb128 0x31
 4170 028c 2E       		.uleb128 0x2e
 4171 028d 00       		.byte	0
 4172 028e 03       		.uleb128 0x3
 4173 028f 0E       		.uleb128 0xe
 4174 0290 3A       		.uleb128 0x3a
 4175 0291 0B       		.uleb128 0xb
 4176 0292 3B       		.uleb128 0x3b
 4177 0293 0B       		.uleb128 0xb
 4178 0294 27       		.uleb128 0x27
 4179 0295 19       		.uleb128 0x19
 4180 0296 20       		.uleb128 0x20
 4181 0297 0B       		.uleb128 0xb
 4182 0298 00       		.byte	0
 4183 0299 00       		.byte	0
 4184 029a 32       		.uleb128 0x32
 4185 029b 2E       		.uleb128 0x2e
 4186 029c 00       		.byte	0
 4187 029d 3F       		.uleb128 0x3f
 4188 029e 19       		.uleb128 0x19
 4189 029f 3C       		.uleb128 0x3c
 4190 02a0 19       		.uleb128 0x19
 4191 02a1 6E       		.uleb128 0x6e
 4192 02a2 0E       		.uleb128 0xe
 4193 02a3 03       		.uleb128 0x3
 4194 02a4 0E       		.uleb128 0xe
 4195 02a5 3A       		.uleb128 0x3a
 4196 02a6 0B       		.uleb128 0xb
 4197 02a7 3B       		.uleb128 0x3b
 4198 02a8 0B       		.uleb128 0xb
 4199 02a9 00       		.byte	0
 4200 02aa 00       		.byte	0
 4201 02ab 00       		.byte	0
 4202              		.section	.debug_loc,"",%progbits
 4203              	.Ldebug_loc0:
 4204              	.LLST1:
 4205 0000 04000000 		.4byte	.LVL5
 4206 0004 06000000 		.4byte	.LVL6
 4207 0008 0100     		.2byte	0x1
 4208 000a 50       		.byte	0x50
 4209 000b 00000000 		.4byte	0
 4210 000f 00000000 		.4byte	0
 4211              	.LLST0:
 4212 0013 04000000 		.4byte	.LVL2
 4213 0017 0E000000 		.4byte	.LVL3
 4214 001b 0100     		.2byte	0x1
 4215 001d 50       		.byte	0x50
 4216 001e 00000000 		.4byte	0
 4217 0022 00000000 		.4byte	0
 4218              		.section	.debug_aranges,"",%progbits
ARM GAS  /tmp/cckjBIeA.s 			page 75


 4219 0000 3C000000 		.4byte	0x3c
 4220 0004 0200     		.2byte	0x2
 4221 0006 00000000 		.4byte	.Ldebug_info0
 4222 000a 04       		.byte	0x4
 4223 000b 00       		.byte	0
 4224 000c 0000     		.2byte	0
 4225 000e 0000     		.2byte	0
 4226 0010 00000000 		.4byte	.LFB260
 4227 0014 04000000 		.4byte	.LFE260-.LFB260
 4228 0018 00000000 		.4byte	.LFB261
 4229 001c 10000000 		.4byte	.LFE261-.LFB261
 4230 0020 00000000 		.4byte	.LFB262
 4231 0024 0A000000 		.4byte	.LFE262-.LFB262
 4232 0028 00000000 		.4byte	.LFB263
 4233 002c 08000000 		.4byte	.LFE263-.LFB263
 4234 0030 00000000 		.4byte	.LFB264
 4235 0034 08000000 		.4byte	.LFE264-.LFB264
 4236 0038 00000000 		.4byte	0
 4237 003c 00000000 		.4byte	0
 4238              		.section	.debug_ranges,"",%progbits
 4239              	.Ldebug_ranges0:
 4240 0000 00000000 		.4byte	.LFB260
 4241 0004 04000000 		.4byte	.LFE260
 4242 0008 00000000 		.4byte	.LFB261
 4243 000c 10000000 		.4byte	.LFE261
 4244 0010 00000000 		.4byte	.LFB262
 4245 0014 0A000000 		.4byte	.LFE262
 4246 0018 00000000 		.4byte	.LFB263
 4247 001c 08000000 		.4byte	.LFE263
 4248 0020 00000000 		.4byte	.LFB264
 4249 0024 08000000 		.4byte	.LFE264
 4250 0028 00000000 		.4byte	0
 4251 002c 00000000 		.4byte	0
 4252              		.section	.debug_line,"",%progbits
 4253              	.Ldebug_line0:
 4254 0000 21040000 		.section	.debug_str,"MS",%progbits,1
 4254      02009C03 
 4254      00000201 
 4254      FB0E0D00 
 4254      01010101 
 4255              	.LASF86:
 4256 0000 4D314152 		.ascii	"M1AR\000"
 4256      00
 4257              	.LASF160:
 4258 0005 73746D33 		.ascii	"stm32_dma_stream_t\000"
 4258      325F646D 
 4258      615F7374 
 4258      7265616D 
 4258      5F7400
 4259              	.LASF4:
 4260 0018 73697A65 		.ascii	"size_t\000"
 4260      5F7400
 4261              	.LASF110:
 4262 001f 77747365 		.ascii	"wtsemp\000"
 4262      6D7000
 4263              	.LASF132:
 4264 0026 63665F6F 		.ascii	"cf_off_name\000"
ARM GAS  /tmp/cckjBIeA.s 			page 76


 4264      66665F6E 
 4264      616D6500 
 4265              	.LASF29:
 4266 0032 73797374 		.ascii	"systime_t\000"
 4266      696D655F 
 4266      7400
 4267              	.LASF182:
 4268 003c 55415254 		.ascii	"UART_STOP\000"
 4268      5F53544F 
 4268      5000
 4269              	.LASF121:
 4270 0046 63685F69 		.ascii	"ch_identifier\000"
 4270      64656E74 
 4270      69666965 
 4270      7200
 4271              	.LASF34:
 4272 0054 705F6374 		.ascii	"p_ctx\000"
 4272      7800
 4273              	.LASF25:
 4274 005a 74707269 		.ascii	"tprio_t\000"
 4274      6F5F7400 
 4275              	.LASF140:
 4276 0062 63685F64 		.ascii	"ch_debug\000"
 4276      65627567 
 4276      00
 4277              	.LASF42:
 4278 006b 705F6D73 		.ascii	"p_msgqueue\000"
 4278      67717565 
 4278      756500
 4279              	.LASF58:
 4280 0076 725F6374 		.ascii	"r_ctx\000"
 4280      7800
 4281              	.LASF18:
 4282 007c 696E7433 		.ascii	"int32_t\000"
 4282      325F7400 
 4283              	.LASF273:
 4284 0084 72657376 		.ascii	"resvd4\000"
 4284      643400
 4285              	.LASF264:
 4286 008b 72657376 		.ascii	"resvd8\000"
 4286      643800
 4287              	.LASF129:
 4288 0092 63665F6F 		.ascii	"cf_off_ctx\000"
 4288      66665F63 
 4288      747800
 4289              	.LASF62:
 4290 009d 76746675 		.ascii	"vtfunc_t\000"
 4290      6E635F74 
 4290      00
 4291              	.LASF275:
 4292 00a6 72657376 		.ascii	"resvdC\000"
 4292      644300
 4293              	.LASF71:
 4294 00ad 63685F76 		.ascii	"ch_virtual_timers_list\000"
 4294      69727475 
 4294      616C5F74 
 4294      696D6572 
ARM GAS  /tmp/cckjBIeA.s 			page 77


 4294      735F6C69 
 4295              	.LASF374:
 4296 00c4 5F5F6675 		.ascii	"__func__\000"
 4296      6E635F5F 
 4296      00
 4297              	.LASF241:
 4298 00cd 5553425F 		.ascii	"USB_EP0_TX\000"
 4298      4550305F 
 4298      545800
 4299              	.LASF304:
 4300 00d8 48464952 		.ascii	"HFIR\000"
 4300      00
 4301              	.LASF267:
 4302 00dd 48435453 		.ascii	"HCTSIZ\000"
 4302      495A00
 4303              	.LASF313:
 4304 00e4 72657376 		.ascii	"resvd700\000"
 4304      64373030 
 4304      00
 4305              	.LASF198:
 4306 00ed 636F6E66 		.ascii	"config\000"
 4306      696700
 4307              	.LASF195:
 4308 00f4 73746174 		.ascii	"state\000"
 4308      6500
 4309              	.LASF357:
 4310 00fa 65705F6D 		.ascii	"ep_mode\000"
 4310      6F646500 
 4311              	.LASF174:
 4312 0102 50454461 		.ascii	"PEData\000"
 4312      746100
 4313              	.LASF197:
 4314 0109 72787374 		.ascii	"rxstate\000"
 4314      61746500 
 4315              	.LASF125:
 4316 0111 63685F70 		.ascii	"ch_ptrsize\000"
 4316      74727369 
 4316      7A6500
 4317              	.LASF238:
 4318 011c 5553425F 		.ascii	"USB_ACTIVE\000"
 4318      41435449 
 4318      564500
 4319              	.LASF100:
 4320 0127 444D4152 		.ascii	"DMAR\000"
 4320      00
 4321              	.LASF209:
 4322 012c 7278656E 		.ascii	"rxend_cb\000"
 4322      645F6362 
 4322      00
 4323              	.LASF169:
 4324 0135 73746D33 		.ascii	"stm32_gpio_setup_t\000"
 4324      325F6770 
 4324      696F5F73 
 4324      65747570 
 4324      5F7400
 4325              	.LASF118:
 4326 0148 6D5F6F77 		.ascii	"m_owner\000"
ARM GAS  /tmp/cckjBIeA.s 			page 78


 4326      6E657200 
 4327              	.LASF69:
 4328 0150 76745F70 		.ascii	"vt_par\000"
 4328      617200
 4329              	.LASF107:
 4330 0157 65786974 		.ascii	"exitcode\000"
 4330      636F6465 
 4330      00
 4331              	.LASF247:
 4332 0160 75736265 		.ascii	"usbep0state_t\000"
 4332      70307374 
 4332      6174655F 
 4332      7400
 4333              	.LASF5:
 4334 016e 5F5F7569 		.ascii	"__uint8_t\000"
 4334      6E74385F 
 4334      7400
 4335              	.LASF147:
 4336 0178 715F746F 		.ascii	"q_top\000"
 4336      7000
 4337              	.LASF127:
 4338 017e 63685F74 		.ascii	"ch_threadsize\000"
 4338      68726561 
 4338      6473697A 
 4338      6500
 4339              	.LASF146:
 4340 018c 715F6275 		.ascii	"q_buffer\000"
 4340      66666572 
 4340      00
 4341              	.LASF387:
 4342 0195 73745F6C 		.ascii	"st_lld_get_alarm\000"
 4342      6C645F67 
 4342      65745F61 
 4342      6C61726D 
 4342      00
 4343              	.LASF249:
 4344 01a6 5553425F 		.ascii	"USB_EVENT_ADDRESS\000"
 4344      4556454E 
 4344      545F4144 
 4344      44524553 
 4344      5300
 4345              	.LASF294:
 4346 01b8 44494550 		.ascii	"DIEPTXF0\000"
 4346      54584630 
 4346      00
 4347              	.LASF150:
 4348 01c1 715F6E6F 		.ascii	"q_notify\000"
 4348      74696679 
 4348      00
 4349              	.LASF35:
 4350 01ca 705F6E65 		.ascii	"p_newer\000"
 4350      77657200 
 4351              	.LASF194:
 4352 01d2 55415254 		.ascii	"UARTDriver\000"
 4352      44726976 
 4352      657200
 4353              	.LASF11:
ARM GAS  /tmp/cckjBIeA.s 			page 79


 4354 01dd 6C6F6E67 		.ascii	"long int\000"
 4354      20696E74 
 4354      00
 4355              	.LASF31:
 4356 01e6 705F6E65 		.ascii	"p_next\000"
 4356      787400
 4357              	.LASF149:
 4358 01ed 715F7264 		.ascii	"q_rdptr\000"
 4358      70747200 
 4359              	.LASF134:
 4360 01f5 63665F6F 		.ascii	"cf_off_state\000"
 4360      66665F73 
 4360      74617465 
 4360      00
 4361              	.LASF32:
 4362 0202 705F7072 		.ascii	"p_prev\000"
 4362      657600
 4363              	.LASF23:
 4364 0209 74737461 		.ascii	"tstate_t\000"
 4364      74655F74 
 4364      00
 4365              	.LASF52:
 4366 0212 74687265 		.ascii	"threads_queue_t\000"
 4366      6164735F 
 4366      71756575 
 4366      655F7400 
 4367              	.LASF45:
 4368 0222 705F6D74 		.ascii	"p_mtxlist\000"
 4368      786C6973 
 4368      7400
 4369              	.LASF342:
 4370 022c 74786275 		.ascii	"txbuf\000"
 4370      6600
 4371              	.LASF90:
 4372 0232 72656761 		.ascii	"regarm_t\000"
 4372      726D5F74 
 4372      00
 4373              	.LASF320:
 4374 023b 4441494E 		.ascii	"DAINT\000"
 4374      5400
 4375              	.LASF240:
 4376 0241 5553425F 		.ascii	"USB_EP0_WAITING_SETUP\000"
 4376      4550305F 
 4376      57414954 
 4376      494E475F 
 4376      53455455 
 4377              	.LASF319:
 4378 0257 444F4550 		.ascii	"DOEPMSK\000"
 4378      4D534B00 
 4379              	.LASF196:
 4380 025f 74787374 		.ascii	"txstate\000"
 4380      61746500 
 4381              	.LASF143:
 4382 0267 696F5F71 		.ascii	"io_queue\000"
 4382      75657565 
 4382      00
 4383              	.LASF188:
ARM GAS  /tmp/cckjBIeA.s 			page 80


 4384 0270 75617274 		.ascii	"uarttxstate_t\000"
 4384      74787374 
 4384      6174655F 
 4384      7400
 4385              	.LASF280:
 4386 027e 444F4550 		.ascii	"DOEPCTL\000"
 4386      43544C00 
 4387              	.LASF199:
 4388 0286 75736172 		.ascii	"usart\000"
 4388      7400
 4389              	.LASF180:
 4390 028c 70616C5F 		.ascii	"pal_default_config\000"
 4390      64656661 
 4390      756C745F 
 4390      636F6E66 
 4390      696700
 4391              	.LASF3:
 4392 029f 7369676E 		.ascii	"signed char\000"
 4392      65642063 
 4392      68617200 
 4393              	.LASF112:
 4394 02ab 65776D61 		.ascii	"ewmask\000"
 4394      736B00
 4395              	.LASF16:
 4396 02b2 75696E74 		.ascii	"uint8_t\000"
 4396      385F7400 
 4397              	.LASF253:
 4398 02ba 5553425F 		.ascii	"USB_EVENT_STALLED\000"
 4398      4556454E 
 4398      545F5354 
 4398      414C4C45 
 4398      4400
 4399              	.LASF281:
 4400 02cc 444F4550 		.ascii	"DOEPINT\000"
 4400      494E5400 
 4401              	.LASF27:
 4402 02d4 6576656E 		.ascii	"eventmask_t\000"
 4402      746D6173 
 4402      6B5F7400 
 4403              	.LASF92:
 4404 02e0 636F6E74 		.ascii	"context\000"
 4404      65787400 
 4405              	.LASF354:
 4406 02e8 72787369 		.ascii	"rxsize\000"
 4406      7A6500
 4407              	.LASF109:
 4408 02ef 77747472 		.ascii	"wttrp\000"
 4408      7000
 4409              	.LASF166:
 4410 02f5 70757064 		.ascii	"pupdr\000"
 4410      7200
 4411              	.LASF6:
 4412 02fb 756E7369 		.ascii	"unsigned char\000"
 4412      676E6564 
 4412      20636861 
 4412      7200
 4413              	.LASF246:
ARM GAS  /tmp/cckjBIeA.s 			page 81


 4414 0309 5553425F 		.ascii	"USB_EP0_ERROR\000"
 4414      4550305F 
 4414      4552524F 
 4414      5200
 4415              	.LASF151:
 4416 0317 715F6C69 		.ascii	"q_link\000"
 4416      6E6B00
 4417              	.LASF173:
 4418 031e 50444461 		.ascii	"PDData\000"
 4418      746100
 4419              	.LASF75:
 4420 0325 70616E69 		.ascii	"panic_msg\000"
 4420      635F6D73 
 4420      6700
 4421              	.LASF314:
 4422 032f 44434647 		.ascii	"DCFG\000"
 4422      00
 4423              	.LASF332:
 4424 0334 72657376 		.ascii	"resvd8C0\000"
 4424      64384330 
 4424      00
 4425              	.LASF59:
 4426 033d 725F6E65 		.ascii	"r_newer\000"
 4426      77657200 
 4427              	.LASF298:
 4428 0345 47434346 		.ascii	"GCCFG\000"
 4428      4700
 4429              	.LASF220:
 4430 034b 65703073 		.ascii	"ep0state\000"
 4430      74617465 
 4430      00
 4431              	.LASF73:
 4432 0354 73797374 		.ascii	"system_debug_t\000"
 4432      656D5F64 
 4432      65627567 
 4432      5F7400
 4433              	.LASF276:
 4434 0363 44494550 		.ascii	"DIEPTSIZ\000"
 4434      5453495A 
 4434      00
 4435              	.LASF370:
 4436 036c 72657175 		.ascii	"requests_hook_cb\000"
 4436      65737473 
 4436      5F686F6F 
 4436      6B5F6362 
 4436      00
 4437              	.LASF162:
 4438 037d 5F426F6F 		.ascii	"_Bool\000"
 4438      6C00
 4439              	.LASF303:
 4440 0383 48434647 		.ascii	"HCFG\000"
 4440      00
 4441              	.LASF263:
 4442 0388 48434348 		.ascii	"HCCHAR\000"
 4442      415200
 4443              	.LASF96:
 4444 038f 43434D52 		.ascii	"CCMR1\000"
ARM GAS  /tmp/cckjBIeA.s 			page 82


 4444      3100
 4445              	.LASF97:
 4446 0395 43434D52 		.ascii	"CCMR2\000"
 4446      3200
 4447              	.LASF101:
 4448 039b 43434D52 		.ascii	"CCMR3\000"
 4448      3300
 4449              	.LASF283:
 4450 03a1 73746D33 		.ascii	"stm32_otg_out_ep_t\000"
 4450      325F6F74 
 4450      675F6F75 
 4450      745F6570 
 4450      5F7400
 4451              	.LASF389:
 4452 03b4 73745F6C 		.ascii	"st_lld_init\000"
 4452      6C645F69 
 4452      6E697400 
 4453              	.LASF120:
 4454 03c0 63686172 		.ascii	"char\000"
 4454      00
 4455              	.LASF163:
 4456 03c5 6D6F6465 		.ascii	"moder\000"
 4456      7200
 4457              	.LASF157:
 4458 03cb 69736869 		.ascii	"ishift\000"
 4458      667400
 4459              	.LASF222:
 4460 03d2 6570306E 		.ascii	"ep0n\000"
 4460      00
 4461              	.LASF317:
 4462 03d7 72657376 		.ascii	"resvd80C\000"
 4462      64383043 
 4462      00
 4463              	.LASF311:
 4464 03e0 48505254 		.ascii	"HPRT\000"
 4464      00
 4465              	.LASF33:
 4466 03e5 705F7072 		.ascii	"p_prio\000"
 4466      696F00
 4467              	.LASF217:
 4468 03ec 72656365 		.ascii	"receiving\000"
 4468      6976696E 
 4468      6700
 4469              	.LASF8:
 4470 03f6 5F5F7569 		.ascii	"__uint16_t\000"
 4470      6E743136 
 4470      5F7400
 4471              	.LASF215:
 4472 0401 55534244 		.ascii	"USBDriver\000"
 4472      72697665 
 4472      7200
 4473              	.LASF108:
 4474 040b 77746F62 		.ascii	"wtobjp\000"
 4474      6A7000
 4475              	.LASF130:
 4476 0412 63665F6F 		.ascii	"cf_off_newer\000"
 4476      66665F6E 
ARM GAS  /tmp/cckjBIeA.s 			page 83


 4476      65776572 
 4476      00
 4477              	.LASF359:
 4478 041f 696E5F63 		.ascii	"in_cb\000"
 4478      6200
 4479              	.LASF91:
 4480 0425 73746B61 		.ascii	"stkalign_t\000"
 4480      6C69676E 
 4480      5F7400
 4481              	.LASF89:
 4482 0430 55534152 		.ascii	"USART_TypeDef\000"
 4482      545F5479 
 4482      70654465 
 4482      6600
 4483              	.LASF305:
 4484 043e 48464E55 		.ascii	"HFNUM\000"
 4484      4D00
 4485              	.LASF260:
 4486 0444 75736265 		.ascii	"usbeventcb_t\000"
 4486      76656E74 
 4486      63625F74 
 4486      00
 4487              	.LASF375:
 4488 0451 73745365 		.ascii	"stSetAlarm\000"
 4488      74416C61 
 4488      726D00
 4489              	.LASF128:
 4490 045c 63665F6F 		.ascii	"cf_off_prio\000"
 4490      66665F70 
 4490      72696F00 
 4491              	.LASF155:
 4492 0468 73747265 		.ascii	"stream\000"
 4492      616D00
 4493              	.LASF271:
 4494 046f 73746D33 		.ascii	"stm32_otg_host_chn_t\000"
 4494      325F6F74 
 4494      675F686F 
 4494      73745F63 
 4494      686E5F74 
 4495              	.LASF216:
 4496 0484 7472616E 		.ascii	"transmitting\000"
 4496      736D6974 
 4496      74696E67 
 4496      00
 4497              	.LASF102:
 4498 0491 43435852 		.ascii	"CCXR\000"
 4498      00
 4499              	.LASF351:
 4500 0496 55534249 		.ascii	"USBInEndpointState\000"
 4500      6E456E64 
 4500      706F696E 
 4500      74537461 
 4500      746500
 4501              	.LASF322:
 4502 04a9 72657376 		.ascii	"resvd820\000"
 4502      64383230 
 4502      00
ARM GAS  /tmp/cckjBIeA.s 			page 84


 4503              	.LASF323:
 4504 04b2 72657376 		.ascii	"resvd824\000"
 4504      64383234 
 4504      00
 4505              	.LASF325:
 4506 04bb 44564255 		.ascii	"DVBUSPULSE\000"
 4506      5350554C 
 4506      534500
 4507              	.LASF28:
 4508 04c6 636E745F 		.ascii	"cnt_t\000"
 4508      7400
 4509              	.LASF210:
 4510 04cc 72786368 		.ascii	"rxchar_cb\000"
 4510      61725F63 
 4510      6200
 4511              	.LASF68:
 4512 04d6 76745F66 		.ascii	"vt_func\000"
 4512      756E6300 
 4513              	.LASF257:
 4514 04de 55534244 		.ascii	"USBDescriptor\000"
 4514      65736372 
 4514      6970746F 
 4514      7200
 4515              	.LASF341:
 4516 04ec 73746D33 		.ascii	"stm32_otg_params_t\000"
 4516      325F6F74 
 4516      675F7061 
 4516      72616D73 
 4516      5F7400
 4517              	.LASF224:
 4518 04ff 73657475 		.ascii	"setup\000"
 4518      7000
 4519              	.LASF212:
 4520 0505 73706565 		.ascii	"speed\000"
 4520      6400
 4521              	.LASF44:
 4522 050b 705F6570 		.ascii	"p_epending\000"
 4522      656E6469 
 4522      6E6700
 4523              	.LASF111:
 4524 0516 77746D74 		.ascii	"wtmtxp\000"
 4524      787000
 4525              	.LASF254:
 4526 051d 75736265 		.ascii	"usbevent_t\000"
 4526      76656E74 
 4526      5F7400
 4527              	.LASF55:
 4528 0528 63685F72 		.ascii	"ch_ready_list\000"
 4528      65616479 
 4528      5F6C6973 
 4528      7400
 4529              	.LASF255:
 4530 0536 75645F73 		.ascii	"ud_size\000"
 4530      697A6500 
 4531              	.LASF165:
 4532 053e 6F737065 		.ascii	"ospeedr\000"
 4532      65647200 
ARM GAS  /tmp/cckjBIeA.s 			page 85


 4533              	.LASF388:
 4534 0546 73745F6C 		.ascii	"st_lld_stop_alarm\000"
 4534      6C645F73 
 4534      746F705F 
 4534      616C6172 
 4534      6D00
 4535              	.LASF237:
 4536 0558 5553425F 		.ascii	"USB_SELECTED\000"
 4536      53454C45 
 4536      43544544 
 4536      00
 4537              	.LASF384:
 4538 0565 43686962 		.ascii	"ChibiOS_3.0.2/os/hal/src/st.c\000"
 4538      694F535F 
 4538      332E302E 
 4538      322F6F73 
 4538      2F68616C 
 4539              	.LASF172:
 4540 0583 50434461 		.ascii	"PCData\000"
 4540      746100
 4541              	.LASF227:
 4542 058a 636F6E66 		.ascii	"configuration\000"
 4542      69677572 
 4542      6174696F 
 4542      6E00
 4543              	.LASF308:
 4544 0598 4841494E 		.ascii	"HAINT\000"
 4544      5400
 4545              	.LASF293:
 4546 059e 47525846 		.ascii	"GRXFSIZ\000"
 4546      53495A00 
 4547              	.LASF348:
 4548 05a6 7478636E 		.ascii	"txcnt\000"
 4548      7400
 4549              	.LASF145:
 4550 05ac 715F636F 		.ascii	"q_counter\000"
 4550      756E7465 
 4550      7200
 4551              	.LASF330:
 4552 05b6 72657376 		.ascii	"resvd840\000"
 4552      64383430 
 4552      00
 4553              	.LASF168:
 4554 05bf 61667268 		.ascii	"afrh\000"
 4554      00
 4555              	.LASF14:
 4556 05c4 5F5F7569 		.ascii	"__uint64_t\000"
 4556      6E743634 
 4556      5F7400
 4557              	.LASF301:
 4558 05cf 44494550 		.ascii	"DIEPTXF\000"
 4558      54584600 
 4559              	.LASF13:
 4560 05d7 6C6F6E67 		.ascii	"long unsigned int\000"
 4560      20756E73 
 4560      69676E65 
 4560      6420696E 
ARM GAS  /tmp/cckjBIeA.s 			page 86


 4560      7400
 4561              	.LASF122:
 4562 05e9 63685F7A 		.ascii	"ch_zero\000"
 4562      65726F00 
 4563              	.LASF213:
 4564 05f1 55415254 		.ascii	"UARTConfig\000"
 4564      436F6E66 
 4564      696700
 4565              	.LASF225:
 4566 05fc 73746174 		.ascii	"status\000"
 4566      757300
 4567              	.LASF95:
 4568 0603 44494552 		.ascii	"DIER\000"
 4568      00
 4569              	.LASF226:
 4570 0608 61646472 		.ascii	"address\000"
 4570      65737300 
 4571              	.LASF164:
 4572 0610 6F747970 		.ascii	"otyper\000"
 4572      657200
 4573              	.LASF83:
 4574 0617 53797374 		.ascii	"SystemCoreClock\000"
 4574      656D436F 
 4574      7265436C 
 4574      6F636B00 
 4575              	.LASF113:
 4576 0627 63685F73 		.ascii	"ch_semaphore\000"
 4576      656D6170 
 4576      686F7265 
 4576      00
 4577              	.LASF223:
 4578 0634 65703065 		.ascii	"ep0endcb\000"
 4578      6E646362 
 4578      00
 4579              	.LASF50:
 4580 063d 63685F74 		.ascii	"ch_thread\000"
 4580      68726561 
 4580      6400
 4581              	.LASF286:
 4582 0647 47414842 		.ascii	"GAHBCFG\000"
 4582      43464700 
 4583              	.LASF70:
 4584 064f 76697274 		.ascii	"virtual_timers_list_t\000"
 4584      75616C5F 
 4584      74696D65 
 4584      72735F6C 
 4584      6973745F 
 4585              	.LASF365:
 4586 0665 696E5F6D 		.ascii	"in_multiplier\000"
 4586      756C7469 
 4586      706C6965 
 4586      7200
 4587              	.LASF161:
 4588 0673 5F73746D 		.ascii	"_stm32_dma_streams\000"
 4588      33325F64 
 4588      6D615F73 
 4588      74726561 
ARM GAS  /tmp/cckjBIeA.s 			page 87


 4588      6D7300
 4589              	.LASF208:
 4590 0686 7478656E 		.ascii	"txend2_cb\000"
 4590      64325F63 
 4590      6200
 4591              	.LASF340:
 4592 0690 6E756D5F 		.ascii	"num_endpoints\000"
 4592      656E6470 
 4592      6F696E74 
 4592      7300
 4593              	.LASF63:
 4594 069e 76697274 		.ascii	"virtual_timer_t\000"
 4594      75616C5F 
 4594      74696D65 
 4594      725F7400 
 4595              	.LASF54:
 4596 06ae 72656164 		.ascii	"ready_list_t\000"
 4596      795F6C69 
 4596      73745F74 
 4596      00
 4597              	.LASF148:
 4598 06bb 715F7772 		.ascii	"q_wrptr\000"
 4598      70747200 
 4599              	.LASF206:
 4600 06c3 75617274 		.ascii	"uartecb_t\000"
 4600      6563625F 
 4600      7400
 4601              	.LASF347:
 4602 06cd 74787369 		.ascii	"txsize\000"
 4602      7A6500
 4603              	.LASF235:
 4604 06d4 5553425F 		.ascii	"USB_STOP\000"
 4604      53544F50 
 4604      00
 4605              	.LASF103:
 4606 06dd 73746D33 		.ascii	"stm32_tim_t\000"
 4606      325F7469 
 4606      6D5F7400 
 4607              	.LASF178:
 4608 06e9 50494461 		.ascii	"PIData\000"
 4608      746100
 4609              	.LASF355:
 4610 06f0 7278636E 		.ascii	"rxcnt\000"
 4610      7400
 4611              	.LASF181:
 4612 06f6 55415254 		.ascii	"UART_UNINIT\000"
 4612      5F554E49 
 4612      4E495400 
 4613              	.LASF239:
 4614 0702 75736273 		.ascii	"usbstate_t\000"
 4614      74617465 
 4614      5F7400
 4615              	.LASF51:
 4616 070d 63685F74 		.ascii	"ch_threads_list\000"
 4616      68726561 
 4616      64735F6C 
 4616      69737400 
ARM GAS  /tmp/cckjBIeA.s 			page 88


 4617              	.LASF191:
 4618 071d 55415254 		.ascii	"UART_RX_COMPLETE\000"
 4618      5F52585F 
 4618      434F4D50 
 4618      4C455445 
 4618      00
 4619              	.LASF306:
 4620 072e 72657376 		.ascii	"resvd40C\000"
 4620      64343043 
 4620      00
 4621              	.LASF284:
 4622 0737 474F5447 		.ascii	"GOTGCTL\000"
 4622      43544C00 
 4623              	.LASF256:
 4624 073f 75645F73 		.ascii	"ud_string\000"
 4624      7472696E 
 4624      6700
 4625              	.LASF378:
 4626 0749 61627374 		.ascii	"abstime\000"
 4626      696D6500 
 4627              	.LASF137:
 4628 0751 63665F6F 		.ascii	"cf_off_preempt\000"
 4628      66665F70 
 4628      7265656D 
 4628      707400
 4629              	.LASF201:
 4630 0760 646D6172 		.ascii	"dmarx\000"
 4630      7800
 4631              	.LASF363:
 4632 0766 696E5F73 		.ascii	"in_state\000"
 4632      74617465 
 4632      00
 4633              	.LASF291:
 4634 076f 47525853 		.ascii	"GRXSTSR\000"
 4634      54535200 
 4635              	.LASF252:
 4636 0777 5553425F 		.ascii	"USB_EVENT_WAKEUP\000"
 4636      4556454E 
 4636      545F5741 
 4636      4B455550 
 4636      00
 4637              	.LASF334:
 4638 0788 50434743 		.ascii	"PCGCCTL\000"
 4638      43544C00 
 4639              	.LASF12:
 4640 0790 5F5F7569 		.ascii	"__uint32_t\000"
 4640      6E743332 
 4640      5F7400
 4641              	.LASF368:
 4642 079b 6576656E 		.ascii	"event_cb\000"
 4642      745F6362 
 4642      00
 4643              	.LASF285:
 4644 07a4 474F5447 		.ascii	"GOTGINT\000"
 4644      494E5400 
 4645              	.LASF1:
 4646 07ac 6C6F6E67 		.ascii	"long long int\000"
ARM GAS  /tmp/cckjBIeA.s 			page 89


 4646      206C6F6E 
 4646      6720696E 
 4646      7400
 4647              	.LASF236:
 4648 07ba 5553425F 		.ascii	"USB_READY\000"
 4648      52454144 
 4648      5900
 4649              	.LASF292:
 4650 07c4 47525853 		.ascii	"GRXSTSP\000"
 4650      54535000 
 4651              	.LASF124:
 4652 07cc 63685F76 		.ascii	"ch_version\000"
 4652      65727369 
 4652      6F6E00
 4653              	.LASF117:
 4654 07d7 6D5F7175 		.ascii	"m_queue\000"
 4654      65756500 
 4655              	.LASF310:
 4656 07df 72657376 		.ascii	"resvd41C\000"
 4656      64343143 
 4656      00
 4657              	.LASF65:
 4658 07e8 76745F6E 		.ascii	"vt_next\000"
 4658      65787400 
 4659              	.LASF221:
 4660 07f0 6570306E 		.ascii	"ep0next\000"
 4660      65787400 
 4661              	.LASF66:
 4662 07f8 76745F70 		.ascii	"vt_prev\000"
 4662      72657600 
 4663              	.LASF88:
 4664 0800 47545052 		.ascii	"GTPR\000"
 4664      00
 4665              	.LASF328:
 4666 0805 72657376 		.ascii	"resvd838\000"
 4666      64383338 
 4666      00
 4667              	.LASF259:
 4668 080e 75736265 		.ascii	"usbepcallback_t\000"
 4668      7063616C 
 4668      6C626163 
 4668      6B5F7400 
 4669              	.LASF358:
 4670 081e 73657475 		.ascii	"setup_cb\000"
 4670      705F6362 
 4670      00
 4671              	.LASF331:
 4672 0827 72657376 		.ascii	"resvd880\000"
 4672      64383830 
 4672      00
 4673              	.LASF82:
 4674 0830 49544D5F 		.ascii	"ITM_RxBuffer\000"
 4674      52784275 
 4674      66666572 
 4674      00
 4675              	.LASF329:
 4676 083d 72657376 		.ascii	"resvd83C\000"
ARM GAS  /tmp/cckjBIeA.s 			page 90


 4676      64383343 
 4676      00
 4677              	.LASF171:
 4678 0846 50424461 		.ascii	"PBData\000"
 4678      746100
 4679              	.LASF200:
 4680 084d 646D616D 		.ascii	"dmamode\000"
 4680      6F646500 
 4681              	.LASF231:
 4682 0855 77616974 		.ascii	"wait\000"
 4682      00
 4683              	.LASF152:
 4684 085a 716E6F74 		.ascii	"qnotify_t\000"
 4684      6966795F 
 4684      7400
 4685              	.LASF41:
 4686 0864 705F7761 		.ascii	"p_waiting\000"
 4686      6974696E 
 4686      6700
 4687              	.LASF193:
 4688 086e 75617274 		.ascii	"uartflags_t\000"
 4688      666C6167 
 4688      735F7400 
 4689              	.LASF202:
 4690 087a 646D6174 		.ascii	"dmatx\000"
 4690      7800
 4691              	.LASF39:
 4692 0880 705F666C 		.ascii	"p_flags\000"
 4692      61677300 
 4693              	.LASF282:
 4694 0888 444F4550 		.ascii	"DOEPTSIZ\000"
 4694      5453495A 
 4694      00
 4695              	.LASF81:
 4696 0891 69646C65 		.ascii	"idle_thread_wa\000"
 4696      5F746872 
 4696      6561645F 
 4696      776100
 4697              	.LASF211:
 4698 08a0 72786572 		.ascii	"rxerr_cb\000"
 4698      725F6362 
 4698      00
 4699              	.LASF0:
 4700 08a9 756E7369 		.ascii	"unsigned int\000"
 4700      676E6564 
 4700      20696E74 
 4700      00
 4701              	.LASF372:
 4702 08b6 55534243 		.ascii	"USBConfig\000"
 4702      6F6E6669 
 4702      6700
 4703              	.LASF21:
 4704 08c0 7274636E 		.ascii	"rtcnt_t\000"
 4704      745F7400 
 4705              	.LASF230:
 4706 08c8 74787065 		.ascii	"txpending\000"
 4706      6E64696E 
ARM GAS  /tmp/cckjBIeA.s 			page 91


 4706      6700
 4707              	.LASF47:
 4708 08d2 705F6D70 		.ascii	"p_mpool\000"
 4708      6F6F6C00 
 4709              	.LASF337:
 4710 08da 73746D33 		.ascii	"stm32_otg_t\000"
 4710      325F6F74 
 4710      675F7400 
 4711              	.LASF40:
 4712 08e6 705F7265 		.ascii	"p_refs\000"
 4712      667300
 4713              	.LASF126:
 4714 08ed 63685F74 		.ascii	"ch_timesize\000"
 4714      696D6573 
 4714      697A6500 
 4715              	.LASF366:
 4716 08f9 73657475 		.ascii	"setup_buf\000"
 4716      705F6275 
 4716      6600
 4717              	.LASF312:
 4718 0903 72657376 		.ascii	"resvd444\000"
 4718      64343434 
 4718      00
 4719              	.LASF360:
 4720 090c 6F75745F 		.ascii	"out_cb\000"
 4720      636200
 4721              	.LASF104:
 4722 0913 6F666673 		.ascii	"offset\000"
 4722      657400
 4723              	.LASF386:
 4724 091a 73744765 		.ascii	"stGetAlarm\000"
 4724      74416C61 
 4724      726D00
 4725              	.LASF309:
 4726 0925 4841494E 		.ascii	"HAINTMSK\000"
 4726      544D534B 
 4726      00
 4727              	.LASF177:
 4728 092e 50484461 		.ascii	"PHData\000"
 4728      746100
 4729              	.LASF361:
 4730 0935 696E5F6D 		.ascii	"in_maxsize\000"
 4730      61787369 
 4730      7A6500
 4731              	.LASF290:
 4732 0940 47494E54 		.ascii	"GINTMSK\000"
 4732      4D534B00 
 4733              	.LASF87:
 4734 0948 444D415F 		.ascii	"DMA_Stream_TypeDef\000"
 4734      53747265 
 4734      616D5F54 
 4734      79706544 
 4734      656600
 4735              	.LASF136:
 4736 095b 63665F6F 		.ascii	"cf_off_refs\000"
 4736      66665F72 
 4736      65667300 
ARM GAS  /tmp/cckjBIeA.s 			page 92


 4737              	.LASF381:
 4738 0967 73745F6C 		.ascii	"st_lld_start_alarm\000"
 4738      6C645F73 
 4738      74617274 
 4738      5F616C61 
 4738      726D00
 4739              	.LASF364:
 4740 097a 6F75745F 		.ascii	"out_state\000"
 4740      73746174 
 4740      6500
 4741              	.LASF167:
 4742 0984 6166726C 		.ascii	"afrl\000"
 4742      00
 4743              	.LASF186:
 4744 0989 55415254 		.ascii	"UART_TX_ACTIVE\000"
 4744      5F54585F 
 4744      41435449 
 4744      564500
 4745              	.LASF377:
 4746 0998 73745374 		.ascii	"stStartAlarm\000"
 4746      61727441 
 4746      6C61726D 
 4746      00
 4747              	.LASF30:
 4748 09a5 74687265 		.ascii	"thread_t\000"
 4748      61645F74 
 4748      00
 4749              	.LASF2:
 4750 09ae 6C6F6E67 		.ascii	"long double\000"
 4750      20646F75 
 4750      626C6500 
 4751              	.LASF48:
 4752 09ba 74687265 		.ascii	"thread_reference_t\000"
 4752      61645F72 
 4752      65666572 
 4752      656E6365 
 4752      5F7400
 4753              	.LASF339:
 4754 09cd 6F74675F 		.ascii	"otg_ram_size\000"
 4754      72616D5F 
 4754      73697A65 
 4754      00
 4755              	.LASF46:
 4756 09da 705F7265 		.ascii	"p_realprio\000"
 4756      616C7072 
 4756      696F00
 4757              	.LASF203:
 4758 09e5 72786275 		.ascii	"rxbuf\000"
 4758      6600
 4759              	.LASF242:
 4760 09eb 5553425F 		.ascii	"USB_EP0_WAITING_TX0\000"
 4760      4550305F 
 4760      57414954 
 4760      494E475F 
 4760      54583000 
 4761              	.LASF93:
 4762 09ff 706F7274 		.ascii	"port_intctx\000"
ARM GAS  /tmp/cckjBIeA.s 			page 93


 4762      5F696E74 
 4762      63747800 
 4763              	.LASF228:
 4764 0a0b 6F746770 		.ascii	"otgparams\000"
 4764      6172616D 
 4764      7300
 4765              	.LASF138:
 4766 0a15 63665F6F 		.ascii	"cf_off_time\000"
 4766      66665F74 
 4766      696D6500 
 4767              	.LASF67:
 4768 0a21 76745F64 		.ascii	"vt_delta\000"
 4768      656C7461 
 4768      00
 4769              	.LASF234:
 4770 0a2a 5553425F 		.ascii	"USB_UNINIT\000"
 4770      554E494E 
 4770      495400
 4771              	.LASF64:
 4772 0a35 63685F76 		.ascii	"ch_virtual_timer\000"
 4772      69727475 
 4772      616C5F74 
 4772      696D6572 
 4772      00
 4773              	.LASF115:
 4774 0a46 735F636E 		.ascii	"s_cnt\000"
 4774      7400
 4775              	.LASF356:
 4776 0a4c 5553424F 		.ascii	"USBOutEndpointState\000"
 4776      7574456E 
 4776      64706F69 
 4776      6E745374 
 4776      61746500 
 4777              	.LASF158:
 4778 0a60 73656C66 		.ascii	"selfindex\000"
 4778      696E6465 
 4778      7800
 4779              	.LASF333:
 4780 0a6a 72657376 		.ascii	"resvdD00\000"
 4780      64443030 
 4780      00
 4781              	.LASF15:
 4782 0a73 6C6F6E67 		.ascii	"long long unsigned int\000"
 4782      206C6F6E 
 4782      6720756E 
 4782      7369676E 
 4782      65642069 
 4783              	.LASF300:
 4784 0a8a 48505458 		.ascii	"HPTXFSIZ\000"
 4784      4653495A 
 4784      00
 4785              	.LASF170:
 4786 0a93 50414461 		.ascii	"PAData\000"
 4786      746100
 4787              	.LASF36:
 4788 0a9a 705F6F6C 		.ascii	"p_older\000"
 4788      64657200 
ARM GAS  /tmp/cckjBIeA.s 			page 94


 4789              	.LASF17:
 4790 0aa2 75696E74 		.ascii	"uint16_t\000"
 4790      31365F74 
 4790      00
 4791              	.LASF190:
 4792 0aab 55415254 		.ascii	"UART_RX_ACTIVE\000"
 4792      5F52585F 
 4792      41435449 
 4792      564500
 4793              	.LASF265:
 4794 0aba 4843494E 		.ascii	"HCINT\000"
 4794      5400
 4795              	.LASF344:
 4796 0ac0 6C696E65 		.ascii	"linear\000"
 4796      617200
 4797              	.LASF26:
 4798 0ac7 6D73675F 		.ascii	"msg_t\000"
 4798      7400
 4799              	.LASF315:
 4800 0acd 4443544C 		.ascii	"DCTL\000"
 4800      00
 4801              	.LASF53:
 4802 0ad2 63685F74 		.ascii	"ch_threads_queue\000"
 4802      68726561 
 4802      64735F71 
 4802      75657565 
 4802      00
 4803              	.LASF367:
 4804 0ae3 55534245 		.ascii	"USBEndpointConfig\000"
 4804      6E64706F 
 4804      696E7443 
 4804      6F6E6669 
 4804      6700
 4805              	.LASF266:
 4806 0af5 4843494E 		.ascii	"HCINTMSK\000"
 4806      544D534B 
 4806      00
 4807              	.LASF135:
 4808 0afe 63665F6F 		.ascii	"cf_off_flags\000"
 4808      66665F66 
 4808      6C616773 
 4808      00
 4809              	.LASF98:
 4810 0b0b 43434552 		.ascii	"CCER\000"
 4810      00
 4811              	.LASF353:
 4812 0b10 72787175 		.ascii	"rxqueued\000"
 4812      65756564 
 4812      00
 4813              	.LASF383:
 4814 0b19 474E5520 		.ascii	"GNU C11 7.3.1 20180622 (release) [ARM/embedded-7-br"
 4814      43313120 
 4814      372E332E 
 4814      31203230 
 4814      31383036 
 4815 0b4c 616E6368 		.ascii	"anch revision 261907] -mcpu=cortex-m4 -mfloat-abi=h"
 4815      20726576 
ARM GAS  /tmp/cckjBIeA.s 			page 95


 4815      6973696F 
 4815      6E203236 
 4815      31393037 
 4816 0b7f 61726420 		.ascii	"ard -mfpu=fpv4-sp-d16 -mno-thumb-interwork -mthumb "
 4816      2D6D6670 
 4816      753D6670 
 4816      76342D73 
 4816      702D6431 
 4817 0bb2 2D676764 		.ascii	"-ggdb -O2 -fomit-frame-pointer -falign-functions=16"
 4817      62202D4F 
 4817      32202D66 
 4817      6F6D6974 
 4817      2D667261 
 4818 0be5 202D6666 		.ascii	" -ffunction-sections -fdata-sections -fno-common -f"
 4818      756E6374 
 4818      696F6E2D 
 4818      73656374 
 4818      696F6E73 
 4819 0c18 73696E67 		.ascii	"single-precision-constant\000"
 4819      6C652D70 
 4819      72656369 
 4819      73696F6E 
 4819      2D636F6E 
 4820              	.LASF61:
 4821 0c32 725F6375 		.ascii	"r_current\000"
 4821      7272656E 
 4821      7400
 4822              	.LASF345:
 4823 0c3c 71756575 		.ascii	"queue\000"
 4823      6500
 4824              	.LASF159:
 4825 0c42 76656374 		.ascii	"vector\000"
 4825      6F7200
 4826              	.LASF385:
 4827 0c49 2F686F6D 		.ascii	"/home/jhl/myprogram/vesc/bldc_uart_comm_stm32f4_dis"
 4827      652F6A68 
 4827      6C2F6D79 
 4827      70726F67 
 4827      72616D2F 
 4828 0c7c 636F7665 		.ascii	"covery\000"
 4828      727900
 4829              	.LASF352:
 4830 0c83 72787175 		.ascii	"rxqueue\000"
 4830      65756500 
 4831              	.LASF80:
 4832 0c8b 6D61696E 		.ascii	"mainthread\000"
 4832      74687265 
 4832      616400
 4833              	.LASF321:
 4834 0c96 4441494E 		.ascii	"DAINTMSK\000"
 4834      544D534B 
 4834      00
 4835              	.LASF94:
 4836 0c9f 534D4352 		.ascii	"SMCR\000"
 4836      00
 4837              	.LASF324:
 4838 0ca4 44564255 		.ascii	"DVBUSDIS\000"
ARM GAS  /tmp/cckjBIeA.s 			page 96


 4838      53444953 
 4838      00
 4839              	.LASF279:
 4840 0cad 73746D33 		.ascii	"stm32_otg_in_ep_t\000"
 4840      325F6F74 
 4840      675F696E 
 4840      5F65705F 
 4840      7400
 4841              	.LASF187:
 4842 0cbf 55415254 		.ascii	"UART_TX_COMPLETE\000"
 4842      5F54585F 
 4842      434F4D50 
 4842      4C455445 
 4842      00
 4843              	.LASF192:
 4844 0cd0 75617274 		.ascii	"uartrxstate_t\000"
 4844      72787374 
 4844      6174655F 
 4844      7400
 4845              	.LASF362:
 4846 0cde 6F75745F 		.ascii	"out_maxsize\000"
 4846      6D617873 
 4846      697A6500 
 4847              	.LASF56:
 4848 0cea 725F7175 		.ascii	"r_queue\000"
 4848      65756500 
 4849              	.LASF250:
 4850 0cf2 5553425F 		.ascii	"USB_EVENT_CONFIGURED\000"
 4850      4556454E 
 4850      545F434F 
 4850      4E464947 
 4850      55524544 
 4851              	.LASF205:
 4852 0d07 75617274 		.ascii	"uartccb_t\000"
 4852      6363625F 
 4852      7400
 4853              	.LASF336:
 4854 0d11 4649464F 		.ascii	"FIFO\000"
 4854      00
 4855              	.LASF176:
 4856 0d16 50474461 		.ascii	"PGData\000"
 4856      746100
 4857              	.LASF373:
 4858 0d1d 55534244 		.ascii	"USBD1\000"
 4858      3100
 4859              	.LASF144:
 4860 0d23 715F7761 		.ascii	"q_waiting\000"
 4860      6974696E 
 4860      6700
 4861              	.LASF78:
 4862 0d2d 726C6973 		.ascii	"rlist\000"
 4862      7400
 4863              	.LASF22:
 4864 0d33 746D6F64 		.ascii	"tmode_t\000"
 4864      655F7400 
 4865              	.LASF262:
 4866 0d3b 75736267 		.ascii	"usbgetdescriptor_t\000"
ARM GAS  /tmp/cckjBIeA.s 			page 97


 4866      65746465 
 4866      73637269 
 4866      70746F72 
 4866      5F7400
 4867              	.LASF207:
 4868 0d4e 7478656E 		.ascii	"txend1_cb\000"
 4868      64315F63 
 4868      6200
 4869              	.LASF376:
 4870 0d58 73745374 		.ascii	"stStopAlarm\000"
 4870      6F70416C 
 4870      61726D00 
 4871              	.LASF189:
 4872 0d64 55415254 		.ascii	"UART_RX_IDLE\000"
 4872      5F52585F 
 4872      49444C45 
 4872      00
 4873              	.LASF232:
 4874 0d71 77615F70 		.ascii	"wa_pump\000"
 4874      756D7000 
 4875              	.LASF218:
 4876 0d79 696E5F70 		.ascii	"in_params\000"
 4876      6172616D 
 4876      7300
 4877              	.LASF380:
 4878 0d83 73745F6C 		.ascii	"st_lld_set_alarm\000"
 4878      6C645F73 
 4878      65745F61 
 4878      6C61726D 
 4878      00
 4879              	.LASF60:
 4880 0d94 725F6F6C 		.ascii	"r_older\000"
 4880      64657200 
 4881              	.LASF105:
 4882 0d9c 746D5F63 		.ascii	"tm_calibration_t\000"
 4882      616C6962 
 4882      72617469 
 4882      6F6E5F74 
 4882      00
 4883              	.LASF85:
 4884 0dad 4D304152 		.ascii	"M0AR\000"
 4884      00
 4885              	.LASF114:
 4886 0db2 735F7175 		.ascii	"s_queue\000"
 4886      65756500 
 4887              	.LASF326:
 4888 0dba 72657376 		.ascii	"resvd830\000"
 4888      64383330 
 4888      00
 4889              	.LASF7:
 4890 0dc3 73686F72 		.ascii	"short int\000"
 4890      7420696E 
 4890      7400
 4891              	.LASF350:
 4892 0dcd 746F7473 		.ascii	"totsize\000"
 4892      697A6500 
 4893              	.LASF338:
ARM GAS  /tmp/cckjBIeA.s 			page 98


 4894 0dd5 72785F66 		.ascii	"rx_fifo_size\000"
 4894      69666F5F 
 4894      73697A65 
 4894      00
 4895              	.LASF20:
 4896 0de2 75696E74 		.ascii	"uint64_t\000"
 4896      36345F74 
 4896      00
 4897              	.LASF349:
 4898 0deb 6D6F6465 		.ascii	"mode\000"
 4898      00
 4899              	.LASF116:
 4900 0df0 63685F6D 		.ascii	"ch_mutex\000"
 4900      75746578 
 4900      00
 4901              	.LASF248:
 4902 0df9 5553425F 		.ascii	"USB_EVENT_RESET\000"
 4902      4556454E 
 4902      545F5245 
 4902      53455400 
 4903              	.LASF268:
 4904 0e09 72657376 		.ascii	"resvd14\000"
 4904      64313400 
 4905              	.LASF269:
 4906 0e11 72657376 		.ascii	"resvd18\000"
 4906      64313800 
 4907              	.LASF277:
 4908 0e19 44545846 		.ascii	"DTXFSTS\000"
 4908      53545300 
 4909              	.LASF343:
 4910 0e21 74787175 		.ascii	"txqueue\000"
 4910      65756500 
 4911              	.LASF278:
 4912 0e29 72657376 		.ascii	"resvd1C\000"
 4912      64314300 
 4913              	.LASF318:
 4914 0e31 44494550 		.ascii	"DIEPMSK\000"
 4914      4D534B00 
 4915              	.LASF57:
 4916 0e39 725F7072 		.ascii	"r_prio\000"
 4916      696F00
 4917              	.LASF184:
 4918 0e40 75617274 		.ascii	"uartstate_t\000"
 4918      73746174 
 4918      655F7400 
 4919              	.LASF74:
 4920 0e4c 63685F73 		.ascii	"ch_system_debug\000"
 4920      79737465 
 4920      6D5F6465 
 4920      62756700 
 4921              	.LASF327:
 4922 0e5c 44494550 		.ascii	"DIEPEMPMSK\000"
 4922      454D504D 
 4922      534B00
 4923              	.LASF131:
 4924 0e67 63665F6F 		.ascii	"cf_off_older\000"
 4924      66665F6F 
ARM GAS  /tmp/cckjBIeA.s 			page 99


 4924      6C646572 
 4924      00
 4925              	.LASF270:
 4926 0e74 72657376 		.ascii	"resvd1c\000"
 4926      64316300 
 4927              	.LASF142:
 4928 0e7c 696F5F71 		.ascii	"io_queue_t\000"
 4928      75657565 
 4928      5F7400
 4929              	.LASF261:
 4930 0e87 75736272 		.ascii	"usbreqhandler_t\000"
 4930      65716861 
 4930      6E646C65 
 4930      725F7400 
 4931              	.LASF272:
 4932 0e97 44494550 		.ascii	"DIEPCTL\000"
 4932      43544C00 
 4933              	.LASF179:
 4934 0e9f 50414C43 		.ascii	"PALConfig\000"
 4934      6F6E6669 
 4934      6700
 4935              	.LASF258:
 4936 0ea9 75736263 		.ascii	"usbcallback_t\000"
 4936      616C6C62 
 4936      61636B5F 
 4936      7400
 4937              	.LASF288:
 4938 0eb7 47525354 		.ascii	"GRSTCTL\000"
 4938      43544C00 
 4939              	.LASF289:
 4940 0ebf 47494E54 		.ascii	"GINTSTS\000"
 4940      53545300 
 4941              	.LASF79:
 4942 0ec7 76746C69 		.ascii	"vtlist\000"
 4942      737400
 4943              	.LASF274:
 4944 0ece 44494550 		.ascii	"DIEPINT\000"
 4944      494E5400 
 4945              	.LASF295:
 4946 0ed6 484E5054 		.ascii	"HNPTXSTS\000"
 4946      58535453 
 4946      00
 4947              	.LASF141:
 4948 0edf 6D757465 		.ascii	"mutex_t\000"
 4948      785F7400 
 4949              	.LASF24:
 4950 0ee7 74726566 		.ascii	"trefs_t\000"
 4950      735F7400 
 4951              	.LASF133:
 4952 0eef 63665F6F 		.ascii	"cf_off_stklimit\000"
 4952      66665F73 
 4952      746B6C69 
 4952      6D697400 
 4953              	.LASF49:
 4954 0eff 74687265 		.ascii	"threads_list_t\000"
 4954      6164735F 
 4954      6C697374 
ARM GAS  /tmp/cckjBIeA.s 			page 100


 4954      5F7400
 4955              	.LASF185:
 4956 0f0e 55415254 		.ascii	"UART_TX_IDLE\000"
 4956      5F54585F 
 4956      49444C45 
 4956      00
 4957              	.LASF204:
 4958 0f1b 75617274 		.ascii	"uartcb_t\000"
 4958      63625F74 
 4958      00
 4959              	.LASF335:
 4960 0f24 72657376 		.ascii	"resvdE04\000"
 4960      64453034 
 4960      00
 4961              	.LASF296:
 4962 0f2d 72657376 		.ascii	"resvd30\000"
 4962      64333000 
 4963              	.LASF77:
 4964 0f35 63685F73 		.ascii	"ch_system\000"
 4964      79737465 
 4964      6D00
 4965              	.LASF297:
 4966 0f3f 72657376 		.ascii	"resvd34\000"
 4966      64333400 
 4967              	.LASF99:
 4968 0f47 42445452 		.ascii	"BDTR\000"
 4968      00
 4969              	.LASF19:
 4970 0f4c 75696E74 		.ascii	"uint32_t\000"
 4970      33325F74 
 4970      00
 4971              	.LASF233:
 4972 0f55 75736265 		.ascii	"usbep_t\000"
 4972      705F7400 
 4973              	.LASF153:
 4974 0f5d 696E7075 		.ascii	"input_queue_t\000"
 4974      745F7175 
 4974      6575655F 
 4974      7400
 4975              	.LASF175:
 4976 0f6b 50464461 		.ascii	"PFData\000"
 4976      746100
 4977              	.LASF106:
 4978 0f72 7264796D 		.ascii	"rdymsg\000"
 4978      736700
 4979              	.LASF72:
 4980 0f79 76745F6C 		.ascii	"vt_lasttime\000"
 4980      61737474 
 4980      696D6500 
 4981              	.LASF9:
 4982 0f85 73686F72 		.ascii	"short unsigned int\000"
 4982      7420756E 
 4982      7369676E 
 4982      65642069 
 4982      6E7400
 4983              	.LASF316:
 4984 0f98 44535453 		.ascii	"DSTS\000"
ARM GAS  /tmp/cckjBIeA.s 			page 101


 4984      00
 4985              	.LASF369:
 4986 0f9d 6765745F 		.ascii	"get_descriptor_cb\000"
 4986      64657363 
 4986      72697074 
 4986      6F725F63 
 4986      6200
 4987              	.LASF76:
 4988 0faf 63685F73 		.ascii	"ch_system_t\000"
 4988      79737465 
 4988      6D5F7400 
 4989              	.LASF139:
 4990 0fbb 63686465 		.ascii	"chdebug_t\000"
 4990      6275675F 
 4990      7400
 4991              	.LASF251:
 4992 0fc5 5553425F 		.ascii	"USB_EVENT_SUSPEND\000"
 4992      4556454E 
 4992      545F5355 
 4992      5350454E 
 4992      4400
 4993              	.LASF123:
 4994 0fd7 63685F73 		.ascii	"ch_size\000"
 4994      697A6500 
 4995              	.LASF154:
 4996 0fdf 6F757470 		.ascii	"output_queue_t\000"
 4996      75745F71 
 4996      75657565 
 4996      5F7400
 4997              	.LASF219:
 4998 0fee 6F75745F 		.ascii	"out_params\000"
 4998      70617261 
 4998      6D7300
 4999              	.LASF382:
 5000 0ff9 74696D65 		.ascii	"time\000"
 5000      00
 5001              	.LASF379:
 5002 0ffe 7374496E 		.ascii	"stInit\000"
 5002      697400
 5003              	.LASF214:
 5004 1005 55415254 		.ascii	"UARTD3\000"
 5004      443300
 5005              	.LASF10:
 5006 100c 5F5F696E 		.ascii	"__int32_t\000"
 5006      7433325F 
 5006      7400
 5007              	.LASF307:
 5008 1016 48505458 		.ascii	"HPTXSTS\000"
 5008      53545300 
 5009              	.LASF84:
 5010 101e 4E445452 		.ascii	"NDTR\000"
 5010      00
 5011              	.LASF156:
 5012 1023 69666372 		.ascii	"ifcr\000"
 5012      00
 5013              	.LASF299:
 5014 1028 72657376 		.ascii	"resvd58\000"
ARM GAS  /tmp/cckjBIeA.s 			page 102


 5014      64353800 
 5015              	.LASF245:
 5016 1030 5553425F 		.ascii	"USB_EP0_SENDING_STS\000"
 5016      4550305F 
 5016      53454E44 
 5016      494E475F 
 5016      53545300 
 5017              	.LASF183:
 5018 1044 55415254 		.ascii	"UART_READY\000"
 5018      5F524541 
 5018      445900
 5019              	.LASF243:
 5020 104f 5553425F 		.ascii	"USB_EP0_WAITING_STS\000"
 5020      4550305F 
 5020      57414954 
 5020      494E475F 
 5020      53545300 
 5021              	.LASF37:
 5022 1063 705F6E61 		.ascii	"p_name\000"
 5022      6D6500
 5023              	.LASF119:
 5024 106a 6D5F6E65 		.ascii	"m_next\000"
 5024      787400
 5025              	.LASF229:
 5026 1071 706D6E65 		.ascii	"pmnext\000"
 5026      787400
 5027              	.LASF346:
 5028 1078 74787175 		.ascii	"txqueued\000"
 5028      65756564 
 5028      00
 5029              	.LASF287:
 5030 1081 47555342 		.ascii	"GUSBCFG\000"
 5030      43464700 
 5031              	.LASF371:
 5032 1089 736F665F 		.ascii	"sof_cb\000"
 5032      636200
 5033              	.LASF244:
 5034 1090 5553425F 		.ascii	"USB_EP0_RX\000"
 5034      4550305F 
 5034      525800
 5035              	.LASF302:
 5036 109b 72657376 		.ascii	"resvd140\000"
 5036      64313430 
 5036      00
 5037              	.LASF43:
 5038 10a4 705F6D73 		.ascii	"p_msg\000"
 5038      6700
 5039              	.LASF38:
 5040 10aa 705F7374 		.ascii	"p_state\000"
 5040      61746500 
 5041              		.ident	"GCC: (GNU Tools for Arm Embedded Processors 7-2018-q3-update) 7.3.1 20180622 (release) [AR
ARM GAS  /tmp/cckjBIeA.s 			page 103


DEFINED SYMBOLS
                            *ABS*:0000000000000000 st.c
     /tmp/cckjBIeA.s:18     .text.stInit:0000000000000000 $t
     /tmp/cckjBIeA.s:26     .text.stInit:0000000000000000 stInit
     /tmp/cckjBIeA.s:41     .text.stStartAlarm:0000000000000000 $t
     /tmp/cckjBIeA.s:49     .text.stStartAlarm:0000000000000000 stStartAlarm
     /tmp/cckjBIeA.s:82     .text.stStopAlarm:0000000000000000 $t
     /tmp/cckjBIeA.s:90     .text.stStopAlarm:0000000000000000 stStopAlarm
     /tmp/cckjBIeA.s:111    .text.stSetAlarm:0000000000000000 $t
     /tmp/cckjBIeA.s:119    .text.stSetAlarm:0000000000000000 stSetAlarm
     /tmp/cckjBIeA.s:142    .text.stGetAlarm:0000000000000000 $t
     /tmp/cckjBIeA.s:150    .text.stGetAlarm:0000000000000000 stGetAlarm

UNDEFINED SYMBOLS
st_lld_init
