ARM GAS  /tmp/ccqEPeKi.s 			page 1


   1              		.cpu cortex-m4
   2              		.eabi_attribute 27, 1
   3              		.eabi_attribute 28, 1
   4              		.eabi_attribute 20, 1
   5              		.eabi_attribute 21, 1
   6              		.eabi_attribute 23, 3
   7              		.eabi_attribute 24, 1
   8              		.eabi_attribute 25, 1
   9              		.eabi_attribute 26, 1
  10              		.eabi_attribute 30, 2
  11              		.eabi_attribute 34, 1
  12              		.eabi_attribute 18, 4
  13              		.file	"st_lld.c"
  14              		.text
  15              	.Ltext0:
  16              		.cfi_sections	.debug_frame
  17              		.section	.text.VectorB0,"ax",%progbits
  18              		.align	1
  19              		.p2align 4,,15
  20              		.global	VectorB0
  21              		.syntax unified
  22              		.thumb
  23              		.thumb_func
  24              		.fpu fpv4-sp-d16
  25              		.type	VectorB0, %function
  26              	VectorB0:
  27              	.LFB260:
  28              		.file 1 "ChibiOS_3.0.2/os/hal/ports/STM32/LLD/TIMv1/st_lld.c"
  29              		.loc 1 173 0
  30              		.cfi_startproc
  31              		@ args = 0, pretend = 0, frame = 0
  32              		@ frame_needed = 0, uses_anonymous_args = 0
  33              		.loc 1 180 0
  34 0000 4FF08043 		mov	r3, #1073741824
  35 0004 1A69     		ldr	r2, [r3, #16]
  36 0006 9207     		lsls	r2, r2, #30
  37 0008 01D4     		bmi	.L11
  38              		.loc 1 188 0
  39 000a FFF7FEBF 		b	_port_irq_epilogue
  40              	.LVL0:
  41              	.L11:
  42              		.loc 1 173 0
  43 000e 10B5     		push	{r4, lr}
  44              		.cfi_def_cfa_offset 8
  45              		.cfi_offset 4, -8
  46              		.cfi_offset 14, -4
  47              		.loc 1 181 0
  48 0010 0024     		movs	r4, #0
  49 0012 1C61     		str	r4, [r3, #16]
  50              	.LVL1:
  51              	.LBB52:
  52              	.LBB53:
  53              	.LBB54:
  54              	.LBB55:
  55              	.LBB56:
  56              	.LBB57:
  57              		.file 2 "ChibiOS_3.0.2/os/ext/CMSIS/include/core_cmFunc.h"
ARM GAS  /tmp/ccqEPeKi.s 			page 2


  58              		.loc 2 546 0
  59 0014 2023     		movs	r3, #32
  60              		.syntax unified
  61              	@ 546 "ChibiOS_3.0.2/os/ext/CMSIS/include/core_cmFunc.h" 1
  62 0016 83F31188 		MSR basepri, r3
  63              	@ 0 "" 2
  64              	.LVL2:
  65              		.thumb
  66              		.syntax unified
  67              	.LBE57:
  68              	.LBE56:
  69              	.LBE55:
  70              	.LBE54:
  71              	.LBE53:
  72              	.LBE52:
  73              	.LBB58:
  74              	.LBB59:
  75              		.file 3 "ChibiOS_3.0.2/os/hal/osal/rt/osal.h"
  76              		.loc 3 585 0
  77 001a FFF7FEFF 		bl	chSysTimerHandlerI
  78              	.LVL3:
  79              	.LBE59:
  80              	.LBE58:
  81              	.LBB60:
  82              	.LBB61:
  83              	.LBB62:
  84              	.LBB63:
  85              	.LBB64:
  86              	.LBB65:
  87              		.loc 2 546 0
  88              		.syntax unified
  89              	@ 546 "ChibiOS_3.0.2/os/ext/CMSIS/include/core_cmFunc.h" 1
  90 001e 84F31188 		MSR basepri, r4
  91              	@ 0 "" 2
  92              	.LVL4:
  93              		.thumb
  94              		.syntax unified
  95              	.LBE65:
  96              	.LBE64:
  97              	.LBE63:
  98              	.LBE62:
  99              	.LBE61:
 100              	.LBE60:
 101              		.loc 1 189 0
 102 0022 BDE81040 		pop	{r4, lr}
 103              		.cfi_restore 14
 104              		.cfi_restore 4
 105              		.cfi_def_cfa_offset 0
 106              		.loc 1 188 0
 107 0026 FFF7FEBF 		b	_port_irq_epilogue
 108              	.LVL5:
 109              		.cfi_endproc
 110              	.LFE260:
 111              		.size	VectorB0, .-VectorB0
 112 002a 00BF     		.section	.text.st_lld_init,"ax",%progbits
 113              		.align	1
 114              		.p2align 4,,15
ARM GAS  /tmp/ccqEPeKi.s 			page 3


 115              		.global	st_lld_init
 116              		.syntax unified
 117              		.thumb
 118              		.thumb_func
 119              		.fpu fpv4-sp-d16
 120              		.type	st_lld_init, %function
 121              	st_lld_init:
 122              	.LFB261:
 123              		.loc 1 201 0
 124              		.cfi_startproc
 125              		@ args = 0, pretend = 0, frame = 0
 126              		@ frame_needed = 0, uses_anonymous_args = 0
 127              		@ link register save eliminated.
 128              		.loc 1 207 0
 129 0000 0F4A     		ldr	r2, .L14
 130              		.loc 1 210 0
 131 0002 1048     		ldr	r0, .L14+4
 132              		.loc 1 207 0
 133 0004 136C     		ldr	r3, [r2, #64]
 134              		.loc 1 201 0
 135 0006 70B4     		push	{r4, r5, r6}
 136              		.cfi_def_cfa_offset 12
 137              		.cfi_offset 4, -12
 138              		.cfi_offset 5, -8
 139              		.cfi_offset 6, -4
 140              		.loc 1 207 0
 141 0008 43F00103 		orr	r3, r3, #1
 142 000c 1364     		str	r3, [r2, #64]
 143              		.loc 1 210 0
 144 000e 8168     		ldr	r1, [r0, #8]
 145              		.loc 1 213 0
 146 0010 4FF08043 		mov	r3, #1073741824
 147              		.loc 1 215 0
 148 0014 0022     		movs	r2, #0
 149              		.loc 1 219 0
 150 0016 0124     		movs	r4, #1
 151              		.loc 1 210 0
 152 0018 41F00101 		orr	r1, r1, #1
 153              		.loc 1 213 0
 154 001c 42F2CF06 		movw	r6, #8399
 155              		.loc 1 214 0
 156 0020 4FF0FF35 		mov	r5, #-1
 157              		.loc 1 210 0
 158 0024 8160     		str	r1, [r0, #8]
 159              		.loc 1 213 0
 160 0026 9E62     		str	r6, [r3, #40]
 161              		.loc 1 223 0
 162 0028 0821     		movs	r1, #8
 163              		.loc 1 214 0
 164 002a DD62     		str	r5, [r3, #44]
 165              		.loc 1 223 0
 166 002c 1C20     		movs	r0, #28
 167              		.loc 1 215 0
 168 002e 9A61     		str	r2, [r3, #24]
 169              		.loc 1 216 0
 170 0030 5A63     		str	r2, [r3, #52]
 171              		.loc 1 217 0
ARM GAS  /tmp/ccqEPeKi.s 			page 4


 172 0032 DA60     		str	r2, [r3, #12]
 173              		.loc 1 218 0
 174 0034 5A60     		str	r2, [r3, #4]
 175              		.loc 1 219 0
 176 0036 5C61     		str	r4, [r3, #20]
 177              		.loc 1 220 0
 178 0038 1C60     		str	r4, [r3]
 179              		.loc 1 238 0
 180 003a 70BC     		pop	{r4, r5, r6}
 181              		.cfi_restore 6
 182              		.cfi_restore 5
 183              		.cfi_restore 4
 184              		.cfi_def_cfa_offset 0
 185              		.loc 1 223 0
 186 003c FFF7FEBF 		b	nvicEnableVector
 187              	.LVL6:
 188              	.L15:
 189              		.align	2
 190              	.L14:
 191 0040 00380240 		.word	1073887232
 192 0044 002004E0 		.word	-536600576
 193              		.cfi_endproc
 194              	.LFE261:
 195              		.size	st_lld_init, .-st_lld_init
 196              		.text
 197              	.Letext0:
 198              		.file 4 "/usr/lib/gcc/arm-none-eabi/7.3.1/include/stddef.h"
 199              		.file 5 "/usr/arm-none-eabi/include/machine/_default_types.h"
 200              		.file 6 "/usr/arm-none-eabi/include/sys/_stdint.h"
 201              		.file 7 "ChibiOS_3.0.2/os/rt/ports/ARMCMx/compilers/GCC/chtypes.h"
 202              		.file 8 "ChibiOS_3.0.2/os/rt/include/chsystypes.h"
 203              		.file 9 "ChibiOS_3.0.2/os/rt/include/chschd.h"
 204              		.file 10 "ChibiOS_3.0.2/os/ext/CMSIS/include/core_cm4.h"
 205              		.file 11 "ChibiOS_3.0.2/os/ext/CMSIS/ST/system_stm32f4xx.h"
 206              		.file 12 "ChibiOS_3.0.2/os/ext/CMSIS/ST/stm32f407xx.h"
 207              		.file 13 "ChibiOS_3.0.2/os/rt/ports/ARMCMx/chcore.h"
 208              		.file 14 "ChibiOS_3.0.2/os/rt/ports/ARMCMx/chcore_v7m.h"
 209              		.file 15 "ChibiOS_3.0.2/os/hal/ports/STM32/LLD/TIMv1/stm32_tim.h"
 210              		.file 16 "ChibiOS_3.0.2/os/rt/include/chtm.h"
 211              		.file 17 "ChibiOS_3.0.2/os/rt/include/chsem.h"
 212              		.file 18 "ChibiOS_3.0.2/os/rt/include/chmtx.h"
 213              		.file 19 "ChibiOS_3.0.2/os/rt/include/chregistry.h"
 214              		.file 20 "ChibiOS_3.0.2/os/rt/include/chqueues.h"
 215              		.file 21 "ChibiOS_3.0.2/os/hal/ports/STM32/STM32F4xx/stm32_dma.h"
 216              		.file 22 "ChibiOS_3.0.2/os/hal/ports/STM32/LLD/GPIOv2/pal_lld.h"
 217              		.file 23 "ChibiOS_3.0.2/os/hal/include/uart.h"
 218              		.file 24 "ChibiOS_3.0.2/os/hal/ports/STM32/LLD/USARTv1/uart_lld.h"
 219              		.file 25 "ChibiOS_3.0.2/os/hal/include/usb.h"
 220              		.file 26 "ChibiOS_3.0.2/os/hal/ports/STM32/LLD/OTGv1/usb_lld.h"
 221              		.file 27 "ChibiOS_3.0.2/os/hal/ports/STM32/LLD/OTGv1/stm32_otg.h"
 222              		.file 28 "ChibiOS_3.0.2/os/rt/include/chsys.h"
 223              		.file 29 "ChibiOS_3.0.2/os/hal/ports/common/ARMCMx/nvic.h"